ARM GAS  /var/folders/06/9k7gq4t13mj84z2yhw3grvhc0000gn/T//cc42QwbM.s 			page 1


   1              		.cpu cortex-m4
   2              		.arch armv7e-m
   3              		.fpu fpv4-sp-d16
   4              		.eabi_attribute 27, 1
   5              		.eabi_attribute 28, 1
   6              		.eabi_attribute 20, 1
   7              		.eabi_attribute 21, 1
   8              		.eabi_attribute 23, 3
   9              		.eabi_attribute 24, 1
  10              		.eabi_attribute 25, 1
  11              		.eabi_attribute 26, 1
  12              		.eabi_attribute 30, 6
  13              		.eabi_attribute 34, 1
  14              		.eabi_attribute 18, 4
  15              		.file	"gpio.c"
  16              		.text
  17              	.Ltext0:
  18              		.cfi_sections	.debug_frame
  19              		.file 1 "Core/Src/gpio.c"
  20              		.section	.text.MX_GPIO_Init,"ax",%progbits
  21              		.align	1
  22              		.global	MX_GPIO_Init
  23              		.syntax unified
  24              		.thumb
  25              		.thumb_func
  27              	MX_GPIO_Init:
  28              	.LFB137:
   1:Core/Src/gpio.c **** /* USER CODE BEGIN Header */
   2:Core/Src/gpio.c **** /**
   3:Core/Src/gpio.c ****   ******************************************************************************
   4:Core/Src/gpio.c ****   * @file    gpio.c
   5:Core/Src/gpio.c ****   * @brief   This file provides code for the configuration
   6:Core/Src/gpio.c ****   *          of all used GPIO pins.
   7:Core/Src/gpio.c ****   ******************************************************************************
   8:Core/Src/gpio.c ****   * @attention
   9:Core/Src/gpio.c ****   *
  10:Core/Src/gpio.c ****   * Copyright (c) 2024 STMicroelectronics.
  11:Core/Src/gpio.c ****   * All rights reserved.
  12:Core/Src/gpio.c ****   *
  13:Core/Src/gpio.c ****   * This software is licensed under terms that can be found in the LICENSE file
  14:Core/Src/gpio.c ****   * in the root directory of this software component.
  15:Core/Src/gpio.c ****   * If no LICENSE file comes with this software, it is provided AS-IS.
  16:Core/Src/gpio.c ****   *
  17:Core/Src/gpio.c ****   ******************************************************************************
  18:Core/Src/gpio.c ****   */
  19:Core/Src/gpio.c **** /* USER CODE END Header */
  20:Core/Src/gpio.c **** 
  21:Core/Src/gpio.c **** /* Includes ------------------------------------------------------------------*/
  22:Core/Src/gpio.c **** #include "gpio.h"
  23:Core/Src/gpio.c **** 
  24:Core/Src/gpio.c **** /* USER CODE BEGIN 0 */
  25:Core/Src/gpio.c **** 
  26:Core/Src/gpio.c **** /* USER CODE END 0 */
  27:Core/Src/gpio.c **** 
  28:Core/Src/gpio.c **** /*----------------------------------------------------------------------------*/
  29:Core/Src/gpio.c **** /* Configure GPIO                                                             */
  30:Core/Src/gpio.c **** /*----------------------------------------------------------------------------*/
ARM GAS  /var/folders/06/9k7gq4t13mj84z2yhw3grvhc0000gn/T//cc42QwbM.s 			page 2


  31:Core/Src/gpio.c **** /* USER CODE BEGIN 1 */
  32:Core/Src/gpio.c **** 
  33:Core/Src/gpio.c **** /* USER CODE END 1 */
  34:Core/Src/gpio.c **** 
  35:Core/Src/gpio.c **** /** Configure pins as
  36:Core/Src/gpio.c ****         * Analog
  37:Core/Src/gpio.c ****         * Input
  38:Core/Src/gpio.c ****         * Output
  39:Core/Src/gpio.c ****         * EVENT_OUT
  40:Core/Src/gpio.c ****         * EXTI
  41:Core/Src/gpio.c ****      PF7   ------> SPI5_SCK
  42:Core/Src/gpio.c ****      PF8   ------> SPI5_MISO
  43:Core/Src/gpio.c ****      PF9   ------> SPI5_MOSI
  44:Core/Src/gpio.c ****      PB12   ------> USB_OTG_HS_ID
  45:Core/Src/gpio.c ****      PB13   ------> USB_OTG_HS_VBUS
  46:Core/Src/gpio.c ****      PB14   ------> USB_OTG_HS_DM
  47:Core/Src/gpio.c ****      PB15   ------> USB_OTG_HS_DP
  48:Core/Src/gpio.c ****      PA9   ------> USART1_TX
  49:Core/Src/gpio.c ****      PA10   ------> USART1_RX
  50:Core/Src/gpio.c **** */
  51:Core/Src/gpio.c **** void MX_GPIO_Init(void)
  52:Core/Src/gpio.c **** {
  29              		.loc 1 52 1
  30              		.cfi_startproc
  31              		@ args = 0, pretend = 0, frame = 56
  32              		@ frame_needed = 1, uses_anonymous_args = 0
  33 0000 80B5     		push	{r7, lr}
  34              	.LCFI0:
  35              		.cfi_def_cfa_offset 8
  36              		.cfi_offset 7, -8
  37              		.cfi_offset 14, -4
  38 0002 8EB0     		sub	sp, sp, #56
  39              	.LCFI1:
  40              		.cfi_def_cfa_offset 64
  41 0004 00AF     		add	r7, sp, #0
  42              	.LCFI2:
  43              		.cfi_def_cfa_register 7
  53:Core/Src/gpio.c **** 
  54:Core/Src/gpio.c ****   GPIO_InitTypeDef GPIO_InitStruct = {0};
  44              		.loc 1 54 20
  45 0006 07F12403 		add	r3, r7, #36
  46 000a 0022     		movs	r2, #0
  47 000c 1A60     		str	r2, [r3]
  48 000e 5A60     		str	r2, [r3, #4]
  49 0010 9A60     		str	r2, [r3, #8]
  50 0012 DA60     		str	r2, [r3, #12]
  51 0014 1A61     		str	r2, [r3, #16]
  52              	.LBB2:
  55:Core/Src/gpio.c **** 
  56:Core/Src/gpio.c ****   /* GPIO Ports Clock Enable */
  57:Core/Src/gpio.c ****   __HAL_RCC_GPIOC_CLK_ENABLE();
  53              		.loc 1 57 3
  54 0016 0023     		movs	r3, #0
  55 0018 3B62     		str	r3, [r7, #32]
  56 001a 9B4B     		ldr	r3, .L2
  57 001c 1B6B     		ldr	r3, [r3, #48]
  58 001e 9A4A     		ldr	r2, .L2
ARM GAS  /var/folders/06/9k7gq4t13mj84z2yhw3grvhc0000gn/T//cc42QwbM.s 			page 3


  59 0020 43F00403 		orr	r3, r3, #4
  60 0024 1363     		str	r3, [r2, #48]
  61 0026 984B     		ldr	r3, .L2
  62 0028 1B6B     		ldr	r3, [r3, #48]
  63 002a 03F00403 		and	r3, r3, #4
  64 002e 3B62     		str	r3, [r7, #32]
  65 0030 3B6A     		ldr	r3, [r7, #32]
  66              	.LBE2:
  67              	.LBB3:
  58:Core/Src/gpio.c ****   __HAL_RCC_GPIOF_CLK_ENABLE();
  68              		.loc 1 58 3
  69 0032 0023     		movs	r3, #0
  70 0034 FB61     		str	r3, [r7, #28]
  71 0036 944B     		ldr	r3, .L2
  72 0038 1B6B     		ldr	r3, [r3, #48]
  73 003a 934A     		ldr	r2, .L2
  74 003c 43F02003 		orr	r3, r3, #32
  75 0040 1363     		str	r3, [r2, #48]
  76 0042 914B     		ldr	r3, .L2
  77 0044 1B6B     		ldr	r3, [r3, #48]
  78 0046 03F02003 		and	r3, r3, #32
  79 004a FB61     		str	r3, [r7, #28]
  80 004c FB69     		ldr	r3, [r7, #28]
  81              	.LBE3:
  82              	.LBB4:
  59:Core/Src/gpio.c ****   __HAL_RCC_GPIOH_CLK_ENABLE();
  83              		.loc 1 59 3
  84 004e 0023     		movs	r3, #0
  85 0050 BB61     		str	r3, [r7, #24]
  86 0052 8D4B     		ldr	r3, .L2
  87 0054 1B6B     		ldr	r3, [r3, #48]
  88 0056 8C4A     		ldr	r2, .L2
  89 0058 43F08003 		orr	r3, r3, #128
  90 005c 1363     		str	r3, [r2, #48]
  91 005e 8A4B     		ldr	r3, .L2
  92 0060 1B6B     		ldr	r3, [r3, #48]
  93 0062 03F08003 		and	r3, r3, #128
  94 0066 BB61     		str	r3, [r7, #24]
  95 0068 BB69     		ldr	r3, [r7, #24]
  96              	.LBE4:
  97              	.LBB5:
  60:Core/Src/gpio.c ****   __HAL_RCC_GPIOA_CLK_ENABLE();
  98              		.loc 1 60 3
  99 006a 0023     		movs	r3, #0
 100 006c 7B61     		str	r3, [r7, #20]
 101 006e 864B     		ldr	r3, .L2
 102 0070 1B6B     		ldr	r3, [r3, #48]
 103 0072 854A     		ldr	r2, .L2
 104 0074 43F00103 		orr	r3, r3, #1
 105 0078 1363     		str	r3, [r2, #48]
 106 007a 834B     		ldr	r3, .L2
 107 007c 1B6B     		ldr	r3, [r3, #48]
 108 007e 03F00103 		and	r3, r3, #1
 109 0082 7B61     		str	r3, [r7, #20]
 110 0084 7B69     		ldr	r3, [r7, #20]
 111              	.LBE5:
 112              	.LBB6:
ARM GAS  /var/folders/06/9k7gq4t13mj84z2yhw3grvhc0000gn/T//cc42QwbM.s 			page 4


  61:Core/Src/gpio.c ****   __HAL_RCC_GPIOB_CLK_ENABLE();
 113              		.loc 1 61 3
 114 0086 0023     		movs	r3, #0
 115 0088 3B61     		str	r3, [r7, #16]
 116 008a 7F4B     		ldr	r3, .L2
 117 008c 1B6B     		ldr	r3, [r3, #48]
 118 008e 7E4A     		ldr	r2, .L2
 119 0090 43F00203 		orr	r3, r3, #2
 120 0094 1363     		str	r3, [r2, #48]
 121 0096 7C4B     		ldr	r3, .L2
 122 0098 1B6B     		ldr	r3, [r3, #48]
 123 009a 03F00203 		and	r3, r3, #2
 124 009e 3B61     		str	r3, [r7, #16]
 125 00a0 3B69     		ldr	r3, [r7, #16]
 126              	.LBE6:
 127              	.LBB7:
  62:Core/Src/gpio.c ****   __HAL_RCC_GPIOG_CLK_ENABLE();
 128              		.loc 1 62 3
 129 00a2 0023     		movs	r3, #0
 130 00a4 FB60     		str	r3, [r7, #12]
 131 00a6 784B     		ldr	r3, .L2
 132 00a8 1B6B     		ldr	r3, [r3, #48]
 133 00aa 774A     		ldr	r2, .L2
 134 00ac 43F04003 		orr	r3, r3, #64
 135 00b0 1363     		str	r3, [r2, #48]
 136 00b2 754B     		ldr	r3, .L2
 137 00b4 1B6B     		ldr	r3, [r3, #48]
 138 00b6 03F04003 		and	r3, r3, #64
 139 00ba FB60     		str	r3, [r7, #12]
 140 00bc FB68     		ldr	r3, [r7, #12]
 141              	.LBE7:
 142              	.LBB8:
  63:Core/Src/gpio.c ****   __HAL_RCC_GPIOE_CLK_ENABLE();
 143              		.loc 1 63 3
 144 00be 0023     		movs	r3, #0
 145 00c0 BB60     		str	r3, [r7, #8]
 146 00c2 714B     		ldr	r3, .L2
 147 00c4 1B6B     		ldr	r3, [r3, #48]
 148 00c6 704A     		ldr	r2, .L2
 149 00c8 43F01003 		orr	r3, r3, #16
 150 00cc 1363     		str	r3, [r2, #48]
 151 00ce 6E4B     		ldr	r3, .L2
 152 00d0 1B6B     		ldr	r3, [r3, #48]
 153 00d2 03F01003 		and	r3, r3, #16
 154 00d6 BB60     		str	r3, [r7, #8]
 155 00d8 BB68     		ldr	r3, [r7, #8]
 156              	.LBE8:
 157              	.LBB9:
  64:Core/Src/gpio.c ****   __HAL_RCC_GPIOD_CLK_ENABLE();
 158              		.loc 1 64 3
 159 00da 0023     		movs	r3, #0
 160 00dc 7B60     		str	r3, [r7, #4]
 161 00de 6A4B     		ldr	r3, .L2
 162 00e0 1B6B     		ldr	r3, [r3, #48]
 163 00e2 694A     		ldr	r2, .L2
 164 00e4 43F00803 		orr	r3, r3, #8
 165 00e8 1363     		str	r3, [r2, #48]
ARM GAS  /var/folders/06/9k7gq4t13mj84z2yhw3grvhc0000gn/T//cc42QwbM.s 			page 5


 166 00ea 674B     		ldr	r3, .L2
 167 00ec 1B6B     		ldr	r3, [r3, #48]
 168 00ee 03F00803 		and	r3, r3, #8
 169 00f2 7B60     		str	r3, [r7, #4]
 170 00f4 7B68     		ldr	r3, [r7, #4]
 171              	.LBE9:
  65:Core/Src/gpio.c **** 
  66:Core/Src/gpio.c ****   /*Configure GPIO pin Output Level */
  67:Core/Src/gpio.c ****   HAL_GPIO_WritePin(GPIOC, NCS_MEMS_SPI_Pin|CSX_Pin|OTG_FS_PSO_Pin, GPIO_PIN_RESET);
 172              		.loc 1 67 3
 173 00f6 0022     		movs	r2, #0
 174 00f8 1621     		movs	r1, #22
 175 00fa 6448     		ldr	r0, .L2+4
 176 00fc FFF7FEFF 		bl	HAL_GPIO_WritePin
  68:Core/Src/gpio.c **** 
  69:Core/Src/gpio.c ****   /*Configure GPIO pin Output Level */
  70:Core/Src/gpio.c ****   HAL_GPIO_WritePin(ACP_RST_GPIO_Port, ACP_RST_Pin, GPIO_PIN_RESET);
 177              		.loc 1 70 3
 178 0100 0022     		movs	r2, #0
 179 0102 8021     		movs	r1, #128
 180 0104 6248     		ldr	r0, .L2+8
 181 0106 FFF7FEFF 		bl	HAL_GPIO_WritePin
  71:Core/Src/gpio.c **** 
  72:Core/Src/gpio.c ****   /*Configure GPIO pin Output Level */
  73:Core/Src/gpio.c ****   HAL_GPIO_WritePin(GPIOD, RDX_Pin|WRX_DCX_Pin, GPIO_PIN_RESET);
 182              		.loc 1 73 3
 183 010a 0022     		movs	r2, #0
 184 010c 4FF44051 		mov	r1, #12288
 185 0110 6048     		ldr	r0, .L2+12
 186 0112 FFF7FEFF 		bl	HAL_GPIO_WritePin
  74:Core/Src/gpio.c **** 
  75:Core/Src/gpio.c ****   /*Configure GPIO pin Output Level */
  76:Core/Src/gpio.c ****   HAL_GPIO_WritePin(GPIOG, LD3_Pin|LD4_Pin, GPIO_PIN_RESET);
 187              		.loc 1 76 3
 188 0116 0022     		movs	r2, #0
 189 0118 4FF4C041 		mov	r1, #24576
 190 011c 5E48     		ldr	r0, .L2+16
 191 011e FFF7FEFF 		bl	HAL_GPIO_WritePin
  77:Core/Src/gpio.c **** 
  78:Core/Src/gpio.c ****   /*Configure GPIO pins : PFPin PFPin PFPin */
  79:Core/Src/gpio.c ****   GPIO_InitStruct.Pin = SPI5_SCK_Pin|SPI5_MISO_Pin|SPI5_MOSI_Pin;
 192              		.loc 1 79 23
 193 0122 4FF46073 		mov	r3, #896
 194 0126 7B62     		str	r3, [r7, #36]
  80:Core/Src/gpio.c ****   GPIO_InitStruct.Mode = GPIO_MODE_AF_PP;
 195              		.loc 1 80 24
 196 0128 0223     		movs	r3, #2
 197 012a BB62     		str	r3, [r7, #40]
  81:Core/Src/gpio.c ****   GPIO_InitStruct.Pull = GPIO_NOPULL;
 198              		.loc 1 81 24
 199 012c 0023     		movs	r3, #0
 200 012e FB62     		str	r3, [r7, #44]
  82:Core/Src/gpio.c ****   GPIO_InitStruct.Speed = GPIO_SPEED_FREQ_LOW;
 201              		.loc 1 82 25
 202 0130 0023     		movs	r3, #0
 203 0132 3B63     		str	r3, [r7, #48]
  83:Core/Src/gpio.c ****   GPIO_InitStruct.Alternate = GPIO_AF5_SPI5;
ARM GAS  /var/folders/06/9k7gq4t13mj84z2yhw3grvhc0000gn/T//cc42QwbM.s 			page 6


 204              		.loc 1 83 29
 205 0134 0523     		movs	r3, #5
 206 0136 7B63     		str	r3, [r7, #52]
  84:Core/Src/gpio.c ****   HAL_GPIO_Init(GPIOF, &GPIO_InitStruct);
 207              		.loc 1 84 3
 208 0138 07F12403 		add	r3, r7, #36
 209 013c 1946     		mov	r1, r3
 210 013e 5748     		ldr	r0, .L2+20
 211 0140 FFF7FEFF 		bl	HAL_GPIO_Init
  85:Core/Src/gpio.c **** 
  86:Core/Src/gpio.c ****   /*Configure GPIO pins : PCPin PCPin PCPin */
  87:Core/Src/gpio.c ****   GPIO_InitStruct.Pin = NCS_MEMS_SPI_Pin|CSX_Pin|OTG_FS_PSO_Pin;
 212              		.loc 1 87 23
 213 0144 1623     		movs	r3, #22
 214 0146 7B62     		str	r3, [r7, #36]
  88:Core/Src/gpio.c ****   GPIO_InitStruct.Mode = GPIO_MODE_OUTPUT_PP;
 215              		.loc 1 88 24
 216 0148 0123     		movs	r3, #1
 217 014a BB62     		str	r3, [r7, #40]
  89:Core/Src/gpio.c ****   GPIO_InitStruct.Pull = GPIO_NOPULL;
 218              		.loc 1 89 24
 219 014c 0023     		movs	r3, #0
 220 014e FB62     		str	r3, [r7, #44]
  90:Core/Src/gpio.c ****   GPIO_InitStruct.Speed = GPIO_SPEED_FREQ_LOW;
 221              		.loc 1 90 25
 222 0150 0023     		movs	r3, #0
 223 0152 3B63     		str	r3, [r7, #48]
  91:Core/Src/gpio.c ****   HAL_GPIO_Init(GPIOC, &GPIO_InitStruct);
 224              		.loc 1 91 3
 225 0154 07F12403 		add	r3, r7, #36
 226 0158 1946     		mov	r1, r3
 227 015a 4C48     		ldr	r0, .L2+4
 228 015c FFF7FEFF 		bl	HAL_GPIO_Init
  92:Core/Src/gpio.c **** 
  93:Core/Src/gpio.c ****   /*Configure GPIO pins : PAPin PAPin PAPin PAPin */
  94:Core/Src/gpio.c ****   GPIO_InitStruct.Pin = B1_Pin|MEMS_INT1_Pin|MEMS_INT2_Pin|TP_INT1_Pin;
 229              		.loc 1 94 23
 230 0160 48F20703 		movw	r3, #32775
 231 0164 7B62     		str	r3, [r7, #36]
  95:Core/Src/gpio.c ****   GPIO_InitStruct.Mode = GPIO_MODE_EVT_RISING;
 232              		.loc 1 95 24
 233 0166 4FF49013 		mov	r3, #1179648
 234 016a BB62     		str	r3, [r7, #40]
  96:Core/Src/gpio.c ****   GPIO_InitStruct.Pull = GPIO_NOPULL;
 235              		.loc 1 96 24
 236 016c 0023     		movs	r3, #0
 237 016e FB62     		str	r3, [r7, #44]
  97:Core/Src/gpio.c ****   HAL_GPIO_Init(GPIOA, &GPIO_InitStruct);
 238              		.loc 1 97 3
 239 0170 07F12403 		add	r3, r7, #36
 240 0174 1946     		mov	r1, r3
 241 0176 4648     		ldr	r0, .L2+8
 242 0178 FFF7FEFF 		bl	HAL_GPIO_Init
  98:Core/Src/gpio.c **** 
  99:Core/Src/gpio.c ****   /*Configure GPIO pin : PtPin */
 100:Core/Src/gpio.c ****   GPIO_InitStruct.Pin = ACP_RST_Pin;
 243              		.loc 1 100 23
ARM GAS  /var/folders/06/9k7gq4t13mj84z2yhw3grvhc0000gn/T//cc42QwbM.s 			page 7


 244 017c 8023     		movs	r3, #128
 245 017e 7B62     		str	r3, [r7, #36]
 101:Core/Src/gpio.c ****   GPIO_InitStruct.Mode = GPIO_MODE_OUTPUT_PP;
 246              		.loc 1 101 24
 247 0180 0123     		movs	r3, #1
 248 0182 BB62     		str	r3, [r7, #40]
 102:Core/Src/gpio.c ****   GPIO_InitStruct.Pull = GPIO_NOPULL;
 249              		.loc 1 102 24
 250 0184 0023     		movs	r3, #0
 251 0186 FB62     		str	r3, [r7, #44]
 103:Core/Src/gpio.c ****   GPIO_InitStruct.Speed = GPIO_SPEED_FREQ_LOW;
 252              		.loc 1 103 25
 253 0188 0023     		movs	r3, #0
 254 018a 3B63     		str	r3, [r7, #48]
 104:Core/Src/gpio.c ****   HAL_GPIO_Init(ACP_RST_GPIO_Port, &GPIO_InitStruct);
 255              		.loc 1 104 3
 256 018c 07F12403 		add	r3, r7, #36
 257 0190 1946     		mov	r1, r3
 258 0192 3F48     		ldr	r0, .L2+8
 259 0194 FFF7FEFF 		bl	HAL_GPIO_Init
 105:Core/Src/gpio.c **** 
 106:Core/Src/gpio.c ****   /*Configure GPIO pin : PtPin */
 107:Core/Src/gpio.c ****   GPIO_InitStruct.Pin = OTG_FS_OC_Pin;
 260              		.loc 1 107 23
 261 0198 2023     		movs	r3, #32
 262 019a 7B62     		str	r3, [r7, #36]
 108:Core/Src/gpio.c ****   GPIO_InitStruct.Mode = GPIO_MODE_EVT_RISING;
 263              		.loc 1 108 24
 264 019c 4FF49013 		mov	r3, #1179648
 265 01a0 BB62     		str	r3, [r7, #40]
 109:Core/Src/gpio.c ****   GPIO_InitStruct.Pull = GPIO_NOPULL;
 266              		.loc 1 109 24
 267 01a2 0023     		movs	r3, #0
 268 01a4 FB62     		str	r3, [r7, #44]
 110:Core/Src/gpio.c ****   HAL_GPIO_Init(OTG_FS_OC_GPIO_Port, &GPIO_InitStruct);
 269              		.loc 1 110 3
 270 01a6 07F12403 		add	r3, r7, #36
 271 01aa 1946     		mov	r1, r3
 272 01ac 3748     		ldr	r0, .L2+4
 273 01ae FFF7FEFF 		bl	HAL_GPIO_Init
 111:Core/Src/gpio.c **** 
 112:Core/Src/gpio.c ****   /*Configure GPIO pin : PtPin */
 113:Core/Src/gpio.c ****   GPIO_InitStruct.Pin = BOOT1_Pin;
 274              		.loc 1 113 23
 275 01b2 0423     		movs	r3, #4
 276 01b4 7B62     		str	r3, [r7, #36]
 114:Core/Src/gpio.c ****   GPIO_InitStruct.Mode = GPIO_MODE_INPUT;
 277              		.loc 1 114 24
 278 01b6 0023     		movs	r3, #0
 279 01b8 BB62     		str	r3, [r7, #40]
 115:Core/Src/gpio.c ****   GPIO_InitStruct.Pull = GPIO_NOPULL;
 280              		.loc 1 115 24
 281 01ba 0023     		movs	r3, #0
 282 01bc FB62     		str	r3, [r7, #44]
 116:Core/Src/gpio.c ****   HAL_GPIO_Init(BOOT1_GPIO_Port, &GPIO_InitStruct);
 283              		.loc 1 116 3
 284 01be 07F12403 		add	r3, r7, #36
ARM GAS  /var/folders/06/9k7gq4t13mj84z2yhw3grvhc0000gn/T//cc42QwbM.s 			page 8


 285 01c2 1946     		mov	r1, r3
 286 01c4 3648     		ldr	r0, .L2+24
 287 01c6 FFF7FEFF 		bl	HAL_GPIO_Init
 117:Core/Src/gpio.c **** 
 118:Core/Src/gpio.c ****   /*Configure GPIO pins : PBPin PBPin PBPin */
 119:Core/Src/gpio.c ****   GPIO_InitStruct.Pin = OTG_HS_ID_Pin|OTG_HS_DM_Pin|OTG_HS_DP_Pin;
 288              		.loc 1 119 23
 289 01ca 4FF45043 		mov	r3, #53248
 290 01ce 7B62     		str	r3, [r7, #36]
 120:Core/Src/gpio.c ****   GPIO_InitStruct.Mode = GPIO_MODE_AF_PP;
 291              		.loc 1 120 24
 292 01d0 0223     		movs	r3, #2
 293 01d2 BB62     		str	r3, [r7, #40]
 121:Core/Src/gpio.c ****   GPIO_InitStruct.Pull = GPIO_NOPULL;
 294              		.loc 1 121 24
 295 01d4 0023     		movs	r3, #0
 296 01d6 FB62     		str	r3, [r7, #44]
 122:Core/Src/gpio.c ****   GPIO_InitStruct.Speed = GPIO_SPEED_FREQ_LOW;
 297              		.loc 1 122 25
 298 01d8 0023     		movs	r3, #0
 299 01da 3B63     		str	r3, [r7, #48]
 123:Core/Src/gpio.c ****   GPIO_InitStruct.Alternate = GPIO_AF12_OTG_HS_FS;
 300              		.loc 1 123 29
 301 01dc 0C23     		movs	r3, #12
 302 01de 7B63     		str	r3, [r7, #52]
 124:Core/Src/gpio.c ****   HAL_GPIO_Init(GPIOB, &GPIO_InitStruct);
 303              		.loc 1 124 3
 304 01e0 07F12403 		add	r3, r7, #36
 305 01e4 1946     		mov	r1, r3
 306 01e6 2E48     		ldr	r0, .L2+24
 307 01e8 FFF7FEFF 		bl	HAL_GPIO_Init
 125:Core/Src/gpio.c **** 
 126:Core/Src/gpio.c ****   /*Configure GPIO pin : PtPin */
 127:Core/Src/gpio.c ****   GPIO_InitStruct.Pin = VBUS_HS_Pin;
 308              		.loc 1 127 23
 309 01ec 4FF40053 		mov	r3, #8192
 310 01f0 7B62     		str	r3, [r7, #36]
 128:Core/Src/gpio.c ****   GPIO_InitStruct.Mode = GPIO_MODE_INPUT;
 311              		.loc 1 128 24
 312 01f2 0023     		movs	r3, #0
 313 01f4 BB62     		str	r3, [r7, #40]
 129:Core/Src/gpio.c ****   GPIO_InitStruct.Pull = GPIO_NOPULL;
 314              		.loc 1 129 24
 315 01f6 0023     		movs	r3, #0
 316 01f8 FB62     		str	r3, [r7, #44]
 130:Core/Src/gpio.c ****   HAL_GPIO_Init(VBUS_HS_GPIO_Port, &GPIO_InitStruct);
 317              		.loc 1 130 3
 318 01fa 07F12403 		add	r3, r7, #36
 319 01fe 1946     		mov	r1, r3
 320 0200 2748     		ldr	r0, .L2+24
 321 0202 FFF7FEFF 		bl	HAL_GPIO_Init
 131:Core/Src/gpio.c **** 
 132:Core/Src/gpio.c ****   /*Configure GPIO pin : PtPin */
 133:Core/Src/gpio.c ****   GPIO_InitStruct.Pin = TE_Pin;
 322              		.loc 1 133 23
 323 0206 4FF40063 		mov	r3, #2048
 324 020a 7B62     		str	r3, [r7, #36]
ARM GAS  /var/folders/06/9k7gq4t13mj84z2yhw3grvhc0000gn/T//cc42QwbM.s 			page 9


 134:Core/Src/gpio.c ****   GPIO_InitStruct.Mode = GPIO_MODE_INPUT;
 325              		.loc 1 134 24
 326 020c 0023     		movs	r3, #0
 327 020e BB62     		str	r3, [r7, #40]
 135:Core/Src/gpio.c ****   GPIO_InitStruct.Pull = GPIO_NOPULL;
 328              		.loc 1 135 24
 329 0210 0023     		movs	r3, #0
 330 0212 FB62     		str	r3, [r7, #44]
 136:Core/Src/gpio.c ****   HAL_GPIO_Init(TE_GPIO_Port, &GPIO_InitStruct);
 331              		.loc 1 136 3
 332 0214 07F12403 		add	r3, r7, #36
 333 0218 1946     		mov	r1, r3
 334 021a 1E48     		ldr	r0, .L2+12
 335 021c FFF7FEFF 		bl	HAL_GPIO_Init
 137:Core/Src/gpio.c **** 
 138:Core/Src/gpio.c ****   /*Configure GPIO pins : PDPin PDPin */
 139:Core/Src/gpio.c ****   GPIO_InitStruct.Pin = RDX_Pin|WRX_DCX_Pin;
 336              		.loc 1 139 23
 337 0220 4FF44053 		mov	r3, #12288
 338 0224 7B62     		str	r3, [r7, #36]
 140:Core/Src/gpio.c ****   GPIO_InitStruct.Mode = GPIO_MODE_OUTPUT_PP;
 339              		.loc 1 140 24
 340 0226 0123     		movs	r3, #1
 341 0228 BB62     		str	r3, [r7, #40]
 141:Core/Src/gpio.c ****   GPIO_InitStruct.Pull = GPIO_NOPULL;
 342              		.loc 1 141 24
 343 022a 0023     		movs	r3, #0
 344 022c FB62     		str	r3, [r7, #44]
 142:Core/Src/gpio.c ****   GPIO_InitStruct.Speed = GPIO_SPEED_FREQ_LOW;
 345              		.loc 1 142 25
 346 022e 0023     		movs	r3, #0
 347 0230 3B63     		str	r3, [r7, #48]
 143:Core/Src/gpio.c ****   HAL_GPIO_Init(GPIOD, &GPIO_InitStruct);
 348              		.loc 1 143 3
 349 0232 07F12403 		add	r3, r7, #36
 350 0236 1946     		mov	r1, r3
 351 0238 1648     		ldr	r0, .L2+12
 352 023a FFF7FEFF 		bl	HAL_GPIO_Init
 144:Core/Src/gpio.c **** 
 145:Core/Src/gpio.c ****   /*Configure GPIO pins : PAPin PAPin */
 146:Core/Src/gpio.c ****   GPIO_InitStruct.Pin = STLINK_RX_Pin|STLINK_TX_Pin;
 353              		.loc 1 146 23
 354 023e 4FF4C063 		mov	r3, #1536
 355 0242 7B62     		str	r3, [r7, #36]
 147:Core/Src/gpio.c ****   GPIO_InitStruct.Mode = GPIO_MODE_AF_PP;
 356              		.loc 1 147 24
 357 0244 0223     		movs	r3, #2
 358 0246 BB62     		str	r3, [r7, #40]
 148:Core/Src/gpio.c ****   GPIO_InitStruct.Pull = GPIO_NOPULL;
 359              		.loc 1 148 24
 360 0248 0023     		movs	r3, #0
 361 024a FB62     		str	r3, [r7, #44]
 149:Core/Src/gpio.c ****   GPIO_InitStruct.Speed = GPIO_SPEED_FREQ_VERY_HIGH;
 362              		.loc 1 149 25
 363 024c 0323     		movs	r3, #3
 364 024e 3B63     		str	r3, [r7, #48]
 150:Core/Src/gpio.c ****   GPIO_InitStruct.Alternate = GPIO_AF7_USART1;
ARM GAS  /var/folders/06/9k7gq4t13mj84z2yhw3grvhc0000gn/T//cc42QwbM.s 			page 10


 365              		.loc 1 150 29
 366 0250 0723     		movs	r3, #7
 367 0252 7B63     		str	r3, [r7, #52]
 151:Core/Src/gpio.c ****   HAL_GPIO_Init(GPIOA, &GPIO_InitStruct);
 368              		.loc 1 151 3
 369 0254 07F12403 		add	r3, r7, #36
 370 0258 1946     		mov	r1, r3
 371 025a 0D48     		ldr	r0, .L2+8
 372 025c FFF7FEFF 		bl	HAL_GPIO_Init
 152:Core/Src/gpio.c **** 
 153:Core/Src/gpio.c ****   /*Configure GPIO pins : PGPin PGPin */
 154:Core/Src/gpio.c ****   GPIO_InitStruct.Pin = LD3_Pin|LD4_Pin;
 373              		.loc 1 154 23
 374 0260 4FF4C043 		mov	r3, #24576
 375 0264 7B62     		str	r3, [r7, #36]
 155:Core/Src/gpio.c ****   GPIO_InitStruct.Mode = GPIO_MODE_OUTPUT_PP;
 376              		.loc 1 155 24
 377 0266 0123     		movs	r3, #1
 378 0268 BB62     		str	r3, [r7, #40]
 156:Core/Src/gpio.c ****   GPIO_InitStruct.Pull = GPIO_NOPULL;
 379              		.loc 1 156 24
 380 026a 0023     		movs	r3, #0
 381 026c FB62     		str	r3, [r7, #44]
 157:Core/Src/gpio.c ****   GPIO_InitStruct.Speed = GPIO_SPEED_FREQ_LOW;
 382              		.loc 1 157 25
 383 026e 0023     		movs	r3, #0
 384 0270 3B63     		str	r3, [r7, #48]
 158:Core/Src/gpio.c ****   HAL_GPIO_Init(GPIOG, &GPIO_InitStruct);
 385              		.loc 1 158 3
 386 0272 07F12403 		add	r3, r7, #36
 387 0276 1946     		mov	r1, r3
 388 0278 0748     		ldr	r0, .L2+16
 389 027a FFF7FEFF 		bl	HAL_GPIO_Init
 159:Core/Src/gpio.c **** 
 160:Core/Src/gpio.c **** }
 390              		.loc 1 160 1
 391 027e 00BF     		nop
 392 0280 3837     		adds	r7, r7, #56
 393              	.LCFI3:
 394              		.cfi_def_cfa_offset 8
 395 0282 BD46     		mov	sp, r7
 396              	.LCFI4:
 397              		.cfi_def_cfa_register 13
 398              		@ sp needed
 399 0284 80BD     		pop	{r7, pc}
 400              	.L3:
 401 0286 00BF     		.align	2
 402              	.L2:
 403 0288 00380240 		.word	1073887232
 404 028c 00080240 		.word	1073874944
 405 0290 00000240 		.word	1073872896
 406 0294 000C0240 		.word	1073875968
 407 0298 00180240 		.word	1073879040
 408 029c 00140240 		.word	1073878016
 409 02a0 00040240 		.word	1073873920
 410              		.cfi_endproc
 411              	.LFE137:
ARM GAS  /var/folders/06/9k7gq4t13mj84z2yhw3grvhc0000gn/T//cc42QwbM.s 			page 11


 413              		.text
 414              	.Letext0:
 415              		.file 2 "/Applications/ArmGNUToolchain/13.2.Rel1/arm-none-eabi/arm-none-eabi/include/machine/_defa
 416              		.file 3 "/Applications/ArmGNUToolchain/13.2.Rel1/arm-none-eabi/arm-none-eabi/include/sys/_stdint.h
 417              		.file 4 "Drivers/CMSIS/Device/ST/STM32F4xx/Include/stm32f429xx.h"
 418              		.file 5 "Drivers/STM32F4xx_HAL_Driver/Inc/stm32f4xx_hal_gpio.h"
ARM GAS  /var/folders/06/9k7gq4t13mj84z2yhw3grvhc0000gn/T//cc42QwbM.s 			page 12

