ARM GAS  /var/folders/06/9k7gq4t13mj84z2yhw3grvhc0000gn/T//ccyWpXuO.s 			page 1


   1              		.cpu cortex-m4
   2              		.arch armv7e-m
   3              		.fpu fpv4-sp-d16
   4              		.eabi_attribute 27, 1
   5              		.eabi_attribute 28, 1
   6              		.eabi_attribute 20, 1
   7              		.eabi_attribute 21, 1
   8              		.eabi_attribute 23, 3
   9              		.eabi_attribute 24, 1
  10              		.eabi_attribute 25, 1
  11              		.eabi_attribute 26, 1
  12              		.eabi_attribute 30, 6
  13              		.eabi_attribute 34, 1
  14              		.eabi_attribute 18, 4
  15              		.file	"ltdc.c"
  16              		.text
  17              	.Ltext0:
  18              		.cfi_sections	.debug_frame
  19              		.file 1 "Core/Src/ltdc.c"
  20              		.global	hltdc
  21              		.section	.bss.hltdc,"aw",%nobits
  22              		.align	2
  25              	hltdc:
  26 0000 00000000 		.space	168
  26      00000000 
  26      00000000 
  26      00000000 
  26      00000000 
  27              		.section	.text.MX_LTDC_Init,"ax",%progbits
  28              		.align	1
  29              		.global	MX_LTDC_Init
  30              		.syntax unified
  31              		.thumb
  32              		.thumb_func
  34              	MX_LTDC_Init:
  35              	.LFB137:
   1:Core/Src/ltdc.c **** /* USER CODE BEGIN Header */
   2:Core/Src/ltdc.c **** /**
   3:Core/Src/ltdc.c ****   ******************************************************************************
   4:Core/Src/ltdc.c ****   * @file    ltdc.c
   5:Core/Src/ltdc.c ****   * @brief   This file provides code for the configuration
   6:Core/Src/ltdc.c ****   *          of the LTDC instances.
   7:Core/Src/ltdc.c ****   ******************************************************************************
   8:Core/Src/ltdc.c ****   * @attention
   9:Core/Src/ltdc.c ****   *
  10:Core/Src/ltdc.c ****   * Copyright (c) 2024 STMicroelectronics.
  11:Core/Src/ltdc.c ****   * All rights reserved.
  12:Core/Src/ltdc.c ****   *
  13:Core/Src/ltdc.c ****   * This software is licensed under terms that can be found in the LICENSE file
  14:Core/Src/ltdc.c ****   * in the root directory of this software component.
  15:Core/Src/ltdc.c ****   * If no LICENSE file comes with this software, it is provided AS-IS.
  16:Core/Src/ltdc.c ****   *
  17:Core/Src/ltdc.c ****   ******************************************************************************
  18:Core/Src/ltdc.c ****   */
  19:Core/Src/ltdc.c **** /* USER CODE END Header */
  20:Core/Src/ltdc.c **** /* Includes ------------------------------------------------------------------*/
  21:Core/Src/ltdc.c **** #include "ltdc.h"
ARM GAS  /var/folders/06/9k7gq4t13mj84z2yhw3grvhc0000gn/T//ccyWpXuO.s 			page 2


  22:Core/Src/ltdc.c **** 
  23:Core/Src/ltdc.c **** /* USER CODE BEGIN 0 */
  24:Core/Src/ltdc.c **** 
  25:Core/Src/ltdc.c **** /* USER CODE END 0 */
  26:Core/Src/ltdc.c **** 
  27:Core/Src/ltdc.c **** LTDC_HandleTypeDef hltdc;
  28:Core/Src/ltdc.c **** 
  29:Core/Src/ltdc.c **** /* LTDC init function */
  30:Core/Src/ltdc.c **** void MX_LTDC_Init(void)
  31:Core/Src/ltdc.c **** {
  36              		.loc 1 31 1
  37              		.cfi_startproc
  38              		@ args = 0, pretend = 0, frame = 104
  39              		@ frame_needed = 1, uses_anonymous_args = 0
  40 0000 80B5     		push	{r7, lr}
  41              	.LCFI0:
  42              		.cfi_def_cfa_offset 8
  43              		.cfi_offset 7, -8
  44              		.cfi_offset 14, -4
  45 0002 9AB0     		sub	sp, sp, #104
  46              	.LCFI1:
  47              		.cfi_def_cfa_offset 112
  48 0004 00AF     		add	r7, sp, #0
  49              	.LCFI2:
  50              		.cfi_def_cfa_register 7
  32:Core/Src/ltdc.c **** 
  33:Core/Src/ltdc.c ****   /* USER CODE BEGIN LTDC_Init 0 */
  34:Core/Src/ltdc.c **** 
  35:Core/Src/ltdc.c ****   /* USER CODE END LTDC_Init 0 */
  36:Core/Src/ltdc.c **** 
  37:Core/Src/ltdc.c ****   LTDC_LayerCfgTypeDef pLayerCfg = {0};
  51              		.loc 1 37 24
  52 0006 07F13403 		add	r3, r7, #52
  53 000a 3422     		movs	r2, #52
  54 000c 0021     		movs	r1, #0
  55 000e 1846     		mov	r0, r3
  56 0010 FFF7FEFF 		bl	memset
  38:Core/Src/ltdc.c ****   LTDC_LayerCfgTypeDef pLayerCfg1 = {0};
  57              		.loc 1 38 24
  58 0014 3B46     		mov	r3, r7
  59 0016 3422     		movs	r2, #52
  60 0018 0021     		movs	r1, #0
  61 001a 1846     		mov	r0, r3
  62 001c FFF7FEFF 		bl	memset
  39:Core/Src/ltdc.c **** 
  40:Core/Src/ltdc.c ****   /* USER CODE BEGIN LTDC_Init 1 */
  41:Core/Src/ltdc.c **** 
  42:Core/Src/ltdc.c ****   /* USER CODE END LTDC_Init 1 */
  43:Core/Src/ltdc.c ****   hltdc.Instance = LTDC;
  63              		.loc 1 43 18
  64 0020 4E4B     		ldr	r3, .L6
  65 0022 4F4A     		ldr	r2, .L6+4
  66 0024 1A60     		str	r2, [r3]
  44:Core/Src/ltdc.c ****   hltdc.Init.HSPolarity = LTDC_HSPOLARITY_AL;
  67              		.loc 1 44 25
  68 0026 4D4B     		ldr	r3, .L6
  69 0028 0022     		movs	r2, #0
ARM GAS  /var/folders/06/9k7gq4t13mj84z2yhw3grvhc0000gn/T//ccyWpXuO.s 			page 3


  70 002a 5A60     		str	r2, [r3, #4]
  45:Core/Src/ltdc.c ****   hltdc.Init.VSPolarity = LTDC_VSPOLARITY_AL;
  71              		.loc 1 45 25
  72 002c 4B4B     		ldr	r3, .L6
  73 002e 0022     		movs	r2, #0
  74 0030 9A60     		str	r2, [r3, #8]
  46:Core/Src/ltdc.c ****   hltdc.Init.DEPolarity = LTDC_DEPOLARITY_AL;
  75              		.loc 1 46 25
  76 0032 4A4B     		ldr	r3, .L6
  77 0034 0022     		movs	r2, #0
  78 0036 DA60     		str	r2, [r3, #12]
  47:Core/Src/ltdc.c ****   hltdc.Init.PCPolarity = LTDC_PCPOLARITY_IPC;
  79              		.loc 1 47 25
  80 0038 484B     		ldr	r3, .L6
  81 003a 0022     		movs	r2, #0
  82 003c 1A61     		str	r2, [r3, #16]
  48:Core/Src/ltdc.c ****   hltdc.Init.HorizontalSync = 7;
  83              		.loc 1 48 29
  84 003e 474B     		ldr	r3, .L6
  85 0040 0722     		movs	r2, #7
  86 0042 5A61     		str	r2, [r3, #20]
  49:Core/Src/ltdc.c ****   hltdc.Init.VerticalSync = 3;
  87              		.loc 1 49 27
  88 0044 454B     		ldr	r3, .L6
  89 0046 0322     		movs	r2, #3
  90 0048 9A61     		str	r2, [r3, #24]
  50:Core/Src/ltdc.c ****   hltdc.Init.AccumulatedHBP = 14;
  91              		.loc 1 50 29
  92 004a 444B     		ldr	r3, .L6
  93 004c 0E22     		movs	r2, #14
  94 004e DA61     		str	r2, [r3, #28]
  51:Core/Src/ltdc.c ****   hltdc.Init.AccumulatedVBP = 5;
  95              		.loc 1 51 29
  96 0050 424B     		ldr	r3, .L6
  97 0052 0522     		movs	r2, #5
  98 0054 1A62     		str	r2, [r3, #32]
  52:Core/Src/ltdc.c ****   hltdc.Init.AccumulatedActiveW = 654;
  99              		.loc 1 52 33
 100 0056 414B     		ldr	r3, .L6
 101 0058 40F28E22 		movw	r2, #654
 102 005c 5A62     		str	r2, [r3, #36]
  53:Core/Src/ltdc.c ****   hltdc.Init.AccumulatedActiveH = 485;
 103              		.loc 1 53 33
 104 005e 3F4B     		ldr	r3, .L6
 105 0060 40F2E512 		movw	r2, #485
 106 0064 9A62     		str	r2, [r3, #40]
  54:Core/Src/ltdc.c ****   hltdc.Init.TotalWidth = 660;
 107              		.loc 1 54 25
 108 0066 3D4B     		ldr	r3, .L6
 109 0068 4FF42572 		mov	r2, #660
 110 006c DA62     		str	r2, [r3, #44]
  55:Core/Src/ltdc.c ****   hltdc.Init.TotalHeigh = 487;
 111              		.loc 1 55 25
 112 006e 3B4B     		ldr	r3, .L6
 113 0070 40F2E712 		movw	r2, #487
 114 0074 1A63     		str	r2, [r3, #48]
  56:Core/Src/ltdc.c ****   hltdc.Init.Backcolor.Blue = 0;
ARM GAS  /var/folders/06/9k7gq4t13mj84z2yhw3grvhc0000gn/T//ccyWpXuO.s 			page 4


 115              		.loc 1 56 29
 116 0076 394B     		ldr	r3, .L6
 117 0078 0022     		movs	r2, #0
 118 007a 83F83420 		strb	r2, [r3, #52]
  57:Core/Src/ltdc.c ****   hltdc.Init.Backcolor.Green = 0;
 119              		.loc 1 57 30
 120 007e 374B     		ldr	r3, .L6
 121 0080 0022     		movs	r2, #0
 122 0082 83F83520 		strb	r2, [r3, #53]
  58:Core/Src/ltdc.c ****   hltdc.Init.Backcolor.Red = 0;
 123              		.loc 1 58 28
 124 0086 354B     		ldr	r3, .L6
 125 0088 0022     		movs	r2, #0
 126 008a 83F83620 		strb	r2, [r3, #54]
  59:Core/Src/ltdc.c ****   if (HAL_LTDC_Init(&hltdc) != HAL_OK)
 127              		.loc 1 59 7
 128 008e 3348     		ldr	r0, .L6
 129 0090 FFF7FEFF 		bl	HAL_LTDC_Init
 130 0094 0346     		mov	r3, r0
 131              		.loc 1 59 6 discriminator 1
 132 0096 002B     		cmp	r3, #0
 133 0098 01D0     		beq	.L2
  60:Core/Src/ltdc.c ****   {
  61:Core/Src/ltdc.c ****     Error_Handler();
 134              		.loc 1 61 5
 135 009a FFF7FEFF 		bl	Error_Handler
 136              	.L2:
  62:Core/Src/ltdc.c ****   }
  63:Core/Src/ltdc.c ****   pLayerCfg.WindowX0 = 0;
 137              		.loc 1 63 22
 138 009e 0023     		movs	r3, #0
 139 00a0 7B63     		str	r3, [r7, #52]
  64:Core/Src/ltdc.c ****   pLayerCfg.WindowX1 = 0;
 140              		.loc 1 64 22
 141 00a2 0023     		movs	r3, #0
 142 00a4 BB63     		str	r3, [r7, #56]
  65:Core/Src/ltdc.c ****   pLayerCfg.WindowY0 = 0;
 143              		.loc 1 65 22
 144 00a6 0023     		movs	r3, #0
 145 00a8 FB63     		str	r3, [r7, #60]
  66:Core/Src/ltdc.c ****   pLayerCfg.WindowY1 = 0;
 146              		.loc 1 66 22
 147 00aa 0023     		movs	r3, #0
 148 00ac 3B64     		str	r3, [r7, #64]
  67:Core/Src/ltdc.c ****   pLayerCfg.PixelFormat = LTDC_PIXEL_FORMAT_ARGB8888;
 149              		.loc 1 67 25
 150 00ae 0023     		movs	r3, #0
 151 00b0 7B64     		str	r3, [r7, #68]
  68:Core/Src/ltdc.c ****   pLayerCfg.Alpha = 0;
 152              		.loc 1 68 19
 153 00b2 0023     		movs	r3, #0
 154 00b4 BB64     		str	r3, [r7, #72]
  69:Core/Src/ltdc.c ****   pLayerCfg.Alpha0 = 0;
 155              		.loc 1 69 20
 156 00b6 0023     		movs	r3, #0
 157 00b8 FB64     		str	r3, [r7, #76]
  70:Core/Src/ltdc.c ****   pLayerCfg.BlendingFactor1 = LTDC_BLENDING_FACTOR1_CA;
ARM GAS  /var/folders/06/9k7gq4t13mj84z2yhw3grvhc0000gn/T//ccyWpXuO.s 			page 5


 158              		.loc 1 70 29
 159 00ba 4FF48063 		mov	r3, #1024
 160 00be 3B65     		str	r3, [r7, #80]
  71:Core/Src/ltdc.c ****   pLayerCfg.BlendingFactor2 = LTDC_BLENDING_FACTOR2_CA;
 161              		.loc 1 71 29
 162 00c0 0523     		movs	r3, #5
 163 00c2 7B65     		str	r3, [r7, #84]
  72:Core/Src/ltdc.c ****   pLayerCfg.FBStartAdress = 0;
 164              		.loc 1 72 27
 165 00c4 0023     		movs	r3, #0
 166 00c6 BB65     		str	r3, [r7, #88]
  73:Core/Src/ltdc.c ****   pLayerCfg.ImageWidth = 0;
 167              		.loc 1 73 24
 168 00c8 0023     		movs	r3, #0
 169 00ca FB65     		str	r3, [r7, #92]
  74:Core/Src/ltdc.c ****   pLayerCfg.ImageHeight = 0;
 170              		.loc 1 74 25
 171 00cc 0023     		movs	r3, #0
 172 00ce 3B66     		str	r3, [r7, #96]
  75:Core/Src/ltdc.c ****   pLayerCfg.Backcolor.Blue = 0;
 173              		.loc 1 75 28
 174 00d0 0023     		movs	r3, #0
 175 00d2 87F86430 		strb	r3, [r7, #100]
  76:Core/Src/ltdc.c ****   pLayerCfg.Backcolor.Green = 0;
 176              		.loc 1 76 29
 177 00d6 0023     		movs	r3, #0
 178 00d8 87F86530 		strb	r3, [r7, #101]
  77:Core/Src/ltdc.c ****   pLayerCfg.Backcolor.Red = 0;
 179              		.loc 1 77 27
 180 00dc 0023     		movs	r3, #0
 181 00de 87F86630 		strb	r3, [r7, #102]
  78:Core/Src/ltdc.c ****   if (HAL_LTDC_ConfigLayer(&hltdc, &pLayerCfg, 0) != HAL_OK)
 182              		.loc 1 78 7
 183 00e2 07F13403 		add	r3, r7, #52
 184 00e6 0022     		movs	r2, #0
 185 00e8 1946     		mov	r1, r3
 186 00ea 1C48     		ldr	r0, .L6
 187 00ec FFF7FEFF 		bl	HAL_LTDC_ConfigLayer
 188 00f0 0346     		mov	r3, r0
 189              		.loc 1 78 6 discriminator 1
 190 00f2 002B     		cmp	r3, #0
 191 00f4 01D0     		beq	.L3
  79:Core/Src/ltdc.c ****   {
  80:Core/Src/ltdc.c ****     Error_Handler();
 192              		.loc 1 80 5
 193 00f6 FFF7FEFF 		bl	Error_Handler
 194              	.L3:
  81:Core/Src/ltdc.c ****   }
  82:Core/Src/ltdc.c ****   pLayerCfg1.WindowX0 = 0;
 195              		.loc 1 82 23
 196 00fa 0023     		movs	r3, #0
 197 00fc 3B60     		str	r3, [r7]
  83:Core/Src/ltdc.c ****   pLayerCfg1.WindowX1 = 0;
 198              		.loc 1 83 23
 199 00fe 0023     		movs	r3, #0
 200 0100 7B60     		str	r3, [r7, #4]
  84:Core/Src/ltdc.c ****   pLayerCfg1.WindowY0 = 0;
ARM GAS  /var/folders/06/9k7gq4t13mj84z2yhw3grvhc0000gn/T//ccyWpXuO.s 			page 6


 201              		.loc 1 84 23
 202 0102 0023     		movs	r3, #0
 203 0104 BB60     		str	r3, [r7, #8]
  85:Core/Src/ltdc.c ****   pLayerCfg1.WindowY1 = 0;
 204              		.loc 1 85 23
 205 0106 0023     		movs	r3, #0
 206 0108 FB60     		str	r3, [r7, #12]
  86:Core/Src/ltdc.c ****   pLayerCfg1.PixelFormat = LTDC_PIXEL_FORMAT_ARGB8888;
 207              		.loc 1 86 26
 208 010a 0023     		movs	r3, #0
 209 010c 3B61     		str	r3, [r7, #16]
  87:Core/Src/ltdc.c ****   pLayerCfg1.Alpha = 0;
 210              		.loc 1 87 20
 211 010e 0023     		movs	r3, #0
 212 0110 7B61     		str	r3, [r7, #20]
  88:Core/Src/ltdc.c ****   pLayerCfg1.Alpha0 = 0;
 213              		.loc 1 88 21
 214 0112 0023     		movs	r3, #0
 215 0114 BB61     		str	r3, [r7, #24]
  89:Core/Src/ltdc.c ****   pLayerCfg1.BlendingFactor1 = LTDC_BLENDING_FACTOR1_CA;
 216              		.loc 1 89 30
 217 0116 4FF48063 		mov	r3, #1024
 218 011a FB61     		str	r3, [r7, #28]
  90:Core/Src/ltdc.c ****   pLayerCfg1.BlendingFactor2 = LTDC_BLENDING_FACTOR2_CA;
 219              		.loc 1 90 30
 220 011c 0523     		movs	r3, #5
 221 011e 3B62     		str	r3, [r7, #32]
  91:Core/Src/ltdc.c ****   pLayerCfg1.FBStartAdress = 0;
 222              		.loc 1 91 28
 223 0120 0023     		movs	r3, #0
 224 0122 7B62     		str	r3, [r7, #36]
  92:Core/Src/ltdc.c ****   pLayerCfg1.ImageWidth = 0;
 225              		.loc 1 92 25
 226 0124 0023     		movs	r3, #0
 227 0126 BB62     		str	r3, [r7, #40]
  93:Core/Src/ltdc.c ****   pLayerCfg1.ImageHeight = 0;
 228              		.loc 1 93 26
 229 0128 0023     		movs	r3, #0
 230 012a FB62     		str	r3, [r7, #44]
  94:Core/Src/ltdc.c ****   pLayerCfg1.Backcolor.Blue = 0;
 231              		.loc 1 94 29
 232 012c 0023     		movs	r3, #0
 233 012e 87F83030 		strb	r3, [r7, #48]
  95:Core/Src/ltdc.c ****   pLayerCfg1.Backcolor.Green = 0;
 234              		.loc 1 95 30
 235 0132 0023     		movs	r3, #0
 236 0134 87F83130 		strb	r3, [r7, #49]
  96:Core/Src/ltdc.c ****   pLayerCfg1.Backcolor.Red = 0;
 237              		.loc 1 96 28
 238 0138 0023     		movs	r3, #0
 239 013a 87F83230 		strb	r3, [r7, #50]
  97:Core/Src/ltdc.c ****   if (HAL_LTDC_ConfigLayer(&hltdc, &pLayerCfg1, 1) != HAL_OK)
 240              		.loc 1 97 7
 241 013e 3B46     		mov	r3, r7
 242 0140 0122     		movs	r2, #1
 243 0142 1946     		mov	r1, r3
 244 0144 0548     		ldr	r0, .L6
ARM GAS  /var/folders/06/9k7gq4t13mj84z2yhw3grvhc0000gn/T//ccyWpXuO.s 			page 7


 245 0146 FFF7FEFF 		bl	HAL_LTDC_ConfigLayer
 246 014a 0346     		mov	r3, r0
 247              		.loc 1 97 6 discriminator 1
 248 014c 002B     		cmp	r3, #0
 249 014e 01D0     		beq	.L5
  98:Core/Src/ltdc.c ****   {
  99:Core/Src/ltdc.c ****     Error_Handler();
 250              		.loc 1 99 5
 251 0150 FFF7FEFF 		bl	Error_Handler
 252              	.L5:
 100:Core/Src/ltdc.c ****   }
 101:Core/Src/ltdc.c ****   /* USER CODE BEGIN LTDC_Init 2 */
 102:Core/Src/ltdc.c **** 
 103:Core/Src/ltdc.c ****   /* USER CODE END LTDC_Init 2 */
 104:Core/Src/ltdc.c **** 
 105:Core/Src/ltdc.c **** }
 253              		.loc 1 105 1
 254 0154 00BF     		nop
 255 0156 6837     		adds	r7, r7, #104
 256              	.LCFI3:
 257              		.cfi_def_cfa_offset 8
 258 0158 BD46     		mov	sp, r7
 259              	.LCFI4:
 260              		.cfi_def_cfa_register 13
 261              		@ sp needed
 262 015a 80BD     		pop	{r7, pc}
 263              	.L7:
 264              		.align	2
 265              	.L6:
 266 015c 00000000 		.word	hltdc
 267 0160 00680140 		.word	1073833984
 268              		.cfi_endproc
 269              	.LFE137:
 271              		.section	.text.HAL_LTDC_MspInit,"ax",%progbits
 272              		.align	1
 273              		.global	HAL_LTDC_MspInit
 274              		.syntax unified
 275              		.thumb
 276              		.thumb_func
 278              	HAL_LTDC_MspInit:
 279              	.LFB138:
 106:Core/Src/ltdc.c **** 
 107:Core/Src/ltdc.c **** void HAL_LTDC_MspInit(LTDC_HandleTypeDef* ltdcHandle)
 108:Core/Src/ltdc.c **** {
 280              		.loc 1 108 1
 281              		.cfi_startproc
 282              		@ args = 0, pretend = 0, frame = 104
 283              		@ frame_needed = 1, uses_anonymous_args = 0
 284 0000 80B5     		push	{r7, lr}
 285              	.LCFI5:
 286              		.cfi_def_cfa_offset 8
 287              		.cfi_offset 7, -8
 288              		.cfi_offset 14, -4
 289 0002 9AB0     		sub	sp, sp, #104
 290              	.LCFI6:
 291              		.cfi_def_cfa_offset 112
 292 0004 00AF     		add	r7, sp, #0
ARM GAS  /var/folders/06/9k7gq4t13mj84z2yhw3grvhc0000gn/T//ccyWpXuO.s 			page 8


 293              	.LCFI7:
 294              		.cfi_def_cfa_register 7
 295 0006 7860     		str	r0, [r7, #4]
 109:Core/Src/ltdc.c **** 
 110:Core/Src/ltdc.c ****   GPIO_InitTypeDef GPIO_InitStruct = {0};
 296              		.loc 1 110 20
 297 0008 07F15403 		add	r3, r7, #84
 298 000c 0022     		movs	r2, #0
 299 000e 1A60     		str	r2, [r3]
 300 0010 5A60     		str	r2, [r3, #4]
 301 0012 9A60     		str	r2, [r3, #8]
 302 0014 DA60     		str	r2, [r3, #12]
 303 0016 1A61     		str	r2, [r3, #16]
 111:Core/Src/ltdc.c ****   RCC_PeriphCLKInitTypeDef PeriphClkInitStruct = {0};
 304              		.loc 1 111 28
 305 0018 07F12403 		add	r3, r7, #36
 306 001c 3022     		movs	r2, #48
 307 001e 0021     		movs	r1, #0
 308 0020 1846     		mov	r0, r3
 309 0022 FFF7FEFF 		bl	memset
 112:Core/Src/ltdc.c ****   if(ltdcHandle->Instance==LTDC)
 310              		.loc 1 112 16
 311 0026 7B68     		ldr	r3, [r7, #4]
 312 0028 1B68     		ldr	r3, [r3]
 313              		.loc 1 112 5
 314 002a 814A     		ldr	r2, .L12
 315 002c 9342     		cmp	r3, r2
 316 002e 40F0FB80 		bne	.L11
 113:Core/Src/ltdc.c ****   {
 114:Core/Src/ltdc.c ****   /* USER CODE BEGIN LTDC_MspInit 0 */
 115:Core/Src/ltdc.c **** 
 116:Core/Src/ltdc.c ****   /* USER CODE END LTDC_MspInit 0 */
 117:Core/Src/ltdc.c **** 
 118:Core/Src/ltdc.c ****   /** Initializes the peripherals clock
 119:Core/Src/ltdc.c ****   */
 120:Core/Src/ltdc.c ****     PeriphClkInitStruct.PeriphClockSelection = RCC_PERIPHCLK_LTDC;
 317              		.loc 1 120 46
 318 0032 0823     		movs	r3, #8
 319 0034 7B62     		str	r3, [r7, #36]
 121:Core/Src/ltdc.c ****     PeriphClkInitStruct.PLLSAI.PLLSAIN = 192;
 320              		.loc 1 121 40
 321 0036 C023     		movs	r3, #192
 322 0038 7B63     		str	r3, [r7, #52]
 122:Core/Src/ltdc.c ****     PeriphClkInitStruct.PLLSAI.PLLSAIR = 4;
 323              		.loc 1 122 40
 324 003a 0423     		movs	r3, #4
 325 003c FB63     		str	r3, [r7, #60]
 123:Core/Src/ltdc.c ****     PeriphClkInitStruct.PLLSAIDivR = RCC_PLLSAIDIVR_8;
 326              		.loc 1 123 36
 327 003e 4FF40033 		mov	r3, #131072
 328 0042 BB64     		str	r3, [r7, #72]
 124:Core/Src/ltdc.c ****     if (HAL_RCCEx_PeriphCLKConfig(&PeriphClkInitStruct) != HAL_OK)
 329              		.loc 1 124 9
 330 0044 07F12403 		add	r3, r7, #36
 331 0048 1846     		mov	r0, r3
 332 004a FFF7FEFF 		bl	HAL_RCCEx_PeriphCLKConfig
 333 004e 0346     		mov	r3, r0
ARM GAS  /var/folders/06/9k7gq4t13mj84z2yhw3grvhc0000gn/T//ccyWpXuO.s 			page 9


 334              		.loc 1 124 8 discriminator 1
 335 0050 002B     		cmp	r3, #0
 336 0052 01D0     		beq	.L10
 125:Core/Src/ltdc.c ****     {
 126:Core/Src/ltdc.c ****       Error_Handler();
 337              		.loc 1 126 7
 338 0054 FFF7FEFF 		bl	Error_Handler
 339              	.L10:
 340              	.LBB2:
 127:Core/Src/ltdc.c ****     }
 128:Core/Src/ltdc.c **** 
 129:Core/Src/ltdc.c ****     /* LTDC clock enable */
 130:Core/Src/ltdc.c ****     __HAL_RCC_LTDC_CLK_ENABLE();
 341              		.loc 1 130 5
 342 0058 0023     		movs	r3, #0
 343 005a 3B62     		str	r3, [r7, #32]
 344 005c 754B     		ldr	r3, .L12+4
 345 005e 5B6C     		ldr	r3, [r3, #68]
 346 0060 744A     		ldr	r2, .L12+4
 347 0062 43F08063 		orr	r3, r3, #67108864
 348 0066 5364     		str	r3, [r2, #68]
 349 0068 724B     		ldr	r3, .L12+4
 350 006a 5B6C     		ldr	r3, [r3, #68]
 351 006c 03F08063 		and	r3, r3, #67108864
 352 0070 3B62     		str	r3, [r7, #32]
 353 0072 3B6A     		ldr	r3, [r7, #32]
 354              	.LBE2:
 355              	.LBB3:
 131:Core/Src/ltdc.c **** 
 132:Core/Src/ltdc.c ****     __HAL_RCC_GPIOF_CLK_ENABLE();
 356              		.loc 1 132 5
 357 0074 0023     		movs	r3, #0
 358 0076 FB61     		str	r3, [r7, #28]
 359 0078 6E4B     		ldr	r3, .L12+4
 360 007a 1B6B     		ldr	r3, [r3, #48]
 361 007c 6D4A     		ldr	r2, .L12+4
 362 007e 43F02003 		orr	r3, r3, #32
 363 0082 1363     		str	r3, [r2, #48]
 364 0084 6B4B     		ldr	r3, .L12+4
 365 0086 1B6B     		ldr	r3, [r3, #48]
 366 0088 03F02003 		and	r3, r3, #32
 367 008c FB61     		str	r3, [r7, #28]
 368 008e FB69     		ldr	r3, [r7, #28]
 369              	.LBE3:
 370              	.LBB4:
 133:Core/Src/ltdc.c ****     __HAL_RCC_GPIOA_CLK_ENABLE();
 371              		.loc 1 133 5
 372 0090 0023     		movs	r3, #0
 373 0092 BB61     		str	r3, [r7, #24]
 374 0094 674B     		ldr	r3, .L12+4
 375 0096 1B6B     		ldr	r3, [r3, #48]
 376 0098 664A     		ldr	r2, .L12+4
 377 009a 43F00103 		orr	r3, r3, #1
 378 009e 1363     		str	r3, [r2, #48]
 379 00a0 644B     		ldr	r3, .L12+4
 380 00a2 1B6B     		ldr	r3, [r3, #48]
 381 00a4 03F00103 		and	r3, r3, #1
ARM GAS  /var/folders/06/9k7gq4t13mj84z2yhw3grvhc0000gn/T//ccyWpXuO.s 			page 10


 382 00a8 BB61     		str	r3, [r7, #24]
 383 00aa BB69     		ldr	r3, [r7, #24]
 384              	.LBE4:
 385              	.LBB5:
 134:Core/Src/ltdc.c ****     __HAL_RCC_GPIOB_CLK_ENABLE();
 386              		.loc 1 134 5
 387 00ac 0023     		movs	r3, #0
 388 00ae 7B61     		str	r3, [r7, #20]
 389 00b0 604B     		ldr	r3, .L12+4
 390 00b2 1B6B     		ldr	r3, [r3, #48]
 391 00b4 5F4A     		ldr	r2, .L12+4
 392 00b6 43F00203 		orr	r3, r3, #2
 393 00ba 1363     		str	r3, [r2, #48]
 394 00bc 5D4B     		ldr	r3, .L12+4
 395 00be 1B6B     		ldr	r3, [r3, #48]
 396 00c0 03F00203 		and	r3, r3, #2
 397 00c4 7B61     		str	r3, [r7, #20]
 398 00c6 7B69     		ldr	r3, [r7, #20]
 399              	.LBE5:
 400              	.LBB6:
 135:Core/Src/ltdc.c ****     __HAL_RCC_GPIOG_CLK_ENABLE();
 401              		.loc 1 135 5
 402 00c8 0023     		movs	r3, #0
 403 00ca 3B61     		str	r3, [r7, #16]
 404 00cc 594B     		ldr	r3, .L12+4
 405 00ce 1B6B     		ldr	r3, [r3, #48]
 406 00d0 584A     		ldr	r2, .L12+4
 407 00d2 43F04003 		orr	r3, r3, #64
 408 00d6 1363     		str	r3, [r2, #48]
 409 00d8 564B     		ldr	r3, .L12+4
 410 00da 1B6B     		ldr	r3, [r3, #48]
 411 00dc 03F04003 		and	r3, r3, #64
 412 00e0 3B61     		str	r3, [r7, #16]
 413 00e2 3B69     		ldr	r3, [r7, #16]
 414              	.LBE6:
 415              	.LBB7:
 136:Core/Src/ltdc.c ****     __HAL_RCC_GPIOC_CLK_ENABLE();
 416              		.loc 1 136 5
 417 00e4 0023     		movs	r3, #0
 418 00e6 FB60     		str	r3, [r7, #12]
 419 00e8 524B     		ldr	r3, .L12+4
 420 00ea 1B6B     		ldr	r3, [r3, #48]
 421 00ec 514A     		ldr	r2, .L12+4
 422 00ee 43F00403 		orr	r3, r3, #4
 423 00f2 1363     		str	r3, [r2, #48]
 424 00f4 4F4B     		ldr	r3, .L12+4
 425 00f6 1B6B     		ldr	r3, [r3, #48]
 426 00f8 03F00403 		and	r3, r3, #4
 427 00fc FB60     		str	r3, [r7, #12]
 428 00fe FB68     		ldr	r3, [r7, #12]
 429              	.LBE7:
 430              	.LBB8:
 137:Core/Src/ltdc.c ****     __HAL_RCC_GPIOD_CLK_ENABLE();
 431              		.loc 1 137 5
 432 0100 0023     		movs	r3, #0
 433 0102 BB60     		str	r3, [r7, #8]
 434 0104 4B4B     		ldr	r3, .L12+4
ARM GAS  /var/folders/06/9k7gq4t13mj84z2yhw3grvhc0000gn/T//ccyWpXuO.s 			page 11


 435 0106 1B6B     		ldr	r3, [r3, #48]
 436 0108 4A4A     		ldr	r2, .L12+4
 437 010a 43F00803 		orr	r3, r3, #8
 438 010e 1363     		str	r3, [r2, #48]
 439 0110 484B     		ldr	r3, .L12+4
 440 0112 1B6B     		ldr	r3, [r3, #48]
 441 0114 03F00803 		and	r3, r3, #8
 442 0118 BB60     		str	r3, [r7, #8]
 443 011a BB68     		ldr	r3, [r7, #8]
 444              	.LBE8:
 138:Core/Src/ltdc.c ****     /**LTDC GPIO Configuration
 139:Core/Src/ltdc.c ****     PF10     ------> LTDC_DE
 140:Core/Src/ltdc.c ****     PA3     ------> LTDC_B5
 141:Core/Src/ltdc.c ****     PA4     ------> LTDC_VSYNC
 142:Core/Src/ltdc.c ****     PA6     ------> LTDC_G2
 143:Core/Src/ltdc.c ****     PB0     ------> LTDC_R3
 144:Core/Src/ltdc.c ****     PB1     ------> LTDC_R6
 145:Core/Src/ltdc.c ****     PB10     ------> LTDC_G4
 146:Core/Src/ltdc.c ****     PB11     ------> LTDC_G5
 147:Core/Src/ltdc.c ****     PG6     ------> LTDC_R7
 148:Core/Src/ltdc.c ****     PG7     ------> LTDC_CLK
 149:Core/Src/ltdc.c ****     PC6     ------> LTDC_HSYNC
 150:Core/Src/ltdc.c ****     PC7     ------> LTDC_G6
 151:Core/Src/ltdc.c ****     PA11     ------> LTDC_R4
 152:Core/Src/ltdc.c ****     PA12     ------> LTDC_R5
 153:Core/Src/ltdc.c ****     PC10     ------> LTDC_R2
 154:Core/Src/ltdc.c ****     PD3     ------> LTDC_G7
 155:Core/Src/ltdc.c ****     PD6     ------> LTDC_B2
 156:Core/Src/ltdc.c ****     PG10     ------> LTDC_G3
 157:Core/Src/ltdc.c ****     PG11     ------> LTDC_B3
 158:Core/Src/ltdc.c ****     PG12     ------> LTDC_B4
 159:Core/Src/ltdc.c ****     PB8     ------> LTDC_B6
 160:Core/Src/ltdc.c ****     PB9     ------> LTDC_B7
 161:Core/Src/ltdc.c ****     */
 162:Core/Src/ltdc.c ****     GPIO_InitStruct.Pin = ENABLE_Pin;
 445              		.loc 1 162 25
 446 011c 4FF48063 		mov	r3, #1024
 447 0120 7B65     		str	r3, [r7, #84]
 163:Core/Src/ltdc.c ****     GPIO_InitStruct.Mode = GPIO_MODE_AF_PP;
 448              		.loc 1 163 26
 449 0122 0223     		movs	r3, #2
 450 0124 BB65     		str	r3, [r7, #88]
 164:Core/Src/ltdc.c ****     GPIO_InitStruct.Pull = GPIO_NOPULL;
 451              		.loc 1 164 26
 452 0126 0023     		movs	r3, #0
 453 0128 FB65     		str	r3, [r7, #92]
 165:Core/Src/ltdc.c ****     GPIO_InitStruct.Speed = GPIO_SPEED_FREQ_LOW;
 454              		.loc 1 165 27
 455 012a 0023     		movs	r3, #0
 456 012c 3B66     		str	r3, [r7, #96]
 166:Core/Src/ltdc.c ****     GPIO_InitStruct.Alternate = GPIO_AF14_LTDC;
 457              		.loc 1 166 31
 458 012e 0E23     		movs	r3, #14
 459 0130 7B66     		str	r3, [r7, #100]
 167:Core/Src/ltdc.c ****     HAL_GPIO_Init(ENABLE_GPIO_Port, &GPIO_InitStruct);
 460              		.loc 1 167 5
 461 0132 07F15403 		add	r3, r7, #84
ARM GAS  /var/folders/06/9k7gq4t13mj84z2yhw3grvhc0000gn/T//ccyWpXuO.s 			page 12


 462 0136 1946     		mov	r1, r3
 463 0138 3F48     		ldr	r0, .L12+8
 464 013a FFF7FEFF 		bl	HAL_GPIO_Init
 168:Core/Src/ltdc.c **** 
 169:Core/Src/ltdc.c ****     GPIO_InitStruct.Pin = B5_Pin|VSYNC_Pin|G2_Pin|R4_Pin
 465              		.loc 1 169 25
 466 013e 41F65803 		movw	r3, #6232
 467 0142 7B65     		str	r3, [r7, #84]
 170:Core/Src/ltdc.c ****                           |R5_Pin;
 171:Core/Src/ltdc.c ****     GPIO_InitStruct.Mode = GPIO_MODE_AF_PP;
 468              		.loc 1 171 26
 469 0144 0223     		movs	r3, #2
 470 0146 BB65     		str	r3, [r7, #88]
 172:Core/Src/ltdc.c ****     GPIO_InitStruct.Pull = GPIO_NOPULL;
 471              		.loc 1 172 26
 472 0148 0023     		movs	r3, #0
 473 014a FB65     		str	r3, [r7, #92]
 173:Core/Src/ltdc.c ****     GPIO_InitStruct.Speed = GPIO_SPEED_FREQ_LOW;
 474              		.loc 1 173 27
 475 014c 0023     		movs	r3, #0
 476 014e 3B66     		str	r3, [r7, #96]
 174:Core/Src/ltdc.c ****     GPIO_InitStruct.Alternate = GPIO_AF14_LTDC;
 477              		.loc 1 174 31
 478 0150 0E23     		movs	r3, #14
 479 0152 7B66     		str	r3, [r7, #100]
 175:Core/Src/ltdc.c ****     HAL_GPIO_Init(GPIOA, &GPIO_InitStruct);
 480              		.loc 1 175 5
 481 0154 07F15403 		add	r3, r7, #84
 482 0158 1946     		mov	r1, r3
 483 015a 3848     		ldr	r0, .L12+12
 484 015c FFF7FEFF 		bl	HAL_GPIO_Init
 176:Core/Src/ltdc.c **** 
 177:Core/Src/ltdc.c ****     GPIO_InitStruct.Pin = R3_Pin|R6_Pin;
 485              		.loc 1 177 25
 486 0160 0323     		movs	r3, #3
 487 0162 7B65     		str	r3, [r7, #84]
 178:Core/Src/ltdc.c ****     GPIO_InitStruct.Mode = GPIO_MODE_AF_PP;
 488              		.loc 1 178 26
 489 0164 0223     		movs	r3, #2
 490 0166 BB65     		str	r3, [r7, #88]
 179:Core/Src/ltdc.c ****     GPIO_InitStruct.Pull = GPIO_NOPULL;
 491              		.loc 1 179 26
 492 0168 0023     		movs	r3, #0
 493 016a FB65     		str	r3, [r7, #92]
 180:Core/Src/ltdc.c ****     GPIO_InitStruct.Speed = GPIO_SPEED_FREQ_LOW;
 494              		.loc 1 180 27
 495 016c 0023     		movs	r3, #0
 496 016e 3B66     		str	r3, [r7, #96]
 181:Core/Src/ltdc.c ****     GPIO_InitStruct.Alternate = GPIO_AF9_LTDC;
 497              		.loc 1 181 31
 498 0170 0923     		movs	r3, #9
 499 0172 7B66     		str	r3, [r7, #100]
 182:Core/Src/ltdc.c ****     HAL_GPIO_Init(GPIOB, &GPIO_InitStruct);
 500              		.loc 1 182 5
 501 0174 07F15403 		add	r3, r7, #84
 502 0178 1946     		mov	r1, r3
 503 017a 3148     		ldr	r0, .L12+16
ARM GAS  /var/folders/06/9k7gq4t13mj84z2yhw3grvhc0000gn/T//ccyWpXuO.s 			page 13


 504 017c FFF7FEFF 		bl	HAL_GPIO_Init
 183:Core/Src/ltdc.c **** 
 184:Core/Src/ltdc.c ****     GPIO_InitStruct.Pin = G4_Pin|G5_Pin|B6_Pin|B7_Pin;
 505              		.loc 1 184 25
 506 0180 4FF47063 		mov	r3, #3840
 507 0184 7B65     		str	r3, [r7, #84]
 185:Core/Src/ltdc.c ****     GPIO_InitStruct.Mode = GPIO_MODE_AF_PP;
 508              		.loc 1 185 26
 509 0186 0223     		movs	r3, #2
 510 0188 BB65     		str	r3, [r7, #88]
 186:Core/Src/ltdc.c ****     GPIO_InitStruct.Pull = GPIO_NOPULL;
 511              		.loc 1 186 26
 512 018a 0023     		movs	r3, #0
 513 018c FB65     		str	r3, [r7, #92]
 187:Core/Src/ltdc.c ****     GPIO_InitStruct.Speed = GPIO_SPEED_FREQ_LOW;
 514              		.loc 1 187 27
 515 018e 0023     		movs	r3, #0
 516 0190 3B66     		str	r3, [r7, #96]
 188:Core/Src/ltdc.c ****     GPIO_InitStruct.Alternate = GPIO_AF14_LTDC;
 517              		.loc 1 188 31
 518 0192 0E23     		movs	r3, #14
 519 0194 7B66     		str	r3, [r7, #100]
 189:Core/Src/ltdc.c ****     HAL_GPIO_Init(GPIOB, &GPIO_InitStruct);
 520              		.loc 1 189 5
 521 0196 07F15403 		add	r3, r7, #84
 522 019a 1946     		mov	r1, r3
 523 019c 2848     		ldr	r0, .L12+16
 524 019e FFF7FEFF 		bl	HAL_GPIO_Init
 190:Core/Src/ltdc.c **** 
 191:Core/Src/ltdc.c ****     GPIO_InitStruct.Pin = R7_Pin|DOTCLK_Pin|B3_Pin;
 525              		.loc 1 191 25
 526 01a2 4FF40C63 		mov	r3, #2240
 527 01a6 7B65     		str	r3, [r7, #84]
 192:Core/Src/ltdc.c ****     GPIO_InitStruct.Mode = GPIO_MODE_AF_PP;
 528              		.loc 1 192 26
 529 01a8 0223     		movs	r3, #2
 530 01aa BB65     		str	r3, [r7, #88]
 193:Core/Src/ltdc.c ****     GPIO_InitStruct.Pull = GPIO_NOPULL;
 531              		.loc 1 193 26
 532 01ac 0023     		movs	r3, #0
 533 01ae FB65     		str	r3, [r7, #92]
 194:Core/Src/ltdc.c ****     GPIO_InitStruct.Speed = GPIO_SPEED_FREQ_LOW;
 534              		.loc 1 194 27
 535 01b0 0023     		movs	r3, #0
 536 01b2 3B66     		str	r3, [r7, #96]
 195:Core/Src/ltdc.c ****     GPIO_InitStruct.Alternate = GPIO_AF14_LTDC;
 537              		.loc 1 195 31
 538 01b4 0E23     		movs	r3, #14
 539 01b6 7B66     		str	r3, [r7, #100]
 196:Core/Src/ltdc.c ****     HAL_GPIO_Init(GPIOG, &GPIO_InitStruct);
 540              		.loc 1 196 5
 541 01b8 07F15403 		add	r3, r7, #84
 542 01bc 1946     		mov	r1, r3
 543 01be 2148     		ldr	r0, .L12+20
 544 01c0 FFF7FEFF 		bl	HAL_GPIO_Init
 197:Core/Src/ltdc.c **** 
 198:Core/Src/ltdc.c ****     GPIO_InitStruct.Pin = HSYNC_Pin|G6_Pin|R2_Pin;
ARM GAS  /var/folders/06/9k7gq4t13mj84z2yhw3grvhc0000gn/T//ccyWpXuO.s 			page 14


 545              		.loc 1 198 25
 546 01c4 4FF49863 		mov	r3, #1216
 547 01c8 7B65     		str	r3, [r7, #84]
 199:Core/Src/ltdc.c ****     GPIO_InitStruct.Mode = GPIO_MODE_AF_PP;
 548              		.loc 1 199 26
 549 01ca 0223     		movs	r3, #2
 550 01cc BB65     		str	r3, [r7, #88]
 200:Core/Src/ltdc.c ****     GPIO_InitStruct.Pull = GPIO_NOPULL;
 551              		.loc 1 200 26
 552 01ce 0023     		movs	r3, #0
 553 01d0 FB65     		str	r3, [r7, #92]
 201:Core/Src/ltdc.c ****     GPIO_InitStruct.Speed = GPIO_SPEED_FREQ_LOW;
 554              		.loc 1 201 27
 555 01d2 0023     		movs	r3, #0
 556 01d4 3B66     		str	r3, [r7, #96]
 202:Core/Src/ltdc.c ****     GPIO_InitStruct.Alternate = GPIO_AF14_LTDC;
 557              		.loc 1 202 31
 558 01d6 0E23     		movs	r3, #14
 559 01d8 7B66     		str	r3, [r7, #100]
 203:Core/Src/ltdc.c ****     HAL_GPIO_Init(GPIOC, &GPIO_InitStruct);
 560              		.loc 1 203 5
 561 01da 07F15403 		add	r3, r7, #84
 562 01de 1946     		mov	r1, r3
 563 01e0 1948     		ldr	r0, .L12+24
 564 01e2 FFF7FEFF 		bl	HAL_GPIO_Init
 204:Core/Src/ltdc.c **** 
 205:Core/Src/ltdc.c ****     GPIO_InitStruct.Pin = G7_Pin|B2_Pin;
 565              		.loc 1 205 25
 566 01e6 4823     		movs	r3, #72
 567 01e8 7B65     		str	r3, [r7, #84]
 206:Core/Src/ltdc.c ****     GPIO_InitStruct.Mode = GPIO_MODE_AF_PP;
 568              		.loc 1 206 26
 569 01ea 0223     		movs	r3, #2
 570 01ec BB65     		str	r3, [r7, #88]
 207:Core/Src/ltdc.c ****     GPIO_InitStruct.Pull = GPIO_NOPULL;
 571              		.loc 1 207 26
 572 01ee 0023     		movs	r3, #0
 573 01f0 FB65     		str	r3, [r7, #92]
 208:Core/Src/ltdc.c ****     GPIO_InitStruct.Speed = GPIO_SPEED_FREQ_LOW;
 574              		.loc 1 208 27
 575 01f2 0023     		movs	r3, #0
 576 01f4 3B66     		str	r3, [r7, #96]
 209:Core/Src/ltdc.c ****     GPIO_InitStruct.Alternate = GPIO_AF14_LTDC;
 577              		.loc 1 209 31
 578 01f6 0E23     		movs	r3, #14
 579 01f8 7B66     		str	r3, [r7, #100]
 210:Core/Src/ltdc.c ****     HAL_GPIO_Init(GPIOD, &GPIO_InitStruct);
 580              		.loc 1 210 5
 581 01fa 07F15403 		add	r3, r7, #84
 582 01fe 1946     		mov	r1, r3
 583 0200 1248     		ldr	r0, .L12+28
 584 0202 FFF7FEFF 		bl	HAL_GPIO_Init
 211:Core/Src/ltdc.c **** 
 212:Core/Src/ltdc.c ****     GPIO_InitStruct.Pin = G3_Pin|B4_Pin;
 585              		.loc 1 212 25
 586 0206 4FF4A053 		mov	r3, #5120
 587 020a 7B65     		str	r3, [r7, #84]
ARM GAS  /var/folders/06/9k7gq4t13mj84z2yhw3grvhc0000gn/T//ccyWpXuO.s 			page 15


 213:Core/Src/ltdc.c ****     GPIO_InitStruct.Mode = GPIO_MODE_AF_PP;
 588              		.loc 1 213 26
 589 020c 0223     		movs	r3, #2
 590 020e BB65     		str	r3, [r7, #88]
 214:Core/Src/ltdc.c ****     GPIO_InitStruct.Pull = GPIO_NOPULL;
 591              		.loc 1 214 26
 592 0210 0023     		movs	r3, #0
 593 0212 FB65     		str	r3, [r7, #92]
 215:Core/Src/ltdc.c ****     GPIO_InitStruct.Speed = GPIO_SPEED_FREQ_LOW;
 594              		.loc 1 215 27
 595 0214 0023     		movs	r3, #0
 596 0216 3B66     		str	r3, [r7, #96]
 216:Core/Src/ltdc.c ****     GPIO_InitStruct.Alternate = GPIO_AF9_LTDC;
 597              		.loc 1 216 31
 598 0218 0923     		movs	r3, #9
 599 021a 7B66     		str	r3, [r7, #100]
 217:Core/Src/ltdc.c ****     HAL_GPIO_Init(GPIOG, &GPIO_InitStruct);
 600              		.loc 1 217 5
 601 021c 07F15403 		add	r3, r7, #84
 602 0220 1946     		mov	r1, r3
 603 0222 0848     		ldr	r0, .L12+20
 604 0224 FFF7FEFF 		bl	HAL_GPIO_Init
 605              	.L11:
 218:Core/Src/ltdc.c **** 
 219:Core/Src/ltdc.c ****   /* USER CODE BEGIN LTDC_MspInit 1 */
 220:Core/Src/ltdc.c **** 
 221:Core/Src/ltdc.c ****   /* USER CODE END LTDC_MspInit 1 */
 222:Core/Src/ltdc.c ****   }
 223:Core/Src/ltdc.c **** }
 606              		.loc 1 223 1
 607 0228 00BF     		nop
 608 022a 6837     		adds	r7, r7, #104
 609              	.LCFI8:
 610              		.cfi_def_cfa_offset 8
 611 022c BD46     		mov	sp, r7
 612              	.LCFI9:
 613              		.cfi_def_cfa_register 13
 614              		@ sp needed
 615 022e 80BD     		pop	{r7, pc}
 616              	.L13:
 617              		.align	2
 618              	.L12:
 619 0230 00680140 		.word	1073833984
 620 0234 00380240 		.word	1073887232
 621 0238 00140240 		.word	1073878016
 622 023c 00000240 		.word	1073872896
 623 0240 00040240 		.word	1073873920
 624 0244 00180240 		.word	1073879040
 625 0248 00080240 		.word	1073874944
 626 024c 000C0240 		.word	1073875968
 627              		.cfi_endproc
 628              	.LFE138:
 630              		.section	.text.HAL_LTDC_MspDeInit,"ax",%progbits
 631              		.align	1
 632              		.global	HAL_LTDC_MspDeInit
 633              		.syntax unified
 634              		.thumb
ARM GAS  /var/folders/06/9k7gq4t13mj84z2yhw3grvhc0000gn/T//ccyWpXuO.s 			page 16


 635              		.thumb_func
 637              	HAL_LTDC_MspDeInit:
 638              	.LFB139:
 224:Core/Src/ltdc.c **** 
 225:Core/Src/ltdc.c **** void HAL_LTDC_MspDeInit(LTDC_HandleTypeDef* ltdcHandle)
 226:Core/Src/ltdc.c **** {
 639              		.loc 1 226 1
 640              		.cfi_startproc
 641              		@ args = 0, pretend = 0, frame = 8
 642              		@ frame_needed = 1, uses_anonymous_args = 0
 643 0000 80B5     		push	{r7, lr}
 644              	.LCFI10:
 645              		.cfi_def_cfa_offset 8
 646              		.cfi_offset 7, -8
 647              		.cfi_offset 14, -4
 648 0002 82B0     		sub	sp, sp, #8
 649              	.LCFI11:
 650              		.cfi_def_cfa_offset 16
 651 0004 00AF     		add	r7, sp, #0
 652              	.LCFI12:
 653              		.cfi_def_cfa_register 7
 654 0006 7860     		str	r0, [r7, #4]
 227:Core/Src/ltdc.c **** 
 228:Core/Src/ltdc.c ****   if(ltdcHandle->Instance==LTDC)
 655              		.loc 1 228 16
 656 0008 7B68     		ldr	r3, [r7, #4]
 657 000a 1B68     		ldr	r3, [r3]
 658              		.loc 1 228 5
 659 000c 144A     		ldr	r2, .L17
 660 000e 9342     		cmp	r3, r2
 661 0010 22D1     		bne	.L16
 229:Core/Src/ltdc.c ****   {
 230:Core/Src/ltdc.c ****   /* USER CODE BEGIN LTDC_MspDeInit 0 */
 231:Core/Src/ltdc.c **** 
 232:Core/Src/ltdc.c ****   /* USER CODE END LTDC_MspDeInit 0 */
 233:Core/Src/ltdc.c ****     /* Peripheral clock disable */
 234:Core/Src/ltdc.c ****     __HAL_RCC_LTDC_CLK_DISABLE();
 662              		.loc 1 234 5
 663 0012 144B     		ldr	r3, .L17+4
 664 0014 5B6C     		ldr	r3, [r3, #68]
 665 0016 134A     		ldr	r2, .L17+4
 666 0018 23F08063 		bic	r3, r3, #67108864
 667 001c 5364     		str	r3, [r2, #68]
 235:Core/Src/ltdc.c **** 
 236:Core/Src/ltdc.c ****     /**LTDC GPIO Configuration
 237:Core/Src/ltdc.c ****     PF10     ------> LTDC_DE
 238:Core/Src/ltdc.c ****     PA3     ------> LTDC_B5
 239:Core/Src/ltdc.c ****     PA4     ------> LTDC_VSYNC
 240:Core/Src/ltdc.c ****     PA6     ------> LTDC_G2
 241:Core/Src/ltdc.c ****     PB0     ------> LTDC_R3
 242:Core/Src/ltdc.c ****     PB1     ------> LTDC_R6
 243:Core/Src/ltdc.c ****     PB10     ------> LTDC_G4
 244:Core/Src/ltdc.c ****     PB11     ------> LTDC_G5
 245:Core/Src/ltdc.c ****     PG6     ------> LTDC_R7
 246:Core/Src/ltdc.c ****     PG7     ------> LTDC_CLK
 247:Core/Src/ltdc.c ****     PC6     ------> LTDC_HSYNC
 248:Core/Src/ltdc.c ****     PC7     ------> LTDC_G6
ARM GAS  /var/folders/06/9k7gq4t13mj84z2yhw3grvhc0000gn/T//ccyWpXuO.s 			page 17


 249:Core/Src/ltdc.c ****     PA11     ------> LTDC_R4
 250:Core/Src/ltdc.c ****     PA12     ------> LTDC_R5
 251:Core/Src/ltdc.c ****     PC10     ------> LTDC_R2
 252:Core/Src/ltdc.c ****     PD3     ------> LTDC_G7
 253:Core/Src/ltdc.c ****     PD6     ------> LTDC_B2
 254:Core/Src/ltdc.c ****     PG10     ------> LTDC_G3
 255:Core/Src/ltdc.c ****     PG11     ------> LTDC_B3
 256:Core/Src/ltdc.c ****     PG12     ------> LTDC_B4
 257:Core/Src/ltdc.c ****     PB8     ------> LTDC_B6
 258:Core/Src/ltdc.c ****     PB9     ------> LTDC_B7
 259:Core/Src/ltdc.c ****     */
 260:Core/Src/ltdc.c ****     HAL_GPIO_DeInit(ENABLE_GPIO_Port, ENABLE_Pin);
 668              		.loc 1 260 5
 669 001e 4FF48061 		mov	r1, #1024
 670 0022 1148     		ldr	r0, .L17+8
 671 0024 FFF7FEFF 		bl	HAL_GPIO_DeInit
 261:Core/Src/ltdc.c **** 
 262:Core/Src/ltdc.c ****     HAL_GPIO_DeInit(GPIOA, B5_Pin|VSYNC_Pin|G2_Pin|R4_Pin
 672              		.loc 1 262 5
 673 0028 41F65801 		movw	r1, #6232
 674 002c 0F48     		ldr	r0, .L17+12
 675 002e FFF7FEFF 		bl	HAL_GPIO_DeInit
 263:Core/Src/ltdc.c ****                           |R5_Pin);
 264:Core/Src/ltdc.c **** 
 265:Core/Src/ltdc.c ****     HAL_GPIO_DeInit(GPIOB, R3_Pin|R6_Pin|G4_Pin|G5_Pin
 676              		.loc 1 265 5
 677 0032 40F60371 		movw	r1, #3843
 678 0036 0E48     		ldr	r0, .L17+16
 679 0038 FFF7FEFF 		bl	HAL_GPIO_DeInit
 266:Core/Src/ltdc.c ****                           |B6_Pin|B7_Pin);
 267:Core/Src/ltdc.c **** 
 268:Core/Src/ltdc.c ****     HAL_GPIO_DeInit(GPIOG, R7_Pin|DOTCLK_Pin|G3_Pin|B3_Pin
 680              		.loc 1 268 5
 681 003c 4FF4E651 		mov	r1, #7360
 682 0040 0C48     		ldr	r0, .L17+20
 683 0042 FFF7FEFF 		bl	HAL_GPIO_DeInit
 269:Core/Src/ltdc.c ****                           |B4_Pin);
 270:Core/Src/ltdc.c **** 
 271:Core/Src/ltdc.c ****     HAL_GPIO_DeInit(GPIOC, HSYNC_Pin|G6_Pin|R2_Pin);
 684              		.loc 1 271 5
 685 0046 4FF49861 		mov	r1, #1216
 686 004a 0B48     		ldr	r0, .L17+24
 687 004c FFF7FEFF 		bl	HAL_GPIO_DeInit
 272:Core/Src/ltdc.c **** 
 273:Core/Src/ltdc.c ****     HAL_GPIO_DeInit(GPIOD, G7_Pin|B2_Pin);
 688              		.loc 1 273 5
 689 0050 4821     		movs	r1, #72
 690 0052 0A48     		ldr	r0, .L17+28
 691 0054 FFF7FEFF 		bl	HAL_GPIO_DeInit
 692              	.L16:
 274:Core/Src/ltdc.c **** 
 275:Core/Src/ltdc.c ****   /* USER CODE BEGIN LTDC_MspDeInit 1 */
 276:Core/Src/ltdc.c **** 
 277:Core/Src/ltdc.c ****   /* USER CODE END LTDC_MspDeInit 1 */
 278:Core/Src/ltdc.c ****   }
 279:Core/Src/ltdc.c **** }
 693              		.loc 1 279 1
ARM GAS  /var/folders/06/9k7gq4t13mj84z2yhw3grvhc0000gn/T//ccyWpXuO.s 			page 18


 694 0058 00BF     		nop
 695 005a 0837     		adds	r7, r7, #8
 696              	.LCFI13:
 697              		.cfi_def_cfa_offset 8
 698 005c BD46     		mov	sp, r7
 699              	.LCFI14:
 700              		.cfi_def_cfa_register 13
 701              		@ sp needed
 702 005e 80BD     		pop	{r7, pc}
 703              	.L18:
 704              		.align	2
 705              	.L17:
 706 0060 00680140 		.word	1073833984
 707 0064 00380240 		.word	1073887232
 708 0068 00140240 		.word	1073878016
 709 006c 00000240 		.word	1073872896
 710 0070 00040240 		.word	1073873920
 711 0074 00180240 		.word	1073879040
 712 0078 00080240 		.word	1073874944
 713 007c 000C0240 		.word	1073875968
 714              		.cfi_endproc
 715              	.LFE139:
 717              		.text
 718              	.Letext0:
 719              		.file 2 "/Applications/ArmGNUToolchain/13.2.Rel1/arm-none-eabi/arm-none-eabi/include/machine/_defa
 720              		.file 3 "/Applications/ArmGNUToolchain/13.2.Rel1/arm-none-eabi/arm-none-eabi/include/sys/_stdint.h
 721              		.file 4 "Drivers/CMSIS/Device/ST/STM32F4xx/Include/stm32f429xx.h"
 722              		.file 5 "Drivers/STM32F4xx_HAL_Driver/Inc/stm32f4xx_hal_def.h"
 723              		.file 6 "Drivers/STM32F4xx_HAL_Driver/Inc/stm32f4xx_hal_rcc_ex.h"
 724              		.file 7 "Drivers/STM32F4xx_HAL_Driver/Inc/stm32f4xx_hal_gpio.h"
 725              		.file 8 "Drivers/STM32F4xx_HAL_Driver/Inc/stm32f4xx_hal_ltdc.h"
 726              		.file 9 "Core/Inc/ltdc.h"
 727              		.file 10 "Core/Inc/main.h"
ARM GAS  /var/folders/06/9k7gq4t13mj84z2yhw3grvhc0000gn/T//ccyWpXuO.s 			page 19

