ARM GAS  /var/folders/06/9k7gq4t13mj84z2yhw3grvhc0000gn/T//ccXEYuFC.s 			page 1


   1              		.cpu cortex-m4
   2              		.arch armv7e-m
   3              		.fpu fpv4-sp-d16
   4              		.eabi_attribute 27, 1
   5              		.eabi_attribute 28, 1
   6              		.eabi_attribute 20, 1
   7              		.eabi_attribute 21, 1
   8              		.eabi_attribute 23, 3
   9              		.eabi_attribute 24, 1
  10              		.eabi_attribute 25, 1
  11              		.eabi_attribute 26, 1
  12              		.eabi_attribute 30, 6
  13              		.eabi_attribute 34, 1
  14              		.eabi_attribute 18, 4
  15              		.file	"main.c"
  16              		.text
  17              	.Ltext0:
  18              		.cfi_sections	.debug_frame
  19              		.file 1 "main.c"
  20              		.section	.text.main,"ax",%progbits
  21              		.align	1
  22              		.global	main
  23              		.syntax unified
  24              		.thumb
  25              		.thumb_func
  27              	main:
  28              	.LFB0:
   1:main.c        **** #include <stdint.h>
   2:main.c        **** #include "SwiftModule-Swift.h"
   3:main.c        **** 
   4:main.c        **** int main(void)
   5:main.c        **** {
  29              		.loc 1 5 1
  30              		.cfi_startproc
  31              		@ args = 0, pretend = 0, frame = 8
  32              		@ frame_needed = 1, uses_anonymous_args = 0
  33 0000 80B5     		push	{r7, lr}
  34              	.LCFI0:
  35              		.cfi_def_cfa_offset 8
  36              		.cfi_offset 7, -8
  37              		.cfi_offset 14, -4
  38 0002 82B0     		sub	sp, sp, #8
  39              	.LCFI1:
  40              		.cfi_def_cfa_offset 16
  41 0004 00AF     		add	r7, sp, #0
  42              	.LCFI2:
  43              		.cfi_def_cfa_register 7
   6:main.c        ****   // (1) enable clock
   7:main.c        ****   *((uint32_t *)(0x40023800 + 0x30)) = 0x40;
  44              		.loc 1 7 3
  45 0006 194B     		ldr	r3, .L10
  46              		.loc 1 7 38
  47 0008 4022     		movs	r2, #64
  48 000a 1A60     		str	r2, [r3]
   8:main.c        **** 
   9:main.c        ****   // (2) set mode to output
  10:main.c        ****   *((uint32_t *)(0x40021800 + 0x00)) = 0x4000000;
ARM GAS  /var/folders/06/9k7gq4t13mj84z2yhw3grvhc0000gn/T//ccXEYuFC.s 			page 2


  49              		.loc 1 10 3
  50 000c 184B     		ldr	r3, .L10+4
  51              		.loc 1 10 38
  52 000e 4FF08062 		mov	r2, #67108864
  53 0012 1A60     		str	r2, [r3]
  11:main.c        **** 
  12:main.c        ****   // led off
  13:main.c        ****   *((uint32_t *)(0x40021800 + 0x18)) = 0x20000000;
  54              		.loc 1 13 3
  55 0014 174B     		ldr	r3, .L10+8
  56              		.loc 1 13 38
  57 0016 4FF00052 		mov	r2, #536870912
  58 001a 1A60     		str	r2, [r3]
  59              	.L8:
  60              	.LBB2:
  14:main.c        **** 
  15:main.c        ****   while (1) {
  16:main.c        ****     if (!myFooFunc()) {
  61              		.loc 1 16 10
  62 001c FFF7FEFF 		bl	myFooFunc
  63 0020 0346     		mov	r3, r0
  64              		.loc 1 16 8 discriminator 1
  65 0022 002B     		cmp	r3, #0
  66 0024 01D1     		bne	.L2
  17:main.c        ****         return 0;
  67              		.loc 1 17 16
  68 0026 0023     		movs	r3, #0
  69 0028 1CE0     		b	.L9
  70              	.L2:
  71              	.LBE2:
  18:main.c        ****     }
  19:main.c        ****     // led on
  20:main.c        ****     *((uint32_t *)(0x40021800 + 0x18)) = 0x2000;
  72              		.loc 1 20 5
  73 002a 124B     		ldr	r3, .L10+8
  74              		.loc 1 20 40
  75 002c 4FF40052 		mov	r2, #8192
  76 0030 1A60     		str	r2, [r3]
  77              	.LBB3:
  21:main.c        ****     for (volatile int i = 0; i < 100000; i++) {
  78              		.loc 1 21 23
  79 0032 0023     		movs	r3, #0
  80 0034 7B60     		str	r3, [r7, #4]
  81              		.loc 1 21 5
  82 0036 02E0     		b	.L4
  83              	.L5:
  84              		.loc 1 21 43 discriminator 3
  85 0038 7B68     		ldr	r3, [r7, #4]
  86 003a 0133     		adds	r3, r3, #1
  87 003c 7B60     		str	r3, [r7, #4]
  88              	.L4:
  89              		.loc 1 21 32 discriminator 1
  90 003e 7B68     		ldr	r3, [r7, #4]
  91 0040 0D4A     		ldr	r2, .L10+12
  92 0042 9342     		cmp	r3, r2
  93 0044 F8DD     		ble	.L5
  94              	.LBE3:
ARM GAS  /var/folders/06/9k7gq4t13mj84z2yhw3grvhc0000gn/T//ccXEYuFC.s 			page 3


  22:main.c        ****     }
  23:main.c        ****     // led off
  24:main.c        ****     *((uint32_t *)(0x40021800 + 0x18)) = 0x20000000;
  95              		.loc 1 24 5
  96 0046 0B4B     		ldr	r3, .L10+8
  97              		.loc 1 24 40
  98 0048 4FF00052 		mov	r2, #536870912
  99 004c 1A60     		str	r2, [r3]
 100              	.LBB4:
  25:main.c        ****     for (volatile int i = 0; i < 600000; i++) {
 101              		.loc 1 25 23
 102 004e 0023     		movs	r3, #0
 103 0050 3B60     		str	r3, [r7]
 104              		.loc 1 25 5
 105 0052 02E0     		b	.L6
 106              	.L7:
 107              		.loc 1 25 43 discriminator 3
 108 0054 3B68     		ldr	r3, [r7]
 109 0056 0133     		adds	r3, r3, #1
 110 0058 3B60     		str	r3, [r7]
 111              	.L6:
 112              		.loc 1 25 32 discriminator 1
 113 005a 3B68     		ldr	r3, [r7]
 114 005c 074A     		ldr	r2, .L10+16
 115 005e 9342     		cmp	r3, r2
 116 0060 F8DD     		ble	.L7
 117              	.LBE4:
  16:main.c        ****         return 0;
 118              		.loc 1 16 8
 119 0062 DBE7     		b	.L8
 120              	.L9:
  26:main.c        ****     }
  27:main.c        ****   }
  28:main.c        **** }
 121              		.loc 1 28 1
 122 0064 1846     		mov	r0, r3
 123 0066 0837     		adds	r7, r7, #8
 124              	.LCFI3:
 125              		.cfi_def_cfa_offset 8
 126 0068 BD46     		mov	sp, r7
 127              	.LCFI4:
 128              		.cfi_def_cfa_register 13
 129              		@ sp needed
 130 006a 80BD     		pop	{r7, pc}
 131              	.L11:
 132              		.align	2
 133              	.L10:
 134 006c 30380240 		.word	1073887280
 135 0070 00180240 		.word	1073879040
 136 0074 18180240 		.word	1073879064
 137 0078 9F860100 		.word	99999
 138 007c BF270900 		.word	599999
 139              		.cfi_endproc
 140              	.LFE0:
 142              		.text
 143              	.Letext0:
 144              		.file 2 "/Applications/ArmGNUToolchain/13.2.Rel1/arm-none-eabi/arm-none-eabi/include/machine/_defa
ARM GAS  /var/folders/06/9k7gq4t13mj84z2yhw3grvhc0000gn/T//ccXEYuFC.s 			page 4


 145              		.file 3 "/Applications/ArmGNUToolchain/13.2.Rel1/arm-none-eabi/arm-none-eabi/include/sys/_stdint.h
ARM GAS  /var/folders/06/9k7gq4t13mj84z2yhw3grvhc0000gn/T//ccXEYuFC.s 			page 5


DEFINED SYMBOLS
                            *ABS*:00000000 main.c
/var/folders/06/9k7gq4t13mj84z2yhw3grvhc0000gn/T//ccXEYuFC.s:21     .text.main:00000000 $t
/var/folders/06/9k7gq4t13mj84z2yhw3grvhc0000gn/T//ccXEYuFC.s:27     .text.main:00000000 main
/var/folders/06/9k7gq4t13mj84z2yhw3grvhc0000gn/T//ccXEYuFC.s:134    .text.main:0000006c $d

UNDEFINED SYMBOLS
myFooFunc
