ARM GAS  /var/folders/06/9k7gq4t13mj84z2yhw3grvhc0000gn/T//ccYFtdGv.s 			page 1


   1              		.cpu cortex-m4
   2              		.arch armv7e-m
   3              		.fpu fpv4-sp-d16
   4              		.eabi_attribute 27, 1
   5              		.eabi_attribute 28, 1
   6              		.eabi_attribute 20, 1
   7              		.eabi_attribute 21, 1
   8              		.eabi_attribute 23, 3
   9              		.eabi_attribute 24, 1
  10              		.eabi_attribute 25, 1
  11              		.eabi_attribute 26, 1
  12              		.eabi_attribute 30, 6
  13              		.eabi_attribute 34, 1
  14              		.eabi_attribute 18, 4
  15              		.file	"stm32f4xx_hal_gpio.c"
  16              		.text
  17              	.Ltext0:
  18              		.cfi_sections	.debug_frame
  19              		.file 1 "Drivers/STM32F4xx_HAL_Driver/Src/stm32f4xx_hal_gpio.c"
  20              		.section	.text.HAL_GPIO_Init,"ax",%progbits
  21              		.align	1
  22              		.global	HAL_GPIO_Init
  23              		.syntax unified
  24              		.thumb
  25              		.thumb_func
  27              	HAL_GPIO_Init:
  28              	.LFB134:
   1:Drivers/STM32F4xx_HAL_Driver/Src/stm32f4xx_hal_gpio.c **** /**
   2:Drivers/STM32F4xx_HAL_Driver/Src/stm32f4xx_hal_gpio.c ****   ******************************************************************************
   3:Drivers/STM32F4xx_HAL_Driver/Src/stm32f4xx_hal_gpio.c ****   * @file    stm32f4xx_hal_gpio.c
   4:Drivers/STM32F4xx_HAL_Driver/Src/stm32f4xx_hal_gpio.c ****   * @author  MCD Application Team
   5:Drivers/STM32F4xx_HAL_Driver/Src/stm32f4xx_hal_gpio.c ****   * @brief   GPIO HAL module driver.
   6:Drivers/STM32F4xx_HAL_Driver/Src/stm32f4xx_hal_gpio.c ****   *          This file provides firmware functions to manage the following 
   7:Drivers/STM32F4xx_HAL_Driver/Src/stm32f4xx_hal_gpio.c ****   *          functionalities of the General Purpose Input/Output (GPIO) peripheral:
   8:Drivers/STM32F4xx_HAL_Driver/Src/stm32f4xx_hal_gpio.c ****   *           + Initialization and de-initialization functions
   9:Drivers/STM32F4xx_HAL_Driver/Src/stm32f4xx_hal_gpio.c ****   *           + IO operation functions
  10:Drivers/STM32F4xx_HAL_Driver/Src/stm32f4xx_hal_gpio.c ****   *
  11:Drivers/STM32F4xx_HAL_Driver/Src/stm32f4xx_hal_gpio.c ****   ******************************************************************************
  12:Drivers/STM32F4xx_HAL_Driver/Src/stm32f4xx_hal_gpio.c ****   * @attention
  13:Drivers/STM32F4xx_HAL_Driver/Src/stm32f4xx_hal_gpio.c ****   *
  14:Drivers/STM32F4xx_HAL_Driver/Src/stm32f4xx_hal_gpio.c ****   * Copyright (c) 2017 STMicroelectronics.
  15:Drivers/STM32F4xx_HAL_Driver/Src/stm32f4xx_hal_gpio.c ****   * All rights reserved.
  16:Drivers/STM32F4xx_HAL_Driver/Src/stm32f4xx_hal_gpio.c ****   *
  17:Drivers/STM32F4xx_HAL_Driver/Src/stm32f4xx_hal_gpio.c ****   * This software is licensed under terms that can be found in the LICENSE file
  18:Drivers/STM32F4xx_HAL_Driver/Src/stm32f4xx_hal_gpio.c ****   * in the root directory of this software component.
  19:Drivers/STM32F4xx_HAL_Driver/Src/stm32f4xx_hal_gpio.c ****   * If no LICENSE file comes with this software, it is provided AS-IS.
  20:Drivers/STM32F4xx_HAL_Driver/Src/stm32f4xx_hal_gpio.c ****   *
  21:Drivers/STM32F4xx_HAL_Driver/Src/stm32f4xx_hal_gpio.c ****   ******************************************************************************
  22:Drivers/STM32F4xx_HAL_Driver/Src/stm32f4xx_hal_gpio.c ****   @verbatim
  23:Drivers/STM32F4xx_HAL_Driver/Src/stm32f4xx_hal_gpio.c ****   ==============================================================================
  24:Drivers/STM32F4xx_HAL_Driver/Src/stm32f4xx_hal_gpio.c ****                     ##### GPIO Peripheral features #####
  25:Drivers/STM32F4xx_HAL_Driver/Src/stm32f4xx_hal_gpio.c ****   ==============================================================================
  26:Drivers/STM32F4xx_HAL_Driver/Src/stm32f4xx_hal_gpio.c ****   [..] 
  27:Drivers/STM32F4xx_HAL_Driver/Src/stm32f4xx_hal_gpio.c ****   Subject to the specific hardware characteristics of each I/O port listed in the datasheet, each
  28:Drivers/STM32F4xx_HAL_Driver/Src/stm32f4xx_hal_gpio.c ****   port bit of the General Purpose IO (GPIO) Ports, can be individually configured by software
  29:Drivers/STM32F4xx_HAL_Driver/Src/stm32f4xx_hal_gpio.c ****   in several modes:
  30:Drivers/STM32F4xx_HAL_Driver/Src/stm32f4xx_hal_gpio.c ****   (+) Input mode 
ARM GAS  /var/folders/06/9k7gq4t13mj84z2yhw3grvhc0000gn/T//ccYFtdGv.s 			page 2


  31:Drivers/STM32F4xx_HAL_Driver/Src/stm32f4xx_hal_gpio.c ****   (+) Analog mode
  32:Drivers/STM32F4xx_HAL_Driver/Src/stm32f4xx_hal_gpio.c ****   (+) Output mode
  33:Drivers/STM32F4xx_HAL_Driver/Src/stm32f4xx_hal_gpio.c ****   (+) Alternate function mode
  34:Drivers/STM32F4xx_HAL_Driver/Src/stm32f4xx_hal_gpio.c ****   (+) External interrupt/event lines
  35:Drivers/STM32F4xx_HAL_Driver/Src/stm32f4xx_hal_gpio.c **** 
  36:Drivers/STM32F4xx_HAL_Driver/Src/stm32f4xx_hal_gpio.c ****   [..]  
  37:Drivers/STM32F4xx_HAL_Driver/Src/stm32f4xx_hal_gpio.c ****   During and just after reset, the alternate functions and external interrupt  
  38:Drivers/STM32F4xx_HAL_Driver/Src/stm32f4xx_hal_gpio.c ****   lines are not active and the I/O ports are configured in input floating mode.
  39:Drivers/STM32F4xx_HAL_Driver/Src/stm32f4xx_hal_gpio.c ****   
  40:Drivers/STM32F4xx_HAL_Driver/Src/stm32f4xx_hal_gpio.c ****   [..]   
  41:Drivers/STM32F4xx_HAL_Driver/Src/stm32f4xx_hal_gpio.c ****   All GPIO pins have weak internal pull-up and pull-down resistors, which can be 
  42:Drivers/STM32F4xx_HAL_Driver/Src/stm32f4xx_hal_gpio.c ****   activated or not.
  43:Drivers/STM32F4xx_HAL_Driver/Src/stm32f4xx_hal_gpio.c **** 
  44:Drivers/STM32F4xx_HAL_Driver/Src/stm32f4xx_hal_gpio.c ****   [..]
  45:Drivers/STM32F4xx_HAL_Driver/Src/stm32f4xx_hal_gpio.c ****   In Output or Alternate mode, each IO can be configured on open-drain or push-pull
  46:Drivers/STM32F4xx_HAL_Driver/Src/stm32f4xx_hal_gpio.c ****   type and the IO speed can be selected depending on the VDD value.
  47:Drivers/STM32F4xx_HAL_Driver/Src/stm32f4xx_hal_gpio.c **** 
  48:Drivers/STM32F4xx_HAL_Driver/Src/stm32f4xx_hal_gpio.c ****   [..]  
  49:Drivers/STM32F4xx_HAL_Driver/Src/stm32f4xx_hal_gpio.c ****   All ports have external interrupt/event capability. To use external interrupt 
  50:Drivers/STM32F4xx_HAL_Driver/Src/stm32f4xx_hal_gpio.c ****   lines, the port must be configured in input mode. All available GPIO pins are 
  51:Drivers/STM32F4xx_HAL_Driver/Src/stm32f4xx_hal_gpio.c ****   connected to the 16 external interrupt/event lines from EXTI0 to EXTI15.
  52:Drivers/STM32F4xx_HAL_Driver/Src/stm32f4xx_hal_gpio.c ****   
  53:Drivers/STM32F4xx_HAL_Driver/Src/stm32f4xx_hal_gpio.c ****   [..]
  54:Drivers/STM32F4xx_HAL_Driver/Src/stm32f4xx_hal_gpio.c ****   The external interrupt/event controller consists of up to 23 edge detectors 
  55:Drivers/STM32F4xx_HAL_Driver/Src/stm32f4xx_hal_gpio.c ****   (16 lines are connected to GPIO) for generating event/interrupt requests (each 
  56:Drivers/STM32F4xx_HAL_Driver/Src/stm32f4xx_hal_gpio.c ****   input line can be independently configured to select the type (interrupt or event) 
  57:Drivers/STM32F4xx_HAL_Driver/Src/stm32f4xx_hal_gpio.c ****   and the corresponding trigger event (rising or falling or both). Each line can 
  58:Drivers/STM32F4xx_HAL_Driver/Src/stm32f4xx_hal_gpio.c ****   also be masked independently. 
  59:Drivers/STM32F4xx_HAL_Driver/Src/stm32f4xx_hal_gpio.c **** 
  60:Drivers/STM32F4xx_HAL_Driver/Src/stm32f4xx_hal_gpio.c ****                      ##### How to use this driver #####
  61:Drivers/STM32F4xx_HAL_Driver/Src/stm32f4xx_hal_gpio.c ****   ==============================================================================  
  62:Drivers/STM32F4xx_HAL_Driver/Src/stm32f4xx_hal_gpio.c ****   [..]
  63:Drivers/STM32F4xx_HAL_Driver/Src/stm32f4xx_hal_gpio.c ****     (#) Enable the GPIO AHB clock using the following function: __HAL_RCC_GPIOx_CLK_ENABLE(). 
  64:Drivers/STM32F4xx_HAL_Driver/Src/stm32f4xx_hal_gpio.c **** 
  65:Drivers/STM32F4xx_HAL_Driver/Src/stm32f4xx_hal_gpio.c ****     (#) Configure the GPIO pin(s) using HAL_GPIO_Init().
  66:Drivers/STM32F4xx_HAL_Driver/Src/stm32f4xx_hal_gpio.c ****         (++) Configure the IO mode using "Mode" member from GPIO_InitTypeDef structure
  67:Drivers/STM32F4xx_HAL_Driver/Src/stm32f4xx_hal_gpio.c ****         (++) Activate Pull-up, Pull-down resistor using "Pull" member from GPIO_InitTypeDef 
  68:Drivers/STM32F4xx_HAL_Driver/Src/stm32f4xx_hal_gpio.c ****              structure.
  69:Drivers/STM32F4xx_HAL_Driver/Src/stm32f4xx_hal_gpio.c ****         (++) In case of Output or alternate function mode selection: the speed is 
  70:Drivers/STM32F4xx_HAL_Driver/Src/stm32f4xx_hal_gpio.c ****              configured through "Speed" member from GPIO_InitTypeDef structure.
  71:Drivers/STM32F4xx_HAL_Driver/Src/stm32f4xx_hal_gpio.c ****         (++) In alternate mode is selection, the alternate function connected to the IO
  72:Drivers/STM32F4xx_HAL_Driver/Src/stm32f4xx_hal_gpio.c ****              is configured through "Alternate" member from GPIO_InitTypeDef structure.
  73:Drivers/STM32F4xx_HAL_Driver/Src/stm32f4xx_hal_gpio.c ****         (++) Analog mode is required when a pin is to be used as ADC channel 
  74:Drivers/STM32F4xx_HAL_Driver/Src/stm32f4xx_hal_gpio.c ****              or DAC output.
  75:Drivers/STM32F4xx_HAL_Driver/Src/stm32f4xx_hal_gpio.c ****         (++) In case of external interrupt/event selection the "Mode" member from 
  76:Drivers/STM32F4xx_HAL_Driver/Src/stm32f4xx_hal_gpio.c ****              GPIO_InitTypeDef structure select the type (interrupt or event) and 
  77:Drivers/STM32F4xx_HAL_Driver/Src/stm32f4xx_hal_gpio.c ****              the corresponding trigger event (rising or falling or both).
  78:Drivers/STM32F4xx_HAL_Driver/Src/stm32f4xx_hal_gpio.c **** 
  79:Drivers/STM32F4xx_HAL_Driver/Src/stm32f4xx_hal_gpio.c ****     (#) In case of external interrupt/event mode selection, configure NVIC IRQ priority 
  80:Drivers/STM32F4xx_HAL_Driver/Src/stm32f4xx_hal_gpio.c ****         mapped to the EXTI line using HAL_NVIC_SetPriority() and enable it using
  81:Drivers/STM32F4xx_HAL_Driver/Src/stm32f4xx_hal_gpio.c ****         HAL_NVIC_EnableIRQ().
  82:Drivers/STM32F4xx_HAL_Driver/Src/stm32f4xx_hal_gpio.c ****          
  83:Drivers/STM32F4xx_HAL_Driver/Src/stm32f4xx_hal_gpio.c ****     (#) To get the level of a pin configured in input mode use HAL_GPIO_ReadPin().
  84:Drivers/STM32F4xx_HAL_Driver/Src/stm32f4xx_hal_gpio.c ****             
  85:Drivers/STM32F4xx_HAL_Driver/Src/stm32f4xx_hal_gpio.c ****     (#) To set/reset the level of a pin configured in output mode use 
  86:Drivers/STM32F4xx_HAL_Driver/Src/stm32f4xx_hal_gpio.c ****         HAL_GPIO_WritePin()/HAL_GPIO_TogglePin().
  87:Drivers/STM32F4xx_HAL_Driver/Src/stm32f4xx_hal_gpio.c ****     
ARM GAS  /var/folders/06/9k7gq4t13mj84z2yhw3grvhc0000gn/T//ccYFtdGv.s 			page 3


  88:Drivers/STM32F4xx_HAL_Driver/Src/stm32f4xx_hal_gpio.c ****     (#) To lock pin configuration until next reset use HAL_GPIO_LockPin().
  89:Drivers/STM32F4xx_HAL_Driver/Src/stm32f4xx_hal_gpio.c **** 
  90:Drivers/STM32F4xx_HAL_Driver/Src/stm32f4xx_hal_gpio.c ****                  
  91:Drivers/STM32F4xx_HAL_Driver/Src/stm32f4xx_hal_gpio.c ****     (#) During and just after reset, the alternate functions are not 
  92:Drivers/STM32F4xx_HAL_Driver/Src/stm32f4xx_hal_gpio.c ****         active and the GPIO pins are configured in input floating mode (except JTAG
  93:Drivers/STM32F4xx_HAL_Driver/Src/stm32f4xx_hal_gpio.c ****         pins).
  94:Drivers/STM32F4xx_HAL_Driver/Src/stm32f4xx_hal_gpio.c ****   
  95:Drivers/STM32F4xx_HAL_Driver/Src/stm32f4xx_hal_gpio.c ****     (#) The LSE oscillator pins OSC32_IN and OSC32_OUT can be used as general purpose 
  96:Drivers/STM32F4xx_HAL_Driver/Src/stm32f4xx_hal_gpio.c ****         (PC14 and PC15, respectively) when the LSE oscillator is off. The LSE has 
  97:Drivers/STM32F4xx_HAL_Driver/Src/stm32f4xx_hal_gpio.c ****         priority over the GPIO function.
  98:Drivers/STM32F4xx_HAL_Driver/Src/stm32f4xx_hal_gpio.c ****   
  99:Drivers/STM32F4xx_HAL_Driver/Src/stm32f4xx_hal_gpio.c ****     (#) The HSE oscillator pins OSC_IN/OSC_OUT can be used as 
 100:Drivers/STM32F4xx_HAL_Driver/Src/stm32f4xx_hal_gpio.c ****         general purpose PH0 and PH1, respectively, when the HSE oscillator is off. 
 101:Drivers/STM32F4xx_HAL_Driver/Src/stm32f4xx_hal_gpio.c ****         The HSE has priority over the GPIO function.
 102:Drivers/STM32F4xx_HAL_Driver/Src/stm32f4xx_hal_gpio.c ****   
 103:Drivers/STM32F4xx_HAL_Driver/Src/stm32f4xx_hal_gpio.c ****   @endverbatim
 104:Drivers/STM32F4xx_HAL_Driver/Src/stm32f4xx_hal_gpio.c ****   ******************************************************************************
 105:Drivers/STM32F4xx_HAL_Driver/Src/stm32f4xx_hal_gpio.c ****   */ 
 106:Drivers/STM32F4xx_HAL_Driver/Src/stm32f4xx_hal_gpio.c **** 
 107:Drivers/STM32F4xx_HAL_Driver/Src/stm32f4xx_hal_gpio.c **** /* Includes ------------------------------------------------------------------*/
 108:Drivers/STM32F4xx_HAL_Driver/Src/stm32f4xx_hal_gpio.c **** #include "stm32f4xx_hal.h"
 109:Drivers/STM32F4xx_HAL_Driver/Src/stm32f4xx_hal_gpio.c **** 
 110:Drivers/STM32F4xx_HAL_Driver/Src/stm32f4xx_hal_gpio.c **** /** @addtogroup STM32F4xx_HAL_Driver
 111:Drivers/STM32F4xx_HAL_Driver/Src/stm32f4xx_hal_gpio.c ****   * @{
 112:Drivers/STM32F4xx_HAL_Driver/Src/stm32f4xx_hal_gpio.c ****   */
 113:Drivers/STM32F4xx_HAL_Driver/Src/stm32f4xx_hal_gpio.c **** 
 114:Drivers/STM32F4xx_HAL_Driver/Src/stm32f4xx_hal_gpio.c **** /** @defgroup GPIO GPIO
 115:Drivers/STM32F4xx_HAL_Driver/Src/stm32f4xx_hal_gpio.c ****   * @brief GPIO HAL module driver
 116:Drivers/STM32F4xx_HAL_Driver/Src/stm32f4xx_hal_gpio.c ****   * @{
 117:Drivers/STM32F4xx_HAL_Driver/Src/stm32f4xx_hal_gpio.c ****   */
 118:Drivers/STM32F4xx_HAL_Driver/Src/stm32f4xx_hal_gpio.c **** 
 119:Drivers/STM32F4xx_HAL_Driver/Src/stm32f4xx_hal_gpio.c **** #ifdef HAL_GPIO_MODULE_ENABLED
 120:Drivers/STM32F4xx_HAL_Driver/Src/stm32f4xx_hal_gpio.c **** 
 121:Drivers/STM32F4xx_HAL_Driver/Src/stm32f4xx_hal_gpio.c **** /* Private typedef -----------------------------------------------------------*/
 122:Drivers/STM32F4xx_HAL_Driver/Src/stm32f4xx_hal_gpio.c **** /* Private define ------------------------------------------------------------*/
 123:Drivers/STM32F4xx_HAL_Driver/Src/stm32f4xx_hal_gpio.c **** /** @addtogroup GPIO_Private_Constants GPIO Private Constants
 124:Drivers/STM32F4xx_HAL_Driver/Src/stm32f4xx_hal_gpio.c ****   * @{
 125:Drivers/STM32F4xx_HAL_Driver/Src/stm32f4xx_hal_gpio.c ****   */
 126:Drivers/STM32F4xx_HAL_Driver/Src/stm32f4xx_hal_gpio.c **** 
 127:Drivers/STM32F4xx_HAL_Driver/Src/stm32f4xx_hal_gpio.c **** #define GPIO_NUMBER           16U
 128:Drivers/STM32F4xx_HAL_Driver/Src/stm32f4xx_hal_gpio.c **** /**
 129:Drivers/STM32F4xx_HAL_Driver/Src/stm32f4xx_hal_gpio.c ****   * @}
 130:Drivers/STM32F4xx_HAL_Driver/Src/stm32f4xx_hal_gpio.c ****   */
 131:Drivers/STM32F4xx_HAL_Driver/Src/stm32f4xx_hal_gpio.c **** /* Private macro -------------------------------------------------------------*/
 132:Drivers/STM32F4xx_HAL_Driver/Src/stm32f4xx_hal_gpio.c **** /* Private variables ---------------------------------------------------------*/
 133:Drivers/STM32F4xx_HAL_Driver/Src/stm32f4xx_hal_gpio.c **** /* Private function prototypes -----------------------------------------------*/
 134:Drivers/STM32F4xx_HAL_Driver/Src/stm32f4xx_hal_gpio.c **** /* Private functions ---------------------------------------------------------*/
 135:Drivers/STM32F4xx_HAL_Driver/Src/stm32f4xx_hal_gpio.c **** /* Exported functions --------------------------------------------------------*/
 136:Drivers/STM32F4xx_HAL_Driver/Src/stm32f4xx_hal_gpio.c **** /** @defgroup GPIO_Exported_Functions GPIO Exported Functions
 137:Drivers/STM32F4xx_HAL_Driver/Src/stm32f4xx_hal_gpio.c ****   * @{
 138:Drivers/STM32F4xx_HAL_Driver/Src/stm32f4xx_hal_gpio.c ****   */
 139:Drivers/STM32F4xx_HAL_Driver/Src/stm32f4xx_hal_gpio.c **** 
 140:Drivers/STM32F4xx_HAL_Driver/Src/stm32f4xx_hal_gpio.c **** /** @defgroup GPIO_Exported_Functions_Group1 Initialization and de-initialization functions
 141:Drivers/STM32F4xx_HAL_Driver/Src/stm32f4xx_hal_gpio.c ****   *  @brief    Initialization and Configuration functions
 142:Drivers/STM32F4xx_HAL_Driver/Src/stm32f4xx_hal_gpio.c ****   *
 143:Drivers/STM32F4xx_HAL_Driver/Src/stm32f4xx_hal_gpio.c **** @verbatim    
 144:Drivers/STM32F4xx_HAL_Driver/Src/stm32f4xx_hal_gpio.c ****  ===============================================================================
ARM GAS  /var/folders/06/9k7gq4t13mj84z2yhw3grvhc0000gn/T//ccYFtdGv.s 			page 4


 145:Drivers/STM32F4xx_HAL_Driver/Src/stm32f4xx_hal_gpio.c ****               ##### Initialization and de-initialization functions #####
 146:Drivers/STM32F4xx_HAL_Driver/Src/stm32f4xx_hal_gpio.c ****  ===============================================================================
 147:Drivers/STM32F4xx_HAL_Driver/Src/stm32f4xx_hal_gpio.c ****   [..]
 148:Drivers/STM32F4xx_HAL_Driver/Src/stm32f4xx_hal_gpio.c ****     This section provides functions allowing to initialize and de-initialize the GPIOs
 149:Drivers/STM32F4xx_HAL_Driver/Src/stm32f4xx_hal_gpio.c ****     to be ready for use.
 150:Drivers/STM32F4xx_HAL_Driver/Src/stm32f4xx_hal_gpio.c ****  
 151:Drivers/STM32F4xx_HAL_Driver/Src/stm32f4xx_hal_gpio.c **** @endverbatim
 152:Drivers/STM32F4xx_HAL_Driver/Src/stm32f4xx_hal_gpio.c ****   * @{
 153:Drivers/STM32F4xx_HAL_Driver/Src/stm32f4xx_hal_gpio.c ****   */
 154:Drivers/STM32F4xx_HAL_Driver/Src/stm32f4xx_hal_gpio.c **** 
 155:Drivers/STM32F4xx_HAL_Driver/Src/stm32f4xx_hal_gpio.c **** 
 156:Drivers/STM32F4xx_HAL_Driver/Src/stm32f4xx_hal_gpio.c **** /**
 157:Drivers/STM32F4xx_HAL_Driver/Src/stm32f4xx_hal_gpio.c ****   * @brief  Initializes the GPIOx peripheral according to the specified parameters in the GPIO_Init
 158:Drivers/STM32F4xx_HAL_Driver/Src/stm32f4xx_hal_gpio.c ****   * @param  GPIOx where x can be (A..K) to select the GPIO peripheral for STM32F429X device or
 159:Drivers/STM32F4xx_HAL_Driver/Src/stm32f4xx_hal_gpio.c ****   *                      x can be (A..I) to select the GPIO peripheral for STM32F40XX and STM32F427
 160:Drivers/STM32F4xx_HAL_Driver/Src/stm32f4xx_hal_gpio.c ****   * @param  GPIO_Init pointer to a GPIO_InitTypeDef structure that contains
 161:Drivers/STM32F4xx_HAL_Driver/Src/stm32f4xx_hal_gpio.c ****   *         the configuration information for the specified GPIO peripheral.
 162:Drivers/STM32F4xx_HAL_Driver/Src/stm32f4xx_hal_gpio.c ****   * @retval None
 163:Drivers/STM32F4xx_HAL_Driver/Src/stm32f4xx_hal_gpio.c ****   */
 164:Drivers/STM32F4xx_HAL_Driver/Src/stm32f4xx_hal_gpio.c **** void HAL_GPIO_Init(GPIO_TypeDef  *GPIOx, GPIO_InitTypeDef *GPIO_Init)
 165:Drivers/STM32F4xx_HAL_Driver/Src/stm32f4xx_hal_gpio.c **** {
  29              		.loc 1 165 1
  30              		.cfi_startproc
  31              		@ args = 0, pretend = 0, frame = 32
  32              		@ frame_needed = 1, uses_anonymous_args = 0
  33              		@ link register save eliminated.
  34 0000 80B4     		push	{r7}
  35              	.LCFI0:
  36              		.cfi_def_cfa_offset 4
  37              		.cfi_offset 7, -4
  38 0002 89B0     		sub	sp, sp, #36
  39              	.LCFI1:
  40              		.cfi_def_cfa_offset 40
  41 0004 00AF     		add	r7, sp, #0
  42              	.LCFI2:
  43              		.cfi_def_cfa_register 7
  44 0006 7860     		str	r0, [r7, #4]
  45 0008 3960     		str	r1, [r7]
 166:Drivers/STM32F4xx_HAL_Driver/Src/stm32f4xx_hal_gpio.c ****   uint32_t position;
 167:Drivers/STM32F4xx_HAL_Driver/Src/stm32f4xx_hal_gpio.c ****   uint32_t ioposition = 0x00U;
  46              		.loc 1 167 12
  47 000a 0023     		movs	r3, #0
  48 000c 7B61     		str	r3, [r7, #20]
 168:Drivers/STM32F4xx_HAL_Driver/Src/stm32f4xx_hal_gpio.c ****   uint32_t iocurrent = 0x00U;
  49              		.loc 1 168 12
  50 000e 0023     		movs	r3, #0
  51 0010 3B61     		str	r3, [r7, #16]
 169:Drivers/STM32F4xx_HAL_Driver/Src/stm32f4xx_hal_gpio.c ****   uint32_t temp = 0x00U;
  52              		.loc 1 169 12
  53 0012 0023     		movs	r3, #0
  54 0014 BB61     		str	r3, [r7, #24]
 170:Drivers/STM32F4xx_HAL_Driver/Src/stm32f4xx_hal_gpio.c **** 
 171:Drivers/STM32F4xx_HAL_Driver/Src/stm32f4xx_hal_gpio.c ****   /* Check the parameters */
 172:Drivers/STM32F4xx_HAL_Driver/Src/stm32f4xx_hal_gpio.c ****   assert_param(IS_GPIO_ALL_INSTANCE(GPIOx));
 173:Drivers/STM32F4xx_HAL_Driver/Src/stm32f4xx_hal_gpio.c ****   assert_param(IS_GPIO_PIN(GPIO_Init->Pin));
 174:Drivers/STM32F4xx_HAL_Driver/Src/stm32f4xx_hal_gpio.c ****   assert_param(IS_GPIO_MODE(GPIO_Init->Mode));
 175:Drivers/STM32F4xx_HAL_Driver/Src/stm32f4xx_hal_gpio.c **** 
ARM GAS  /var/folders/06/9k7gq4t13mj84z2yhw3grvhc0000gn/T//ccYFtdGv.s 			page 5


 176:Drivers/STM32F4xx_HAL_Driver/Src/stm32f4xx_hal_gpio.c ****   /* Configure the port pins */
 177:Drivers/STM32F4xx_HAL_Driver/Src/stm32f4xx_hal_gpio.c ****   for(position = 0U; position < GPIO_NUMBER; position++)
  55              		.loc 1 177 16
  56 0016 0023     		movs	r3, #0
  57 0018 FB61     		str	r3, [r7, #28]
  58              		.loc 1 177 3
  59 001a 77E1     		b	.L2
  60              	.L32:
 178:Drivers/STM32F4xx_HAL_Driver/Src/stm32f4xx_hal_gpio.c ****   {
 179:Drivers/STM32F4xx_HAL_Driver/Src/stm32f4xx_hal_gpio.c ****     /* Get the IO position */
 180:Drivers/STM32F4xx_HAL_Driver/Src/stm32f4xx_hal_gpio.c ****     ioposition = 0x01U << position;
  61              		.loc 1 180 16
  62 001c 0122     		movs	r2, #1
  63 001e FB69     		ldr	r3, [r7, #28]
  64 0020 02FA03F3 		lsl	r3, r2, r3
  65 0024 7B61     		str	r3, [r7, #20]
 181:Drivers/STM32F4xx_HAL_Driver/Src/stm32f4xx_hal_gpio.c ****     /* Get the current IO position */
 182:Drivers/STM32F4xx_HAL_Driver/Src/stm32f4xx_hal_gpio.c ****     iocurrent = (uint32_t)(GPIO_Init->Pin) & ioposition;
  66              		.loc 1 182 37
  67 0026 3B68     		ldr	r3, [r7]
  68 0028 1B68     		ldr	r3, [r3]
  69              		.loc 1 182 15
  70 002a 7A69     		ldr	r2, [r7, #20]
  71 002c 1340     		ands	r3, r3, r2
  72 002e 3B61     		str	r3, [r7, #16]
 183:Drivers/STM32F4xx_HAL_Driver/Src/stm32f4xx_hal_gpio.c **** 
 184:Drivers/STM32F4xx_HAL_Driver/Src/stm32f4xx_hal_gpio.c ****     if(iocurrent == ioposition)
  73              		.loc 1 184 7
  74 0030 3A69     		ldr	r2, [r7, #16]
  75 0032 7B69     		ldr	r3, [r7, #20]
  76 0034 9A42     		cmp	r2, r3
  77 0036 40F06681 		bne	.L3
 185:Drivers/STM32F4xx_HAL_Driver/Src/stm32f4xx_hal_gpio.c ****     {
 186:Drivers/STM32F4xx_HAL_Driver/Src/stm32f4xx_hal_gpio.c ****       /*--------------------- GPIO Mode Configuration ------------------------*/
 187:Drivers/STM32F4xx_HAL_Driver/Src/stm32f4xx_hal_gpio.c ****       /* In case of Output or Alternate function mode selection */
 188:Drivers/STM32F4xx_HAL_Driver/Src/stm32f4xx_hal_gpio.c ****       if(((GPIO_Init->Mode & GPIO_MODE) == MODE_OUTPUT) || \
  78              		.loc 1 188 21
  79 003a 3B68     		ldr	r3, [r7]
  80 003c 5B68     		ldr	r3, [r3, #4]
  81              		.loc 1 188 28
  82 003e 03F00303 		and	r3, r3, #3
  83              		.loc 1 188 9
  84 0042 012B     		cmp	r3, #1
  85 0044 05D0     		beq	.L4
 189:Drivers/STM32F4xx_HAL_Driver/Src/stm32f4xx_hal_gpio.c ****           (GPIO_Init->Mode & GPIO_MODE) == MODE_AF)
  86              		.loc 1 189 21
  87 0046 3B68     		ldr	r3, [r7]
  88 0048 5B68     		ldr	r3, [r3, #4]
  89              		.loc 1 189 28
  90 004a 03F00303 		and	r3, r3, #3
 188:Drivers/STM32F4xx_HAL_Driver/Src/stm32f4xx_hal_gpio.c ****           (GPIO_Init->Mode & GPIO_MODE) == MODE_AF)
  91              		.loc 1 188 57 discriminator 1
  92 004e 022B     		cmp	r3, #2
  93 0050 30D1     		bne	.L5
  94              	.L4:
 190:Drivers/STM32F4xx_HAL_Driver/Src/stm32f4xx_hal_gpio.c ****       {
 191:Drivers/STM32F4xx_HAL_Driver/Src/stm32f4xx_hal_gpio.c ****         /* Check the Speed parameter */
ARM GAS  /var/folders/06/9k7gq4t13mj84z2yhw3grvhc0000gn/T//ccYFtdGv.s 			page 6


 192:Drivers/STM32F4xx_HAL_Driver/Src/stm32f4xx_hal_gpio.c ****         assert_param(IS_GPIO_SPEED(GPIO_Init->Speed));
 193:Drivers/STM32F4xx_HAL_Driver/Src/stm32f4xx_hal_gpio.c ****         /* Configure the IO Speed */
 194:Drivers/STM32F4xx_HAL_Driver/Src/stm32f4xx_hal_gpio.c ****         temp = GPIOx->OSPEEDR; 
  95              		.loc 1 194 14
  96 0052 7B68     		ldr	r3, [r7, #4]
  97 0054 9B68     		ldr	r3, [r3, #8]
  98 0056 BB61     		str	r3, [r7, #24]
 195:Drivers/STM32F4xx_HAL_Driver/Src/stm32f4xx_hal_gpio.c ****         temp &= ~(GPIO_OSPEEDER_OSPEEDR0 << (position * 2U));
  99              		.loc 1 195 55
 100 0058 FB69     		ldr	r3, [r7, #28]
 101 005a 5B00     		lsls	r3, r3, #1
 102              		.loc 1 195 42
 103 005c 0322     		movs	r2, #3
 104 005e 02FA03F3 		lsl	r3, r2, r3
 105              		.loc 1 195 17
 106 0062 DB43     		mvns	r3, r3
 107              		.loc 1 195 14
 108 0064 BA69     		ldr	r2, [r7, #24]
 109 0066 1340     		ands	r3, r3, r2
 110 0068 BB61     		str	r3, [r7, #24]
 196:Drivers/STM32F4xx_HAL_Driver/Src/stm32f4xx_hal_gpio.c ****         temp |= (GPIO_Init->Speed << (position * 2U));
 111              		.loc 1 196 27
 112 006a 3B68     		ldr	r3, [r7]
 113 006c DA68     		ldr	r2, [r3, #12]
 114              		.loc 1 196 48
 115 006e FB69     		ldr	r3, [r7, #28]
 116 0070 5B00     		lsls	r3, r3, #1
 117              		.loc 1 196 35
 118 0072 02FA03F3 		lsl	r3, r2, r3
 119              		.loc 1 196 14
 120 0076 BA69     		ldr	r2, [r7, #24]
 121 0078 1343     		orrs	r3, r3, r2
 122 007a BB61     		str	r3, [r7, #24]
 197:Drivers/STM32F4xx_HAL_Driver/Src/stm32f4xx_hal_gpio.c ****         GPIOx->OSPEEDR = temp;
 123              		.loc 1 197 24
 124 007c 7B68     		ldr	r3, [r7, #4]
 125 007e BA69     		ldr	r2, [r7, #24]
 126 0080 9A60     		str	r2, [r3, #8]
 198:Drivers/STM32F4xx_HAL_Driver/Src/stm32f4xx_hal_gpio.c **** 
 199:Drivers/STM32F4xx_HAL_Driver/Src/stm32f4xx_hal_gpio.c ****         /* Configure the IO Output Type */
 200:Drivers/STM32F4xx_HAL_Driver/Src/stm32f4xx_hal_gpio.c ****         temp = GPIOx->OTYPER;
 127              		.loc 1 200 14
 128 0082 7B68     		ldr	r3, [r7, #4]
 129 0084 5B68     		ldr	r3, [r3, #4]
 130 0086 BB61     		str	r3, [r7, #24]
 201:Drivers/STM32F4xx_HAL_Driver/Src/stm32f4xx_hal_gpio.c ****         temp &= ~(GPIO_OTYPER_OT_0 << position) ;
 131              		.loc 1 201 36
 132 0088 0122     		movs	r2, #1
 133 008a FB69     		ldr	r3, [r7, #28]
 134 008c 02FA03F3 		lsl	r3, r2, r3
 135              		.loc 1 201 17
 136 0090 DB43     		mvns	r3, r3
 137              		.loc 1 201 14
 138 0092 BA69     		ldr	r2, [r7, #24]
 139 0094 1340     		ands	r3, r3, r2
 140 0096 BB61     		str	r3, [r7, #24]
 202:Drivers/STM32F4xx_HAL_Driver/Src/stm32f4xx_hal_gpio.c ****         temp |= (((GPIO_Init->Mode & OUTPUT_TYPE) >> OUTPUT_TYPE_Pos) << position);
ARM GAS  /var/folders/06/9k7gq4t13mj84z2yhw3grvhc0000gn/T//ccYFtdGv.s 			page 7


 141              		.loc 1 202 29
 142 0098 3B68     		ldr	r3, [r7]
 143 009a 5B68     		ldr	r3, [r3, #4]
 144              		.loc 1 202 51
 145 009c 1B09     		lsrs	r3, r3, #4
 146 009e 03F00102 		and	r2, r3, #1
 147              		.loc 1 202 71
 148 00a2 FB69     		ldr	r3, [r7, #28]
 149 00a4 02FA03F3 		lsl	r3, r2, r3
 150              		.loc 1 202 14
 151 00a8 BA69     		ldr	r2, [r7, #24]
 152 00aa 1343     		orrs	r3, r3, r2
 153 00ac BB61     		str	r3, [r7, #24]
 203:Drivers/STM32F4xx_HAL_Driver/Src/stm32f4xx_hal_gpio.c ****         GPIOx->OTYPER = temp;
 154              		.loc 1 203 23
 155 00ae 7B68     		ldr	r3, [r7, #4]
 156 00b0 BA69     		ldr	r2, [r7, #24]
 157 00b2 5A60     		str	r2, [r3, #4]
 158              	.L5:
 204:Drivers/STM32F4xx_HAL_Driver/Src/stm32f4xx_hal_gpio.c ****        }
 205:Drivers/STM32F4xx_HAL_Driver/Src/stm32f4xx_hal_gpio.c **** 
 206:Drivers/STM32F4xx_HAL_Driver/Src/stm32f4xx_hal_gpio.c ****       if((GPIO_Init->Mode & GPIO_MODE) != MODE_ANALOG)
 159              		.loc 1 206 20
 160 00b4 3B68     		ldr	r3, [r7]
 161 00b6 5B68     		ldr	r3, [r3, #4]
 162              		.loc 1 206 27
 163 00b8 03F00303 		and	r3, r3, #3
 164              		.loc 1 206 9
 165 00bc 032B     		cmp	r3, #3
 166 00be 17D0     		beq	.L6
 207:Drivers/STM32F4xx_HAL_Driver/Src/stm32f4xx_hal_gpio.c ****       {
 208:Drivers/STM32F4xx_HAL_Driver/Src/stm32f4xx_hal_gpio.c ****         /* Check the parameters */
 209:Drivers/STM32F4xx_HAL_Driver/Src/stm32f4xx_hal_gpio.c ****         assert_param(IS_GPIO_PULL(GPIO_Init->Pull));
 210:Drivers/STM32F4xx_HAL_Driver/Src/stm32f4xx_hal_gpio.c ****         
 211:Drivers/STM32F4xx_HAL_Driver/Src/stm32f4xx_hal_gpio.c ****         /* Activate the Pull-up or Pull down resistor for the current IO */
 212:Drivers/STM32F4xx_HAL_Driver/Src/stm32f4xx_hal_gpio.c ****         temp = GPIOx->PUPDR;
 167              		.loc 1 212 14
 168 00c0 7B68     		ldr	r3, [r7, #4]
 169 00c2 DB68     		ldr	r3, [r3, #12]
 170 00c4 BB61     		str	r3, [r7, #24]
 213:Drivers/STM32F4xx_HAL_Driver/Src/stm32f4xx_hal_gpio.c ****         temp &= ~(GPIO_PUPDR_PUPDR0 << (position * 2U));
 171              		.loc 1 213 50
 172 00c6 FB69     		ldr	r3, [r7, #28]
 173 00c8 5B00     		lsls	r3, r3, #1
 174              		.loc 1 213 37
 175 00ca 0322     		movs	r2, #3
 176 00cc 02FA03F3 		lsl	r3, r2, r3
 177              		.loc 1 213 17
 178 00d0 DB43     		mvns	r3, r3
 179              		.loc 1 213 14
 180 00d2 BA69     		ldr	r2, [r7, #24]
 181 00d4 1340     		ands	r3, r3, r2
 182 00d6 BB61     		str	r3, [r7, #24]
 214:Drivers/STM32F4xx_HAL_Driver/Src/stm32f4xx_hal_gpio.c ****         temp |= ((GPIO_Init->Pull) << (position * 2U));
 183              		.loc 1 214 28
 184 00d8 3B68     		ldr	r3, [r7]
 185 00da 9A68     		ldr	r2, [r3, #8]
ARM GAS  /var/folders/06/9k7gq4t13mj84z2yhw3grvhc0000gn/T//ccYFtdGv.s 			page 8


 186              		.loc 1 214 49
 187 00dc FB69     		ldr	r3, [r7, #28]
 188 00de 5B00     		lsls	r3, r3, #1
 189              		.loc 1 214 36
 190 00e0 02FA03F3 		lsl	r3, r2, r3
 191              		.loc 1 214 14
 192 00e4 BA69     		ldr	r2, [r7, #24]
 193 00e6 1343     		orrs	r3, r3, r2
 194 00e8 BB61     		str	r3, [r7, #24]
 215:Drivers/STM32F4xx_HAL_Driver/Src/stm32f4xx_hal_gpio.c ****         GPIOx->PUPDR = temp;
 195              		.loc 1 215 22
 196 00ea 7B68     		ldr	r3, [r7, #4]
 197 00ec BA69     		ldr	r2, [r7, #24]
 198 00ee DA60     		str	r2, [r3, #12]
 199              	.L6:
 216:Drivers/STM32F4xx_HAL_Driver/Src/stm32f4xx_hal_gpio.c ****       }
 217:Drivers/STM32F4xx_HAL_Driver/Src/stm32f4xx_hal_gpio.c **** 
 218:Drivers/STM32F4xx_HAL_Driver/Src/stm32f4xx_hal_gpio.c ****       /* In case of Alternate function mode selection */
 219:Drivers/STM32F4xx_HAL_Driver/Src/stm32f4xx_hal_gpio.c ****       if((GPIO_Init->Mode & GPIO_MODE) == MODE_AF)
 200              		.loc 1 219 20
 201 00f0 3B68     		ldr	r3, [r7]
 202 00f2 5B68     		ldr	r3, [r3, #4]
 203              		.loc 1 219 27
 204 00f4 03F00303 		and	r3, r3, #3
 205              		.loc 1 219 9
 206 00f8 022B     		cmp	r3, #2
 207 00fa 23D1     		bne	.L7
 220:Drivers/STM32F4xx_HAL_Driver/Src/stm32f4xx_hal_gpio.c ****       {
 221:Drivers/STM32F4xx_HAL_Driver/Src/stm32f4xx_hal_gpio.c ****         /* Check the Alternate function parameter */
 222:Drivers/STM32F4xx_HAL_Driver/Src/stm32f4xx_hal_gpio.c ****         assert_param(IS_GPIO_AF(GPIO_Init->Alternate));
 223:Drivers/STM32F4xx_HAL_Driver/Src/stm32f4xx_hal_gpio.c ****         /* Configure Alternate function mapped with the current IO */
 224:Drivers/STM32F4xx_HAL_Driver/Src/stm32f4xx_hal_gpio.c ****         temp = GPIOx->AFR[position >> 3U];
 208              		.loc 1 224 36
 209 00fc FB69     		ldr	r3, [r7, #28]
 210 00fe DA08     		lsrs	r2, r3, #3
 211              		.loc 1 224 14
 212 0100 7B68     		ldr	r3, [r7, #4]
 213 0102 0832     		adds	r2, r2, #8
 214 0104 53F82230 		ldr	r3, [r3, r2, lsl #2]
 215 0108 BB61     		str	r3, [r7, #24]
 225:Drivers/STM32F4xx_HAL_Driver/Src/stm32f4xx_hal_gpio.c ****         temp &= ~(0xFU << ((uint32_t)(position & 0x07U) * 4U)) ;
 216              		.loc 1 225 28
 217 010a FB69     		ldr	r3, [r7, #28]
 218 010c 03F00703 		and	r3, r3, #7
 219              		.loc 1 225 57
 220 0110 9B00     		lsls	r3, r3, #2
 221              		.loc 1 225 24
 222 0112 0F22     		movs	r2, #15
 223 0114 02FA03F3 		lsl	r3, r2, r3
 224              		.loc 1 225 17
 225 0118 DB43     		mvns	r3, r3
 226              		.loc 1 225 14
 227 011a BA69     		ldr	r2, [r7, #24]
 228 011c 1340     		ands	r3, r3, r2
 229 011e BB61     		str	r3, [r7, #24]
 226:Drivers/STM32F4xx_HAL_Driver/Src/stm32f4xx_hal_gpio.c ****         temp |= ((uint32_t)(GPIO_Init->Alternate) << (((uint32_t)position & 0x07U) * 4U));
 230              		.loc 1 226 38
ARM GAS  /var/folders/06/9k7gq4t13mj84z2yhw3grvhc0000gn/T//ccYFtdGv.s 			page 9


 231 0120 3B68     		ldr	r3, [r7]
 232 0122 1A69     		ldr	r2, [r3, #16]
 233              		.loc 1 226 75
 234 0124 FB69     		ldr	r3, [r7, #28]
 235 0126 03F00703 		and	r3, r3, #7
 236              		.loc 1 226 84
 237 012a 9B00     		lsls	r3, r3, #2
 238              		.loc 1 226 51
 239 012c 02FA03F3 		lsl	r3, r2, r3
 240              		.loc 1 226 14
 241 0130 BA69     		ldr	r2, [r7, #24]
 242 0132 1343     		orrs	r3, r3, r2
 243 0134 BB61     		str	r3, [r7, #24]
 227:Drivers/STM32F4xx_HAL_Driver/Src/stm32f4xx_hal_gpio.c ****         GPIOx->AFR[position >> 3U] = temp;
 244              		.loc 1 227 29
 245 0136 FB69     		ldr	r3, [r7, #28]
 246 0138 DA08     		lsrs	r2, r3, #3
 247              		.loc 1 227 36
 248 013a 7B68     		ldr	r3, [r7, #4]
 249 013c 0832     		adds	r2, r2, #8
 250 013e B969     		ldr	r1, [r7, #24]
 251 0140 43F82210 		str	r1, [r3, r2, lsl #2]
 252              	.L7:
 228:Drivers/STM32F4xx_HAL_Driver/Src/stm32f4xx_hal_gpio.c ****       }
 229:Drivers/STM32F4xx_HAL_Driver/Src/stm32f4xx_hal_gpio.c **** 
 230:Drivers/STM32F4xx_HAL_Driver/Src/stm32f4xx_hal_gpio.c ****       /* Configure IO Direction mode (Input, Output, Alternate or Analog) */
 231:Drivers/STM32F4xx_HAL_Driver/Src/stm32f4xx_hal_gpio.c ****       temp = GPIOx->MODER;
 253              		.loc 1 231 12
 254 0144 7B68     		ldr	r3, [r7, #4]
 255 0146 1B68     		ldr	r3, [r3]
 256 0148 BB61     		str	r3, [r7, #24]
 232:Drivers/STM32F4xx_HAL_Driver/Src/stm32f4xx_hal_gpio.c ****       temp &= ~(GPIO_MODER_MODER0 << (position * 2U));
 257              		.loc 1 232 48
 258 014a FB69     		ldr	r3, [r7, #28]
 259 014c 5B00     		lsls	r3, r3, #1
 260              		.loc 1 232 35
 261 014e 0322     		movs	r2, #3
 262 0150 02FA03F3 		lsl	r3, r2, r3
 263              		.loc 1 232 15
 264 0154 DB43     		mvns	r3, r3
 265              		.loc 1 232 12
 266 0156 BA69     		ldr	r2, [r7, #24]
 267 0158 1340     		ands	r3, r3, r2
 268 015a BB61     		str	r3, [r7, #24]
 233:Drivers/STM32F4xx_HAL_Driver/Src/stm32f4xx_hal_gpio.c ****       temp |= ((GPIO_Init->Mode & GPIO_MODE) << (position * 2U));
 269              		.loc 1 233 26
 270 015c 3B68     		ldr	r3, [r7]
 271 015e 5B68     		ldr	r3, [r3, #4]
 272              		.loc 1 233 33
 273 0160 03F00302 		and	r2, r3, #3
 274              		.loc 1 233 59
 275 0164 FB69     		ldr	r3, [r7, #28]
 276 0166 5B00     		lsls	r3, r3, #1
 277              		.loc 1 233 46
 278 0168 02FA03F3 		lsl	r3, r2, r3
 279              		.loc 1 233 12
 280 016c BA69     		ldr	r2, [r7, #24]
ARM GAS  /var/folders/06/9k7gq4t13mj84z2yhw3grvhc0000gn/T//ccYFtdGv.s 			page 10


 281 016e 1343     		orrs	r3, r3, r2
 282 0170 BB61     		str	r3, [r7, #24]
 234:Drivers/STM32F4xx_HAL_Driver/Src/stm32f4xx_hal_gpio.c ****       GPIOx->MODER = temp;
 283              		.loc 1 234 20
 284 0172 7B68     		ldr	r3, [r7, #4]
 285 0174 BA69     		ldr	r2, [r7, #24]
 286 0176 1A60     		str	r2, [r3]
 235:Drivers/STM32F4xx_HAL_Driver/Src/stm32f4xx_hal_gpio.c **** 
 236:Drivers/STM32F4xx_HAL_Driver/Src/stm32f4xx_hal_gpio.c ****       /*--------------------- EXTI Mode Configuration ------------------------*/
 237:Drivers/STM32F4xx_HAL_Driver/Src/stm32f4xx_hal_gpio.c ****       /* Configure the External Interrupt or event for the current IO */
 238:Drivers/STM32F4xx_HAL_Driver/Src/stm32f4xx_hal_gpio.c ****       if((GPIO_Init->Mode & EXTI_MODE) != 0x00U)
 287              		.loc 1 238 20
 288 0178 3B68     		ldr	r3, [r7]
 289 017a 5B68     		ldr	r3, [r3, #4]
 290              		.loc 1 238 27
 291 017c 03F44033 		and	r3, r3, #196608
 292              		.loc 1 238 9
 293 0180 002B     		cmp	r3, #0
 294 0182 00F0C080 		beq	.L3
 295              	.LBB2:
 239:Drivers/STM32F4xx_HAL_Driver/Src/stm32f4xx_hal_gpio.c ****       {
 240:Drivers/STM32F4xx_HAL_Driver/Src/stm32f4xx_hal_gpio.c ****         /* Enable SYSCFG Clock */
 241:Drivers/STM32F4xx_HAL_Driver/Src/stm32f4xx_hal_gpio.c ****         __HAL_RCC_SYSCFG_CLK_ENABLE();
 296              		.loc 1 241 9
 297 0186 0023     		movs	r3, #0
 298 0188 FB60     		str	r3, [r7, #12]
 299 018a 664B     		ldr	r3, .L33
 300 018c 5B6C     		ldr	r3, [r3, #68]
 301 018e 654A     		ldr	r2, .L33
 302 0190 43F48043 		orr	r3, r3, #16384
 303 0194 5364     		str	r3, [r2, #68]
 304 0196 634B     		ldr	r3, .L33
 305 0198 5B6C     		ldr	r3, [r3, #68]
 306 019a 03F48043 		and	r3, r3, #16384
 307 019e FB60     		str	r3, [r7, #12]
 308 01a0 FB68     		ldr	r3, [r7, #12]
 309              	.LBE2:
 242:Drivers/STM32F4xx_HAL_Driver/Src/stm32f4xx_hal_gpio.c **** 
 243:Drivers/STM32F4xx_HAL_Driver/Src/stm32f4xx_hal_gpio.c ****         temp = SYSCFG->EXTICR[position >> 2U];
 310              		.loc 1 243 22
 311 01a2 614A     		ldr	r2, .L33+4
 312              		.loc 1 243 40
 313 01a4 FB69     		ldr	r3, [r7, #28]
 314 01a6 9B08     		lsrs	r3, r3, #2
 315              		.loc 1 243 14
 316 01a8 0233     		adds	r3, r3, #2
 317 01aa 52F82330 		ldr	r3, [r2, r3, lsl #2]
 318 01ae BB61     		str	r3, [r7, #24]
 244:Drivers/STM32F4xx_HAL_Driver/Src/stm32f4xx_hal_gpio.c ****         temp &= ~(0x0FU << (4U * (position & 0x03U)));
 319              		.loc 1 244 44
 320 01b0 FB69     		ldr	r3, [r7, #28]
 321 01b2 03F00303 		and	r3, r3, #3
 322              		.loc 1 244 32
 323 01b6 9B00     		lsls	r3, r3, #2
 324              		.loc 1 244 25
 325 01b8 0F22     		movs	r2, #15
 326 01ba 02FA03F3 		lsl	r3, r2, r3
ARM GAS  /var/folders/06/9k7gq4t13mj84z2yhw3grvhc0000gn/T//ccYFtdGv.s 			page 11


 327              		.loc 1 244 17
 328 01be DB43     		mvns	r3, r3
 329              		.loc 1 244 14
 330 01c0 BA69     		ldr	r2, [r7, #24]
 331 01c2 1340     		ands	r3, r3, r2
 332 01c4 BB61     		str	r3, [r7, #24]
 245:Drivers/STM32F4xx_HAL_Driver/Src/stm32f4xx_hal_gpio.c ****         temp |= ((uint32_t)(GPIO_GET_INDEX(GPIOx)) << (4U * (position & 0x03U)));
 333              		.loc 1 245 18
 334 01c6 7B68     		ldr	r3, [r7, #4]
 335 01c8 584A     		ldr	r2, .L33+8
 336 01ca 9342     		cmp	r3, r2
 337 01cc 37D0     		beq	.L8
 338              		.loc 1 245 29 discriminator 1
 339 01ce 7B68     		ldr	r3, [r7, #4]
 340 01d0 574A     		ldr	r2, .L33+12
 341 01d2 9342     		cmp	r3, r2
 342 01d4 31D0     		beq	.L9
 343              		.loc 1 245 29 is_stmt 0 discriminator 3
 344 01d6 7B68     		ldr	r3, [r7, #4]
 345 01d8 564A     		ldr	r2, .L33+16
 346 01da 9342     		cmp	r3, r2
 347 01dc 2BD0     		beq	.L10
 348              		.loc 1 245 29 discriminator 5
 349 01de 7B68     		ldr	r3, [r7, #4]
 350 01e0 554A     		ldr	r2, .L33+20
 351 01e2 9342     		cmp	r3, r2
 352 01e4 25D0     		beq	.L11
 353              		.loc 1 245 29 discriminator 7
 354 01e6 7B68     		ldr	r3, [r7, #4]
 355 01e8 544A     		ldr	r2, .L33+24
 356 01ea 9342     		cmp	r3, r2
 357 01ec 1FD0     		beq	.L12
 358              		.loc 1 245 29 discriminator 9
 359 01ee 7B68     		ldr	r3, [r7, #4]
 360 01f0 534A     		ldr	r2, .L33+28
 361 01f2 9342     		cmp	r3, r2
 362 01f4 19D0     		beq	.L13
 363              		.loc 1 245 29 discriminator 11
 364 01f6 7B68     		ldr	r3, [r7, #4]
 365 01f8 524A     		ldr	r2, .L33+32
 366 01fa 9342     		cmp	r3, r2
 367 01fc 13D0     		beq	.L14
 368              		.loc 1 245 29 discriminator 13
 369 01fe 7B68     		ldr	r3, [r7, #4]
 370 0200 514A     		ldr	r2, .L33+36
 371 0202 9342     		cmp	r3, r2
 372 0204 0DD0     		beq	.L15
 373              		.loc 1 245 29 discriminator 15
 374 0206 7B68     		ldr	r3, [r7, #4]
 375 0208 504A     		ldr	r2, .L33+40
 376 020a 9342     		cmp	r3, r2
 377 020c 07D0     		beq	.L16
 378              		.loc 1 245 29 discriminator 17
 379 020e 7B68     		ldr	r3, [r7, #4]
 380 0210 4F4A     		ldr	r2, .L33+44
 381 0212 9342     		cmp	r3, r2
 382 0214 01D1     		bne	.L17
ARM GAS  /var/folders/06/9k7gq4t13mj84z2yhw3grvhc0000gn/T//ccYFtdGv.s 			page 12


 383              		.loc 1 245 29 discriminator 19
 384 0216 0923     		movs	r3, #9
 385 0218 12E0     		b	.L27
 386              	.L17:
 387              		.loc 1 245 29 discriminator 20
 388 021a 0A23     		movs	r3, #10
 389 021c 10E0     		b	.L27
 390              	.L16:
 391              		.loc 1 245 29 discriminator 18
 392 021e 0823     		movs	r3, #8
 393 0220 0EE0     		b	.L27
 394              	.L15:
 395              		.loc 1 245 29 discriminator 16
 396 0222 0723     		movs	r3, #7
 397 0224 0CE0     		b	.L27
 398              	.L14:
 399              		.loc 1 245 29 discriminator 14
 400 0226 0623     		movs	r3, #6
 401 0228 0AE0     		b	.L27
 402              	.L13:
 403              		.loc 1 245 29 discriminator 12
 404 022a 0523     		movs	r3, #5
 405 022c 08E0     		b	.L27
 406              	.L12:
 407              		.loc 1 245 29 discriminator 10
 408 022e 0423     		movs	r3, #4
 409 0230 06E0     		b	.L27
 410              	.L11:
 411              		.loc 1 245 29 discriminator 8
 412 0232 0323     		movs	r3, #3
 413 0234 04E0     		b	.L27
 414              	.L10:
 415              		.loc 1 245 29 discriminator 6
 416 0236 0223     		movs	r3, #2
 417 0238 02E0     		b	.L27
 418              	.L9:
 419              		.loc 1 245 29 discriminator 4
 420 023a 0123     		movs	r3, #1
 421 023c 00E0     		b	.L27
 422              	.L8:
 423              		.loc 1 245 18 is_stmt 1 discriminator 2
 424 023e 0023     		movs	r3, #0
 425              	.L27:
 426              		.loc 1 245 71 discriminator 40
 427 0240 FA69     		ldr	r2, [r7, #28]
 428 0242 02F00302 		and	r2, r2, #3
 429              		.loc 1 245 59 discriminator 40
 430 0246 9200     		lsls	r2, r2, #2
 431              		.loc 1 245 52 discriminator 40
 432 0248 9340     		lsls	r3, r3, r2
 433              		.loc 1 245 14 discriminator 40
 434 024a BA69     		ldr	r2, [r7, #24]
 435 024c 1343     		orrs	r3, r3, r2
 436 024e BB61     		str	r3, [r7, #24]
 246:Drivers/STM32F4xx_HAL_Driver/Src/stm32f4xx_hal_gpio.c ****         SYSCFG->EXTICR[position >> 2U] = temp;
 437              		.loc 1 246 15
 438 0250 3549     		ldr	r1, .L33+4
ARM GAS  /var/folders/06/9k7gq4t13mj84z2yhw3grvhc0000gn/T//ccYFtdGv.s 			page 13


 439              		.loc 1 246 33
 440 0252 FB69     		ldr	r3, [r7, #28]
 441 0254 9B08     		lsrs	r3, r3, #2
 442              		.loc 1 246 40
 443 0256 0233     		adds	r3, r3, #2
 444 0258 BA69     		ldr	r2, [r7, #24]
 445 025a 41F82320 		str	r2, [r1, r3, lsl #2]
 247:Drivers/STM32F4xx_HAL_Driver/Src/stm32f4xx_hal_gpio.c **** 
 248:Drivers/STM32F4xx_HAL_Driver/Src/stm32f4xx_hal_gpio.c ****         /* Clear Rising Falling edge configuration */
 249:Drivers/STM32F4xx_HAL_Driver/Src/stm32f4xx_hal_gpio.c ****         temp = EXTI->RTSR;
 446              		.loc 1 249 20
 447 025e 3D4B     		ldr	r3, .L33+48
 448              		.loc 1 249 14
 449 0260 9B68     		ldr	r3, [r3, #8]
 450 0262 BB61     		str	r3, [r7, #24]
 250:Drivers/STM32F4xx_HAL_Driver/Src/stm32f4xx_hal_gpio.c ****         temp &= ~((uint32_t)iocurrent);
 451              		.loc 1 250 17
 452 0264 3B69     		ldr	r3, [r7, #16]
 453 0266 DB43     		mvns	r3, r3
 454              		.loc 1 250 14
 455 0268 BA69     		ldr	r2, [r7, #24]
 456 026a 1340     		ands	r3, r3, r2
 457 026c BB61     		str	r3, [r7, #24]
 251:Drivers/STM32F4xx_HAL_Driver/Src/stm32f4xx_hal_gpio.c ****         if((GPIO_Init->Mode & TRIGGER_RISING) != 0x00U)
 458              		.loc 1 251 22
 459 026e 3B68     		ldr	r3, [r7]
 460 0270 5B68     		ldr	r3, [r3, #4]
 461              		.loc 1 251 29
 462 0272 03F48013 		and	r3, r3, #1048576
 463              		.loc 1 251 11
 464 0276 002B     		cmp	r3, #0
 465 0278 03D0     		beq	.L28
 252:Drivers/STM32F4xx_HAL_Driver/Src/stm32f4xx_hal_gpio.c ****         {
 253:Drivers/STM32F4xx_HAL_Driver/Src/stm32f4xx_hal_gpio.c ****           temp |= iocurrent;
 466              		.loc 1 253 16
 467 027a BA69     		ldr	r2, [r7, #24]
 468 027c 3B69     		ldr	r3, [r7, #16]
 469 027e 1343     		orrs	r3, r3, r2
 470 0280 BB61     		str	r3, [r7, #24]
 471              	.L28:
 254:Drivers/STM32F4xx_HAL_Driver/Src/stm32f4xx_hal_gpio.c ****         }
 255:Drivers/STM32F4xx_HAL_Driver/Src/stm32f4xx_hal_gpio.c ****         EXTI->RTSR = temp;
 472              		.loc 1 255 13
 473 0282 344A     		ldr	r2, .L33+48
 474              		.loc 1 255 20
 475 0284 BB69     		ldr	r3, [r7, #24]
 476 0286 9360     		str	r3, [r2, #8]
 256:Drivers/STM32F4xx_HAL_Driver/Src/stm32f4xx_hal_gpio.c **** 
 257:Drivers/STM32F4xx_HAL_Driver/Src/stm32f4xx_hal_gpio.c ****         temp = EXTI->FTSR;
 477              		.loc 1 257 20
 478 0288 324B     		ldr	r3, .L33+48
 479              		.loc 1 257 14
 480 028a DB68     		ldr	r3, [r3, #12]
 481 028c BB61     		str	r3, [r7, #24]
 258:Drivers/STM32F4xx_HAL_Driver/Src/stm32f4xx_hal_gpio.c ****         temp &= ~((uint32_t)iocurrent);
 482              		.loc 1 258 17
 483 028e 3B69     		ldr	r3, [r7, #16]
ARM GAS  /var/folders/06/9k7gq4t13mj84z2yhw3grvhc0000gn/T//ccYFtdGv.s 			page 14


 484 0290 DB43     		mvns	r3, r3
 485              		.loc 1 258 14
 486 0292 BA69     		ldr	r2, [r7, #24]
 487 0294 1340     		ands	r3, r3, r2
 488 0296 BB61     		str	r3, [r7, #24]
 259:Drivers/STM32F4xx_HAL_Driver/Src/stm32f4xx_hal_gpio.c ****         if((GPIO_Init->Mode & TRIGGER_FALLING) != 0x00U)
 489              		.loc 1 259 22
 490 0298 3B68     		ldr	r3, [r7]
 491 029a 5B68     		ldr	r3, [r3, #4]
 492              		.loc 1 259 29
 493 029c 03F40013 		and	r3, r3, #2097152
 494              		.loc 1 259 11
 495 02a0 002B     		cmp	r3, #0
 496 02a2 03D0     		beq	.L29
 260:Drivers/STM32F4xx_HAL_Driver/Src/stm32f4xx_hal_gpio.c ****         {
 261:Drivers/STM32F4xx_HAL_Driver/Src/stm32f4xx_hal_gpio.c ****           temp |= iocurrent;
 497              		.loc 1 261 16
 498 02a4 BA69     		ldr	r2, [r7, #24]
 499 02a6 3B69     		ldr	r3, [r7, #16]
 500 02a8 1343     		orrs	r3, r3, r2
 501 02aa BB61     		str	r3, [r7, #24]
 502              	.L29:
 262:Drivers/STM32F4xx_HAL_Driver/Src/stm32f4xx_hal_gpio.c ****         }
 263:Drivers/STM32F4xx_HAL_Driver/Src/stm32f4xx_hal_gpio.c ****         EXTI->FTSR = temp;
 503              		.loc 1 263 13
 504 02ac 294A     		ldr	r2, .L33+48
 505              		.loc 1 263 20
 506 02ae BB69     		ldr	r3, [r7, #24]
 507 02b0 D360     		str	r3, [r2, #12]
 264:Drivers/STM32F4xx_HAL_Driver/Src/stm32f4xx_hal_gpio.c **** 
 265:Drivers/STM32F4xx_HAL_Driver/Src/stm32f4xx_hal_gpio.c ****         temp = EXTI->EMR;
 508              		.loc 1 265 20
 509 02b2 284B     		ldr	r3, .L33+48
 510              		.loc 1 265 14
 511 02b4 5B68     		ldr	r3, [r3, #4]
 512 02b6 BB61     		str	r3, [r7, #24]
 266:Drivers/STM32F4xx_HAL_Driver/Src/stm32f4xx_hal_gpio.c ****         temp &= ~((uint32_t)iocurrent);
 513              		.loc 1 266 17
 514 02b8 3B69     		ldr	r3, [r7, #16]
 515 02ba DB43     		mvns	r3, r3
 516              		.loc 1 266 14
 517 02bc BA69     		ldr	r2, [r7, #24]
 518 02be 1340     		ands	r3, r3, r2
 519 02c0 BB61     		str	r3, [r7, #24]
 267:Drivers/STM32F4xx_HAL_Driver/Src/stm32f4xx_hal_gpio.c ****         if((GPIO_Init->Mode & EXTI_EVT) != 0x00U)
 520              		.loc 1 267 22
 521 02c2 3B68     		ldr	r3, [r7]
 522 02c4 5B68     		ldr	r3, [r3, #4]
 523              		.loc 1 267 29
 524 02c6 03F40033 		and	r3, r3, #131072
 525              		.loc 1 267 11
 526 02ca 002B     		cmp	r3, #0
 527 02cc 03D0     		beq	.L30
 268:Drivers/STM32F4xx_HAL_Driver/Src/stm32f4xx_hal_gpio.c ****         {
 269:Drivers/STM32F4xx_HAL_Driver/Src/stm32f4xx_hal_gpio.c ****           temp |= iocurrent;
 528              		.loc 1 269 16
 529 02ce BA69     		ldr	r2, [r7, #24]
ARM GAS  /var/folders/06/9k7gq4t13mj84z2yhw3grvhc0000gn/T//ccYFtdGv.s 			page 15


 530 02d0 3B69     		ldr	r3, [r7, #16]
 531 02d2 1343     		orrs	r3, r3, r2
 532 02d4 BB61     		str	r3, [r7, #24]
 533              	.L30:
 270:Drivers/STM32F4xx_HAL_Driver/Src/stm32f4xx_hal_gpio.c ****         }
 271:Drivers/STM32F4xx_HAL_Driver/Src/stm32f4xx_hal_gpio.c ****         EXTI->EMR = temp;
 534              		.loc 1 271 13
 535 02d6 1F4A     		ldr	r2, .L33+48
 536              		.loc 1 271 19
 537 02d8 BB69     		ldr	r3, [r7, #24]
 538 02da 5360     		str	r3, [r2, #4]
 272:Drivers/STM32F4xx_HAL_Driver/Src/stm32f4xx_hal_gpio.c **** 
 273:Drivers/STM32F4xx_HAL_Driver/Src/stm32f4xx_hal_gpio.c ****         /* Clear EXTI line configuration */
 274:Drivers/STM32F4xx_HAL_Driver/Src/stm32f4xx_hal_gpio.c ****         temp = EXTI->IMR;
 539              		.loc 1 274 20
 540 02dc 1D4B     		ldr	r3, .L33+48
 541              		.loc 1 274 14
 542 02de 1B68     		ldr	r3, [r3]
 543 02e0 BB61     		str	r3, [r7, #24]
 275:Drivers/STM32F4xx_HAL_Driver/Src/stm32f4xx_hal_gpio.c ****         temp &= ~((uint32_t)iocurrent);
 544              		.loc 1 275 17
 545 02e2 3B69     		ldr	r3, [r7, #16]
 546 02e4 DB43     		mvns	r3, r3
 547              		.loc 1 275 14
 548 02e6 BA69     		ldr	r2, [r7, #24]
 549 02e8 1340     		ands	r3, r3, r2
 550 02ea BB61     		str	r3, [r7, #24]
 276:Drivers/STM32F4xx_HAL_Driver/Src/stm32f4xx_hal_gpio.c ****         if((GPIO_Init->Mode & EXTI_IT) != 0x00U)
 551              		.loc 1 276 22
 552 02ec 3B68     		ldr	r3, [r7]
 553 02ee 5B68     		ldr	r3, [r3, #4]
 554              		.loc 1 276 29
 555 02f0 03F48033 		and	r3, r3, #65536
 556              		.loc 1 276 11
 557 02f4 002B     		cmp	r3, #0
 558 02f6 03D0     		beq	.L31
 277:Drivers/STM32F4xx_HAL_Driver/Src/stm32f4xx_hal_gpio.c ****         {
 278:Drivers/STM32F4xx_HAL_Driver/Src/stm32f4xx_hal_gpio.c ****           temp |= iocurrent;
 559              		.loc 1 278 16
 560 02f8 BA69     		ldr	r2, [r7, #24]
 561 02fa 3B69     		ldr	r3, [r7, #16]
 562 02fc 1343     		orrs	r3, r3, r2
 563 02fe BB61     		str	r3, [r7, #24]
 564              	.L31:
 279:Drivers/STM32F4xx_HAL_Driver/Src/stm32f4xx_hal_gpio.c ****         }
 280:Drivers/STM32F4xx_HAL_Driver/Src/stm32f4xx_hal_gpio.c ****         EXTI->IMR = temp;
 565              		.loc 1 280 13
 566 0300 144A     		ldr	r2, .L33+48
 567              		.loc 1 280 19
 568 0302 BB69     		ldr	r3, [r7, #24]
 569 0304 1360     		str	r3, [r2]
 570              	.L3:
 177:Drivers/STM32F4xx_HAL_Driver/Src/stm32f4xx_hal_gpio.c ****   {
 571              		.loc 1 177 54 discriminator 2
 572 0306 FB69     		ldr	r3, [r7, #28]
 573 0308 0133     		adds	r3, r3, #1
 574 030a FB61     		str	r3, [r7, #28]
ARM GAS  /var/folders/06/9k7gq4t13mj84z2yhw3grvhc0000gn/T//ccYFtdGv.s 			page 16


 575              	.L2:
 177:Drivers/STM32F4xx_HAL_Driver/Src/stm32f4xx_hal_gpio.c ****   {
 576              		.loc 1 177 31 discriminator 1
 577 030c FB69     		ldr	r3, [r7, #28]
 578 030e 0F2B     		cmp	r3, #15
 579 0310 7FF684AE 		bls	.L32
 281:Drivers/STM32F4xx_HAL_Driver/Src/stm32f4xx_hal_gpio.c ****       }
 282:Drivers/STM32F4xx_HAL_Driver/Src/stm32f4xx_hal_gpio.c ****     }
 283:Drivers/STM32F4xx_HAL_Driver/Src/stm32f4xx_hal_gpio.c ****   }
 284:Drivers/STM32F4xx_HAL_Driver/Src/stm32f4xx_hal_gpio.c **** }
 580              		.loc 1 284 1
 581 0314 00BF     		nop
 582 0316 00BF     		nop
 583 0318 2437     		adds	r7, r7, #36
 584              	.LCFI3:
 585              		.cfi_def_cfa_offset 4
 586 031a BD46     		mov	sp, r7
 587              	.LCFI4:
 588              		.cfi_def_cfa_register 13
 589              		@ sp needed
 590 031c 5DF8047B 		ldr	r7, [sp], #4
 591              	.LCFI5:
 592              		.cfi_restore 7
 593              		.cfi_def_cfa_offset 0
 594 0320 7047     		bx	lr
 595              	.L34:
 596 0322 00BF     		.align	2
 597              	.L33:
 598 0324 00380240 		.word	1073887232
 599 0328 00380140 		.word	1073821696
 600 032c 00000240 		.word	1073872896
 601 0330 00040240 		.word	1073873920
 602 0334 00080240 		.word	1073874944
 603 0338 000C0240 		.word	1073875968
 604 033c 00100240 		.word	1073876992
 605 0340 00140240 		.word	1073878016
 606 0344 00180240 		.word	1073879040
 607 0348 001C0240 		.word	1073880064
 608 034c 00200240 		.word	1073881088
 609 0350 00240240 		.word	1073882112
 610 0354 003C0140 		.word	1073822720
 611              		.cfi_endproc
 612              	.LFE134:
 614              		.section	.text.HAL_GPIO_DeInit,"ax",%progbits
 615              		.align	1
 616              		.global	HAL_GPIO_DeInit
 617              		.syntax unified
 618              		.thumb
 619              		.thumb_func
 621              	HAL_GPIO_DeInit:
 622              	.LFB135:
 285:Drivers/STM32F4xx_HAL_Driver/Src/stm32f4xx_hal_gpio.c **** 
 286:Drivers/STM32F4xx_HAL_Driver/Src/stm32f4xx_hal_gpio.c **** /**
 287:Drivers/STM32F4xx_HAL_Driver/Src/stm32f4xx_hal_gpio.c ****   * @brief  De-initializes the GPIOx peripheral registers to their default reset values.
 288:Drivers/STM32F4xx_HAL_Driver/Src/stm32f4xx_hal_gpio.c ****   * @param  GPIOx where x can be (A..K) to select the GPIO peripheral for STM32F429X device or
 289:Drivers/STM32F4xx_HAL_Driver/Src/stm32f4xx_hal_gpio.c ****   *                      x can be (A..I) to select the GPIO peripheral for STM32F40XX and STM32F427
 290:Drivers/STM32F4xx_HAL_Driver/Src/stm32f4xx_hal_gpio.c ****   * @param  GPIO_Pin specifies the port bit to be written.
ARM GAS  /var/folders/06/9k7gq4t13mj84z2yhw3grvhc0000gn/T//ccYFtdGv.s 			page 17


 291:Drivers/STM32F4xx_HAL_Driver/Src/stm32f4xx_hal_gpio.c ****   *          This parameter can be one of GPIO_PIN_x where x can be (0..15).
 292:Drivers/STM32F4xx_HAL_Driver/Src/stm32f4xx_hal_gpio.c ****   * @retval None
 293:Drivers/STM32F4xx_HAL_Driver/Src/stm32f4xx_hal_gpio.c ****   */
 294:Drivers/STM32F4xx_HAL_Driver/Src/stm32f4xx_hal_gpio.c **** void HAL_GPIO_DeInit(GPIO_TypeDef  *GPIOx, uint32_t GPIO_Pin)
 295:Drivers/STM32F4xx_HAL_Driver/Src/stm32f4xx_hal_gpio.c **** {
 623              		.loc 1 295 1
 624              		.cfi_startproc
 625              		@ args = 0, pretend = 0, frame = 24
 626              		@ frame_needed = 1, uses_anonymous_args = 0
 627              		@ link register save eliminated.
 628 0000 80B4     		push	{r7}
 629              	.LCFI6:
 630              		.cfi_def_cfa_offset 4
 631              		.cfi_offset 7, -4
 632 0002 87B0     		sub	sp, sp, #28
 633              	.LCFI7:
 634              		.cfi_def_cfa_offset 32
 635 0004 00AF     		add	r7, sp, #0
 636              	.LCFI8:
 637              		.cfi_def_cfa_register 7
 638 0006 7860     		str	r0, [r7, #4]
 639 0008 3960     		str	r1, [r7]
 296:Drivers/STM32F4xx_HAL_Driver/Src/stm32f4xx_hal_gpio.c ****   uint32_t position;
 297:Drivers/STM32F4xx_HAL_Driver/Src/stm32f4xx_hal_gpio.c ****   uint32_t ioposition = 0x00U;
 640              		.loc 1 297 12
 641 000a 0023     		movs	r3, #0
 642 000c 3B61     		str	r3, [r7, #16]
 298:Drivers/STM32F4xx_HAL_Driver/Src/stm32f4xx_hal_gpio.c ****   uint32_t iocurrent = 0x00U;
 643              		.loc 1 298 12
 644 000e 0023     		movs	r3, #0
 645 0010 FB60     		str	r3, [r7, #12]
 299:Drivers/STM32F4xx_HAL_Driver/Src/stm32f4xx_hal_gpio.c ****   uint32_t tmp = 0x00U;
 646              		.loc 1 299 12
 647 0012 0023     		movs	r3, #0
 648 0014 BB60     		str	r3, [r7, #8]
 300:Drivers/STM32F4xx_HAL_Driver/Src/stm32f4xx_hal_gpio.c **** 
 301:Drivers/STM32F4xx_HAL_Driver/Src/stm32f4xx_hal_gpio.c ****   /* Check the parameters */
 302:Drivers/STM32F4xx_HAL_Driver/Src/stm32f4xx_hal_gpio.c ****   assert_param(IS_GPIO_ALL_INSTANCE(GPIOx));
 303:Drivers/STM32F4xx_HAL_Driver/Src/stm32f4xx_hal_gpio.c ****   
 304:Drivers/STM32F4xx_HAL_Driver/Src/stm32f4xx_hal_gpio.c ****   /* Configure the port pins */
 305:Drivers/STM32F4xx_HAL_Driver/Src/stm32f4xx_hal_gpio.c ****   for(position = 0U; position < GPIO_NUMBER; position++)
 649              		.loc 1 305 16
 650 0016 0023     		movs	r3, #0
 651 0018 7B61     		str	r3, [r7, #20]
 652              		.loc 1 305 3
 653 001a D9E0     		b	.L36
 654              	.L59:
 306:Drivers/STM32F4xx_HAL_Driver/Src/stm32f4xx_hal_gpio.c ****   {
 307:Drivers/STM32F4xx_HAL_Driver/Src/stm32f4xx_hal_gpio.c ****     /* Get the IO position */
 308:Drivers/STM32F4xx_HAL_Driver/Src/stm32f4xx_hal_gpio.c ****     ioposition = 0x01U << position;
 655              		.loc 1 308 16
 656 001c 0122     		movs	r2, #1
 657 001e 7B69     		ldr	r3, [r7, #20]
 658 0020 02FA03F3 		lsl	r3, r2, r3
 659 0024 3B61     		str	r3, [r7, #16]
 309:Drivers/STM32F4xx_HAL_Driver/Src/stm32f4xx_hal_gpio.c ****     /* Get the current IO position */
 310:Drivers/STM32F4xx_HAL_Driver/Src/stm32f4xx_hal_gpio.c ****     iocurrent = (GPIO_Pin) & ioposition;
ARM GAS  /var/folders/06/9k7gq4t13mj84z2yhw3grvhc0000gn/T//ccYFtdGv.s 			page 18


 660              		.loc 1 310 15
 661 0026 3A68     		ldr	r2, [r7]
 662 0028 3B69     		ldr	r3, [r7, #16]
 663 002a 1340     		ands	r3, r3, r2
 664 002c FB60     		str	r3, [r7, #12]
 311:Drivers/STM32F4xx_HAL_Driver/Src/stm32f4xx_hal_gpio.c **** 
 312:Drivers/STM32F4xx_HAL_Driver/Src/stm32f4xx_hal_gpio.c ****     if(iocurrent == ioposition)
 665              		.loc 1 312 7
 666 002e FA68     		ldr	r2, [r7, #12]
 667 0030 3B69     		ldr	r3, [r7, #16]
 668 0032 9A42     		cmp	r2, r3
 669 0034 40F0C980 		bne	.L37
 313:Drivers/STM32F4xx_HAL_Driver/Src/stm32f4xx_hal_gpio.c ****     {
 314:Drivers/STM32F4xx_HAL_Driver/Src/stm32f4xx_hal_gpio.c ****       /*------------------------- EXTI Mode Configuration --------------------*/
 315:Drivers/STM32F4xx_HAL_Driver/Src/stm32f4xx_hal_gpio.c ****       tmp = SYSCFG->EXTICR[position >> 2U];
 670              		.loc 1 315 19
 671 0038 6B4A     		ldr	r2, .L60
 672              		.loc 1 315 37
 673 003a 7B69     		ldr	r3, [r7, #20]
 674 003c 9B08     		lsrs	r3, r3, #2
 675              		.loc 1 315 11
 676 003e 0233     		adds	r3, r3, #2
 677 0040 52F82330 		ldr	r3, [r2, r3, lsl #2]
 678 0044 BB60     		str	r3, [r7, #8]
 316:Drivers/STM32F4xx_HAL_Driver/Src/stm32f4xx_hal_gpio.c ****       tmp &= (0x0FU << (4U * (position & 0x03U)));
 679              		.loc 1 316 40
 680 0046 7B69     		ldr	r3, [r7, #20]
 681 0048 03F00303 		and	r3, r3, #3
 682              		.loc 1 316 28
 683 004c 9B00     		lsls	r3, r3, #2
 684              		.loc 1 316 21
 685 004e 0F22     		movs	r2, #15
 686 0050 02FA03F3 		lsl	r3, r2, r3
 687              		.loc 1 316 11
 688 0054 BA68     		ldr	r2, [r7, #8]
 689 0056 1340     		ands	r3, r3, r2
 690 0058 BB60     		str	r3, [r7, #8]
 317:Drivers/STM32F4xx_HAL_Driver/Src/stm32f4xx_hal_gpio.c ****       if(tmp == ((uint32_t)(GPIO_GET_INDEX(GPIOx)) << (4U * (position & 0x03U))))
 691              		.loc 1 317 18
 692 005a 7B68     		ldr	r3, [r7, #4]
 693 005c 634A     		ldr	r2, .L60+4
 694 005e 9342     		cmp	r3, r2
 695 0060 37D0     		beq	.L38
 696              		.loc 1 317 29 discriminator 1
 697 0062 7B68     		ldr	r3, [r7, #4]
 698 0064 624A     		ldr	r2, .L60+8
 699 0066 9342     		cmp	r3, r2
 700 0068 31D0     		beq	.L39
 701              		.loc 1 317 29 is_stmt 0 discriminator 3
 702 006a 7B68     		ldr	r3, [r7, #4]
 703 006c 614A     		ldr	r2, .L60+12
 704 006e 9342     		cmp	r3, r2
 705 0070 2BD0     		beq	.L40
 706              		.loc 1 317 29 discriminator 5
 707 0072 7B68     		ldr	r3, [r7, #4]
 708 0074 604A     		ldr	r2, .L60+16
 709 0076 9342     		cmp	r3, r2
ARM GAS  /var/folders/06/9k7gq4t13mj84z2yhw3grvhc0000gn/T//ccYFtdGv.s 			page 19


 710 0078 25D0     		beq	.L41
 711              		.loc 1 317 29 discriminator 7
 712 007a 7B68     		ldr	r3, [r7, #4]
 713 007c 5F4A     		ldr	r2, .L60+20
 714 007e 9342     		cmp	r3, r2
 715 0080 1FD0     		beq	.L42
 716              		.loc 1 317 29 discriminator 9
 717 0082 7B68     		ldr	r3, [r7, #4]
 718 0084 5E4A     		ldr	r2, .L60+24
 719 0086 9342     		cmp	r3, r2
 720 0088 19D0     		beq	.L43
 721              		.loc 1 317 29 discriminator 11
 722 008a 7B68     		ldr	r3, [r7, #4]
 723 008c 5D4A     		ldr	r2, .L60+28
 724 008e 9342     		cmp	r3, r2
 725 0090 13D0     		beq	.L44
 726              		.loc 1 317 29 discriminator 13
 727 0092 7B68     		ldr	r3, [r7, #4]
 728 0094 5C4A     		ldr	r2, .L60+32
 729 0096 9342     		cmp	r3, r2
 730 0098 0DD0     		beq	.L45
 731              		.loc 1 317 29 discriminator 15
 732 009a 7B68     		ldr	r3, [r7, #4]
 733 009c 5B4A     		ldr	r2, .L60+36
 734 009e 9342     		cmp	r3, r2
 735 00a0 07D0     		beq	.L46
 736              		.loc 1 317 29 discriminator 17
 737 00a2 7B68     		ldr	r3, [r7, #4]
 738 00a4 5A4A     		ldr	r2, .L60+40
 739 00a6 9342     		cmp	r3, r2
 740 00a8 01D1     		bne	.L47
 741              		.loc 1 317 29 discriminator 19
 742 00aa 0923     		movs	r3, #9
 743 00ac 12E0     		b	.L57
 744              	.L47:
 745              		.loc 1 317 29 discriminator 20
 746 00ae 0A23     		movs	r3, #10
 747 00b0 10E0     		b	.L57
 748              	.L46:
 749              		.loc 1 317 29 discriminator 18
 750 00b2 0823     		movs	r3, #8
 751 00b4 0EE0     		b	.L57
 752              	.L45:
 753              		.loc 1 317 29 discriminator 16
 754 00b6 0723     		movs	r3, #7
 755 00b8 0CE0     		b	.L57
 756              	.L44:
 757              		.loc 1 317 29 discriminator 14
 758 00ba 0623     		movs	r3, #6
 759 00bc 0AE0     		b	.L57
 760              	.L43:
 761              		.loc 1 317 29 discriminator 12
 762 00be 0523     		movs	r3, #5
 763 00c0 08E0     		b	.L57
 764              	.L42:
 765              		.loc 1 317 29 discriminator 10
 766 00c2 0423     		movs	r3, #4
ARM GAS  /var/folders/06/9k7gq4t13mj84z2yhw3grvhc0000gn/T//ccYFtdGv.s 			page 20


 767 00c4 06E0     		b	.L57
 768              	.L41:
 769              		.loc 1 317 29 discriminator 8
 770 00c6 0323     		movs	r3, #3
 771 00c8 04E0     		b	.L57
 772              	.L40:
 773              		.loc 1 317 29 discriminator 6
 774 00ca 0223     		movs	r3, #2
 775 00cc 02E0     		b	.L57
 776              	.L39:
 777              		.loc 1 317 29 discriminator 4
 778 00ce 0123     		movs	r3, #1
 779 00d0 00E0     		b	.L57
 780              	.L38:
 781              		.loc 1 317 18 is_stmt 1 discriminator 2
 782 00d2 0023     		movs	r3, #0
 783              	.L57:
 784              		.loc 1 317 71 discriminator 40
 785 00d4 7A69     		ldr	r2, [r7, #20]
 786 00d6 02F00302 		and	r2, r2, #3
 787              		.loc 1 317 59 discriminator 40
 788 00da 9200     		lsls	r2, r2, #2
 789              		.loc 1 317 52 discriminator 40
 790 00dc 9340     		lsls	r3, r3, r2
 791              		.loc 1 317 9 discriminator 40
 792 00de BA68     		ldr	r2, [r7, #8]
 793 00e0 9A42     		cmp	r2, r3
 794 00e2 32D1     		bne	.L58
 318:Drivers/STM32F4xx_HAL_Driver/Src/stm32f4xx_hal_gpio.c ****       {
 319:Drivers/STM32F4xx_HAL_Driver/Src/stm32f4xx_hal_gpio.c ****         /* Clear EXTI line configuration */
 320:Drivers/STM32F4xx_HAL_Driver/Src/stm32f4xx_hal_gpio.c ****         EXTI->IMR &= ~((uint32_t)iocurrent);
 795              		.loc 1 320 13
 796 00e4 4B4B     		ldr	r3, .L60+44
 797 00e6 1A68     		ldr	r2, [r3]
 798              		.loc 1 320 22
 799 00e8 FB68     		ldr	r3, [r7, #12]
 800 00ea DB43     		mvns	r3, r3
 801              		.loc 1 320 13
 802 00ec 4949     		ldr	r1, .L60+44
 803              		.loc 1 320 19
 804 00ee 1340     		ands	r3, r3, r2
 805 00f0 0B60     		str	r3, [r1]
 321:Drivers/STM32F4xx_HAL_Driver/Src/stm32f4xx_hal_gpio.c ****         EXTI->EMR &= ~((uint32_t)iocurrent);
 806              		.loc 1 321 13
 807 00f2 484B     		ldr	r3, .L60+44
 808 00f4 5A68     		ldr	r2, [r3, #4]
 809              		.loc 1 321 22
 810 00f6 FB68     		ldr	r3, [r7, #12]
 811 00f8 DB43     		mvns	r3, r3
 812              		.loc 1 321 13
 813 00fa 4649     		ldr	r1, .L60+44
 814              		.loc 1 321 19
 815 00fc 1340     		ands	r3, r3, r2
 816 00fe 4B60     		str	r3, [r1, #4]
 322:Drivers/STM32F4xx_HAL_Driver/Src/stm32f4xx_hal_gpio.c ****         
 323:Drivers/STM32F4xx_HAL_Driver/Src/stm32f4xx_hal_gpio.c ****         /* Clear Rising Falling edge configuration */
 324:Drivers/STM32F4xx_HAL_Driver/Src/stm32f4xx_hal_gpio.c ****         EXTI->FTSR &= ~((uint32_t)iocurrent);
ARM GAS  /var/folders/06/9k7gq4t13mj84z2yhw3grvhc0000gn/T//ccYFtdGv.s 			page 21


 817              		.loc 1 324 13
 818 0100 444B     		ldr	r3, .L60+44
 819 0102 DA68     		ldr	r2, [r3, #12]
 820              		.loc 1 324 23
 821 0104 FB68     		ldr	r3, [r7, #12]
 822 0106 DB43     		mvns	r3, r3
 823              		.loc 1 324 13
 824 0108 4249     		ldr	r1, .L60+44
 825              		.loc 1 324 20
 826 010a 1340     		ands	r3, r3, r2
 827 010c CB60     		str	r3, [r1, #12]
 325:Drivers/STM32F4xx_HAL_Driver/Src/stm32f4xx_hal_gpio.c ****         EXTI->RTSR &= ~((uint32_t)iocurrent);
 828              		.loc 1 325 13
 829 010e 414B     		ldr	r3, .L60+44
 830 0110 9A68     		ldr	r2, [r3, #8]
 831              		.loc 1 325 23
 832 0112 FB68     		ldr	r3, [r7, #12]
 833 0114 DB43     		mvns	r3, r3
 834              		.loc 1 325 13
 835 0116 3F49     		ldr	r1, .L60+44
 836              		.loc 1 325 20
 837 0118 1340     		ands	r3, r3, r2
 838 011a 8B60     		str	r3, [r1, #8]
 326:Drivers/STM32F4xx_HAL_Driver/Src/stm32f4xx_hal_gpio.c **** 
 327:Drivers/STM32F4xx_HAL_Driver/Src/stm32f4xx_hal_gpio.c ****         /* Configure the External Interrupt or event for the current IO */
 328:Drivers/STM32F4xx_HAL_Driver/Src/stm32f4xx_hal_gpio.c ****         tmp = 0x0FU << (4U * (position & 0x03U));
 839              		.loc 1 328 40
 840 011c 7B69     		ldr	r3, [r7, #20]
 841 011e 03F00303 		and	r3, r3, #3
 842              		.loc 1 328 28
 843 0122 9B00     		lsls	r3, r3, #2
 844              		.loc 1 328 13
 845 0124 0F22     		movs	r2, #15
 846 0126 02FA03F3 		lsl	r3, r2, r3
 847 012a BB60     		str	r3, [r7, #8]
 329:Drivers/STM32F4xx_HAL_Driver/Src/stm32f4xx_hal_gpio.c ****         SYSCFG->EXTICR[position >> 2U] &= ~tmp;
 848              		.loc 1 329 15
 849 012c 2E4A     		ldr	r2, .L60
 850              		.loc 1 329 23
 851 012e 7B69     		ldr	r3, [r7, #20]
 852 0130 9B08     		lsrs	r3, r3, #2
 853 0132 0233     		adds	r3, r3, #2
 854 0134 52F82310 		ldr	r1, [r2, r3, lsl #2]
 855              		.loc 1 329 43
 856 0138 BB68     		ldr	r3, [r7, #8]
 857 013a DA43     		mvns	r2, r3
 858              		.loc 1 329 15
 859 013c 2A48     		ldr	r0, .L60
 860              		.loc 1 329 23
 861 013e 7B69     		ldr	r3, [r7, #20]
 862 0140 9B08     		lsrs	r3, r3, #2
 863              		.loc 1 329 40
 864 0142 0A40     		ands	r2, r2, r1
 865 0144 0233     		adds	r3, r3, #2
 866 0146 40F82320 		str	r2, [r0, r3, lsl #2]
 867              	.L58:
 330:Drivers/STM32F4xx_HAL_Driver/Src/stm32f4xx_hal_gpio.c ****       }
ARM GAS  /var/folders/06/9k7gq4t13mj84z2yhw3grvhc0000gn/T//ccYFtdGv.s 			page 22


 331:Drivers/STM32F4xx_HAL_Driver/Src/stm32f4xx_hal_gpio.c **** 
 332:Drivers/STM32F4xx_HAL_Driver/Src/stm32f4xx_hal_gpio.c ****       /*------------------------- GPIO Mode Configuration --------------------*/
 333:Drivers/STM32F4xx_HAL_Driver/Src/stm32f4xx_hal_gpio.c ****       /* Configure IO Direction in Input Floating Mode */
 334:Drivers/STM32F4xx_HAL_Driver/Src/stm32f4xx_hal_gpio.c ****       GPIOx->MODER &= ~(GPIO_MODER_MODER0 << (position * 2U));
 868              		.loc 1 334 12
 869 014a 7B68     		ldr	r3, [r7, #4]
 870 014c 1A68     		ldr	r2, [r3]
 871              		.loc 1 334 56
 872 014e 7B69     		ldr	r3, [r7, #20]
 873 0150 5B00     		lsls	r3, r3, #1
 874              		.loc 1 334 43
 875 0152 0321     		movs	r1, #3
 876 0154 01FA03F3 		lsl	r3, r1, r3
 877              		.loc 1 334 23
 878 0158 DB43     		mvns	r3, r3
 879              		.loc 1 334 20
 880 015a 1A40     		ands	r2, r2, r3
 881 015c 7B68     		ldr	r3, [r7, #4]
 882 015e 1A60     		str	r2, [r3]
 335:Drivers/STM32F4xx_HAL_Driver/Src/stm32f4xx_hal_gpio.c **** 
 336:Drivers/STM32F4xx_HAL_Driver/Src/stm32f4xx_hal_gpio.c ****       /* Configure the default Alternate Function in current IO */
 337:Drivers/STM32F4xx_HAL_Driver/Src/stm32f4xx_hal_gpio.c ****       GPIOx->AFR[position >> 3U] &= ~(0xFU << ((uint32_t)(position & 0x07U) * 4U)) ;
 883              		.loc 1 337 17
 884 0160 7B69     		ldr	r3, [r7, #20]
 885 0162 DA08     		lsrs	r2, r3, #3
 886 0164 7B68     		ldr	r3, [r7, #4]
 887 0166 0832     		adds	r2, r2, #8
 888 0168 53F82210 		ldr	r1, [r3, r2, lsl #2]
 889              		.loc 1 337 48
 890 016c 7B69     		ldr	r3, [r7, #20]
 891 016e 03F00703 		and	r3, r3, #7
 892              		.loc 1 337 77
 893 0172 9B00     		lsls	r3, r3, #2
 894              		.loc 1 337 44
 895 0174 0F22     		movs	r2, #15
 896 0176 02FA03F3 		lsl	r3, r2, r3
 897              		.loc 1 337 37
 898 017a DB43     		mvns	r3, r3
 899              		.loc 1 337 17
 900 017c 7A69     		ldr	r2, [r7, #20]
 901 017e D208     		lsrs	r2, r2, #3
 902              		.loc 1 337 34
 903 0180 1940     		ands	r1, r1, r3
 904 0182 7B68     		ldr	r3, [r7, #4]
 905 0184 0832     		adds	r2, r2, #8
 906 0186 43F82210 		str	r1, [r3, r2, lsl #2]
 338:Drivers/STM32F4xx_HAL_Driver/Src/stm32f4xx_hal_gpio.c **** 
 339:Drivers/STM32F4xx_HAL_Driver/Src/stm32f4xx_hal_gpio.c ****       /* Deactivate the Pull-up and Pull-down resistor for the current IO */
 340:Drivers/STM32F4xx_HAL_Driver/Src/stm32f4xx_hal_gpio.c ****       GPIOx->PUPDR &= ~(GPIO_PUPDR_PUPDR0 << (position * 2U));
 907              		.loc 1 340 12
 908 018a 7B68     		ldr	r3, [r7, #4]
 909 018c DA68     		ldr	r2, [r3, #12]
 910              		.loc 1 340 56
 911 018e 7B69     		ldr	r3, [r7, #20]
 912 0190 5B00     		lsls	r3, r3, #1
 913              		.loc 1 340 43
 914 0192 0321     		movs	r1, #3
ARM GAS  /var/folders/06/9k7gq4t13mj84z2yhw3grvhc0000gn/T//ccYFtdGv.s 			page 23


 915 0194 01FA03F3 		lsl	r3, r1, r3
 916              		.loc 1 340 23
 917 0198 DB43     		mvns	r3, r3
 918              		.loc 1 340 20
 919 019a 1A40     		ands	r2, r2, r3
 920 019c 7B68     		ldr	r3, [r7, #4]
 921 019e DA60     		str	r2, [r3, #12]
 341:Drivers/STM32F4xx_HAL_Driver/Src/stm32f4xx_hal_gpio.c **** 
 342:Drivers/STM32F4xx_HAL_Driver/Src/stm32f4xx_hal_gpio.c ****       /* Configure the default value IO Output Type */
 343:Drivers/STM32F4xx_HAL_Driver/Src/stm32f4xx_hal_gpio.c ****       GPIOx->OTYPER  &= ~(GPIO_OTYPER_OT_0 << position) ;
 922              		.loc 1 343 12
 923 01a0 7B68     		ldr	r3, [r7, #4]
 924 01a2 5A68     		ldr	r2, [r3, #4]
 925              		.loc 1 343 44
 926 01a4 0121     		movs	r1, #1
 927 01a6 7B69     		ldr	r3, [r7, #20]
 928 01a8 01FA03F3 		lsl	r3, r1, r3
 929              		.loc 1 343 25
 930 01ac DB43     		mvns	r3, r3
 931              		.loc 1 343 22
 932 01ae 1A40     		ands	r2, r2, r3
 933 01b0 7B68     		ldr	r3, [r7, #4]
 934 01b2 5A60     		str	r2, [r3, #4]
 344:Drivers/STM32F4xx_HAL_Driver/Src/stm32f4xx_hal_gpio.c **** 
 345:Drivers/STM32F4xx_HAL_Driver/Src/stm32f4xx_hal_gpio.c ****       /* Configure the default value for IO Speed */
 346:Drivers/STM32F4xx_HAL_Driver/Src/stm32f4xx_hal_gpio.c ****       GPIOx->OSPEEDR &= ~(GPIO_OSPEEDER_OSPEEDR0 << (position * 2U));
 935              		.loc 1 346 12
 936 01b4 7B68     		ldr	r3, [r7, #4]
 937 01b6 9A68     		ldr	r2, [r3, #8]
 938              		.loc 1 346 63
 939 01b8 7B69     		ldr	r3, [r7, #20]
 940 01ba 5B00     		lsls	r3, r3, #1
 941              		.loc 1 346 50
 942 01bc 0321     		movs	r1, #3
 943 01be 01FA03F3 		lsl	r3, r1, r3
 944              		.loc 1 346 25
 945 01c2 DB43     		mvns	r3, r3
 946              		.loc 1 346 22
 947 01c4 1A40     		ands	r2, r2, r3
 948 01c6 7B68     		ldr	r3, [r7, #4]
 949 01c8 9A60     		str	r2, [r3, #8]
 950              	.L37:
 305:Drivers/STM32F4xx_HAL_Driver/Src/stm32f4xx_hal_gpio.c ****   {
 951              		.loc 1 305 54 discriminator 2
 952 01ca 7B69     		ldr	r3, [r7, #20]
 953 01cc 0133     		adds	r3, r3, #1
 954 01ce 7B61     		str	r3, [r7, #20]
 955              	.L36:
 305:Drivers/STM32F4xx_HAL_Driver/Src/stm32f4xx_hal_gpio.c ****   {
 956              		.loc 1 305 31 discriminator 1
 957 01d0 7B69     		ldr	r3, [r7, #20]
 958 01d2 0F2B     		cmp	r3, #15
 959 01d4 7FF622AF 		bls	.L59
 347:Drivers/STM32F4xx_HAL_Driver/Src/stm32f4xx_hal_gpio.c ****     }
 348:Drivers/STM32F4xx_HAL_Driver/Src/stm32f4xx_hal_gpio.c ****   }
 349:Drivers/STM32F4xx_HAL_Driver/Src/stm32f4xx_hal_gpio.c **** }
 960              		.loc 1 349 1
ARM GAS  /var/folders/06/9k7gq4t13mj84z2yhw3grvhc0000gn/T//ccYFtdGv.s 			page 24


 961 01d8 00BF     		nop
 962 01da 00BF     		nop
 963 01dc 1C37     		adds	r7, r7, #28
 964              	.LCFI9:
 965              		.cfi_def_cfa_offset 4
 966 01de BD46     		mov	sp, r7
 967              	.LCFI10:
 968              		.cfi_def_cfa_register 13
 969              		@ sp needed
 970 01e0 5DF8047B 		ldr	r7, [sp], #4
 971              	.LCFI11:
 972              		.cfi_restore 7
 973              		.cfi_def_cfa_offset 0
 974 01e4 7047     		bx	lr
 975              	.L61:
 976 01e6 00BF     		.align	2
 977              	.L60:
 978 01e8 00380140 		.word	1073821696
 979 01ec 00000240 		.word	1073872896
 980 01f0 00040240 		.word	1073873920
 981 01f4 00080240 		.word	1073874944
 982 01f8 000C0240 		.word	1073875968
 983 01fc 00100240 		.word	1073876992
 984 0200 00140240 		.word	1073878016
 985 0204 00180240 		.word	1073879040
 986 0208 001C0240 		.word	1073880064
 987 020c 00200240 		.word	1073881088
 988 0210 00240240 		.word	1073882112
 989 0214 003C0140 		.word	1073822720
 990              		.cfi_endproc
 991              	.LFE135:
 993              		.section	.text.HAL_GPIO_ReadPin,"ax",%progbits
 994              		.align	1
 995              		.global	HAL_GPIO_ReadPin
 996              		.syntax unified
 997              		.thumb
 998              		.thumb_func
 1000              	HAL_GPIO_ReadPin:
 1001              	.LFB136:
 350:Drivers/STM32F4xx_HAL_Driver/Src/stm32f4xx_hal_gpio.c **** 
 351:Drivers/STM32F4xx_HAL_Driver/Src/stm32f4xx_hal_gpio.c **** /**
 352:Drivers/STM32F4xx_HAL_Driver/Src/stm32f4xx_hal_gpio.c ****   * @}
 353:Drivers/STM32F4xx_HAL_Driver/Src/stm32f4xx_hal_gpio.c ****   */
 354:Drivers/STM32F4xx_HAL_Driver/Src/stm32f4xx_hal_gpio.c **** 
 355:Drivers/STM32F4xx_HAL_Driver/Src/stm32f4xx_hal_gpio.c **** /** @defgroup GPIO_Exported_Functions_Group2 IO operation functions 
 356:Drivers/STM32F4xx_HAL_Driver/Src/stm32f4xx_hal_gpio.c ****   *  @brief   GPIO Read and Write
 357:Drivers/STM32F4xx_HAL_Driver/Src/stm32f4xx_hal_gpio.c ****   *
 358:Drivers/STM32F4xx_HAL_Driver/Src/stm32f4xx_hal_gpio.c **** @verbatim
 359:Drivers/STM32F4xx_HAL_Driver/Src/stm32f4xx_hal_gpio.c ****  ===============================================================================
 360:Drivers/STM32F4xx_HAL_Driver/Src/stm32f4xx_hal_gpio.c ****                        ##### IO operation functions #####
 361:Drivers/STM32F4xx_HAL_Driver/Src/stm32f4xx_hal_gpio.c ****  ===============================================================================
 362:Drivers/STM32F4xx_HAL_Driver/Src/stm32f4xx_hal_gpio.c **** 
 363:Drivers/STM32F4xx_HAL_Driver/Src/stm32f4xx_hal_gpio.c **** @endverbatim
 364:Drivers/STM32F4xx_HAL_Driver/Src/stm32f4xx_hal_gpio.c ****   * @{
 365:Drivers/STM32F4xx_HAL_Driver/Src/stm32f4xx_hal_gpio.c ****   */
 366:Drivers/STM32F4xx_HAL_Driver/Src/stm32f4xx_hal_gpio.c **** 
 367:Drivers/STM32F4xx_HAL_Driver/Src/stm32f4xx_hal_gpio.c **** /**
ARM GAS  /var/folders/06/9k7gq4t13mj84z2yhw3grvhc0000gn/T//ccYFtdGv.s 			page 25


 368:Drivers/STM32F4xx_HAL_Driver/Src/stm32f4xx_hal_gpio.c ****   * @brief  Reads the specified input port pin.
 369:Drivers/STM32F4xx_HAL_Driver/Src/stm32f4xx_hal_gpio.c ****   * @param  GPIOx where x can be (A..K) to select the GPIO peripheral for STM32F429X device or
 370:Drivers/STM32F4xx_HAL_Driver/Src/stm32f4xx_hal_gpio.c ****   *                      x can be (A..I) to select the GPIO peripheral for STM32F40XX and STM32F427
 371:Drivers/STM32F4xx_HAL_Driver/Src/stm32f4xx_hal_gpio.c ****   * @param  GPIO_Pin specifies the port bit to read.
 372:Drivers/STM32F4xx_HAL_Driver/Src/stm32f4xx_hal_gpio.c ****   *         This parameter can be GPIO_PIN_x where x can be (0..15).
 373:Drivers/STM32F4xx_HAL_Driver/Src/stm32f4xx_hal_gpio.c ****   * @retval The input port pin value.
 374:Drivers/STM32F4xx_HAL_Driver/Src/stm32f4xx_hal_gpio.c ****   */
 375:Drivers/STM32F4xx_HAL_Driver/Src/stm32f4xx_hal_gpio.c **** GPIO_PinState HAL_GPIO_ReadPin(GPIO_TypeDef* GPIOx, uint16_t GPIO_Pin)
 376:Drivers/STM32F4xx_HAL_Driver/Src/stm32f4xx_hal_gpio.c **** {
 1002              		.loc 1 376 1
 1003              		.cfi_startproc
 1004              		@ args = 0, pretend = 0, frame = 16
 1005              		@ frame_needed = 1, uses_anonymous_args = 0
 1006              		@ link register save eliminated.
 1007 0000 80B4     		push	{r7}
 1008              	.LCFI12:
 1009              		.cfi_def_cfa_offset 4
 1010              		.cfi_offset 7, -4
 1011 0002 85B0     		sub	sp, sp, #20
 1012              	.LCFI13:
 1013              		.cfi_def_cfa_offset 24
 1014 0004 00AF     		add	r7, sp, #0
 1015              	.LCFI14:
 1016              		.cfi_def_cfa_register 7
 1017 0006 7860     		str	r0, [r7, #4]
 1018 0008 0B46     		mov	r3, r1
 1019 000a 7B80     		strh	r3, [r7, #2]	@ movhi
 377:Drivers/STM32F4xx_HAL_Driver/Src/stm32f4xx_hal_gpio.c ****   GPIO_PinState bitstatus;
 378:Drivers/STM32F4xx_HAL_Driver/Src/stm32f4xx_hal_gpio.c **** 
 379:Drivers/STM32F4xx_HAL_Driver/Src/stm32f4xx_hal_gpio.c ****   /* Check the parameters */
 380:Drivers/STM32F4xx_HAL_Driver/Src/stm32f4xx_hal_gpio.c ****   assert_param(IS_GPIO_PIN(GPIO_Pin));
 381:Drivers/STM32F4xx_HAL_Driver/Src/stm32f4xx_hal_gpio.c **** 
 382:Drivers/STM32F4xx_HAL_Driver/Src/stm32f4xx_hal_gpio.c ****   if((GPIOx->IDR & GPIO_Pin) != (uint32_t)GPIO_PIN_RESET)
 1020              		.loc 1 382 12
 1021 000c 7B68     		ldr	r3, [r7, #4]
 1022 000e 1A69     		ldr	r2, [r3, #16]
 1023              		.loc 1 382 18
 1024 0010 7B88     		ldrh	r3, [r7, #2]
 1025 0012 1340     		ands	r3, r3, r2
 1026              		.loc 1 382 5
 1027 0014 002B     		cmp	r3, #0
 1028 0016 02D0     		beq	.L63
 383:Drivers/STM32F4xx_HAL_Driver/Src/stm32f4xx_hal_gpio.c ****   {
 384:Drivers/STM32F4xx_HAL_Driver/Src/stm32f4xx_hal_gpio.c ****     bitstatus = GPIO_PIN_SET;
 1029              		.loc 1 384 15
 1030 0018 0123     		movs	r3, #1
 1031 001a FB73     		strb	r3, [r7, #15]
 1032 001c 01E0     		b	.L64
 1033              	.L63:
 385:Drivers/STM32F4xx_HAL_Driver/Src/stm32f4xx_hal_gpio.c ****   }
 386:Drivers/STM32F4xx_HAL_Driver/Src/stm32f4xx_hal_gpio.c ****   else
 387:Drivers/STM32F4xx_HAL_Driver/Src/stm32f4xx_hal_gpio.c ****   {
 388:Drivers/STM32F4xx_HAL_Driver/Src/stm32f4xx_hal_gpio.c ****     bitstatus = GPIO_PIN_RESET;
 1034              		.loc 1 388 15
 1035 001e 0023     		movs	r3, #0
 1036 0020 FB73     		strb	r3, [r7, #15]
 1037              	.L64:
ARM GAS  /var/folders/06/9k7gq4t13mj84z2yhw3grvhc0000gn/T//ccYFtdGv.s 			page 26


 389:Drivers/STM32F4xx_HAL_Driver/Src/stm32f4xx_hal_gpio.c ****   }
 390:Drivers/STM32F4xx_HAL_Driver/Src/stm32f4xx_hal_gpio.c ****   return bitstatus;
 1038              		.loc 1 390 10
 1039 0022 FB7B     		ldrb	r3, [r7, #15]	@ zero_extendqisi2
 391:Drivers/STM32F4xx_HAL_Driver/Src/stm32f4xx_hal_gpio.c **** }
 1040              		.loc 1 391 1
 1041 0024 1846     		mov	r0, r3
 1042 0026 1437     		adds	r7, r7, #20
 1043              	.LCFI15:
 1044              		.cfi_def_cfa_offset 4
 1045 0028 BD46     		mov	sp, r7
 1046              	.LCFI16:
 1047              		.cfi_def_cfa_register 13
 1048              		@ sp needed
 1049 002a 5DF8047B 		ldr	r7, [sp], #4
 1050              	.LCFI17:
 1051              		.cfi_restore 7
 1052              		.cfi_def_cfa_offset 0
 1053 002e 7047     		bx	lr
 1054              		.cfi_endproc
 1055              	.LFE136:
 1057              		.section	.text.HAL_GPIO_WritePin,"ax",%progbits
 1058              		.align	1
 1059              		.global	HAL_GPIO_WritePin
 1060              		.syntax unified
 1061              		.thumb
 1062              		.thumb_func
 1064              	HAL_GPIO_WritePin:
 1065              	.LFB137:
 392:Drivers/STM32F4xx_HAL_Driver/Src/stm32f4xx_hal_gpio.c **** 
 393:Drivers/STM32F4xx_HAL_Driver/Src/stm32f4xx_hal_gpio.c **** /**
 394:Drivers/STM32F4xx_HAL_Driver/Src/stm32f4xx_hal_gpio.c ****   * @brief  Sets or clears the selected data port bit.
 395:Drivers/STM32F4xx_HAL_Driver/Src/stm32f4xx_hal_gpio.c ****   *
 396:Drivers/STM32F4xx_HAL_Driver/Src/stm32f4xx_hal_gpio.c ****   * @note   This function uses GPIOx_BSRR register to allow atomic read/modify
 397:Drivers/STM32F4xx_HAL_Driver/Src/stm32f4xx_hal_gpio.c ****   *         accesses. In this way, there is no risk of an IRQ occurring between
 398:Drivers/STM32F4xx_HAL_Driver/Src/stm32f4xx_hal_gpio.c ****   *         the read and the modify access.
 399:Drivers/STM32F4xx_HAL_Driver/Src/stm32f4xx_hal_gpio.c ****   *
 400:Drivers/STM32F4xx_HAL_Driver/Src/stm32f4xx_hal_gpio.c ****   * @param  GPIOx where x can be (A..K) to select the GPIO peripheral for STM32F429X device or
 401:Drivers/STM32F4xx_HAL_Driver/Src/stm32f4xx_hal_gpio.c ****   *                      x can be (A..I) to select the GPIO peripheral for STM32F40XX and STM32F427
 402:Drivers/STM32F4xx_HAL_Driver/Src/stm32f4xx_hal_gpio.c ****   * @param  GPIO_Pin specifies the port bit to be written.
 403:Drivers/STM32F4xx_HAL_Driver/Src/stm32f4xx_hal_gpio.c ****   *          This parameter can be one of GPIO_PIN_x where x can be (0..15).
 404:Drivers/STM32F4xx_HAL_Driver/Src/stm32f4xx_hal_gpio.c ****   * @param  PinState specifies the value to be written to the selected bit.
 405:Drivers/STM32F4xx_HAL_Driver/Src/stm32f4xx_hal_gpio.c ****   *          This parameter can be one of the GPIO_PinState enum values:
 406:Drivers/STM32F4xx_HAL_Driver/Src/stm32f4xx_hal_gpio.c ****   *            @arg GPIO_PIN_RESET: to clear the port pin
 407:Drivers/STM32F4xx_HAL_Driver/Src/stm32f4xx_hal_gpio.c ****   *            @arg GPIO_PIN_SET: to set the port pin
 408:Drivers/STM32F4xx_HAL_Driver/Src/stm32f4xx_hal_gpio.c ****   * @retval None
 409:Drivers/STM32F4xx_HAL_Driver/Src/stm32f4xx_hal_gpio.c ****   */
 410:Drivers/STM32F4xx_HAL_Driver/Src/stm32f4xx_hal_gpio.c **** void HAL_GPIO_WritePin(GPIO_TypeDef* GPIOx, uint16_t GPIO_Pin, GPIO_PinState PinState)
 411:Drivers/STM32F4xx_HAL_Driver/Src/stm32f4xx_hal_gpio.c **** {
 1066              		.loc 1 411 1
 1067              		.cfi_startproc
 1068              		@ args = 0, pretend = 0, frame = 8
 1069              		@ frame_needed = 1, uses_anonymous_args = 0
 1070              		@ link register save eliminated.
 1071 0000 80B4     		push	{r7}
 1072              	.LCFI18:
 1073              		.cfi_def_cfa_offset 4
ARM GAS  /var/folders/06/9k7gq4t13mj84z2yhw3grvhc0000gn/T//ccYFtdGv.s 			page 27


 1074              		.cfi_offset 7, -4
 1075 0002 83B0     		sub	sp, sp, #12
 1076              	.LCFI19:
 1077              		.cfi_def_cfa_offset 16
 1078 0004 00AF     		add	r7, sp, #0
 1079              	.LCFI20:
 1080              		.cfi_def_cfa_register 7
 1081 0006 7860     		str	r0, [r7, #4]
 1082 0008 0B46     		mov	r3, r1
 1083 000a 7B80     		strh	r3, [r7, #2]	@ movhi
 1084 000c 1346     		mov	r3, r2
 1085 000e 7B70     		strb	r3, [r7, #1]
 412:Drivers/STM32F4xx_HAL_Driver/Src/stm32f4xx_hal_gpio.c ****   /* Check the parameters */
 413:Drivers/STM32F4xx_HAL_Driver/Src/stm32f4xx_hal_gpio.c ****   assert_param(IS_GPIO_PIN(GPIO_Pin));
 414:Drivers/STM32F4xx_HAL_Driver/Src/stm32f4xx_hal_gpio.c ****   assert_param(IS_GPIO_PIN_ACTION(PinState));
 415:Drivers/STM32F4xx_HAL_Driver/Src/stm32f4xx_hal_gpio.c **** 
 416:Drivers/STM32F4xx_HAL_Driver/Src/stm32f4xx_hal_gpio.c ****   if(PinState != GPIO_PIN_RESET)
 1086              		.loc 1 416 5
 1087 0010 7B78     		ldrb	r3, [r7, #1]	@ zero_extendqisi2
 1088 0012 002B     		cmp	r3, #0
 1089 0014 03D0     		beq	.L67
 417:Drivers/STM32F4xx_HAL_Driver/Src/stm32f4xx_hal_gpio.c ****   {
 418:Drivers/STM32F4xx_HAL_Driver/Src/stm32f4xx_hal_gpio.c ****     GPIOx->BSRR = GPIO_Pin;
 1090              		.loc 1 418 17
 1091 0016 7A88     		ldrh	r2, [r7, #2]
 1092 0018 7B68     		ldr	r3, [r7, #4]
 1093 001a 9A61     		str	r2, [r3, #24]
 419:Drivers/STM32F4xx_HAL_Driver/Src/stm32f4xx_hal_gpio.c ****   }
 420:Drivers/STM32F4xx_HAL_Driver/Src/stm32f4xx_hal_gpio.c ****   else
 421:Drivers/STM32F4xx_HAL_Driver/Src/stm32f4xx_hal_gpio.c ****   {
 422:Drivers/STM32F4xx_HAL_Driver/Src/stm32f4xx_hal_gpio.c ****     GPIOx->BSRR = (uint32_t)GPIO_Pin << 16U;
 423:Drivers/STM32F4xx_HAL_Driver/Src/stm32f4xx_hal_gpio.c ****   }
 424:Drivers/STM32F4xx_HAL_Driver/Src/stm32f4xx_hal_gpio.c **** }
 1094              		.loc 1 424 1
 1095 001c 03E0     		b	.L69
 1096              	.L67:
 422:Drivers/STM32F4xx_HAL_Driver/Src/stm32f4xx_hal_gpio.c ****   }
 1097              		.loc 1 422 19
 1098 001e 7B88     		ldrh	r3, [r7, #2]
 422:Drivers/STM32F4xx_HAL_Driver/Src/stm32f4xx_hal_gpio.c ****   }
 1099              		.loc 1 422 38
 1100 0020 1A04     		lsls	r2, r3, #16
 422:Drivers/STM32F4xx_HAL_Driver/Src/stm32f4xx_hal_gpio.c ****   }
 1101              		.loc 1 422 17
 1102 0022 7B68     		ldr	r3, [r7, #4]
 1103 0024 9A61     		str	r2, [r3, #24]
 1104              	.L69:
 1105              		.loc 1 424 1
 1106 0026 00BF     		nop
 1107 0028 0C37     		adds	r7, r7, #12
 1108              	.LCFI21:
 1109              		.cfi_def_cfa_offset 4
 1110 002a BD46     		mov	sp, r7
 1111              	.LCFI22:
 1112              		.cfi_def_cfa_register 13
 1113              		@ sp needed
 1114 002c 5DF8047B 		ldr	r7, [sp], #4
ARM GAS  /var/folders/06/9k7gq4t13mj84z2yhw3grvhc0000gn/T//ccYFtdGv.s 			page 28


 1115              	.LCFI23:
 1116              		.cfi_restore 7
 1117              		.cfi_def_cfa_offset 0
 1118 0030 7047     		bx	lr
 1119              		.cfi_endproc
 1120              	.LFE137:
 1122              		.section	.text.HAL_GPIO_TogglePin,"ax",%progbits
 1123              		.align	1
 1124              		.global	HAL_GPIO_TogglePin
 1125              		.syntax unified
 1126              		.thumb
 1127              		.thumb_func
 1129              	HAL_GPIO_TogglePin:
 1130              	.LFB138:
 425:Drivers/STM32F4xx_HAL_Driver/Src/stm32f4xx_hal_gpio.c **** 
 426:Drivers/STM32F4xx_HAL_Driver/Src/stm32f4xx_hal_gpio.c **** /**
 427:Drivers/STM32F4xx_HAL_Driver/Src/stm32f4xx_hal_gpio.c ****   * @brief  Toggles the specified GPIO pins.
 428:Drivers/STM32F4xx_HAL_Driver/Src/stm32f4xx_hal_gpio.c ****   * @param  GPIOx Where x can be (A..K) to select the GPIO peripheral for STM32F429X device or
 429:Drivers/STM32F4xx_HAL_Driver/Src/stm32f4xx_hal_gpio.c ****   *                      x can be (A..I) to select the GPIO peripheral for STM32F40XX and STM32F427
 430:Drivers/STM32F4xx_HAL_Driver/Src/stm32f4xx_hal_gpio.c ****   * @param  GPIO_Pin Specifies the pins to be toggled.
 431:Drivers/STM32F4xx_HAL_Driver/Src/stm32f4xx_hal_gpio.c ****   * @retval None
 432:Drivers/STM32F4xx_HAL_Driver/Src/stm32f4xx_hal_gpio.c ****   */
 433:Drivers/STM32F4xx_HAL_Driver/Src/stm32f4xx_hal_gpio.c **** void HAL_GPIO_TogglePin(GPIO_TypeDef* GPIOx, uint16_t GPIO_Pin)
 434:Drivers/STM32F4xx_HAL_Driver/Src/stm32f4xx_hal_gpio.c **** {
 1131              		.loc 1 434 1
 1132              		.cfi_startproc
 1133              		@ args = 0, pretend = 0, frame = 16
 1134              		@ frame_needed = 1, uses_anonymous_args = 0
 1135              		@ link register save eliminated.
 1136 0000 80B4     		push	{r7}
 1137              	.LCFI24:
 1138              		.cfi_def_cfa_offset 4
 1139              		.cfi_offset 7, -4
 1140 0002 85B0     		sub	sp, sp, #20
 1141              	.LCFI25:
 1142              		.cfi_def_cfa_offset 24
 1143 0004 00AF     		add	r7, sp, #0
 1144              	.LCFI26:
 1145              		.cfi_def_cfa_register 7
 1146 0006 7860     		str	r0, [r7, #4]
 1147 0008 0B46     		mov	r3, r1
 1148 000a 7B80     		strh	r3, [r7, #2]	@ movhi
 435:Drivers/STM32F4xx_HAL_Driver/Src/stm32f4xx_hal_gpio.c ****   uint32_t odr;
 436:Drivers/STM32F4xx_HAL_Driver/Src/stm32f4xx_hal_gpio.c **** 
 437:Drivers/STM32F4xx_HAL_Driver/Src/stm32f4xx_hal_gpio.c ****   /* Check the parameters */
 438:Drivers/STM32F4xx_HAL_Driver/Src/stm32f4xx_hal_gpio.c ****   assert_param(IS_GPIO_PIN(GPIO_Pin));
 439:Drivers/STM32F4xx_HAL_Driver/Src/stm32f4xx_hal_gpio.c **** 
 440:Drivers/STM32F4xx_HAL_Driver/Src/stm32f4xx_hal_gpio.c ****   /* get current Output Data Register value */
 441:Drivers/STM32F4xx_HAL_Driver/Src/stm32f4xx_hal_gpio.c ****   odr = GPIOx->ODR;
 1149              		.loc 1 441 7
 1150 000c 7B68     		ldr	r3, [r7, #4]
 1151 000e 5B69     		ldr	r3, [r3, #20]
 1152 0010 FB60     		str	r3, [r7, #12]
 442:Drivers/STM32F4xx_HAL_Driver/Src/stm32f4xx_hal_gpio.c **** 
 443:Drivers/STM32F4xx_HAL_Driver/Src/stm32f4xx_hal_gpio.c ****   /* Set selected pins that were at low level, and reset ones that were high */
 444:Drivers/STM32F4xx_HAL_Driver/Src/stm32f4xx_hal_gpio.c ****   GPIOx->BSRR = ((odr & GPIO_Pin) << GPIO_NUMBER) | (~odr & GPIO_Pin);
 1153              		.loc 1 444 23
ARM GAS  /var/folders/06/9k7gq4t13mj84z2yhw3grvhc0000gn/T//ccYFtdGv.s 			page 29


 1154 0012 7A88     		ldrh	r2, [r7, #2]
 1155 0014 FB68     		ldr	r3, [r7, #12]
 1156 0016 1340     		ands	r3, r3, r2
 1157              		.loc 1 444 35
 1158 0018 1A04     		lsls	r2, r3, #16
 1159              		.loc 1 444 54
 1160 001a FB68     		ldr	r3, [r7, #12]
 1161 001c D943     		mvns	r1, r3
 1162              		.loc 1 444 59
 1163 001e 7B88     		ldrh	r3, [r7, #2]
 1164 0020 0B40     		ands	r3, r3, r1
 1165              		.loc 1 444 51
 1166 0022 1A43     		orrs	r2, r2, r3
 1167              		.loc 1 444 15
 1168 0024 7B68     		ldr	r3, [r7, #4]
 1169 0026 9A61     		str	r2, [r3, #24]
 445:Drivers/STM32F4xx_HAL_Driver/Src/stm32f4xx_hal_gpio.c **** }
 1170              		.loc 1 445 1
 1171 0028 00BF     		nop
 1172 002a 1437     		adds	r7, r7, #20
 1173              	.LCFI27:
 1174              		.cfi_def_cfa_offset 4
 1175 002c BD46     		mov	sp, r7
 1176              	.LCFI28:
 1177              		.cfi_def_cfa_register 13
 1178              		@ sp needed
 1179 002e 5DF8047B 		ldr	r7, [sp], #4
 1180              	.LCFI29:
 1181              		.cfi_restore 7
 1182              		.cfi_def_cfa_offset 0
 1183 0032 7047     		bx	lr
 1184              		.cfi_endproc
 1185              	.LFE138:
 1187              		.section	.text.HAL_GPIO_LockPin,"ax",%progbits
 1188              		.align	1
 1189              		.global	HAL_GPIO_LockPin
 1190              		.syntax unified
 1191              		.thumb
 1192              		.thumb_func
 1194              	HAL_GPIO_LockPin:
 1195              	.LFB139:
 446:Drivers/STM32F4xx_HAL_Driver/Src/stm32f4xx_hal_gpio.c **** 
 447:Drivers/STM32F4xx_HAL_Driver/Src/stm32f4xx_hal_gpio.c **** /**
 448:Drivers/STM32F4xx_HAL_Driver/Src/stm32f4xx_hal_gpio.c ****   * @brief  Locks GPIO Pins configuration registers.
 449:Drivers/STM32F4xx_HAL_Driver/Src/stm32f4xx_hal_gpio.c ****   * @note   The locked registers are GPIOx_MODER, GPIOx_OTYPER, GPIOx_OSPEEDR,
 450:Drivers/STM32F4xx_HAL_Driver/Src/stm32f4xx_hal_gpio.c ****   *         GPIOx_PUPDR, GPIOx_AFRL and GPIOx_AFRH.
 451:Drivers/STM32F4xx_HAL_Driver/Src/stm32f4xx_hal_gpio.c ****   * @note   The configuration of the locked GPIO pins can no longer be modified
 452:Drivers/STM32F4xx_HAL_Driver/Src/stm32f4xx_hal_gpio.c ****   *         until the next reset.
 453:Drivers/STM32F4xx_HAL_Driver/Src/stm32f4xx_hal_gpio.c ****   * @param  GPIOx where x can be (A..F) to select the GPIO peripheral for STM32F4 family
 454:Drivers/STM32F4xx_HAL_Driver/Src/stm32f4xx_hal_gpio.c ****   * @param  GPIO_Pin specifies the port bit to be locked.
 455:Drivers/STM32F4xx_HAL_Driver/Src/stm32f4xx_hal_gpio.c ****   *         This parameter can be any combination of GPIO_PIN_x where x can be (0..15).
 456:Drivers/STM32F4xx_HAL_Driver/Src/stm32f4xx_hal_gpio.c ****   * @retval None
 457:Drivers/STM32F4xx_HAL_Driver/Src/stm32f4xx_hal_gpio.c ****   */
 458:Drivers/STM32F4xx_HAL_Driver/Src/stm32f4xx_hal_gpio.c **** HAL_StatusTypeDef HAL_GPIO_LockPin(GPIO_TypeDef* GPIOx, uint16_t GPIO_Pin)
 459:Drivers/STM32F4xx_HAL_Driver/Src/stm32f4xx_hal_gpio.c **** {
 1196              		.loc 1 459 1
 1197              		.cfi_startproc
ARM GAS  /var/folders/06/9k7gq4t13mj84z2yhw3grvhc0000gn/T//ccYFtdGv.s 			page 30


 1198              		@ args = 0, pretend = 0, frame = 16
 1199              		@ frame_needed = 1, uses_anonymous_args = 0
 1200              		@ link register save eliminated.
 1201 0000 80B4     		push	{r7}
 1202              	.LCFI30:
 1203              		.cfi_def_cfa_offset 4
 1204              		.cfi_offset 7, -4
 1205 0002 85B0     		sub	sp, sp, #20
 1206              	.LCFI31:
 1207              		.cfi_def_cfa_offset 24
 1208 0004 00AF     		add	r7, sp, #0
 1209              	.LCFI32:
 1210              		.cfi_def_cfa_register 7
 1211 0006 7860     		str	r0, [r7, #4]
 1212 0008 0B46     		mov	r3, r1
 1213 000a 7B80     		strh	r3, [r7, #2]	@ movhi
 460:Drivers/STM32F4xx_HAL_Driver/Src/stm32f4xx_hal_gpio.c ****   __IO uint32_t tmp = GPIO_LCKR_LCKK;
 1214              		.loc 1 460 17
 1215 000c 4FF48033 		mov	r3, #65536
 1216 0010 FB60     		str	r3, [r7, #12]
 461:Drivers/STM32F4xx_HAL_Driver/Src/stm32f4xx_hal_gpio.c **** 
 462:Drivers/STM32F4xx_HAL_Driver/Src/stm32f4xx_hal_gpio.c ****   /* Check the parameters */
 463:Drivers/STM32F4xx_HAL_Driver/Src/stm32f4xx_hal_gpio.c ****   assert_param(IS_GPIO_PIN(GPIO_Pin));
 464:Drivers/STM32F4xx_HAL_Driver/Src/stm32f4xx_hal_gpio.c **** 
 465:Drivers/STM32F4xx_HAL_Driver/Src/stm32f4xx_hal_gpio.c ****   /* Apply lock key write sequence */
 466:Drivers/STM32F4xx_HAL_Driver/Src/stm32f4xx_hal_gpio.c ****   tmp |= GPIO_Pin;
 1217              		.loc 1 466 7
 1218 0012 7A88     		ldrh	r2, [r7, #2]
 1219 0014 FB68     		ldr	r3, [r7, #12]
 1220 0016 1343     		orrs	r3, r3, r2
 1221 0018 FB60     		str	r3, [r7, #12]
 467:Drivers/STM32F4xx_HAL_Driver/Src/stm32f4xx_hal_gpio.c ****   /* Set LCKx bit(s): LCKK='1' + LCK[15-0] */
 468:Drivers/STM32F4xx_HAL_Driver/Src/stm32f4xx_hal_gpio.c ****   GPIOx->LCKR = tmp;
 1222              		.loc 1 468 15
 1223 001a FA68     		ldr	r2, [r7, #12]
 1224 001c 7B68     		ldr	r3, [r7, #4]
 1225 001e DA61     		str	r2, [r3, #28]
 469:Drivers/STM32F4xx_HAL_Driver/Src/stm32f4xx_hal_gpio.c ****   /* Reset LCKx bit(s): LCKK='0' + LCK[15-0] */
 470:Drivers/STM32F4xx_HAL_Driver/Src/stm32f4xx_hal_gpio.c ****   GPIOx->LCKR = GPIO_Pin;
 1226              		.loc 1 470 15
 1227 0020 7A88     		ldrh	r2, [r7, #2]
 1228 0022 7B68     		ldr	r3, [r7, #4]
 1229 0024 DA61     		str	r2, [r3, #28]
 471:Drivers/STM32F4xx_HAL_Driver/Src/stm32f4xx_hal_gpio.c ****   /* Set LCKx bit(s): LCKK='1' + LCK[15-0] */
 472:Drivers/STM32F4xx_HAL_Driver/Src/stm32f4xx_hal_gpio.c ****   GPIOx->LCKR = tmp;
 1230              		.loc 1 472 15
 1231 0026 FA68     		ldr	r2, [r7, #12]
 1232 0028 7B68     		ldr	r3, [r7, #4]
 1233 002a DA61     		str	r2, [r3, #28]
 473:Drivers/STM32F4xx_HAL_Driver/Src/stm32f4xx_hal_gpio.c ****   /* Read LCKR register. This read is mandatory to complete key lock sequence */
 474:Drivers/STM32F4xx_HAL_Driver/Src/stm32f4xx_hal_gpio.c ****   tmp = GPIOx->LCKR;
 1234              		.loc 1 474 14
 1235 002c 7B68     		ldr	r3, [r7, #4]
 1236 002e DB69     		ldr	r3, [r3, #28]
 1237              		.loc 1 474 7
 1238 0030 FB60     		str	r3, [r7, #12]
 475:Drivers/STM32F4xx_HAL_Driver/Src/stm32f4xx_hal_gpio.c **** 
ARM GAS  /var/folders/06/9k7gq4t13mj84z2yhw3grvhc0000gn/T//ccYFtdGv.s 			page 31


 476:Drivers/STM32F4xx_HAL_Driver/Src/stm32f4xx_hal_gpio.c ****   /* Read again in order to confirm lock is active */
 477:Drivers/STM32F4xx_HAL_Driver/Src/stm32f4xx_hal_gpio.c ****  if((GPIOx->LCKR & GPIO_LCKR_LCKK) != RESET)
 1239              		.loc 1 477 11
 1240 0032 7B68     		ldr	r3, [r7, #4]
 1241 0034 DB69     		ldr	r3, [r3, #28]
 1242              		.loc 1 477 18
 1243 0036 03F48033 		and	r3, r3, #65536
 1244              		.loc 1 477 4
 1245 003a 002B     		cmp	r3, #0
 1246 003c 01D0     		beq	.L72
 478:Drivers/STM32F4xx_HAL_Driver/Src/stm32f4xx_hal_gpio.c ****   {
 479:Drivers/STM32F4xx_HAL_Driver/Src/stm32f4xx_hal_gpio.c ****     return HAL_OK;
 1247              		.loc 1 479 12
 1248 003e 0023     		movs	r3, #0
 1249 0040 00E0     		b	.L73
 1250              	.L72:
 480:Drivers/STM32F4xx_HAL_Driver/Src/stm32f4xx_hal_gpio.c ****   }
 481:Drivers/STM32F4xx_HAL_Driver/Src/stm32f4xx_hal_gpio.c ****   else
 482:Drivers/STM32F4xx_HAL_Driver/Src/stm32f4xx_hal_gpio.c ****   {
 483:Drivers/STM32F4xx_HAL_Driver/Src/stm32f4xx_hal_gpio.c ****     return HAL_ERROR;
 1251              		.loc 1 483 12
 1252 0042 0123     		movs	r3, #1
 1253              	.L73:
 484:Drivers/STM32F4xx_HAL_Driver/Src/stm32f4xx_hal_gpio.c ****   }
 485:Drivers/STM32F4xx_HAL_Driver/Src/stm32f4xx_hal_gpio.c **** }
 1254              		.loc 1 485 1
 1255 0044 1846     		mov	r0, r3
 1256 0046 1437     		adds	r7, r7, #20
 1257              	.LCFI33:
 1258              		.cfi_def_cfa_offset 4
 1259 0048 BD46     		mov	sp, r7
 1260              	.LCFI34:
 1261              		.cfi_def_cfa_register 13
 1262              		@ sp needed
 1263 004a 5DF8047B 		ldr	r7, [sp], #4
 1264              	.LCFI35:
 1265              		.cfi_restore 7
 1266              		.cfi_def_cfa_offset 0
 1267 004e 7047     		bx	lr
 1268              		.cfi_endproc
 1269              	.LFE139:
 1271              		.section	.text.HAL_GPIO_EXTI_IRQHandler,"ax",%progbits
 1272              		.align	1
 1273              		.global	HAL_GPIO_EXTI_IRQHandler
 1274              		.syntax unified
 1275              		.thumb
 1276              		.thumb_func
 1278              	HAL_GPIO_EXTI_IRQHandler:
 1279              	.LFB140:
 486:Drivers/STM32F4xx_HAL_Driver/Src/stm32f4xx_hal_gpio.c **** 
 487:Drivers/STM32F4xx_HAL_Driver/Src/stm32f4xx_hal_gpio.c **** /**
 488:Drivers/STM32F4xx_HAL_Driver/Src/stm32f4xx_hal_gpio.c ****   * @brief  This function handles EXTI interrupt request.
 489:Drivers/STM32F4xx_HAL_Driver/Src/stm32f4xx_hal_gpio.c ****   * @param  GPIO_Pin Specifies the pins connected EXTI line
 490:Drivers/STM32F4xx_HAL_Driver/Src/stm32f4xx_hal_gpio.c ****   * @retval None
 491:Drivers/STM32F4xx_HAL_Driver/Src/stm32f4xx_hal_gpio.c ****   */
 492:Drivers/STM32F4xx_HAL_Driver/Src/stm32f4xx_hal_gpio.c **** void HAL_GPIO_EXTI_IRQHandler(uint16_t GPIO_Pin)
 493:Drivers/STM32F4xx_HAL_Driver/Src/stm32f4xx_hal_gpio.c **** {
ARM GAS  /var/folders/06/9k7gq4t13mj84z2yhw3grvhc0000gn/T//ccYFtdGv.s 			page 32


 1280              		.loc 1 493 1
 1281              		.cfi_startproc
 1282              		@ args = 0, pretend = 0, frame = 8
 1283              		@ frame_needed = 1, uses_anonymous_args = 0
 1284 0000 80B5     		push	{r7, lr}
 1285              	.LCFI36:
 1286              		.cfi_def_cfa_offset 8
 1287              		.cfi_offset 7, -8
 1288              		.cfi_offset 14, -4
 1289 0002 82B0     		sub	sp, sp, #8
 1290              	.LCFI37:
 1291              		.cfi_def_cfa_offset 16
 1292 0004 00AF     		add	r7, sp, #0
 1293              	.LCFI38:
 1294              		.cfi_def_cfa_register 7
 1295 0006 0346     		mov	r3, r0
 1296 0008 FB80     		strh	r3, [r7, #6]	@ movhi
 494:Drivers/STM32F4xx_HAL_Driver/Src/stm32f4xx_hal_gpio.c ****   /* EXTI line interrupt detected */
 495:Drivers/STM32F4xx_HAL_Driver/Src/stm32f4xx_hal_gpio.c ****   if(__HAL_GPIO_EXTI_GET_IT(GPIO_Pin) != RESET)
 1297              		.loc 1 495 6
 1298 000a 084B     		ldr	r3, .L77
 1299 000c 5A69     		ldr	r2, [r3, #20]
 1300 000e FB88     		ldrh	r3, [r7, #6]
 1301 0010 1340     		ands	r3, r3, r2
 1302              		.loc 1 495 5
 1303 0012 002B     		cmp	r3, #0
 1304 0014 06D0     		beq	.L76
 496:Drivers/STM32F4xx_HAL_Driver/Src/stm32f4xx_hal_gpio.c ****   {
 497:Drivers/STM32F4xx_HAL_Driver/Src/stm32f4xx_hal_gpio.c ****     __HAL_GPIO_EXTI_CLEAR_IT(GPIO_Pin);
 1305              		.loc 1 497 5
 1306 0016 054A     		ldr	r2, .L77
 1307 0018 FB88     		ldrh	r3, [r7, #6]
 1308 001a 5361     		str	r3, [r2, #20]
 498:Drivers/STM32F4xx_HAL_Driver/Src/stm32f4xx_hal_gpio.c ****     HAL_GPIO_EXTI_Callback(GPIO_Pin);
 1309              		.loc 1 498 5
 1310 001c FB88     		ldrh	r3, [r7, #6]
 1311 001e 1846     		mov	r0, r3
 1312 0020 FFF7FEFF 		bl	HAL_GPIO_EXTI_Callback
 1313              	.L76:
 499:Drivers/STM32F4xx_HAL_Driver/Src/stm32f4xx_hal_gpio.c ****   }
 500:Drivers/STM32F4xx_HAL_Driver/Src/stm32f4xx_hal_gpio.c **** }
 1314              		.loc 1 500 1
 1315 0024 00BF     		nop
 1316 0026 0837     		adds	r7, r7, #8
 1317              	.LCFI39:
 1318              		.cfi_def_cfa_offset 8
 1319 0028 BD46     		mov	sp, r7
 1320              	.LCFI40:
 1321              		.cfi_def_cfa_register 13
 1322              		@ sp needed
 1323 002a 80BD     		pop	{r7, pc}
 1324              	.L78:
 1325              		.align	2
 1326              	.L77:
 1327 002c 003C0140 		.word	1073822720
 1328              		.cfi_endproc
 1329              	.LFE140:
ARM GAS  /var/folders/06/9k7gq4t13mj84z2yhw3grvhc0000gn/T//ccYFtdGv.s 			page 33


 1331              		.section	.text.HAL_GPIO_EXTI_Callback,"ax",%progbits
 1332              		.align	1
 1333              		.weak	HAL_GPIO_EXTI_Callback
 1334              		.syntax unified
 1335              		.thumb
 1336              		.thumb_func
 1338              	HAL_GPIO_EXTI_Callback:
 1339              	.LFB141:
 501:Drivers/STM32F4xx_HAL_Driver/Src/stm32f4xx_hal_gpio.c **** 
 502:Drivers/STM32F4xx_HAL_Driver/Src/stm32f4xx_hal_gpio.c **** /**
 503:Drivers/STM32F4xx_HAL_Driver/Src/stm32f4xx_hal_gpio.c ****   * @brief  EXTI line detection callbacks.
 504:Drivers/STM32F4xx_HAL_Driver/Src/stm32f4xx_hal_gpio.c ****   * @param  GPIO_Pin Specifies the pins connected EXTI line
 505:Drivers/STM32F4xx_HAL_Driver/Src/stm32f4xx_hal_gpio.c ****   * @retval None
 506:Drivers/STM32F4xx_HAL_Driver/Src/stm32f4xx_hal_gpio.c ****   */
 507:Drivers/STM32F4xx_HAL_Driver/Src/stm32f4xx_hal_gpio.c **** __weak void HAL_GPIO_EXTI_Callback(uint16_t GPIO_Pin)
 508:Drivers/STM32F4xx_HAL_Driver/Src/stm32f4xx_hal_gpio.c **** {
 1340              		.loc 1 508 1
 1341              		.cfi_startproc
 1342              		@ args = 0, pretend = 0, frame = 8
 1343              		@ frame_needed = 1, uses_anonymous_args = 0
 1344              		@ link register save eliminated.
 1345 0000 80B4     		push	{r7}
 1346              	.LCFI41:
 1347              		.cfi_def_cfa_offset 4
 1348              		.cfi_offset 7, -4
 1349 0002 83B0     		sub	sp, sp, #12
 1350              	.LCFI42:
 1351              		.cfi_def_cfa_offset 16
 1352 0004 00AF     		add	r7, sp, #0
 1353              	.LCFI43:
 1354              		.cfi_def_cfa_register 7
 1355 0006 0346     		mov	r3, r0
 1356 0008 FB80     		strh	r3, [r7, #6]	@ movhi
 509:Drivers/STM32F4xx_HAL_Driver/Src/stm32f4xx_hal_gpio.c ****   /* Prevent unused argument(s) compilation warning */
 510:Drivers/STM32F4xx_HAL_Driver/Src/stm32f4xx_hal_gpio.c ****   UNUSED(GPIO_Pin);
 511:Drivers/STM32F4xx_HAL_Driver/Src/stm32f4xx_hal_gpio.c ****   /* NOTE: This function Should not be modified, when the callback is needed,
 512:Drivers/STM32F4xx_HAL_Driver/Src/stm32f4xx_hal_gpio.c ****            the HAL_GPIO_EXTI_Callback could be implemented in the user file
 513:Drivers/STM32F4xx_HAL_Driver/Src/stm32f4xx_hal_gpio.c ****    */
 514:Drivers/STM32F4xx_HAL_Driver/Src/stm32f4xx_hal_gpio.c **** }
 1357              		.loc 1 514 1
 1358 000a 00BF     		nop
 1359 000c 0C37     		adds	r7, r7, #12
 1360              	.LCFI44:
 1361              		.cfi_def_cfa_offset 4
 1362 000e BD46     		mov	sp, r7
 1363              	.LCFI45:
 1364              		.cfi_def_cfa_register 13
 1365              		@ sp needed
 1366 0010 5DF8047B 		ldr	r7, [sp], #4
 1367              	.LCFI46:
 1368              		.cfi_restore 7
 1369              		.cfi_def_cfa_offset 0
 1370 0014 7047     		bx	lr
 1371              		.cfi_endproc
 1372              	.LFE141:
 1374              		.text
 1375              	.Letext0:
ARM GAS  /var/folders/06/9k7gq4t13mj84z2yhw3grvhc0000gn/T//ccYFtdGv.s 			page 34


 1376              		.file 2 "/Applications/ArmGNUToolchain/13.2.Rel1/arm-none-eabi/arm-none-eabi/include/machine/_defa
 1377              		.file 3 "/Applications/ArmGNUToolchain/13.2.Rel1/arm-none-eabi/arm-none-eabi/include/sys/_stdint.h
 1378              		.file 4 "Drivers/CMSIS/Device/ST/STM32F4xx/Include/stm32f429xx.h"
 1379              		.file 5 "Drivers/CMSIS/Device/ST/STM32F4xx/Include/stm32f4xx.h"
 1380              		.file 6 "Drivers/STM32F4xx_HAL_Driver/Inc/stm32f4xx_hal_def.h"
 1381              		.file 7 "Drivers/STM32F4xx_HAL_Driver/Inc/stm32f4xx_hal_gpio.h"
ARM GAS  /var/folders/06/9k7gq4t13mj84z2yhw3grvhc0000gn/T//ccYFtdGv.s 			page 35

