ARM GAS  /var/folders/06/9k7gq4t13mj84z2yhw3grvhc0000gn/T//ccJ3lc1F.s 			page 1


   1              		.cpu cortex-m4
   2              		.arch armv7e-m
   3              		.fpu fpv4-sp-d16
   4              		.eabi_attribute 27, 1
   5              		.eabi_attribute 28, 1
   6              		.eabi_attribute 20, 1
   7              		.eabi_attribute 21, 1
   8              		.eabi_attribute 23, 3
   9              		.eabi_attribute 24, 1
  10              		.eabi_attribute 25, 1
  11              		.eabi_attribute 26, 1
  12              		.eabi_attribute 30, 6
  13              		.eabi_attribute 34, 1
  14              		.eabi_attribute 18, 4
  15              		.file	"stm32f429i_discovery.c"
  16              		.text
  17              	.Ltext0:
  18              		.cfi_sections	.debug_frame
  19              		.file 1 "Drivers/BSP/STM32F429I-Discovery/stm32f429i_discovery.c"
  20              		.global	GPIO_PORT
  21              		.section	.data.GPIO_PORT,"aw"
  22              		.align	2
  25              	GPIO_PORT:
  26 0000 00180240 		.word	1073879040
  27 0004 00180240 		.word	1073879040
  28              		.global	GPIO_PIN
  29              		.section	.rodata.GPIO_PIN,"a"
  30              		.align	2
  33              	GPIO_PIN:
  34 0000 0020     		.short	8192
  35 0002 0040     		.short	16384
  36              		.global	BUTTON_PORT
  37              		.section	.data.BUTTON_PORT,"aw"
  38              		.align	2
  41              	BUTTON_PORT:
  42 0000 00000240 		.word	1073872896
  43              		.global	BUTTON_PIN
  44              		.section	.rodata.BUTTON_PIN,"a"
  45              		.align	2
  48              	BUTTON_PIN:
  49 0000 0100     		.short	1
  50              		.global	BUTTON_IRQn
  51              		.section	.rodata.BUTTON_IRQn,"a"
  52              		.align	2
  55              	BUTTON_IRQn:
  56 0000 06       		.ascii	"\006"
  57              		.global	I2cxTimeout
  58              		.section	.data.I2cxTimeout,"aw"
  59              		.align	2
  62              	I2cxTimeout:
  63 0000 00300000 		.word	12288
  64              		.global	SpixTimeout
  65              		.section	.data.SpixTimeout,"aw"
  66              		.align	2
  69              	SpixTimeout:
  70 0000 00100000 		.word	4096
  71              		.global	I2cHandle
ARM GAS  /var/folders/06/9k7gq4t13mj84z2yhw3grvhc0000gn/T//ccJ3lc1F.s 			page 2


  72              		.section	.bss.I2cHandle,"aw",%nobits
  73              		.align	2
  76              	I2cHandle:
  77 0000 00000000 		.space	84
  77      00000000 
  77      00000000 
  77      00000000 
  77      00000000 
  78              		.section	.bss.SpiHandle,"aw",%nobits
  79              		.align	2
  82              	SpiHandle:
  83 0000 00000000 		.space	88
  83      00000000 
  83      00000000 
  83      00000000 
  83      00000000 
  84              		.section	.bss.Is_LCD_IO_Initialized,"aw",%nobits
  87              	Is_LCD_IO_Initialized:
  88 0000 00       		.space	1
  89              		.section	.text.BSP_GetVersion,"ax",%progbits
  90              		.align	1
  91              		.global	BSP_GetVersion
  92              		.syntax unified
  93              		.thumb
  94              		.thumb_func
  96              	BSP_GetVersion:
  97              	.LFB134:
   1:Drivers/BSP/STM32F429I-Discovery/stm32f429i_discovery.c **** /**
   2:Drivers/BSP/STM32F429I-Discovery/stm32f429i_discovery.c ****   ******************************************************************************
   3:Drivers/BSP/STM32F429I-Discovery/stm32f429i_discovery.c ****   * @file    stm32f429i_discovery.c
   4:Drivers/BSP/STM32F429I-Discovery/stm32f429i_discovery.c ****   * @author  MCD Application Team
   5:Drivers/BSP/STM32F429I-Discovery/stm32f429i_discovery.c ****   * @brief   This file provides set of firmware functions to manage Leds and
   6:Drivers/BSP/STM32F429I-Discovery/stm32f429i_discovery.c ****   *          push-button available on STM32F429I-Discovery Kit from STMicroelectronics.
   7:Drivers/BSP/STM32F429I-Discovery/stm32f429i_discovery.c ****   ******************************************************************************
   8:Drivers/BSP/STM32F429I-Discovery/stm32f429i_discovery.c ****   * @attention
   9:Drivers/BSP/STM32F429I-Discovery/stm32f429i_discovery.c ****   *
  10:Drivers/BSP/STM32F429I-Discovery/stm32f429i_discovery.c ****   * Copyright (c) 2017 STMicroelectronics.
  11:Drivers/BSP/STM32F429I-Discovery/stm32f429i_discovery.c ****   * All rights reserved.
  12:Drivers/BSP/STM32F429I-Discovery/stm32f429i_discovery.c ****   *
  13:Drivers/BSP/STM32F429I-Discovery/stm32f429i_discovery.c ****   * This software is licensed under terms that can be found in the LICENSE file
  14:Drivers/BSP/STM32F429I-Discovery/stm32f429i_discovery.c ****   * in the root directory of this software component.
  15:Drivers/BSP/STM32F429I-Discovery/stm32f429i_discovery.c ****   * If no LICENSE file comes with this software, it is provided AS-IS.
  16:Drivers/BSP/STM32F429I-Discovery/stm32f429i_discovery.c ****   *
  17:Drivers/BSP/STM32F429I-Discovery/stm32f429i_discovery.c ****   ******************************************************************************
  18:Drivers/BSP/STM32F429I-Discovery/stm32f429i_discovery.c ****   */
  19:Drivers/BSP/STM32F429I-Discovery/stm32f429i_discovery.c **** 
  20:Drivers/BSP/STM32F429I-Discovery/stm32f429i_discovery.c **** #pragma GCC diagnostic ignored "-Wunused-parameter"
  21:Drivers/BSP/STM32F429I-Discovery/stm32f429i_discovery.c **** /* Includes ------------------------------------------------------------------*/
  22:Drivers/BSP/STM32F429I-Discovery/stm32f429i_discovery.c **** #include "stm32f429i_discovery.h"
  23:Drivers/BSP/STM32F429I-Discovery/stm32f429i_discovery.c **** 
  24:Drivers/BSP/STM32F429I-Discovery/stm32f429i_discovery.c **** /** @defgroup BSP BSP
  25:Drivers/BSP/STM32F429I-Discovery/stm32f429i_discovery.c ****   * @{
  26:Drivers/BSP/STM32F429I-Discovery/stm32f429i_discovery.c ****   */
  27:Drivers/BSP/STM32F429I-Discovery/stm32f429i_discovery.c **** 
  28:Drivers/BSP/STM32F429I-Discovery/stm32f429i_discovery.c **** /** @defgroup STM32F429I_DISCOVERY STM32F429I DISCOVERY
  29:Drivers/BSP/STM32F429I-Discovery/stm32f429i_discovery.c ****   * @{
  30:Drivers/BSP/STM32F429I-Discovery/stm32f429i_discovery.c ****   */
ARM GAS  /var/folders/06/9k7gq4t13mj84z2yhw3grvhc0000gn/T//ccJ3lc1F.s 			page 3


  31:Drivers/BSP/STM32F429I-Discovery/stm32f429i_discovery.c **** 
  32:Drivers/BSP/STM32F429I-Discovery/stm32f429i_discovery.c **** /** @defgroup STM32F429I_DISCOVERY_LOW_LEVEL STM32F429I DISCOVERY LOW LEVEL
  33:Drivers/BSP/STM32F429I-Discovery/stm32f429i_discovery.c ****   * @brief This file provides set of firmware functions to manage Leds and push-button
  34:Drivers/BSP/STM32F429I-Discovery/stm32f429i_discovery.c ****   *        available on STM32F429I-Discovery Kit from STMicroelectronics.
  35:Drivers/BSP/STM32F429I-Discovery/stm32f429i_discovery.c ****   * @{
  36:Drivers/BSP/STM32F429I-Discovery/stm32f429i_discovery.c ****   */
  37:Drivers/BSP/STM32F429I-Discovery/stm32f429i_discovery.c **** 
  38:Drivers/BSP/STM32F429I-Discovery/stm32f429i_discovery.c **** /** @defgroup STM32F429I_DISCOVERY_LOW_LEVEL_Private_TypesDefinitions STM32F429I DISCOVERY LOW LEVE
  39:Drivers/BSP/STM32F429I-Discovery/stm32f429i_discovery.c ****   * @{
  40:Drivers/BSP/STM32F429I-Discovery/stm32f429i_discovery.c ****   */
  41:Drivers/BSP/STM32F429I-Discovery/stm32f429i_discovery.c **** /**
  42:Drivers/BSP/STM32F429I-Discovery/stm32f429i_discovery.c ****   * @}
  43:Drivers/BSP/STM32F429I-Discovery/stm32f429i_discovery.c ****   */
  44:Drivers/BSP/STM32F429I-Discovery/stm32f429i_discovery.c **** 
  45:Drivers/BSP/STM32F429I-Discovery/stm32f429i_discovery.c **** /** @defgroup STM32F429I_DISCOVERY_LOW_LEVEL_Private_Defines STM32F429I DISCOVERY LOW LEVEL Private
  46:Drivers/BSP/STM32F429I-Discovery/stm32f429i_discovery.c ****   * @{
  47:Drivers/BSP/STM32F429I-Discovery/stm32f429i_discovery.c ****   */
  48:Drivers/BSP/STM32F429I-Discovery/stm32f429i_discovery.c **** 
  49:Drivers/BSP/STM32F429I-Discovery/stm32f429i_discovery.c **** /**
  50:Drivers/BSP/STM32F429I-Discovery/stm32f429i_discovery.c ****   * @brief STM32F429I DISCO BSP Driver version number V2.1.8
  51:Drivers/BSP/STM32F429I-Discovery/stm32f429i_discovery.c ****   */
  52:Drivers/BSP/STM32F429I-Discovery/stm32f429i_discovery.c **** #define __STM32F429I_DISCO_BSP_VERSION_MAIN   (0x02) /*!< [31:24] main version */
  53:Drivers/BSP/STM32F429I-Discovery/stm32f429i_discovery.c **** #define __STM32F429I_DISCO_BSP_VERSION_SUB1   (0x01) /*!< [23:16] sub1 version */
  54:Drivers/BSP/STM32F429I-Discovery/stm32f429i_discovery.c **** #define __STM32F429I_DISCO_BSP_VERSION_SUB2   (0x08) /*!< [15:8]  sub2 version */
  55:Drivers/BSP/STM32F429I-Discovery/stm32f429i_discovery.c **** #define __STM32F429I_DISCO_BSP_VERSION_RC     (0x00) /*!< [7:0]  release candidate */
  56:Drivers/BSP/STM32F429I-Discovery/stm32f429i_discovery.c **** #define __STM32F429I_DISCO_BSP_VERSION        ((__STM32F429I_DISCO_BSP_VERSION_MAIN << 24)\
  57:Drivers/BSP/STM32F429I-Discovery/stm32f429i_discovery.c ****                                                |(__STM32F429I_DISCO_BSP_VERSION_SUB1 << 16)\
  58:Drivers/BSP/STM32F429I-Discovery/stm32f429i_discovery.c ****                                                |(__STM32F429I_DISCO_BSP_VERSION_SUB2 << 8 )\
  59:Drivers/BSP/STM32F429I-Discovery/stm32f429i_discovery.c ****                                                |(__STM32F429I_DISCO_BSP_VERSION_RC))
  60:Drivers/BSP/STM32F429I-Discovery/stm32f429i_discovery.c **** /**
  61:Drivers/BSP/STM32F429I-Discovery/stm32f429i_discovery.c ****   * @}
  62:Drivers/BSP/STM32F429I-Discovery/stm32f429i_discovery.c ****   */
  63:Drivers/BSP/STM32F429I-Discovery/stm32f429i_discovery.c **** 
  64:Drivers/BSP/STM32F429I-Discovery/stm32f429i_discovery.c **** /** @defgroup STM32F429I_DISCOVERY_LOW_LEVEL_Private_Macros STM32F429I DISCOVERY LOW LEVEL Private 
  65:Drivers/BSP/STM32F429I-Discovery/stm32f429i_discovery.c ****   * @{
  66:Drivers/BSP/STM32F429I-Discovery/stm32f429i_discovery.c ****   */
  67:Drivers/BSP/STM32F429I-Discovery/stm32f429i_discovery.c **** /**
  68:Drivers/BSP/STM32F429I-Discovery/stm32f429i_discovery.c ****   * @}
  69:Drivers/BSP/STM32F429I-Discovery/stm32f429i_discovery.c ****   */
  70:Drivers/BSP/STM32F429I-Discovery/stm32f429i_discovery.c **** 
  71:Drivers/BSP/STM32F429I-Discovery/stm32f429i_discovery.c **** /** @defgroup STM32F429I_DISCOVERY_LOW_LEVEL_Private_Variables STM32F429I DISCOVERY LOW LEVEL Priva
  72:Drivers/BSP/STM32F429I-Discovery/stm32f429i_discovery.c ****   * @{
  73:Drivers/BSP/STM32F429I-Discovery/stm32f429i_discovery.c ****   */
  74:Drivers/BSP/STM32F429I-Discovery/stm32f429i_discovery.c **** GPIO_TypeDef *GPIO_PORT[LEDn] = {LED3_GPIO_PORT,
  75:Drivers/BSP/STM32F429I-Discovery/stm32f429i_discovery.c ****                                  LED4_GPIO_PORT
  76:Drivers/BSP/STM32F429I-Discovery/stm32f429i_discovery.c ****                                 };
  77:Drivers/BSP/STM32F429I-Discovery/stm32f429i_discovery.c **** 
  78:Drivers/BSP/STM32F429I-Discovery/stm32f429i_discovery.c **** const uint16_t GPIO_PIN[LEDn] = {LED3_PIN,
  79:Drivers/BSP/STM32F429I-Discovery/stm32f429i_discovery.c ****                                  LED4_PIN
  80:Drivers/BSP/STM32F429I-Discovery/stm32f429i_discovery.c ****                                 };
  81:Drivers/BSP/STM32F429I-Discovery/stm32f429i_discovery.c **** 
  82:Drivers/BSP/STM32F429I-Discovery/stm32f429i_discovery.c **** GPIO_TypeDef *BUTTON_PORT[BUTTONn] = {KEY_BUTTON_GPIO_PORT};
  83:Drivers/BSP/STM32F429I-Discovery/stm32f429i_discovery.c **** const uint16_t BUTTON_PIN[BUTTONn] = {KEY_BUTTON_PIN};
  84:Drivers/BSP/STM32F429I-Discovery/stm32f429i_discovery.c **** const uint8_t BUTTON_IRQn[BUTTONn] = {KEY_BUTTON_EXTI_IRQn};
  85:Drivers/BSP/STM32F429I-Discovery/stm32f429i_discovery.c **** 
  86:Drivers/BSP/STM32F429I-Discovery/stm32f429i_discovery.c **** uint32_t I2cxTimeout = I2Cx_TIMEOUT_MAX; /*<! Value of Timeout when I2C communication fails */
  87:Drivers/BSP/STM32F429I-Discovery/stm32f429i_discovery.c **** uint32_t SpixTimeout = SPIx_TIMEOUT_MAX; /*<! Value of Timeout when SPI communication fails */
ARM GAS  /var/folders/06/9k7gq4t13mj84z2yhw3grvhc0000gn/T//ccJ3lc1F.s 			page 4


  88:Drivers/BSP/STM32F429I-Discovery/stm32f429i_discovery.c **** 
  89:Drivers/BSP/STM32F429I-Discovery/stm32f429i_discovery.c **** I2C_HandleTypeDef I2cHandle;
  90:Drivers/BSP/STM32F429I-Discovery/stm32f429i_discovery.c **** static SPI_HandleTypeDef SpiHandle;
  91:Drivers/BSP/STM32F429I-Discovery/stm32f429i_discovery.c **** static uint8_t Is_LCD_IO_Initialized = 0;
  92:Drivers/BSP/STM32F429I-Discovery/stm32f429i_discovery.c **** 
  93:Drivers/BSP/STM32F429I-Discovery/stm32f429i_discovery.c **** /**
  94:Drivers/BSP/STM32F429I-Discovery/stm32f429i_discovery.c ****   * @}
  95:Drivers/BSP/STM32F429I-Discovery/stm32f429i_discovery.c ****   */
  96:Drivers/BSP/STM32F429I-Discovery/stm32f429i_discovery.c **** 
  97:Drivers/BSP/STM32F429I-Discovery/stm32f429i_discovery.c **** /** @defgroup STM32F429I_DISCOVERY_LOW_LEVEL_Private_FunctionPrototypes STM32F429I DISCOVERY LOW LE
  98:Drivers/BSP/STM32F429I-Discovery/stm32f429i_discovery.c ****   * @{
  99:Drivers/BSP/STM32F429I-Discovery/stm32f429i_discovery.c ****   */
 100:Drivers/BSP/STM32F429I-Discovery/stm32f429i_discovery.c **** /* I2Cx bus function */
 101:Drivers/BSP/STM32F429I-Discovery/stm32f429i_discovery.c **** static void               I2Cx_Init(void);
 102:Drivers/BSP/STM32F429I-Discovery/stm32f429i_discovery.c **** static void               I2Cx_ITConfig(void);
 103:Drivers/BSP/STM32F429I-Discovery/stm32f429i_discovery.c **** static void               I2Cx_WriteData(uint8_t Addr, uint8_t Reg, uint8_t Value);
 104:Drivers/BSP/STM32F429I-Discovery/stm32f429i_discovery.c **** static void               I2Cx_WriteBuffer(uint8_t Addr, uint8_t Reg,  uint8_t *pBuffer, uint16_t L
 105:Drivers/BSP/STM32F429I-Discovery/stm32f429i_discovery.c **** static uint8_t            I2Cx_ReadData(uint8_t Addr, uint8_t Reg);
 106:Drivers/BSP/STM32F429I-Discovery/stm32f429i_discovery.c **** static uint8_t            I2Cx_ReadBuffer(uint8_t Addr, uint8_t Reg, uint8_t *pBuffer, uint16_t Len
 107:Drivers/BSP/STM32F429I-Discovery/stm32f429i_discovery.c **** static void               I2Cx_Error(void);
 108:Drivers/BSP/STM32F429I-Discovery/stm32f429i_discovery.c **** static void               I2Cx_MspInit(I2C_HandleTypeDef *hi2c);
 109:Drivers/BSP/STM32F429I-Discovery/stm32f429i_discovery.c **** #ifdef EE_M24LR64
 110:Drivers/BSP/STM32F429I-Discovery/stm32f429i_discovery.c **** static HAL_StatusTypeDef  I2Cx_WriteBufferDMA(uint8_t Addr, uint16_t Reg,  uint8_t *pBuffer, uint16
 111:Drivers/BSP/STM32F429I-Discovery/stm32f429i_discovery.c **** static HAL_StatusTypeDef  I2Cx_ReadBufferDMA(uint8_t Addr, uint16_t Reg, uint8_t *pBuffer, uint16_t
 112:Drivers/BSP/STM32F429I-Discovery/stm32f429i_discovery.c **** static HAL_StatusTypeDef  I2Cx_IsDeviceReady(uint16_t DevAddress, uint32_t Trials);
 113:Drivers/BSP/STM32F429I-Discovery/stm32f429i_discovery.c **** #endif /* EE_M24LR64 */
 114:Drivers/BSP/STM32F429I-Discovery/stm32f429i_discovery.c **** 
 115:Drivers/BSP/STM32F429I-Discovery/stm32f429i_discovery.c **** /* SPIx bus function */
 116:Drivers/BSP/STM32F429I-Discovery/stm32f429i_discovery.c **** static void               SPIx_Init(void);
 117:Drivers/BSP/STM32F429I-Discovery/stm32f429i_discovery.c **** static void               SPIx_Write(uint16_t Value);
 118:Drivers/BSP/STM32F429I-Discovery/stm32f429i_discovery.c **** static uint32_t           SPIx_Read(uint8_t ReadSize);
 119:Drivers/BSP/STM32F429I-Discovery/stm32f429i_discovery.c **** static uint8_t            SPIx_WriteRead(uint8_t Byte);
 120:Drivers/BSP/STM32F429I-Discovery/stm32f429i_discovery.c **** static void               SPIx_Error(void);
 121:Drivers/BSP/STM32F429I-Discovery/stm32f429i_discovery.c **** static void               SPIx_MspInit(SPI_HandleTypeDef *hspi);
 122:Drivers/BSP/STM32F429I-Discovery/stm32f429i_discovery.c **** 
 123:Drivers/BSP/STM32F429I-Discovery/stm32f429i_discovery.c **** /* Link function for LCD peripheral */
 124:Drivers/BSP/STM32F429I-Discovery/stm32f429i_discovery.c **** void                      LCD_IO_Init(void);
 125:Drivers/BSP/STM32F429I-Discovery/stm32f429i_discovery.c **** void                      LCD_IO_WriteData(uint16_t RegValue);
 126:Drivers/BSP/STM32F429I-Discovery/stm32f429i_discovery.c **** void                      LCD_IO_WriteReg(uint8_t Reg);
 127:Drivers/BSP/STM32F429I-Discovery/stm32f429i_discovery.c **** uint32_t                  LCD_IO_ReadData(uint16_t RegValue, uint8_t ReadSize);
 128:Drivers/BSP/STM32F429I-Discovery/stm32f429i_discovery.c **** void                      LCD_Delay(uint32_t delay);
 129:Drivers/BSP/STM32F429I-Discovery/stm32f429i_discovery.c **** 
 130:Drivers/BSP/STM32F429I-Discovery/stm32f429i_discovery.c **** /* IOExpander IO functions */
 131:Drivers/BSP/STM32F429I-Discovery/stm32f429i_discovery.c **** void                      IOE_Init(void);
 132:Drivers/BSP/STM32F429I-Discovery/stm32f429i_discovery.c **** void                      IOE_ITConfig(void);
 133:Drivers/BSP/STM32F429I-Discovery/stm32f429i_discovery.c **** void                      IOE_Delay(uint32_t Delay);
 134:Drivers/BSP/STM32F429I-Discovery/stm32f429i_discovery.c **** void                      IOE_Write(uint8_t Addr, uint8_t Reg, uint8_t Value);
 135:Drivers/BSP/STM32F429I-Discovery/stm32f429i_discovery.c **** uint8_t                   IOE_Read(uint8_t Addr, uint8_t Reg);
 136:Drivers/BSP/STM32F429I-Discovery/stm32f429i_discovery.c **** uint16_t                  IOE_ReadMultiple(uint8_t Addr, uint8_t Reg, uint8_t *pBuffer, uint16_t Le
 137:Drivers/BSP/STM32F429I-Discovery/stm32f429i_discovery.c **** void                      IOE_WriteMultiple(uint8_t Addr, uint8_t Reg, uint8_t *pBuffer, uint16_t L
 138:Drivers/BSP/STM32F429I-Discovery/stm32f429i_discovery.c **** 
 139:Drivers/BSP/STM32F429I-Discovery/stm32f429i_discovery.c **** /* Link function for GYRO peripheral */
 140:Drivers/BSP/STM32F429I-Discovery/stm32f429i_discovery.c **** void                      GYRO_IO_Init(void);
 141:Drivers/BSP/STM32F429I-Discovery/stm32f429i_discovery.c **** void                      GYRO_IO_Write(uint8_t *pBuffer, uint8_t WriteAddr, uint16_t NumByteToWrit
 142:Drivers/BSP/STM32F429I-Discovery/stm32f429i_discovery.c **** void                      GYRO_IO_Read(uint8_t *pBuffer, uint8_t ReadAddr, uint16_t NumByteToRead);
 143:Drivers/BSP/STM32F429I-Discovery/stm32f429i_discovery.c **** 
 144:Drivers/BSP/STM32F429I-Discovery/stm32f429i_discovery.c **** #ifdef EE_M24LR64
ARM GAS  /var/folders/06/9k7gq4t13mj84z2yhw3grvhc0000gn/T//ccJ3lc1F.s 			page 5


 145:Drivers/BSP/STM32F429I-Discovery/stm32f429i_discovery.c **** /* Link function for I2C EEPROM peripheral */
 146:Drivers/BSP/STM32F429I-Discovery/stm32f429i_discovery.c **** void                      EEPROM_IO_Init(void);
 147:Drivers/BSP/STM32F429I-Discovery/stm32f429i_discovery.c **** HAL_StatusTypeDef         EEPROM_IO_WriteData(uint16_t DevAddress, uint16_t MemAddress, uint8_t *pB
 148:Drivers/BSP/STM32F429I-Discovery/stm32f429i_discovery.c ****                                               uint32_t BufferSize);
 149:Drivers/BSP/STM32F429I-Discovery/stm32f429i_discovery.c **** HAL_StatusTypeDef         EEPROM_IO_ReadData(uint16_t DevAddress, uint16_t MemAddress, uint8_t *pBu
 150:Drivers/BSP/STM32F429I-Discovery/stm32f429i_discovery.c ****                                              uint32_t BufferSize);
 151:Drivers/BSP/STM32F429I-Discovery/stm32f429i_discovery.c **** HAL_StatusTypeDef         EEPROM_IO_IsDeviceReady(uint16_t DevAddress, uint32_t Trials);
 152:Drivers/BSP/STM32F429I-Discovery/stm32f429i_discovery.c **** #endif /* EE_M24LR64 */
 153:Drivers/BSP/STM32F429I-Discovery/stm32f429i_discovery.c **** 
 154:Drivers/BSP/STM32F429I-Discovery/stm32f429i_discovery.c **** /**
 155:Drivers/BSP/STM32F429I-Discovery/stm32f429i_discovery.c ****   * @}
 156:Drivers/BSP/STM32F429I-Discovery/stm32f429i_discovery.c ****   */
 157:Drivers/BSP/STM32F429I-Discovery/stm32f429i_discovery.c **** 
 158:Drivers/BSP/STM32F429I-Discovery/stm32f429i_discovery.c **** /** @defgroup STM32F429I_DISCOVERY_LOW_LEVEL_Private_Functions STM32F429I DISCOVERY LOW LEVEL Priva
 159:Drivers/BSP/STM32F429I-Discovery/stm32f429i_discovery.c ****   * @{
 160:Drivers/BSP/STM32F429I-Discovery/stm32f429i_discovery.c ****   */
 161:Drivers/BSP/STM32F429I-Discovery/stm32f429i_discovery.c **** 
 162:Drivers/BSP/STM32F429I-Discovery/stm32f429i_discovery.c **** /**
 163:Drivers/BSP/STM32F429I-Discovery/stm32f429i_discovery.c ****   * @brief  This method returns the STM32F429I DISCO BSP Driver revision
 164:Drivers/BSP/STM32F429I-Discovery/stm32f429i_discovery.c ****   * @retval version: 0xXYZR (8bits for each decimal, R for RC)
 165:Drivers/BSP/STM32F429I-Discovery/stm32f429i_discovery.c ****   */
 166:Drivers/BSP/STM32F429I-Discovery/stm32f429i_discovery.c **** uint32_t BSP_GetVersion(void)
 167:Drivers/BSP/STM32F429I-Discovery/stm32f429i_discovery.c **** {
  98              		.loc 1 167 1
  99              		.cfi_startproc
 100              		@ args = 0, pretend = 0, frame = 0
 101              		@ frame_needed = 1, uses_anonymous_args = 0
 102              		@ link register save eliminated.
 103 0000 80B4     		push	{r7}
 104              	.LCFI0:
 105              		.cfi_def_cfa_offset 4
 106              		.cfi_offset 7, -4
 107 0002 00AF     		add	r7, sp, #0
 108              	.LCFI1:
 109              		.cfi_def_cfa_register 7
 168:Drivers/BSP/STM32F429I-Discovery/stm32f429i_discovery.c ****   return __STM32F429I_DISCO_BSP_VERSION;
 110              		.loc 1 168 10
 111 0004 024B     		ldr	r3, .L3
 169:Drivers/BSP/STM32F429I-Discovery/stm32f429i_discovery.c **** }
 112              		.loc 1 169 1
 113 0006 1846     		mov	r0, r3
 114 0008 BD46     		mov	sp, r7
 115              	.LCFI2:
 116              		.cfi_def_cfa_register 13
 117              		@ sp needed
 118 000a 5DF8047B 		ldr	r7, [sp], #4
 119              	.LCFI3:
 120              		.cfi_restore 7
 121              		.cfi_def_cfa_offset 0
 122 000e 7047     		bx	lr
 123              	.L4:
 124              		.align	2
 125              	.L3:
 126 0010 00080102 		.word	33622016
 127              		.cfi_endproc
 128              	.LFE134:
 130              		.section	.text.BSP_LED_Init,"ax",%progbits
ARM GAS  /var/folders/06/9k7gq4t13mj84z2yhw3grvhc0000gn/T//ccJ3lc1F.s 			page 6


 131              		.align	1
 132              		.global	BSP_LED_Init
 133              		.syntax unified
 134              		.thumb
 135              		.thumb_func
 137              	BSP_LED_Init:
 138              	.LFB135:
 170:Drivers/BSP/STM32F429I-Discovery/stm32f429i_discovery.c **** 
 171:Drivers/BSP/STM32F429I-Discovery/stm32f429i_discovery.c **** /**
 172:Drivers/BSP/STM32F429I-Discovery/stm32f429i_discovery.c ****   * @brief  Configures LED GPIO.
 173:Drivers/BSP/STM32F429I-Discovery/stm32f429i_discovery.c ****   * @param  Led: Specifies the Led to be configured.
 174:Drivers/BSP/STM32F429I-Discovery/stm32f429i_discovery.c ****   *   This parameter can be one of following parameters:
 175:Drivers/BSP/STM32F429I-Discovery/stm32f429i_discovery.c ****   *     @arg LED3
 176:Drivers/BSP/STM32F429I-Discovery/stm32f429i_discovery.c ****   *     @arg LED4
 177:Drivers/BSP/STM32F429I-Discovery/stm32f429i_discovery.c ****   */
 178:Drivers/BSP/STM32F429I-Discovery/stm32f429i_discovery.c **** void BSP_LED_Init(Led_TypeDef Led)
 179:Drivers/BSP/STM32F429I-Discovery/stm32f429i_discovery.c **** {
 139              		.loc 1 179 1
 140              		.cfi_startproc
 141              		@ args = 0, pretend = 0, frame = 40
 142              		@ frame_needed = 1, uses_anonymous_args = 0
 143 0000 80B5     		push	{r7, lr}
 144              	.LCFI4:
 145              		.cfi_def_cfa_offset 8
 146              		.cfi_offset 7, -8
 147              		.cfi_offset 14, -4
 148 0002 8AB0     		sub	sp, sp, #40
 149              	.LCFI5:
 150              		.cfi_def_cfa_offset 48
 151 0004 00AF     		add	r7, sp, #0
 152              	.LCFI6:
 153              		.cfi_def_cfa_register 7
 154 0006 0346     		mov	r3, r0
 155 0008 FB71     		strb	r3, [r7, #7]
 180:Drivers/BSP/STM32F429I-Discovery/stm32f429i_discovery.c ****   GPIO_InitTypeDef  GPIO_InitStruct;
 181:Drivers/BSP/STM32F429I-Discovery/stm32f429i_discovery.c **** 
 182:Drivers/BSP/STM32F429I-Discovery/stm32f429i_discovery.c ****   /* Enable the GPIO_LED Clock */
 183:Drivers/BSP/STM32F429I-Discovery/stm32f429i_discovery.c ****   LEDx_GPIO_CLK_ENABLE(Led);
 156              		.loc 1 183 3
 157 000a FB79     		ldrb	r3, [r7, #7]	@ zero_extendqisi2
 158 000c 002B     		cmp	r3, #0
 159 000e 0ED1     		bne	.L6
 160              	.LBB2:
 161              		.loc 1 183 3 is_stmt 0 discriminator 1
 162 0010 0023     		movs	r3, #0
 163 0012 3B61     		str	r3, [r7, #16]
 164 0014 214B     		ldr	r3, .L8
 165 0016 1B6B     		ldr	r3, [r3, #48]
 166 0018 204A     		ldr	r2, .L8
 167 001a 43F04003 		orr	r3, r3, #64
 168 001e 1363     		str	r3, [r2, #48]
 169 0020 1E4B     		ldr	r3, .L8
 170 0022 1B6B     		ldr	r3, [r3, #48]
 171 0024 03F04003 		and	r3, r3, #64
 172 0028 3B61     		str	r3, [r7, #16]
 173 002a 3B69     		ldr	r3, [r7, #16]
 174              	.LBE2:
ARM GAS  /var/folders/06/9k7gq4t13mj84z2yhw3grvhc0000gn/T//ccJ3lc1F.s 			page 7


 175 002c 10E0     		b	.L7
 176              	.L6:
 177              		.loc 1 183 3 discriminator 2
 178 002e FB79     		ldrb	r3, [r7, #7]	@ zero_extendqisi2
 179 0030 012B     		cmp	r3, #1
 180 0032 0DD1     		bne	.L7
 181              	.LBB3:
 182              		.loc 1 183 3 discriminator 3
 183 0034 0023     		movs	r3, #0
 184 0036 FB60     		str	r3, [r7, #12]
 185 0038 184B     		ldr	r3, .L8
 186 003a 1B6B     		ldr	r3, [r3, #48]
 187 003c 174A     		ldr	r2, .L8
 188 003e 43F04003 		orr	r3, r3, #64
 189 0042 1363     		str	r3, [r2, #48]
 190 0044 154B     		ldr	r3, .L8
 191 0046 1B6B     		ldr	r3, [r3, #48]
 192 0048 03F04003 		and	r3, r3, #64
 193 004c FB60     		str	r3, [r7, #12]
 194 004e FB68     		ldr	r3, [r7, #12]
 195              	.L7:
 196              	.LBE3:
 184:Drivers/BSP/STM32F429I-Discovery/stm32f429i_discovery.c **** 
 185:Drivers/BSP/STM32F429I-Discovery/stm32f429i_discovery.c ****   /* Configure the GPIO_LED pin */
 186:Drivers/BSP/STM32F429I-Discovery/stm32f429i_discovery.c ****   GPIO_InitStruct.Pin = GPIO_PIN[Led];
 197              		.loc 1 186 33 is_stmt 1
 198 0050 FB79     		ldrb	r3, [r7, #7]	@ zero_extendqisi2
 199 0052 134A     		ldr	r2, .L8+4
 200 0054 32F81330 		ldrh	r3, [r2, r3, lsl #1]
 201              		.loc 1 186 23
 202 0058 7B61     		str	r3, [r7, #20]
 187:Drivers/BSP/STM32F429I-Discovery/stm32f429i_discovery.c ****   GPIO_InitStruct.Mode = GPIO_MODE_OUTPUT_PP;
 203              		.loc 1 187 24
 204 005a 0123     		movs	r3, #1
 205 005c BB61     		str	r3, [r7, #24]
 188:Drivers/BSP/STM32F429I-Discovery/stm32f429i_discovery.c ****   GPIO_InitStruct.Pull = GPIO_PULLUP;
 206              		.loc 1 188 24
 207 005e 0123     		movs	r3, #1
 208 0060 FB61     		str	r3, [r7, #28]
 189:Drivers/BSP/STM32F429I-Discovery/stm32f429i_discovery.c ****   GPIO_InitStruct.Speed = GPIO_SPEED_FAST;
 209              		.loc 1 189 25
 210 0062 0223     		movs	r3, #2
 211 0064 3B62     		str	r3, [r7, #32]
 190:Drivers/BSP/STM32F429I-Discovery/stm32f429i_discovery.c **** 
 191:Drivers/BSP/STM32F429I-Discovery/stm32f429i_discovery.c ****   HAL_GPIO_Init(GPIO_PORT[Led], &GPIO_InitStruct);
 212              		.loc 1 191 3
 213 0066 FB79     		ldrb	r3, [r7, #7]	@ zero_extendqisi2
 214 0068 0E4A     		ldr	r2, .L8+8
 215 006a 52F82330 		ldr	r3, [r2, r3, lsl #2]
 216 006e 07F11402 		add	r2, r7, #20
 217 0072 1146     		mov	r1, r2
 218 0074 1846     		mov	r0, r3
 219 0076 FFF7FEFF 		bl	HAL_GPIO_Init
 192:Drivers/BSP/STM32F429I-Discovery/stm32f429i_discovery.c **** 
 193:Drivers/BSP/STM32F429I-Discovery/stm32f429i_discovery.c ****   HAL_GPIO_WritePin(GPIO_PORT[Led], GPIO_PIN[Led], GPIO_PIN_RESET);
 220              		.loc 1 193 3
 221 007a FB79     		ldrb	r3, [r7, #7]	@ zero_extendqisi2
ARM GAS  /var/folders/06/9k7gq4t13mj84z2yhw3grvhc0000gn/T//ccJ3lc1F.s 			page 8


 222 007c 094A     		ldr	r2, .L8+8
 223 007e 52F82300 		ldr	r0, [r2, r3, lsl #2]
 224 0082 FB79     		ldrb	r3, [r7, #7]	@ zero_extendqisi2
 225              		.loc 1 193 45
 226 0084 064A     		ldr	r2, .L8+4
 227 0086 32F81330 		ldrh	r3, [r2, r3, lsl #1]
 228              		.loc 1 193 3
 229 008a 0022     		movs	r2, #0
 230 008c 1946     		mov	r1, r3
 231 008e FFF7FEFF 		bl	HAL_GPIO_WritePin
 194:Drivers/BSP/STM32F429I-Discovery/stm32f429i_discovery.c **** }
 232              		.loc 1 194 1
 233 0092 00BF     		nop
 234 0094 2837     		adds	r7, r7, #40
 235              	.LCFI7:
 236              		.cfi_def_cfa_offset 8
 237 0096 BD46     		mov	sp, r7
 238              	.LCFI8:
 239              		.cfi_def_cfa_register 13
 240              		@ sp needed
 241 0098 80BD     		pop	{r7, pc}
 242              	.L9:
 243 009a 00BF     		.align	2
 244              	.L8:
 245 009c 00380240 		.word	1073887232
 246 00a0 00000000 		.word	GPIO_PIN
 247 00a4 00000000 		.word	GPIO_PORT
 248              		.cfi_endproc
 249              	.LFE135:
 251              		.section	.text.BSP_LED_On,"ax",%progbits
 252              		.align	1
 253              		.global	BSP_LED_On
 254              		.syntax unified
 255              		.thumb
 256              		.thumb_func
 258              	BSP_LED_On:
 259              	.LFB136:
 195:Drivers/BSP/STM32F429I-Discovery/stm32f429i_discovery.c **** 
 196:Drivers/BSP/STM32F429I-Discovery/stm32f429i_discovery.c **** /**
 197:Drivers/BSP/STM32F429I-Discovery/stm32f429i_discovery.c ****   * @brief  Turns selected LED On.
 198:Drivers/BSP/STM32F429I-Discovery/stm32f429i_discovery.c ****   * @param  Led: Specifies the Led to be set on.
 199:Drivers/BSP/STM32F429I-Discovery/stm32f429i_discovery.c ****   *   This parameter can be one of following parameters:
 200:Drivers/BSP/STM32F429I-Discovery/stm32f429i_discovery.c ****   *     @arg LED3
 201:Drivers/BSP/STM32F429I-Discovery/stm32f429i_discovery.c ****   *     @arg LED4
 202:Drivers/BSP/STM32F429I-Discovery/stm32f429i_discovery.c ****   */
 203:Drivers/BSP/STM32F429I-Discovery/stm32f429i_discovery.c **** void BSP_LED_On(Led_TypeDef Led)
 204:Drivers/BSP/STM32F429I-Discovery/stm32f429i_discovery.c **** {
 260              		.loc 1 204 1
 261              		.cfi_startproc
 262              		@ args = 0, pretend = 0, frame = 8
 263              		@ frame_needed = 1, uses_anonymous_args = 0
 264 0000 80B5     		push	{r7, lr}
 265              	.LCFI9:
 266              		.cfi_def_cfa_offset 8
 267              		.cfi_offset 7, -8
 268              		.cfi_offset 14, -4
 269 0002 82B0     		sub	sp, sp, #8
ARM GAS  /var/folders/06/9k7gq4t13mj84z2yhw3grvhc0000gn/T//ccJ3lc1F.s 			page 9


 270              	.LCFI10:
 271              		.cfi_def_cfa_offset 16
 272 0004 00AF     		add	r7, sp, #0
 273              	.LCFI11:
 274              		.cfi_def_cfa_register 7
 275 0006 0346     		mov	r3, r0
 276 0008 FB71     		strb	r3, [r7, #7]
 205:Drivers/BSP/STM32F429I-Discovery/stm32f429i_discovery.c ****   HAL_GPIO_WritePin(GPIO_PORT[Led], GPIO_PIN[Led], GPIO_PIN_SET);
 277              		.loc 1 205 3
 278 000a FB79     		ldrb	r3, [r7, #7]	@ zero_extendqisi2
 279 000c 074A     		ldr	r2, .L11
 280 000e 52F82300 		ldr	r0, [r2, r3, lsl #2]
 281 0012 FB79     		ldrb	r3, [r7, #7]	@ zero_extendqisi2
 282              		.loc 1 205 45
 283 0014 064A     		ldr	r2, .L11+4
 284 0016 32F81330 		ldrh	r3, [r2, r3, lsl #1]
 285              		.loc 1 205 3
 286 001a 0122     		movs	r2, #1
 287 001c 1946     		mov	r1, r3
 288 001e FFF7FEFF 		bl	HAL_GPIO_WritePin
 206:Drivers/BSP/STM32F429I-Discovery/stm32f429i_discovery.c **** }
 289              		.loc 1 206 1
 290 0022 00BF     		nop
 291 0024 0837     		adds	r7, r7, #8
 292              	.LCFI12:
 293              		.cfi_def_cfa_offset 8
 294 0026 BD46     		mov	sp, r7
 295              	.LCFI13:
 296              		.cfi_def_cfa_register 13
 297              		@ sp needed
 298 0028 80BD     		pop	{r7, pc}
 299              	.L12:
 300 002a 00BF     		.align	2
 301              	.L11:
 302 002c 00000000 		.word	GPIO_PORT
 303 0030 00000000 		.word	GPIO_PIN
 304              		.cfi_endproc
 305              	.LFE136:
 307              		.section	.text.BSP_LED_Off,"ax",%progbits
 308              		.align	1
 309              		.global	BSP_LED_Off
 310              		.syntax unified
 311              		.thumb
 312              		.thumb_func
 314              	BSP_LED_Off:
 315              	.LFB137:
 207:Drivers/BSP/STM32F429I-Discovery/stm32f429i_discovery.c **** 
 208:Drivers/BSP/STM32F429I-Discovery/stm32f429i_discovery.c **** /**
 209:Drivers/BSP/STM32F429I-Discovery/stm32f429i_discovery.c ****   * @brief  Turns selected LED Off.
 210:Drivers/BSP/STM32F429I-Discovery/stm32f429i_discovery.c ****   * @param  Led: Specifies the Led to be set off.
 211:Drivers/BSP/STM32F429I-Discovery/stm32f429i_discovery.c ****   *   This parameter can be one of following parameters:
 212:Drivers/BSP/STM32F429I-Discovery/stm32f429i_discovery.c ****   *     @arg LED3
 213:Drivers/BSP/STM32F429I-Discovery/stm32f429i_discovery.c ****   *     @arg LED4
 214:Drivers/BSP/STM32F429I-Discovery/stm32f429i_discovery.c ****   */
 215:Drivers/BSP/STM32F429I-Discovery/stm32f429i_discovery.c **** void BSP_LED_Off(Led_TypeDef Led)
 216:Drivers/BSP/STM32F429I-Discovery/stm32f429i_discovery.c **** {
 316              		.loc 1 216 1
ARM GAS  /var/folders/06/9k7gq4t13mj84z2yhw3grvhc0000gn/T//ccJ3lc1F.s 			page 10


 317              		.cfi_startproc
 318              		@ args = 0, pretend = 0, frame = 8
 319              		@ frame_needed = 1, uses_anonymous_args = 0
 320 0000 80B5     		push	{r7, lr}
 321              	.LCFI14:
 322              		.cfi_def_cfa_offset 8
 323              		.cfi_offset 7, -8
 324              		.cfi_offset 14, -4
 325 0002 82B0     		sub	sp, sp, #8
 326              	.LCFI15:
 327              		.cfi_def_cfa_offset 16
 328 0004 00AF     		add	r7, sp, #0
 329              	.LCFI16:
 330              		.cfi_def_cfa_register 7
 331 0006 0346     		mov	r3, r0
 332 0008 FB71     		strb	r3, [r7, #7]
 217:Drivers/BSP/STM32F429I-Discovery/stm32f429i_discovery.c ****   HAL_GPIO_WritePin(GPIO_PORT[Led], GPIO_PIN[Led], GPIO_PIN_RESET);
 333              		.loc 1 217 3
 334 000a FB79     		ldrb	r3, [r7, #7]	@ zero_extendqisi2
 335 000c 074A     		ldr	r2, .L14
 336 000e 52F82300 		ldr	r0, [r2, r3, lsl #2]
 337 0012 FB79     		ldrb	r3, [r7, #7]	@ zero_extendqisi2
 338              		.loc 1 217 45
 339 0014 064A     		ldr	r2, .L14+4
 340 0016 32F81330 		ldrh	r3, [r2, r3, lsl #1]
 341              		.loc 1 217 3
 342 001a 0022     		movs	r2, #0
 343 001c 1946     		mov	r1, r3
 344 001e FFF7FEFF 		bl	HAL_GPIO_WritePin
 218:Drivers/BSP/STM32F429I-Discovery/stm32f429i_discovery.c **** }
 345              		.loc 1 218 1
 346 0022 00BF     		nop
 347 0024 0837     		adds	r7, r7, #8
 348              	.LCFI17:
 349              		.cfi_def_cfa_offset 8
 350 0026 BD46     		mov	sp, r7
 351              	.LCFI18:
 352              		.cfi_def_cfa_register 13
 353              		@ sp needed
 354 0028 80BD     		pop	{r7, pc}
 355              	.L15:
 356 002a 00BF     		.align	2
 357              	.L14:
 358 002c 00000000 		.word	GPIO_PORT
 359 0030 00000000 		.word	GPIO_PIN
 360              		.cfi_endproc
 361              	.LFE137:
 363              		.section	.text.BSP_LED_Toggle,"ax",%progbits
 364              		.align	1
 365              		.global	BSP_LED_Toggle
 366              		.syntax unified
 367              		.thumb
 368              		.thumb_func
 370              	BSP_LED_Toggle:
 371              	.LFB138:
 219:Drivers/BSP/STM32F429I-Discovery/stm32f429i_discovery.c **** 
 220:Drivers/BSP/STM32F429I-Discovery/stm32f429i_discovery.c **** /**
ARM GAS  /var/folders/06/9k7gq4t13mj84z2yhw3grvhc0000gn/T//ccJ3lc1F.s 			page 11


 221:Drivers/BSP/STM32F429I-Discovery/stm32f429i_discovery.c ****   * @brief  Toggles the selected LED.
 222:Drivers/BSP/STM32F429I-Discovery/stm32f429i_discovery.c ****   * @param  Led: Specifies the Led to be toggled.
 223:Drivers/BSP/STM32F429I-Discovery/stm32f429i_discovery.c ****   *   This parameter can be one of following parameters:
 224:Drivers/BSP/STM32F429I-Discovery/stm32f429i_discovery.c ****   *     @arg LED3
 225:Drivers/BSP/STM32F429I-Discovery/stm32f429i_discovery.c ****   *     @arg LED4
 226:Drivers/BSP/STM32F429I-Discovery/stm32f429i_discovery.c ****   */
 227:Drivers/BSP/STM32F429I-Discovery/stm32f429i_discovery.c **** void BSP_LED_Toggle(Led_TypeDef Led)
 228:Drivers/BSP/STM32F429I-Discovery/stm32f429i_discovery.c **** {
 372              		.loc 1 228 1
 373              		.cfi_startproc
 374              		@ args = 0, pretend = 0, frame = 8
 375              		@ frame_needed = 1, uses_anonymous_args = 0
 376 0000 80B5     		push	{r7, lr}
 377              	.LCFI19:
 378              		.cfi_def_cfa_offset 8
 379              		.cfi_offset 7, -8
 380              		.cfi_offset 14, -4
 381 0002 82B0     		sub	sp, sp, #8
 382              	.LCFI20:
 383              		.cfi_def_cfa_offset 16
 384 0004 00AF     		add	r7, sp, #0
 385              	.LCFI21:
 386              		.cfi_def_cfa_register 7
 387 0006 0346     		mov	r3, r0
 388 0008 FB71     		strb	r3, [r7, #7]
 229:Drivers/BSP/STM32F429I-Discovery/stm32f429i_discovery.c ****   HAL_GPIO_TogglePin(GPIO_PORT[Led], GPIO_PIN[Led]);
 389              		.loc 1 229 3
 390 000a FB79     		ldrb	r3, [r7, #7]	@ zero_extendqisi2
 391 000c 074A     		ldr	r2, .L17
 392 000e 52F82320 		ldr	r2, [r2, r3, lsl #2]
 393 0012 FB79     		ldrb	r3, [r7, #7]	@ zero_extendqisi2
 394              		.loc 1 229 46
 395 0014 0649     		ldr	r1, .L17+4
 396 0016 31F81330 		ldrh	r3, [r1, r3, lsl #1]
 397              		.loc 1 229 3
 398 001a 1946     		mov	r1, r3
 399 001c 1046     		mov	r0, r2
 400 001e FFF7FEFF 		bl	HAL_GPIO_TogglePin
 230:Drivers/BSP/STM32F429I-Discovery/stm32f429i_discovery.c **** }
 401              		.loc 1 230 1
 402 0022 00BF     		nop
 403 0024 0837     		adds	r7, r7, #8
 404              	.LCFI22:
 405              		.cfi_def_cfa_offset 8
 406 0026 BD46     		mov	sp, r7
 407              	.LCFI23:
 408              		.cfi_def_cfa_register 13
 409              		@ sp needed
 410 0028 80BD     		pop	{r7, pc}
 411              	.L18:
 412 002a 00BF     		.align	2
 413              	.L17:
 414 002c 00000000 		.word	GPIO_PORT
 415 0030 00000000 		.word	GPIO_PIN
 416              		.cfi_endproc
 417              	.LFE138:
 419              		.section	.text.BSP_PB_Init,"ax",%progbits
ARM GAS  /var/folders/06/9k7gq4t13mj84z2yhw3grvhc0000gn/T//ccJ3lc1F.s 			page 12


 420              		.align	1
 421              		.global	BSP_PB_Init
 422              		.syntax unified
 423              		.thumb
 424              		.thumb_func
 426              	BSP_PB_Init:
 427              	.LFB139:
 231:Drivers/BSP/STM32F429I-Discovery/stm32f429i_discovery.c **** 
 232:Drivers/BSP/STM32F429I-Discovery/stm32f429i_discovery.c **** /**
 233:Drivers/BSP/STM32F429I-Discovery/stm32f429i_discovery.c ****   * @brief  Configures Button GPIO and EXTI Line.
 234:Drivers/BSP/STM32F429I-Discovery/stm32f429i_discovery.c ****   * @param  Button: Specifies the Button to be configured.
 235:Drivers/BSP/STM32F429I-Discovery/stm32f429i_discovery.c ****   *   This parameter should be: BUTTON_KEY
 236:Drivers/BSP/STM32F429I-Discovery/stm32f429i_discovery.c ****   * @param  ButtonMode: Specifies Button mode.
 237:Drivers/BSP/STM32F429I-Discovery/stm32f429i_discovery.c ****   *   This parameter can be one of following parameters:
 238:Drivers/BSP/STM32F429I-Discovery/stm32f429i_discovery.c ****   *     @arg BUTTON_MODE_GPIO: Button will be used as simple IO
 239:Drivers/BSP/STM32F429I-Discovery/stm32f429i_discovery.c ****   *     @arg BUTTON_MODE_EXTI: Button will be connected to EXTI line with interrupt
 240:Drivers/BSP/STM32F429I-Discovery/stm32f429i_discovery.c ****   *                            generation capability
 241:Drivers/BSP/STM32F429I-Discovery/stm32f429i_discovery.c ****   */
 242:Drivers/BSP/STM32F429I-Discovery/stm32f429i_discovery.c **** void BSP_PB_Init(Button_TypeDef Button, ButtonMode_TypeDef ButtonMode)
 243:Drivers/BSP/STM32F429I-Discovery/stm32f429i_discovery.c **** {
 428              		.loc 1 243 1
 429              		.cfi_startproc
 430              		@ args = 0, pretend = 0, frame = 32
 431              		@ frame_needed = 1, uses_anonymous_args = 0
 432 0000 80B5     		push	{r7, lr}
 433              	.LCFI24:
 434              		.cfi_def_cfa_offset 8
 435              		.cfi_offset 7, -8
 436              		.cfi_offset 14, -4
 437 0002 88B0     		sub	sp, sp, #32
 438              	.LCFI25:
 439              		.cfi_def_cfa_offset 40
 440 0004 00AF     		add	r7, sp, #0
 441              	.LCFI26:
 442              		.cfi_def_cfa_register 7
 443 0006 0346     		mov	r3, r0
 444 0008 0A46     		mov	r2, r1
 445 000a FB71     		strb	r3, [r7, #7]
 446 000c 1346     		mov	r3, r2
 447 000e BB71     		strb	r3, [r7, #6]
 244:Drivers/BSP/STM32F429I-Discovery/stm32f429i_discovery.c ****   GPIO_InitTypeDef GPIO_InitStruct;
 245:Drivers/BSP/STM32F429I-Discovery/stm32f429i_discovery.c **** 
 246:Drivers/BSP/STM32F429I-Discovery/stm32f429i_discovery.c ****   /* Enable the BUTTON Clock */
 247:Drivers/BSP/STM32F429I-Discovery/stm32f429i_discovery.c ****   BUTTONx_GPIO_CLK_ENABLE(Button);
 448              		.loc 1 247 3
 449 0010 FB79     		ldrb	r3, [r7, #7]	@ zero_extendqisi2
 450 0012 002B     		cmp	r3, #0
 451 0014 0DD1     		bne	.L20
 452              	.LBB4:
 453              		.loc 1 247 3 is_stmt 0 discriminator 1
 454 0016 0023     		movs	r3, #0
 455 0018 BB60     		str	r3, [r7, #8]
 456 001a 224B     		ldr	r3, .L24
 457 001c 1B6B     		ldr	r3, [r3, #48]
 458 001e 214A     		ldr	r2, .L24
 459 0020 43F00103 		orr	r3, r3, #1
 460 0024 1363     		str	r3, [r2, #48]
ARM GAS  /var/folders/06/9k7gq4t13mj84z2yhw3grvhc0000gn/T//ccJ3lc1F.s 			page 13


 461 0026 1F4B     		ldr	r3, .L24
 462 0028 1B6B     		ldr	r3, [r3, #48]
 463 002a 03F00103 		and	r3, r3, #1
 464 002e BB60     		str	r3, [r7, #8]
 465 0030 BB68     		ldr	r3, [r7, #8]
 466              	.L20:
 467              	.LBE4:
 248:Drivers/BSP/STM32F429I-Discovery/stm32f429i_discovery.c **** 
 249:Drivers/BSP/STM32F429I-Discovery/stm32f429i_discovery.c ****   if (ButtonMode == BUTTON_MODE_GPIO)
 468              		.loc 1 249 6 is_stmt 1
 469 0032 BB79     		ldrb	r3, [r7, #6]	@ zero_extendqisi2
 470 0034 002B     		cmp	r3, #0
 471 0036 11D1     		bne	.L21
 250:Drivers/BSP/STM32F429I-Discovery/stm32f429i_discovery.c ****   {
 251:Drivers/BSP/STM32F429I-Discovery/stm32f429i_discovery.c ****     /* Configure Button pin as input */
 252:Drivers/BSP/STM32F429I-Discovery/stm32f429i_discovery.c ****     GPIO_InitStruct.Pin = BUTTON_PIN[Button];
 472              		.loc 1 252 37
 473 0038 0123     		movs	r3, #1
 474              		.loc 1 252 25
 475 003a FB60     		str	r3, [r7, #12]
 253:Drivers/BSP/STM32F429I-Discovery/stm32f429i_discovery.c ****     GPIO_InitStruct.Mode = GPIO_MODE_INPUT;
 476              		.loc 1 253 26
 477 003c 0023     		movs	r3, #0
 478 003e 3B61     		str	r3, [r7, #16]
 254:Drivers/BSP/STM32F429I-Discovery/stm32f429i_discovery.c ****     GPIO_InitStruct.Pull = GPIO_PULLDOWN;
 479              		.loc 1 254 26
 480 0040 0223     		movs	r3, #2
 481 0042 7B61     		str	r3, [r7, #20]
 255:Drivers/BSP/STM32F429I-Discovery/stm32f429i_discovery.c ****     GPIO_InitStruct.Speed = GPIO_SPEED_FAST;
 482              		.loc 1 255 27
 483 0044 0223     		movs	r3, #2
 484 0046 BB61     		str	r3, [r7, #24]
 256:Drivers/BSP/STM32F429I-Discovery/stm32f429i_discovery.c ****     HAL_GPIO_Init(BUTTON_PORT[Button], &GPIO_InitStruct);
 485              		.loc 1 256 5
 486 0048 FB79     		ldrb	r3, [r7, #7]	@ zero_extendqisi2
 487 004a 174A     		ldr	r2, .L24+4
 488 004c 52F82330 		ldr	r3, [r2, r3, lsl #2]
 489 0050 07F10C02 		add	r2, r7, #12
 490 0054 1146     		mov	r1, r2
 491 0056 1846     		mov	r0, r3
 492 0058 FFF7FEFF 		bl	HAL_GPIO_Init
 493              	.L21:
 257:Drivers/BSP/STM32F429I-Discovery/stm32f429i_discovery.c ****   }
 258:Drivers/BSP/STM32F429I-Discovery/stm32f429i_discovery.c **** 
 259:Drivers/BSP/STM32F429I-Discovery/stm32f429i_discovery.c ****   if (ButtonMode == BUTTON_MODE_EXTI)
 494              		.loc 1 259 6
 495 005c BB79     		ldrb	r3, [r7, #6]	@ zero_extendqisi2
 496 005e 012B     		cmp	r3, #1
 497 0060 1CD1     		bne	.L23
 260:Drivers/BSP/STM32F429I-Discovery/stm32f429i_discovery.c ****   {
 261:Drivers/BSP/STM32F429I-Discovery/stm32f429i_discovery.c ****     /* Configure Button pin as input with External interrupt */
 262:Drivers/BSP/STM32F429I-Discovery/stm32f429i_discovery.c ****     GPIO_InitStruct.Pin = BUTTON_PIN[Button];
 498              		.loc 1 262 37
 499 0062 0123     		movs	r3, #1
 500              		.loc 1 262 25
 501 0064 FB60     		str	r3, [r7, #12]
 263:Drivers/BSP/STM32F429I-Discovery/stm32f429i_discovery.c ****     GPIO_InitStruct.Pull = GPIO_NOPULL;
ARM GAS  /var/folders/06/9k7gq4t13mj84z2yhw3grvhc0000gn/T//ccJ3lc1F.s 			page 14


 502              		.loc 1 263 26
 503 0066 0023     		movs	r3, #0
 504 0068 7B61     		str	r3, [r7, #20]
 264:Drivers/BSP/STM32F429I-Discovery/stm32f429i_discovery.c ****     GPIO_InitStruct.Mode = GPIO_MODE_IT_RISING;
 505              		.loc 1 264 26
 506 006a 4FF48813 		mov	r3, #1114112
 507 006e 3B61     		str	r3, [r7, #16]
 265:Drivers/BSP/STM32F429I-Discovery/stm32f429i_discovery.c ****     HAL_GPIO_Init(BUTTON_PORT[Button], &GPIO_InitStruct);
 508              		.loc 1 265 5
 509 0070 FB79     		ldrb	r3, [r7, #7]	@ zero_extendqisi2
 510 0072 0D4A     		ldr	r2, .L24+4
 511 0074 52F82330 		ldr	r3, [r2, r3, lsl #2]
 512 0078 07F10C02 		add	r2, r7, #12
 513 007c 1146     		mov	r1, r2
 514 007e 1846     		mov	r0, r3
 515 0080 FFF7FEFF 		bl	HAL_GPIO_Init
 266:Drivers/BSP/STM32F429I-Discovery/stm32f429i_discovery.c **** 
 267:Drivers/BSP/STM32F429I-Discovery/stm32f429i_discovery.c ****     /* Enable and set Button EXTI Interrupt to the lowest priority */
 268:Drivers/BSP/STM32F429I-Discovery/stm32f429i_discovery.c ****     HAL_NVIC_SetPriority((IRQn_Type)(BUTTON_IRQn[Button]), 0x0F, 0x00);
 516              		.loc 1 268 49
 517 0084 0623     		movs	r3, #6
 518              		.loc 1 268 5
 519 0086 5BB2     		sxtb	r3, r3
 520 0088 0022     		movs	r2, #0
 521 008a 0F21     		movs	r1, #15
 522 008c 1846     		mov	r0, r3
 523 008e FFF7FEFF 		bl	HAL_NVIC_SetPriority
 269:Drivers/BSP/STM32F429I-Discovery/stm32f429i_discovery.c ****     HAL_NVIC_EnableIRQ((IRQn_Type)(BUTTON_IRQn[Button]));
 524              		.loc 1 269 47
 525 0092 0623     		movs	r3, #6
 526              		.loc 1 269 5
 527 0094 5BB2     		sxtb	r3, r3
 528 0096 1846     		mov	r0, r3
 529 0098 FFF7FEFF 		bl	HAL_NVIC_EnableIRQ
 530              	.L23:
 270:Drivers/BSP/STM32F429I-Discovery/stm32f429i_discovery.c ****   }
 271:Drivers/BSP/STM32F429I-Discovery/stm32f429i_discovery.c **** }
 531              		.loc 1 271 1
 532 009c 00BF     		nop
 533 009e 2037     		adds	r7, r7, #32
 534              	.LCFI27:
 535              		.cfi_def_cfa_offset 8
 536 00a0 BD46     		mov	sp, r7
 537              	.LCFI28:
 538              		.cfi_def_cfa_register 13
 539              		@ sp needed
 540 00a2 80BD     		pop	{r7, pc}
 541              	.L25:
 542              		.align	2
 543              	.L24:
 544 00a4 00380240 		.word	1073887232
 545 00a8 00000000 		.word	BUTTON_PORT
 546              		.cfi_endproc
 547              	.LFE139:
 549              		.section	.text.BSP_PB_GetState,"ax",%progbits
 550              		.align	1
 551              		.global	BSP_PB_GetState
ARM GAS  /var/folders/06/9k7gq4t13mj84z2yhw3grvhc0000gn/T//ccJ3lc1F.s 			page 15


 552              		.syntax unified
 553              		.thumb
 554              		.thumb_func
 556              	BSP_PB_GetState:
 557              	.LFB140:
 272:Drivers/BSP/STM32F429I-Discovery/stm32f429i_discovery.c **** 
 273:Drivers/BSP/STM32F429I-Discovery/stm32f429i_discovery.c **** /**
 274:Drivers/BSP/STM32F429I-Discovery/stm32f429i_discovery.c ****   * @brief  Returns the selected Button state.
 275:Drivers/BSP/STM32F429I-Discovery/stm32f429i_discovery.c ****   * @param  Button: Specifies the Button to be checked.
 276:Drivers/BSP/STM32F429I-Discovery/stm32f429i_discovery.c ****   *   This parameter should be: BUTTON_KEY
 277:Drivers/BSP/STM32F429I-Discovery/stm32f429i_discovery.c ****   * @retval The Button GPIO pin value.
 278:Drivers/BSP/STM32F429I-Discovery/stm32f429i_discovery.c ****   */
 279:Drivers/BSP/STM32F429I-Discovery/stm32f429i_discovery.c **** uint32_t BSP_PB_GetState(Button_TypeDef Button)
 280:Drivers/BSP/STM32F429I-Discovery/stm32f429i_discovery.c **** {
 558              		.loc 1 280 1
 559              		.cfi_startproc
 560              		@ args = 0, pretend = 0, frame = 8
 561              		@ frame_needed = 1, uses_anonymous_args = 0
 562 0000 80B5     		push	{r7, lr}
 563              	.LCFI29:
 564              		.cfi_def_cfa_offset 8
 565              		.cfi_offset 7, -8
 566              		.cfi_offset 14, -4
 567 0002 82B0     		sub	sp, sp, #8
 568              	.LCFI30:
 569              		.cfi_def_cfa_offset 16
 570 0004 00AF     		add	r7, sp, #0
 571              	.LCFI31:
 572              		.cfi_def_cfa_register 7
 573 0006 0346     		mov	r3, r0
 574 0008 FB71     		strb	r3, [r7, #7]
 281:Drivers/BSP/STM32F429I-Discovery/stm32f429i_discovery.c ****   return HAL_GPIO_ReadPin(BUTTON_PORT[Button], BUTTON_PIN[Button]);
 575              		.loc 1 281 10
 576 000a FB79     		ldrb	r3, [r7, #7]	@ zero_extendqisi2
 577 000c 064A     		ldr	r2, .L28
 578 000e 52F82330 		ldr	r3, [r2, r3, lsl #2]
 579              		.loc 1 281 58
 580 0012 0122     		movs	r2, #1
 581              		.loc 1 281 10
 582 0014 1146     		mov	r1, r2
 583 0016 1846     		mov	r0, r3
 584 0018 FFF7FEFF 		bl	HAL_GPIO_ReadPin
 585 001c 0346     		mov	r3, r0
 282:Drivers/BSP/STM32F429I-Discovery/stm32f429i_discovery.c **** }
 586              		.loc 1 282 1
 587 001e 1846     		mov	r0, r3
 588 0020 0837     		adds	r7, r7, #8
 589              	.LCFI32:
 590              		.cfi_def_cfa_offset 8
 591 0022 BD46     		mov	sp, r7
 592              	.LCFI33:
 593              		.cfi_def_cfa_register 13
 594              		@ sp needed
 595 0024 80BD     		pop	{r7, pc}
 596              	.L29:
 597 0026 00BF     		.align	2
 598              	.L28:
ARM GAS  /var/folders/06/9k7gq4t13mj84z2yhw3grvhc0000gn/T//ccJ3lc1F.s 			page 16


 599 0028 00000000 		.word	BUTTON_PORT
 600              		.cfi_endproc
 601              	.LFE140:
 603              		.section	.text.I2Cx_MspInit,"ax",%progbits
 604              		.align	1
 605              		.syntax unified
 606              		.thumb
 607              		.thumb_func
 609              	I2Cx_MspInit:
 610              	.LFB141:
 283:Drivers/BSP/STM32F429I-Discovery/stm32f429i_discovery.c **** 
 284:Drivers/BSP/STM32F429I-Discovery/stm32f429i_discovery.c **** /*******************************************************************************
 285:Drivers/BSP/STM32F429I-Discovery/stm32f429i_discovery.c ****                             BUS OPERATIONS
 286:Drivers/BSP/STM32F429I-Discovery/stm32f429i_discovery.c ****   *******************************************************************************/
 287:Drivers/BSP/STM32F429I-Discovery/stm32f429i_discovery.c **** 
 288:Drivers/BSP/STM32F429I-Discovery/stm32f429i_discovery.c **** /******************************* I2C Routines *********************************/
 289:Drivers/BSP/STM32F429I-Discovery/stm32f429i_discovery.c **** 
 290:Drivers/BSP/STM32F429I-Discovery/stm32f429i_discovery.c **** /**
 291:Drivers/BSP/STM32F429I-Discovery/stm32f429i_discovery.c ****   * @brief  I2Cx MSP Initialization
 292:Drivers/BSP/STM32F429I-Discovery/stm32f429i_discovery.c ****   * @param  hi2c: I2C handle
 293:Drivers/BSP/STM32F429I-Discovery/stm32f429i_discovery.c ****   */
 294:Drivers/BSP/STM32F429I-Discovery/stm32f429i_discovery.c **** static void I2Cx_MspInit(I2C_HandleTypeDef *hi2c)
 295:Drivers/BSP/STM32F429I-Discovery/stm32f429i_discovery.c **** {
 611              		.loc 1 295 1
 612              		.cfi_startproc
 613              		@ args = 0, pretend = 0, frame = 40
 614              		@ frame_needed = 1, uses_anonymous_args = 0
 615 0000 80B5     		push	{r7, lr}
 616              	.LCFI34:
 617              		.cfi_def_cfa_offset 8
 618              		.cfi_offset 7, -8
 619              		.cfi_offset 14, -4
 620 0002 8AB0     		sub	sp, sp, #40
 621              	.LCFI35:
 622              		.cfi_def_cfa_offset 48
 623 0004 00AF     		add	r7, sp, #0
 624              	.LCFI36:
 625              		.cfi_def_cfa_register 7
 626 0006 7860     		str	r0, [r7, #4]
 296:Drivers/BSP/STM32F429I-Discovery/stm32f429i_discovery.c ****   GPIO_InitTypeDef  GPIO_InitStruct;
 297:Drivers/BSP/STM32F429I-Discovery/stm32f429i_discovery.c **** #ifdef EE_M24LR64
 298:Drivers/BSP/STM32F429I-Discovery/stm32f429i_discovery.c ****   static DMA_HandleTypeDef hdma_tx;
 299:Drivers/BSP/STM32F429I-Discovery/stm32f429i_discovery.c ****   static DMA_HandleTypeDef hdma_rx;
 300:Drivers/BSP/STM32F429I-Discovery/stm32f429i_discovery.c **** 
 301:Drivers/BSP/STM32F429I-Discovery/stm32f429i_discovery.c ****   I2C_HandleTypeDef *pI2cHandle;
 302:Drivers/BSP/STM32F429I-Discovery/stm32f429i_discovery.c ****   pI2cHandle = &I2cHandle;
 303:Drivers/BSP/STM32F429I-Discovery/stm32f429i_discovery.c **** #endif /* EE_M24LR64 */
 304:Drivers/BSP/STM32F429I-Discovery/stm32f429i_discovery.c **** 
 305:Drivers/BSP/STM32F429I-Discovery/stm32f429i_discovery.c ****   if (hi2c->Instance == DISCOVERY_I2Cx)
 627              		.loc 1 305 11
 628 0008 7B68     		ldr	r3, [r7, #4]
 629 000a 1B68     		ldr	r3, [r3]
 630              		.loc 1 305 6
 631 000c 334A     		ldr	r2, .L33
 632 000e 9342     		cmp	r3, r2
 633 0010 5FD1     		bne	.L32
 634              	.LBB5:
ARM GAS  /var/folders/06/9k7gq4t13mj84z2yhw3grvhc0000gn/T//ccJ3lc1F.s 			page 17


 306:Drivers/BSP/STM32F429I-Discovery/stm32f429i_discovery.c ****   {
 307:Drivers/BSP/STM32F429I-Discovery/stm32f429i_discovery.c ****     /* Configure the GPIOs ---------------------------------------------------*/
 308:Drivers/BSP/STM32F429I-Discovery/stm32f429i_discovery.c ****     /* Enable GPIO clock */
 309:Drivers/BSP/STM32F429I-Discovery/stm32f429i_discovery.c ****     DISCOVERY_I2Cx_SDA_GPIO_CLK_ENABLE();
 635              		.loc 1 309 5
 636 0012 0023     		movs	r3, #0
 637 0014 3B61     		str	r3, [r7, #16]
 638 0016 324B     		ldr	r3, .L33+4
 639 0018 1B6B     		ldr	r3, [r3, #48]
 640 001a 314A     		ldr	r2, .L33+4
 641 001c 43F00403 		orr	r3, r3, #4
 642 0020 1363     		str	r3, [r2, #48]
 643 0022 2F4B     		ldr	r3, .L33+4
 644 0024 1B6B     		ldr	r3, [r3, #48]
 645 0026 03F00403 		and	r3, r3, #4
 646 002a 3B61     		str	r3, [r7, #16]
 647 002c 3B69     		ldr	r3, [r7, #16]
 648              	.LBE5:
 649              	.LBB6:
 310:Drivers/BSP/STM32F429I-Discovery/stm32f429i_discovery.c ****     DISCOVERY_I2Cx_SCL_GPIO_CLK_ENABLE();
 650              		.loc 1 310 5
 651 002e 0023     		movs	r3, #0
 652 0030 FB60     		str	r3, [r7, #12]
 653 0032 2B4B     		ldr	r3, .L33+4
 654 0034 1B6B     		ldr	r3, [r3, #48]
 655 0036 2A4A     		ldr	r2, .L33+4
 656 0038 43F00103 		orr	r3, r3, #1
 657 003c 1363     		str	r3, [r2, #48]
 658 003e 284B     		ldr	r3, .L33+4
 659 0040 1B6B     		ldr	r3, [r3, #48]
 660 0042 03F00103 		and	r3, r3, #1
 661 0046 FB60     		str	r3, [r7, #12]
 662 0048 FB68     		ldr	r3, [r7, #12]
 663              	.LBE6:
 311:Drivers/BSP/STM32F429I-Discovery/stm32f429i_discovery.c **** 
 312:Drivers/BSP/STM32F429I-Discovery/stm32f429i_discovery.c ****     /* Configure I2C Tx as alternate function  */
 313:Drivers/BSP/STM32F429I-Discovery/stm32f429i_discovery.c ****     GPIO_InitStruct.Pin       = DISCOVERY_I2Cx_SCL_PIN;
 664              		.loc 1 313 31
 665 004a 4FF48073 		mov	r3, #256
 666 004e 7B61     		str	r3, [r7, #20]
 314:Drivers/BSP/STM32F429I-Discovery/stm32f429i_discovery.c ****     GPIO_InitStruct.Mode      = GPIO_MODE_AF_OD;
 667              		.loc 1 314 31
 668 0050 1223     		movs	r3, #18
 669 0052 BB61     		str	r3, [r7, #24]
 315:Drivers/BSP/STM32F429I-Discovery/stm32f429i_discovery.c ****     GPIO_InitStruct.Pull      = GPIO_NOPULL;
 670              		.loc 1 315 31
 671 0054 0023     		movs	r3, #0
 672 0056 FB61     		str	r3, [r7, #28]
 316:Drivers/BSP/STM32F429I-Discovery/stm32f429i_discovery.c ****     GPIO_InitStruct.Speed     = GPIO_SPEED_FAST;
 673              		.loc 1 316 31
 674 0058 0223     		movs	r3, #2
 675 005a 3B62     		str	r3, [r7, #32]
 317:Drivers/BSP/STM32F429I-Discovery/stm32f429i_discovery.c ****     GPIO_InitStruct.Alternate = DISCOVERY_I2Cx_SCL_SDA_AF;
 676              		.loc 1 317 31
 677 005c 0423     		movs	r3, #4
 678 005e 7B62     		str	r3, [r7, #36]
 318:Drivers/BSP/STM32F429I-Discovery/stm32f429i_discovery.c ****     HAL_GPIO_Init(DISCOVERY_I2Cx_SCL_GPIO_PORT, &GPIO_InitStruct);
ARM GAS  /var/folders/06/9k7gq4t13mj84z2yhw3grvhc0000gn/T//ccJ3lc1F.s 			page 18


 679              		.loc 1 318 5
 680 0060 07F11403 		add	r3, r7, #20
 681 0064 1946     		mov	r1, r3
 682 0066 1F48     		ldr	r0, .L33+8
 683 0068 FFF7FEFF 		bl	HAL_GPIO_Init
 319:Drivers/BSP/STM32F429I-Discovery/stm32f429i_discovery.c **** 
 320:Drivers/BSP/STM32F429I-Discovery/stm32f429i_discovery.c ****     /* Configure I2C Rx as alternate function  */
 321:Drivers/BSP/STM32F429I-Discovery/stm32f429i_discovery.c ****     GPIO_InitStruct.Pin = DISCOVERY_I2Cx_SDA_PIN;
 684              		.loc 1 321 25
 685 006c 4FF40073 		mov	r3, #512
 686 0070 7B61     		str	r3, [r7, #20]
 322:Drivers/BSP/STM32F429I-Discovery/stm32f429i_discovery.c ****     HAL_GPIO_Init(DISCOVERY_I2Cx_SDA_GPIO_PORT, &GPIO_InitStruct);
 687              		.loc 1 322 5
 688 0072 07F11403 		add	r3, r7, #20
 689 0076 1946     		mov	r1, r3
 690 0078 1B48     		ldr	r0, .L33+12
 691 007a FFF7FEFF 		bl	HAL_GPIO_Init
 692              	.LBB7:
 323:Drivers/BSP/STM32F429I-Discovery/stm32f429i_discovery.c **** 
 324:Drivers/BSP/STM32F429I-Discovery/stm32f429i_discovery.c **** 
 325:Drivers/BSP/STM32F429I-Discovery/stm32f429i_discovery.c ****     /* Configure the Discovery I2Cx peripheral -------------------------------*/
 326:Drivers/BSP/STM32F429I-Discovery/stm32f429i_discovery.c ****     /* Enable I2C3 clock */
 327:Drivers/BSP/STM32F429I-Discovery/stm32f429i_discovery.c ****     DISCOVERY_I2Cx_CLOCK_ENABLE();
 693              		.loc 1 327 5
 694 007e 0023     		movs	r3, #0
 695 0080 BB60     		str	r3, [r7, #8]
 696 0082 174B     		ldr	r3, .L33+4
 697 0084 1B6C     		ldr	r3, [r3, #64]
 698 0086 164A     		ldr	r2, .L33+4
 699 0088 43F40003 		orr	r3, r3, #8388608
 700 008c 1364     		str	r3, [r2, #64]
 701 008e 144B     		ldr	r3, .L33+4
 702 0090 1B6C     		ldr	r3, [r3, #64]
 703 0092 03F40003 		and	r3, r3, #8388608
 704 0096 BB60     		str	r3, [r7, #8]
 705 0098 BB68     		ldr	r3, [r7, #8]
 706              	.LBE7:
 328:Drivers/BSP/STM32F429I-Discovery/stm32f429i_discovery.c **** 
 329:Drivers/BSP/STM32F429I-Discovery/stm32f429i_discovery.c ****     /* Force the I2C Peripheral Clock Reset */
 330:Drivers/BSP/STM32F429I-Discovery/stm32f429i_discovery.c ****     DISCOVERY_I2Cx_FORCE_RESET();
 707              		.loc 1 330 5
 708 009a 114B     		ldr	r3, .L33+4
 709 009c 1B6A     		ldr	r3, [r3, #32]
 710 009e 104A     		ldr	r2, .L33+4
 711 00a0 43F40003 		orr	r3, r3, #8388608
 712 00a4 1362     		str	r3, [r2, #32]
 331:Drivers/BSP/STM32F429I-Discovery/stm32f429i_discovery.c **** 
 332:Drivers/BSP/STM32F429I-Discovery/stm32f429i_discovery.c ****     /* Release the I2C Peripheral Clock Reset */
 333:Drivers/BSP/STM32F429I-Discovery/stm32f429i_discovery.c ****     DISCOVERY_I2Cx_RELEASE_RESET();
 713              		.loc 1 333 5
 714 00a6 0E4B     		ldr	r3, .L33+4
 715 00a8 1B6A     		ldr	r3, [r3, #32]
 716 00aa 0D4A     		ldr	r2, .L33+4
 717 00ac 23F40003 		bic	r3, r3, #8388608
 718 00b0 1362     		str	r3, [r2, #32]
 334:Drivers/BSP/STM32F429I-Discovery/stm32f429i_discovery.c **** 
 335:Drivers/BSP/STM32F429I-Discovery/stm32f429i_discovery.c ****     /* Enable and set Discovery I2Cx Interrupt to the lowest priority */
ARM GAS  /var/folders/06/9k7gq4t13mj84z2yhw3grvhc0000gn/T//ccJ3lc1F.s 			page 19


 336:Drivers/BSP/STM32F429I-Discovery/stm32f429i_discovery.c ****     HAL_NVIC_SetPriority(DISCOVERY_I2Cx_EV_IRQn, 0x0F, 0);
 719              		.loc 1 336 5
 720 00b2 0022     		movs	r2, #0
 721 00b4 0F21     		movs	r1, #15
 722 00b6 4820     		movs	r0, #72
 723 00b8 FFF7FEFF 		bl	HAL_NVIC_SetPriority
 337:Drivers/BSP/STM32F429I-Discovery/stm32f429i_discovery.c ****     HAL_NVIC_EnableIRQ(DISCOVERY_I2Cx_EV_IRQn);
 724              		.loc 1 337 5
 725 00bc 4820     		movs	r0, #72
 726 00be FFF7FEFF 		bl	HAL_NVIC_EnableIRQ
 338:Drivers/BSP/STM32F429I-Discovery/stm32f429i_discovery.c **** 
 339:Drivers/BSP/STM32F429I-Discovery/stm32f429i_discovery.c ****     /* Enable and set Discovery I2Cx Interrupt to the lowest priority */
 340:Drivers/BSP/STM32F429I-Discovery/stm32f429i_discovery.c ****     HAL_NVIC_SetPriority(DISCOVERY_I2Cx_ER_IRQn, 0x0F, 0);
 727              		.loc 1 340 5
 728 00c2 0022     		movs	r2, #0
 729 00c4 0F21     		movs	r1, #15
 730 00c6 4920     		movs	r0, #73
 731 00c8 FFF7FEFF 		bl	HAL_NVIC_SetPriority
 341:Drivers/BSP/STM32F429I-Discovery/stm32f429i_discovery.c ****     HAL_NVIC_EnableIRQ(DISCOVERY_I2Cx_ER_IRQn);
 732              		.loc 1 341 5
 733 00cc 4920     		movs	r0, #73
 734 00ce FFF7FEFF 		bl	HAL_NVIC_EnableIRQ
 735              	.L32:
 342:Drivers/BSP/STM32F429I-Discovery/stm32f429i_discovery.c **** 
 343:Drivers/BSP/STM32F429I-Discovery/stm32f429i_discovery.c **** #ifdef EE_M24LR64
 344:Drivers/BSP/STM32F429I-Discovery/stm32f429i_discovery.c ****     /* I2C DMA TX and RX channels configuration */
 345:Drivers/BSP/STM32F429I-Discovery/stm32f429i_discovery.c ****     /* Enable the DMA clock */
 346:Drivers/BSP/STM32F429I-Discovery/stm32f429i_discovery.c ****     EEPROM_I2C_DMA_CLK_ENABLE();
 347:Drivers/BSP/STM32F429I-Discovery/stm32f429i_discovery.c **** 
 348:Drivers/BSP/STM32F429I-Discovery/stm32f429i_discovery.c ****     /* Configure the DMA stream for the EE I2C peripheral TX direction */
 349:Drivers/BSP/STM32F429I-Discovery/stm32f429i_discovery.c ****     /* Configure the DMA Stream */
 350:Drivers/BSP/STM32F429I-Discovery/stm32f429i_discovery.c ****     hdma_tx.Instance                  = EEPROM_I2C_DMA_STREAM_TX;
 351:Drivers/BSP/STM32F429I-Discovery/stm32f429i_discovery.c ****     /* Set the parameters to be configured */
 352:Drivers/BSP/STM32F429I-Discovery/stm32f429i_discovery.c ****     hdma_tx.Init.Channel              = EEPROM_I2C_DMA_CHANNEL;
 353:Drivers/BSP/STM32F429I-Discovery/stm32f429i_discovery.c ****     hdma_tx.Init.Direction            = DMA_MEMORY_TO_PERIPH;
 354:Drivers/BSP/STM32F429I-Discovery/stm32f429i_discovery.c ****     hdma_tx.Init.PeriphInc            = DMA_PINC_DISABLE;
 355:Drivers/BSP/STM32F429I-Discovery/stm32f429i_discovery.c ****     hdma_tx.Init.MemInc               = DMA_MINC_ENABLE;
 356:Drivers/BSP/STM32F429I-Discovery/stm32f429i_discovery.c ****     hdma_tx.Init.PeriphDataAlignment  = DMA_PDATAALIGN_BYTE;
 357:Drivers/BSP/STM32F429I-Discovery/stm32f429i_discovery.c ****     hdma_tx.Init.MemDataAlignment     = DMA_MDATAALIGN_BYTE;
 358:Drivers/BSP/STM32F429I-Discovery/stm32f429i_discovery.c ****     hdma_tx.Init.Mode                 = DMA_NORMAL;
 359:Drivers/BSP/STM32F429I-Discovery/stm32f429i_discovery.c ****     hdma_tx.Init.Priority             = DMA_PRIORITY_VERY_HIGH;
 360:Drivers/BSP/STM32F429I-Discovery/stm32f429i_discovery.c ****     hdma_tx.Init.FIFOMode             = DMA_FIFOMODE_ENABLE;
 361:Drivers/BSP/STM32F429I-Discovery/stm32f429i_discovery.c ****     hdma_tx.Init.FIFOThreshold        = DMA_FIFO_THRESHOLD_FULL;
 362:Drivers/BSP/STM32F429I-Discovery/stm32f429i_discovery.c ****     hdma_tx.Init.MemBurst             = DMA_MBURST_SINGLE;
 363:Drivers/BSP/STM32F429I-Discovery/stm32f429i_discovery.c ****     hdma_tx.Init.PeriphBurst          = DMA_PBURST_SINGLE;
 364:Drivers/BSP/STM32F429I-Discovery/stm32f429i_discovery.c **** 
 365:Drivers/BSP/STM32F429I-Discovery/stm32f429i_discovery.c ****     /* Associate the initilalized hdma_tx handle to the the pI2cHandle handle */
 366:Drivers/BSP/STM32F429I-Discovery/stm32f429i_discovery.c ****     __HAL_LINKDMA(pI2cHandle, hdmatx, hdma_tx);
 367:Drivers/BSP/STM32F429I-Discovery/stm32f429i_discovery.c **** 
 368:Drivers/BSP/STM32F429I-Discovery/stm32f429i_discovery.c ****     /* Configure the DMA Stream */
 369:Drivers/BSP/STM32F429I-Discovery/stm32f429i_discovery.c ****     HAL_DMA_Init(&hdma_tx);
 370:Drivers/BSP/STM32F429I-Discovery/stm32f429i_discovery.c **** 
 371:Drivers/BSP/STM32F429I-Discovery/stm32f429i_discovery.c ****     /* Configure and enable I2C DMA TX Channel interrupt */
 372:Drivers/BSP/STM32F429I-Discovery/stm32f429i_discovery.c ****     HAL_NVIC_SetPriority((IRQn_Type)(EEPROM_I2C_DMA_TX_IRQn), EEPROM_I2C_DMA_PREPRIO, 0);
 373:Drivers/BSP/STM32F429I-Discovery/stm32f429i_discovery.c ****     HAL_NVIC_EnableIRQ((IRQn_Type)(EEPROM_I2C_DMA_TX_IRQn));
 374:Drivers/BSP/STM32F429I-Discovery/stm32f429i_discovery.c **** 
 375:Drivers/BSP/STM32F429I-Discovery/stm32f429i_discovery.c ****     /* Configure the DMA stream for the EE I2C peripheral TX direction */
ARM GAS  /var/folders/06/9k7gq4t13mj84z2yhw3grvhc0000gn/T//ccJ3lc1F.s 			page 20


 376:Drivers/BSP/STM32F429I-Discovery/stm32f429i_discovery.c ****     /* Configure the DMA Stream */
 377:Drivers/BSP/STM32F429I-Discovery/stm32f429i_discovery.c ****     hdma_rx.Instance                  = EEPROM_I2C_DMA_STREAM_RX;
 378:Drivers/BSP/STM32F429I-Discovery/stm32f429i_discovery.c ****     /* Set the parameters to be configured */
 379:Drivers/BSP/STM32F429I-Discovery/stm32f429i_discovery.c ****     hdma_rx.Init.Channel              = EEPROM_I2C_DMA_CHANNEL;
 380:Drivers/BSP/STM32F429I-Discovery/stm32f429i_discovery.c ****     hdma_rx.Init.Direction            = DMA_PERIPH_TO_MEMORY;
 381:Drivers/BSP/STM32F429I-Discovery/stm32f429i_discovery.c ****     hdma_rx.Init.PeriphInc            = DMA_PINC_DISABLE;
 382:Drivers/BSP/STM32F429I-Discovery/stm32f429i_discovery.c ****     hdma_rx.Init.MemInc               = DMA_MINC_ENABLE;
 383:Drivers/BSP/STM32F429I-Discovery/stm32f429i_discovery.c ****     hdma_rx.Init.PeriphDataAlignment  = DMA_PDATAALIGN_BYTE;
 384:Drivers/BSP/STM32F429I-Discovery/stm32f429i_discovery.c ****     hdma_rx.Init.MemDataAlignment     = DMA_MDATAALIGN_BYTE;
 385:Drivers/BSP/STM32F429I-Discovery/stm32f429i_discovery.c ****     hdma_rx.Init.Mode                 = DMA_NORMAL;
 386:Drivers/BSP/STM32F429I-Discovery/stm32f429i_discovery.c ****     hdma_rx.Init.Priority             = DMA_PRIORITY_VERY_HIGH;
 387:Drivers/BSP/STM32F429I-Discovery/stm32f429i_discovery.c ****     hdma_rx.Init.FIFOMode             = DMA_FIFOMODE_ENABLE;
 388:Drivers/BSP/STM32F429I-Discovery/stm32f429i_discovery.c ****     hdma_rx.Init.FIFOThreshold        = DMA_FIFO_THRESHOLD_FULL;
 389:Drivers/BSP/STM32F429I-Discovery/stm32f429i_discovery.c ****     hdma_rx.Init.MemBurst             = DMA_MBURST_SINGLE;
 390:Drivers/BSP/STM32F429I-Discovery/stm32f429i_discovery.c ****     hdma_rx.Init.PeriphBurst          = DMA_PBURST_SINGLE;
 391:Drivers/BSP/STM32F429I-Discovery/stm32f429i_discovery.c **** 
 392:Drivers/BSP/STM32F429I-Discovery/stm32f429i_discovery.c ****     /* Associate the initilalized hdma_rx handle to the the pI2cHandle handle*/
 393:Drivers/BSP/STM32F429I-Discovery/stm32f429i_discovery.c ****     __HAL_LINKDMA(pI2cHandle, hdmarx, hdma_rx);
 394:Drivers/BSP/STM32F429I-Discovery/stm32f429i_discovery.c **** 
 395:Drivers/BSP/STM32F429I-Discovery/stm32f429i_discovery.c ****     /* Configure the DMA Stream */
 396:Drivers/BSP/STM32F429I-Discovery/stm32f429i_discovery.c ****     HAL_DMA_Init(&hdma_rx);
 397:Drivers/BSP/STM32F429I-Discovery/stm32f429i_discovery.c **** 
 398:Drivers/BSP/STM32F429I-Discovery/stm32f429i_discovery.c ****     /* Configure and enable I2C DMA RX Channel interrupt */
 399:Drivers/BSP/STM32F429I-Discovery/stm32f429i_discovery.c ****     HAL_NVIC_SetPriority((IRQn_Type)(EEPROM_I2C_DMA_RX_IRQn), EEPROM_I2C_DMA_PREPRIO, 0);
 400:Drivers/BSP/STM32F429I-Discovery/stm32f429i_discovery.c ****     HAL_NVIC_EnableIRQ((IRQn_Type)(EEPROM_I2C_DMA_RX_IRQn));
 401:Drivers/BSP/STM32F429I-Discovery/stm32f429i_discovery.c **** #endif /* EE_M24LR64 */
 402:Drivers/BSP/STM32F429I-Discovery/stm32f429i_discovery.c ****   }
 403:Drivers/BSP/STM32F429I-Discovery/stm32f429i_discovery.c **** }
 736              		.loc 1 403 1
 737 00d2 00BF     		nop
 738 00d4 2837     		adds	r7, r7, #40
 739              	.LCFI37:
 740              		.cfi_def_cfa_offset 8
 741 00d6 BD46     		mov	sp, r7
 742              	.LCFI38:
 743              		.cfi_def_cfa_register 13
 744              		@ sp needed
 745 00d8 80BD     		pop	{r7, pc}
 746              	.L34:
 747 00da 00BF     		.align	2
 748              	.L33:
 749 00dc 005C0040 		.word	1073765376
 750 00e0 00380240 		.word	1073887232
 751 00e4 00000240 		.word	1073872896
 752 00e8 00080240 		.word	1073874944
 753              		.cfi_endproc
 754              	.LFE141:
 756              		.section	.text.I2Cx_Init,"ax",%progbits
 757              		.align	1
 758              		.syntax unified
 759              		.thumb
 760              		.thumb_func
 762              	I2Cx_Init:
 763              	.LFB142:
 404:Drivers/BSP/STM32F429I-Discovery/stm32f429i_discovery.c **** 
 405:Drivers/BSP/STM32F429I-Discovery/stm32f429i_discovery.c **** /**
 406:Drivers/BSP/STM32F429I-Discovery/stm32f429i_discovery.c ****   * @brief  I2Cx Bus initialization.
ARM GAS  /var/folders/06/9k7gq4t13mj84z2yhw3grvhc0000gn/T//ccJ3lc1F.s 			page 21


 407:Drivers/BSP/STM32F429I-Discovery/stm32f429i_discovery.c ****   */
 408:Drivers/BSP/STM32F429I-Discovery/stm32f429i_discovery.c **** static void I2Cx_Init(void)
 409:Drivers/BSP/STM32F429I-Discovery/stm32f429i_discovery.c **** {
 764              		.loc 1 409 1
 765              		.cfi_startproc
 766              		@ args = 0, pretend = 0, frame = 0
 767              		@ frame_needed = 1, uses_anonymous_args = 0
 768 0000 80B5     		push	{r7, lr}
 769              	.LCFI39:
 770              		.cfi_def_cfa_offset 8
 771              		.cfi_offset 7, -8
 772              		.cfi_offset 14, -4
 773 0002 00AF     		add	r7, sp, #0
 774              	.LCFI40:
 775              		.cfi_def_cfa_register 7
 410:Drivers/BSP/STM32F429I-Discovery/stm32f429i_discovery.c ****   if (HAL_I2C_GetState(&I2cHandle) == HAL_I2C_STATE_RESET)
 776              		.loc 1 410 7
 777 0004 1448     		ldr	r0, .L38
 778 0006 FFF7FEFF 		bl	HAL_I2C_GetState
 779 000a 0346     		mov	r3, r0
 780              		.loc 1 410 6 discriminator 1
 781 000c 002B     		cmp	r3, #0
 782 000e 21D1     		bne	.L37
 411:Drivers/BSP/STM32F429I-Discovery/stm32f429i_discovery.c ****   {
 412:Drivers/BSP/STM32F429I-Discovery/stm32f429i_discovery.c ****     I2cHandle.Instance              = DISCOVERY_I2Cx;
 783              		.loc 1 412 37
 784 0010 114B     		ldr	r3, .L38
 785 0012 124A     		ldr	r2, .L38+4
 786 0014 1A60     		str	r2, [r3]
 413:Drivers/BSP/STM32F429I-Discovery/stm32f429i_discovery.c ****     I2cHandle.Init.ClockSpeed       = BSP_I2C_SPEED;
 787              		.loc 1 413 37
 788 0016 104B     		ldr	r3, .L38
 789 0018 114A     		ldr	r2, .L38+8
 790 001a 5A60     		str	r2, [r3, #4]
 414:Drivers/BSP/STM32F429I-Discovery/stm32f429i_discovery.c ****     I2cHandle.Init.DutyCycle        = I2C_DUTYCYCLE_2;
 791              		.loc 1 414 37
 792 001c 0E4B     		ldr	r3, .L38
 793 001e 0022     		movs	r2, #0
 794 0020 9A60     		str	r2, [r3, #8]
 415:Drivers/BSP/STM32F429I-Discovery/stm32f429i_discovery.c ****     I2cHandle.Init.OwnAddress1      = 0;
 795              		.loc 1 415 37
 796 0022 0D4B     		ldr	r3, .L38
 797 0024 0022     		movs	r2, #0
 798 0026 DA60     		str	r2, [r3, #12]
 416:Drivers/BSP/STM32F429I-Discovery/stm32f429i_discovery.c ****     I2cHandle.Init.AddressingMode   = I2C_ADDRESSINGMODE_7BIT;
 799              		.loc 1 416 37
 800 0028 0B4B     		ldr	r3, .L38
 801 002a 4FF48042 		mov	r2, #16384
 802 002e 1A61     		str	r2, [r3, #16]
 417:Drivers/BSP/STM32F429I-Discovery/stm32f429i_discovery.c ****     I2cHandle.Init.DualAddressMode  = I2C_DUALADDRESS_DISABLED;
 803              		.loc 1 417 37
 804 0030 094B     		ldr	r3, .L38
 805 0032 0022     		movs	r2, #0
 806 0034 5A61     		str	r2, [r3, #20]
 418:Drivers/BSP/STM32F429I-Discovery/stm32f429i_discovery.c ****     I2cHandle.Init.OwnAddress2      = 0;
 807              		.loc 1 418 37
 808 0036 084B     		ldr	r3, .L38
ARM GAS  /var/folders/06/9k7gq4t13mj84z2yhw3grvhc0000gn/T//ccJ3lc1F.s 			page 22


 809 0038 0022     		movs	r2, #0
 810 003a 9A61     		str	r2, [r3, #24]
 419:Drivers/BSP/STM32F429I-Discovery/stm32f429i_discovery.c ****     I2cHandle.Init.GeneralCallMode  = I2C_GENERALCALL_DISABLED;
 811              		.loc 1 419 37
 812 003c 064B     		ldr	r3, .L38
 813 003e 0022     		movs	r2, #0
 814 0040 DA61     		str	r2, [r3, #28]
 420:Drivers/BSP/STM32F429I-Discovery/stm32f429i_discovery.c ****     I2cHandle.Init.NoStretchMode    = I2C_NOSTRETCH_DISABLED;
 815              		.loc 1 420 37
 816 0042 054B     		ldr	r3, .L38
 817 0044 0022     		movs	r2, #0
 818 0046 1A62     		str	r2, [r3, #32]
 421:Drivers/BSP/STM32F429I-Discovery/stm32f429i_discovery.c **** 
 422:Drivers/BSP/STM32F429I-Discovery/stm32f429i_discovery.c ****     /* Init the I2C */
 423:Drivers/BSP/STM32F429I-Discovery/stm32f429i_discovery.c ****     I2Cx_MspInit(&I2cHandle);
 819              		.loc 1 423 5
 820 0048 0348     		ldr	r0, .L38
 821 004a FFF7FEFF 		bl	I2Cx_MspInit
 424:Drivers/BSP/STM32F429I-Discovery/stm32f429i_discovery.c ****     HAL_I2C_Init(&I2cHandle);
 822              		.loc 1 424 5
 823 004e 0248     		ldr	r0, .L38
 824 0050 FFF7FEFF 		bl	HAL_I2C_Init
 825              	.L37:
 425:Drivers/BSP/STM32F429I-Discovery/stm32f429i_discovery.c ****   }
 426:Drivers/BSP/STM32F429I-Discovery/stm32f429i_discovery.c **** }
 826              		.loc 1 426 1
 827 0054 00BF     		nop
 828 0056 80BD     		pop	{r7, pc}
 829              	.L39:
 830              		.align	2
 831              	.L38:
 832 0058 00000000 		.word	I2cHandle
 833 005c 005C0040 		.word	1073765376
 834 0060 A0860100 		.word	100000
 835              		.cfi_endproc
 836              	.LFE142:
 838              		.section	.text.I2Cx_ITConfig,"ax",%progbits
 839              		.align	1
 840              		.syntax unified
 841              		.thumb
 842              		.thumb_func
 844              	I2Cx_ITConfig:
 845              	.LFB143:
 427:Drivers/BSP/STM32F429I-Discovery/stm32f429i_discovery.c **** 
 428:Drivers/BSP/STM32F429I-Discovery/stm32f429i_discovery.c **** /**
 429:Drivers/BSP/STM32F429I-Discovery/stm32f429i_discovery.c ****   * @brief  Configures Interruption pin for I2C communication.
 430:Drivers/BSP/STM32F429I-Discovery/stm32f429i_discovery.c ****   */
 431:Drivers/BSP/STM32F429I-Discovery/stm32f429i_discovery.c **** static void I2Cx_ITConfig(void)
 432:Drivers/BSP/STM32F429I-Discovery/stm32f429i_discovery.c **** {
 846              		.loc 1 432 1
 847              		.cfi_startproc
 848              		@ args = 0, pretend = 0, frame = 24
 849              		@ frame_needed = 1, uses_anonymous_args = 0
 850 0000 80B5     		push	{r7, lr}
 851              	.LCFI41:
 852              		.cfi_def_cfa_offset 8
 853              		.cfi_offset 7, -8
ARM GAS  /var/folders/06/9k7gq4t13mj84z2yhw3grvhc0000gn/T//ccJ3lc1F.s 			page 23


 854              		.cfi_offset 14, -4
 855 0002 86B0     		sub	sp, sp, #24
 856              	.LCFI42:
 857              		.cfi_def_cfa_offset 32
 858 0004 00AF     		add	r7, sp, #0
 859              	.LCFI43:
 860              		.cfi_def_cfa_register 7
 861              	.LBB8:
 433:Drivers/BSP/STM32F429I-Discovery/stm32f429i_discovery.c ****   GPIO_InitTypeDef  GPIO_InitStruct;
 434:Drivers/BSP/STM32F429I-Discovery/stm32f429i_discovery.c **** 
 435:Drivers/BSP/STM32F429I-Discovery/stm32f429i_discovery.c ****   /* Enable the GPIO EXTI Clock */
 436:Drivers/BSP/STM32F429I-Discovery/stm32f429i_discovery.c ****   STMPE811_INT_CLK_ENABLE();
 862              		.loc 1 436 3
 863 0006 0023     		movs	r3, #0
 864 0008 3B60     		str	r3, [r7]
 865 000a 134B     		ldr	r3, .L41
 866 000c 1B6B     		ldr	r3, [r3, #48]
 867 000e 124A     		ldr	r2, .L41
 868 0010 43F00103 		orr	r3, r3, #1
 869 0014 1363     		str	r3, [r2, #48]
 870 0016 104B     		ldr	r3, .L41
 871 0018 1B6B     		ldr	r3, [r3, #48]
 872 001a 03F00103 		and	r3, r3, #1
 873 001e 3B60     		str	r3, [r7]
 874 0020 3B68     		ldr	r3, [r7]
 875              	.LBE8:
 437:Drivers/BSP/STM32F429I-Discovery/stm32f429i_discovery.c **** 
 438:Drivers/BSP/STM32F429I-Discovery/stm32f429i_discovery.c ****   GPIO_InitStruct.Pin   = STMPE811_INT_PIN;
 876              		.loc 1 438 25
 877 0022 4FF40043 		mov	r3, #32768
 878 0026 7B60     		str	r3, [r7, #4]
 439:Drivers/BSP/STM32F429I-Discovery/stm32f429i_discovery.c ****   GPIO_InitStruct.Pull  = GPIO_PULLUP;
 879              		.loc 1 439 25
 880 0028 0123     		movs	r3, #1
 881 002a FB60     		str	r3, [r7, #12]
 440:Drivers/BSP/STM32F429I-Discovery/stm32f429i_discovery.c ****   GPIO_InitStruct.Speed = GPIO_SPEED_LOW;
 882              		.loc 1 440 25
 883 002c 0023     		movs	r3, #0
 884 002e 3B61     		str	r3, [r7, #16]
 441:Drivers/BSP/STM32F429I-Discovery/stm32f429i_discovery.c ****   GPIO_InitStruct.Mode  = GPIO_MODE_IT_FALLING;
 885              		.loc 1 441 25
 886 0030 4FF40413 		mov	r3, #2162688
 887 0034 BB60     		str	r3, [r7, #8]
 442:Drivers/BSP/STM32F429I-Discovery/stm32f429i_discovery.c ****   HAL_GPIO_Init(STMPE811_INT_GPIO_PORT, &GPIO_InitStruct);
 888              		.loc 1 442 3
 889 0036 3B1D     		adds	r3, r7, #4
 890 0038 1946     		mov	r1, r3
 891 003a 0848     		ldr	r0, .L41+4
 892 003c FFF7FEFF 		bl	HAL_GPIO_Init
 443:Drivers/BSP/STM32F429I-Discovery/stm32f429i_discovery.c **** 
 444:Drivers/BSP/STM32F429I-Discovery/stm32f429i_discovery.c ****   /* Enable and set GPIO EXTI Interrupt to the highest priority */
 445:Drivers/BSP/STM32F429I-Discovery/stm32f429i_discovery.c ****   HAL_NVIC_SetPriority((IRQn_Type)(STMPE811_INT_EXTI), 0x0F, 0x00);
 893              		.loc 1 445 3
 894 0040 0022     		movs	r2, #0
 895 0042 0F21     		movs	r1, #15
 896 0044 2820     		movs	r0, #40
 897 0046 FFF7FEFF 		bl	HAL_NVIC_SetPriority
ARM GAS  /var/folders/06/9k7gq4t13mj84z2yhw3grvhc0000gn/T//ccJ3lc1F.s 			page 24


 446:Drivers/BSP/STM32F429I-Discovery/stm32f429i_discovery.c ****   HAL_NVIC_EnableIRQ((IRQn_Type)(STMPE811_INT_EXTI));
 898              		.loc 1 446 3
 899 004a 2820     		movs	r0, #40
 900 004c FFF7FEFF 		bl	HAL_NVIC_EnableIRQ
 447:Drivers/BSP/STM32F429I-Discovery/stm32f429i_discovery.c **** }
 901              		.loc 1 447 1
 902 0050 00BF     		nop
 903 0052 1837     		adds	r7, r7, #24
 904              	.LCFI44:
 905              		.cfi_def_cfa_offset 8
 906 0054 BD46     		mov	sp, r7
 907              	.LCFI45:
 908              		.cfi_def_cfa_register 13
 909              		@ sp needed
 910 0056 80BD     		pop	{r7, pc}
 911              	.L42:
 912              		.align	2
 913              	.L41:
 914 0058 00380240 		.word	1073887232
 915 005c 00000240 		.word	1073872896
 916              		.cfi_endproc
 917              	.LFE143:
 919              		.section	.text.I2Cx_WriteData,"ax",%progbits
 920              		.align	1
 921              		.syntax unified
 922              		.thumb
 923              		.thumb_func
 925              	I2Cx_WriteData:
 926              	.LFB144:
 448:Drivers/BSP/STM32F429I-Discovery/stm32f429i_discovery.c **** 
 449:Drivers/BSP/STM32F429I-Discovery/stm32f429i_discovery.c **** /**
 450:Drivers/BSP/STM32F429I-Discovery/stm32f429i_discovery.c ****   * @brief  Writes a value in a register of the device through BUS.
 451:Drivers/BSP/STM32F429I-Discovery/stm32f429i_discovery.c ****   * @param  Addr: Device address on BUS Bus.
 452:Drivers/BSP/STM32F429I-Discovery/stm32f429i_discovery.c ****   * @param  Reg: The target register address to write
 453:Drivers/BSP/STM32F429I-Discovery/stm32f429i_discovery.c ****   * @param  Value: The target register value to be written
 454:Drivers/BSP/STM32F429I-Discovery/stm32f429i_discovery.c ****   */
 455:Drivers/BSP/STM32F429I-Discovery/stm32f429i_discovery.c **** static void I2Cx_WriteData(uint8_t Addr, uint8_t Reg, uint8_t Value)
 456:Drivers/BSP/STM32F429I-Discovery/stm32f429i_discovery.c **** {
 927              		.loc 1 456 1
 928              		.cfi_startproc
 929              		@ args = 0, pretend = 0, frame = 16
 930              		@ frame_needed = 1, uses_anonymous_args = 0
 931 0000 80B5     		push	{r7, lr}
 932              	.LCFI46:
 933              		.cfi_def_cfa_offset 8
 934              		.cfi_offset 7, -8
 935              		.cfi_offset 14, -4
 936 0002 88B0     		sub	sp, sp, #32
 937              	.LCFI47:
 938              		.cfi_def_cfa_offset 40
 939 0004 04AF     		add	r7, sp, #16
 940              	.LCFI48:
 941              		.cfi_def_cfa 7, 24
 942 0006 0346     		mov	r3, r0
 943 0008 FB71     		strb	r3, [r7, #7]
 944 000a 0B46     		mov	r3, r1
 945 000c BB71     		strb	r3, [r7, #6]
ARM GAS  /var/folders/06/9k7gq4t13mj84z2yhw3grvhc0000gn/T//ccJ3lc1F.s 			page 25


 946 000e 1346     		mov	r3, r2
 947 0010 7B71     		strb	r3, [r7, #5]
 457:Drivers/BSP/STM32F429I-Discovery/stm32f429i_discovery.c ****   HAL_StatusTypeDef status = HAL_OK;
 948              		.loc 1 457 21
 949 0012 0023     		movs	r3, #0
 950 0014 FB73     		strb	r3, [r7, #15]
 458:Drivers/BSP/STM32F429I-Discovery/stm32f429i_discovery.c **** 
 459:Drivers/BSP/STM32F429I-Discovery/stm32f429i_discovery.c ****   status = HAL_I2C_Mem_Write(&I2cHandle, Addr, (uint16_t)Reg, I2C_MEMADD_SIZE_8BIT, &Value, 1, I2cx
 951              		.loc 1 459 12
 952 0016 FB79     		ldrb	r3, [r7, #7]	@ zero_extendqisi2
 953 0018 99B2     		uxth	r1, r3
 954 001a BB79     		ldrb	r3, [r7, #6]	@ zero_extendqisi2
 955 001c 9AB2     		uxth	r2, r3
 956 001e 0B4B     		ldr	r3, .L46
 957 0020 1B68     		ldr	r3, [r3]
 958 0022 0293     		str	r3, [sp, #8]
 959 0024 0123     		movs	r3, #1
 960 0026 0193     		str	r3, [sp, #4]
 961 0028 7B1D     		adds	r3, r7, #5
 962 002a 0093     		str	r3, [sp]
 963 002c 0123     		movs	r3, #1
 964 002e 0848     		ldr	r0, .L46+4
 965 0030 FFF7FEFF 		bl	HAL_I2C_Mem_Write
 966 0034 0346     		mov	r3, r0
 967 0036 FB73     		strb	r3, [r7, #15]
 460:Drivers/BSP/STM32F429I-Discovery/stm32f429i_discovery.c **** 
 461:Drivers/BSP/STM32F429I-Discovery/stm32f429i_discovery.c ****   /* Check the communication status */
 462:Drivers/BSP/STM32F429I-Discovery/stm32f429i_discovery.c ****   if (status != HAL_OK)
 968              		.loc 1 462 6
 969 0038 FB7B     		ldrb	r3, [r7, #15]	@ zero_extendqisi2
 970 003a 002B     		cmp	r3, #0
 971 003c 01D0     		beq	.L45
 463:Drivers/BSP/STM32F429I-Discovery/stm32f429i_discovery.c ****   {
 464:Drivers/BSP/STM32F429I-Discovery/stm32f429i_discovery.c ****     /* Re-Initialize the BUS */
 465:Drivers/BSP/STM32F429I-Discovery/stm32f429i_discovery.c ****     I2Cx_Error();
 972              		.loc 1 465 5
 973 003e FFF7FEFF 		bl	I2Cx_Error
 974              	.L45:
 466:Drivers/BSP/STM32F429I-Discovery/stm32f429i_discovery.c ****   }
 467:Drivers/BSP/STM32F429I-Discovery/stm32f429i_discovery.c **** }
 975              		.loc 1 467 1
 976 0042 00BF     		nop
 977 0044 1037     		adds	r7, r7, #16
 978              	.LCFI49:
 979              		.cfi_def_cfa_offset 8
 980 0046 BD46     		mov	sp, r7
 981              	.LCFI50:
 982              		.cfi_def_cfa_register 13
 983              		@ sp needed
 984 0048 80BD     		pop	{r7, pc}
 985              	.L47:
 986 004a 00BF     		.align	2
 987              	.L46:
 988 004c 00000000 		.word	I2cxTimeout
 989 0050 00000000 		.word	I2cHandle
 990              		.cfi_endproc
 991              	.LFE144:
ARM GAS  /var/folders/06/9k7gq4t13mj84z2yhw3grvhc0000gn/T//ccJ3lc1F.s 			page 26


 993              		.section	.text.I2Cx_WriteBuffer,"ax",%progbits
 994              		.align	1
 995              		.syntax unified
 996              		.thumb
 997              		.thumb_func
 999              	I2Cx_WriteBuffer:
 1000              	.LFB145:
 468:Drivers/BSP/STM32F429I-Discovery/stm32f429i_discovery.c **** 
 469:Drivers/BSP/STM32F429I-Discovery/stm32f429i_discovery.c **** /**
 470:Drivers/BSP/STM32F429I-Discovery/stm32f429i_discovery.c ****   * @brief  Writes a value in a register of the device through BUS.
 471:Drivers/BSP/STM32F429I-Discovery/stm32f429i_discovery.c ****   * @param  Addr: Device address on BUS Bus.
 472:Drivers/BSP/STM32F429I-Discovery/stm32f429i_discovery.c ****   * @param  Reg: The target register address to write
 473:Drivers/BSP/STM32F429I-Discovery/stm32f429i_discovery.c ****   * @param  pBuffer: The target register value to be written
 474:Drivers/BSP/STM32F429I-Discovery/stm32f429i_discovery.c ****   * @param  Length: buffer size to be written
 475:Drivers/BSP/STM32F429I-Discovery/stm32f429i_discovery.c ****   */
 476:Drivers/BSP/STM32F429I-Discovery/stm32f429i_discovery.c **** static void I2Cx_WriteBuffer(uint8_t Addr, uint8_t Reg,  uint8_t *pBuffer, uint16_t Length)
 477:Drivers/BSP/STM32F429I-Discovery/stm32f429i_discovery.c **** {
 1001              		.loc 1 477 1
 1002              		.cfi_startproc
 1003              		@ args = 0, pretend = 0, frame = 16
 1004              		@ frame_needed = 1, uses_anonymous_args = 0
 1005 0000 80B5     		push	{r7, lr}
 1006              	.LCFI51:
 1007              		.cfi_def_cfa_offset 8
 1008              		.cfi_offset 7, -8
 1009              		.cfi_offset 14, -4
 1010 0002 88B0     		sub	sp, sp, #32
 1011              	.LCFI52:
 1012              		.cfi_def_cfa_offset 40
 1013 0004 04AF     		add	r7, sp, #16
 1014              	.LCFI53:
 1015              		.cfi_def_cfa 7, 24
 1016 0006 3A60     		str	r2, [r7]
 1017 0008 1A46     		mov	r2, r3
 1018 000a 0346     		mov	r3, r0
 1019 000c FB71     		strb	r3, [r7, #7]
 1020 000e 0B46     		mov	r3, r1
 1021 0010 BB71     		strb	r3, [r7, #6]
 1022 0012 1346     		mov	r3, r2	@ movhi
 1023 0014 BB80     		strh	r3, [r7, #4]	@ movhi
 478:Drivers/BSP/STM32F429I-Discovery/stm32f429i_discovery.c ****   HAL_StatusTypeDef status = HAL_OK;
 1024              		.loc 1 478 21
 1025 0016 0023     		movs	r3, #0
 1026 0018 FB73     		strb	r3, [r7, #15]
 479:Drivers/BSP/STM32F429I-Discovery/stm32f429i_discovery.c **** 
 480:Drivers/BSP/STM32F429I-Discovery/stm32f429i_discovery.c ****   status = HAL_I2C_Mem_Write(&I2cHandle, Addr, (uint16_t)Reg, I2C_MEMADD_SIZE_8BIT, pBuffer, Length
 1027              		.loc 1 480 12
 1028 001a FB79     		ldrb	r3, [r7, #7]	@ zero_extendqisi2
 1029 001c 99B2     		uxth	r1, r3
 1030 001e BB79     		ldrb	r3, [r7, #6]	@ zero_extendqisi2
 1031 0020 9AB2     		uxth	r2, r3
 1032 0022 0B4B     		ldr	r3, .L51
 1033 0024 1B68     		ldr	r3, [r3]
 1034 0026 0293     		str	r3, [sp, #8]
 1035 0028 BB88     		ldrh	r3, [r7, #4]
 1036 002a 0193     		str	r3, [sp, #4]
 1037 002c 3B68     		ldr	r3, [r7]
ARM GAS  /var/folders/06/9k7gq4t13mj84z2yhw3grvhc0000gn/T//ccJ3lc1F.s 			page 27


 1038 002e 0093     		str	r3, [sp]
 1039 0030 0123     		movs	r3, #1
 1040 0032 0848     		ldr	r0, .L51+4
 1041 0034 FFF7FEFF 		bl	HAL_I2C_Mem_Write
 1042 0038 0346     		mov	r3, r0
 1043 003a FB73     		strb	r3, [r7, #15]
 481:Drivers/BSP/STM32F429I-Discovery/stm32f429i_discovery.c **** 
 482:Drivers/BSP/STM32F429I-Discovery/stm32f429i_discovery.c ****   /* Check the communication status */
 483:Drivers/BSP/STM32F429I-Discovery/stm32f429i_discovery.c ****   if (status != HAL_OK)
 1044              		.loc 1 483 6
 1045 003c FB7B     		ldrb	r3, [r7, #15]	@ zero_extendqisi2
 1046 003e 002B     		cmp	r3, #0
 1047 0040 01D0     		beq	.L50
 484:Drivers/BSP/STM32F429I-Discovery/stm32f429i_discovery.c ****   {
 485:Drivers/BSP/STM32F429I-Discovery/stm32f429i_discovery.c ****     /* Re-Initialize the BUS */
 486:Drivers/BSP/STM32F429I-Discovery/stm32f429i_discovery.c ****     I2Cx_Error();
 1048              		.loc 1 486 5
 1049 0042 FFF7FEFF 		bl	I2Cx_Error
 1050              	.L50:
 487:Drivers/BSP/STM32F429I-Discovery/stm32f429i_discovery.c ****   }
 488:Drivers/BSP/STM32F429I-Discovery/stm32f429i_discovery.c **** }
 1051              		.loc 1 488 1
 1052 0046 00BF     		nop
 1053 0048 1037     		adds	r7, r7, #16
 1054              	.LCFI54:
 1055              		.cfi_def_cfa_offset 8
 1056 004a BD46     		mov	sp, r7
 1057              	.LCFI55:
 1058              		.cfi_def_cfa_register 13
 1059              		@ sp needed
 1060 004c 80BD     		pop	{r7, pc}
 1061              	.L52:
 1062 004e 00BF     		.align	2
 1063              	.L51:
 1064 0050 00000000 		.word	I2cxTimeout
 1065 0054 00000000 		.word	I2cHandle
 1066              		.cfi_endproc
 1067              	.LFE145:
 1069              		.section	.text.I2Cx_ReadData,"ax",%progbits
 1070              		.align	1
 1071              		.syntax unified
 1072              		.thumb
 1073              		.thumb_func
 1075              	I2Cx_ReadData:
 1076              	.LFB146:
 489:Drivers/BSP/STM32F429I-Discovery/stm32f429i_discovery.c **** 
 490:Drivers/BSP/STM32F429I-Discovery/stm32f429i_discovery.c **** /**
 491:Drivers/BSP/STM32F429I-Discovery/stm32f429i_discovery.c ****   * @brief  Reads a register of the device through BUS.
 492:Drivers/BSP/STM32F429I-Discovery/stm32f429i_discovery.c ****   * @param  Addr: Device address on BUS Bus.
 493:Drivers/BSP/STM32F429I-Discovery/stm32f429i_discovery.c ****   * @param  Reg: The target register address to write
 494:Drivers/BSP/STM32F429I-Discovery/stm32f429i_discovery.c ****   * @retval Data read at register address
 495:Drivers/BSP/STM32F429I-Discovery/stm32f429i_discovery.c ****   */
 496:Drivers/BSP/STM32F429I-Discovery/stm32f429i_discovery.c **** static uint8_t I2Cx_ReadData(uint8_t Addr, uint8_t Reg)
 497:Drivers/BSP/STM32F429I-Discovery/stm32f429i_discovery.c **** {
 1077              		.loc 1 497 1
 1078              		.cfi_startproc
 1079              		@ args = 0, pretend = 0, frame = 16
ARM GAS  /var/folders/06/9k7gq4t13mj84z2yhw3grvhc0000gn/T//ccJ3lc1F.s 			page 28


 1080              		@ frame_needed = 1, uses_anonymous_args = 0
 1081 0000 80B5     		push	{r7, lr}
 1082              	.LCFI56:
 1083              		.cfi_def_cfa_offset 8
 1084              		.cfi_offset 7, -8
 1085              		.cfi_offset 14, -4
 1086 0002 88B0     		sub	sp, sp, #32
 1087              	.LCFI57:
 1088              		.cfi_def_cfa_offset 40
 1089 0004 04AF     		add	r7, sp, #16
 1090              	.LCFI58:
 1091              		.cfi_def_cfa 7, 24
 1092 0006 0346     		mov	r3, r0
 1093 0008 0A46     		mov	r2, r1
 1094 000a FB71     		strb	r3, [r7, #7]
 1095 000c 1346     		mov	r3, r2
 1096 000e BB71     		strb	r3, [r7, #6]
 498:Drivers/BSP/STM32F429I-Discovery/stm32f429i_discovery.c ****   HAL_StatusTypeDef status = HAL_OK;
 1097              		.loc 1 498 21
 1098 0010 0023     		movs	r3, #0
 1099 0012 FB73     		strb	r3, [r7, #15]
 499:Drivers/BSP/STM32F429I-Discovery/stm32f429i_discovery.c ****   uint8_t value = 0;
 1100              		.loc 1 499 11
 1101 0014 0023     		movs	r3, #0
 1102 0016 BB73     		strb	r3, [r7, #14]
 500:Drivers/BSP/STM32F429I-Discovery/stm32f429i_discovery.c **** 
 501:Drivers/BSP/STM32F429I-Discovery/stm32f429i_discovery.c ****   status = HAL_I2C_Mem_Read(&I2cHandle, Addr, Reg, I2C_MEMADD_SIZE_8BIT, &value, 1, I2cxTimeout);
 1103              		.loc 1 501 12
 1104 0018 FB79     		ldrb	r3, [r7, #7]	@ zero_extendqisi2
 1105 001a 99B2     		uxth	r1, r3
 1106 001c BB79     		ldrb	r3, [r7, #6]	@ zero_extendqisi2
 1107 001e 9AB2     		uxth	r2, r3
 1108 0020 0B4B     		ldr	r3, .L56
 1109 0022 1B68     		ldr	r3, [r3]
 1110 0024 0293     		str	r3, [sp, #8]
 1111 0026 0123     		movs	r3, #1
 1112 0028 0193     		str	r3, [sp, #4]
 1113 002a 07F10E03 		add	r3, r7, #14
 1114 002e 0093     		str	r3, [sp]
 1115 0030 0123     		movs	r3, #1
 1116 0032 0848     		ldr	r0, .L56+4
 1117 0034 FFF7FEFF 		bl	HAL_I2C_Mem_Read
 1118 0038 0346     		mov	r3, r0
 1119 003a FB73     		strb	r3, [r7, #15]
 502:Drivers/BSP/STM32F429I-Discovery/stm32f429i_discovery.c **** 
 503:Drivers/BSP/STM32F429I-Discovery/stm32f429i_discovery.c ****   /* Check the communication status */
 504:Drivers/BSP/STM32F429I-Discovery/stm32f429i_discovery.c ****   if (status != HAL_OK)
 1120              		.loc 1 504 6
 1121 003c FB7B     		ldrb	r3, [r7, #15]	@ zero_extendqisi2
 1122 003e 002B     		cmp	r3, #0
 1123 0040 01D0     		beq	.L54
 505:Drivers/BSP/STM32F429I-Discovery/stm32f429i_discovery.c ****   {
 506:Drivers/BSP/STM32F429I-Discovery/stm32f429i_discovery.c ****     /* Re-Initialize the BUS */
 507:Drivers/BSP/STM32F429I-Discovery/stm32f429i_discovery.c ****     I2Cx_Error();
 1124              		.loc 1 507 5
 1125 0042 FFF7FEFF 		bl	I2Cx_Error
 1126              	.L54:
ARM GAS  /var/folders/06/9k7gq4t13mj84z2yhw3grvhc0000gn/T//ccJ3lc1F.s 			page 29


 508:Drivers/BSP/STM32F429I-Discovery/stm32f429i_discovery.c **** 
 509:Drivers/BSP/STM32F429I-Discovery/stm32f429i_discovery.c ****   }
 510:Drivers/BSP/STM32F429I-Discovery/stm32f429i_discovery.c ****   return value;
 1127              		.loc 1 510 10
 1128 0046 BB7B     		ldrb	r3, [r7, #14]	@ zero_extendqisi2
 511:Drivers/BSP/STM32F429I-Discovery/stm32f429i_discovery.c **** }
 1129              		.loc 1 511 1
 1130 0048 1846     		mov	r0, r3
 1131 004a 1037     		adds	r7, r7, #16
 1132              	.LCFI59:
 1133              		.cfi_def_cfa_offset 8
 1134 004c BD46     		mov	sp, r7
 1135              	.LCFI60:
 1136              		.cfi_def_cfa_register 13
 1137              		@ sp needed
 1138 004e 80BD     		pop	{r7, pc}
 1139              	.L57:
 1140              		.align	2
 1141              	.L56:
 1142 0050 00000000 		.word	I2cxTimeout
 1143 0054 00000000 		.word	I2cHandle
 1144              		.cfi_endproc
 1145              	.LFE146:
 1147              		.section	.text.I2Cx_ReadBuffer,"ax",%progbits
 1148              		.align	1
 1149              		.syntax unified
 1150              		.thumb
 1151              		.thumb_func
 1153              	I2Cx_ReadBuffer:
 1154              	.LFB147:
 512:Drivers/BSP/STM32F429I-Discovery/stm32f429i_discovery.c **** 
 513:Drivers/BSP/STM32F429I-Discovery/stm32f429i_discovery.c **** /**
 514:Drivers/BSP/STM32F429I-Discovery/stm32f429i_discovery.c ****   * @brief  Reads multiple data on the BUS.
 515:Drivers/BSP/STM32F429I-Discovery/stm32f429i_discovery.c ****   * @param  Addr: I2C Address
 516:Drivers/BSP/STM32F429I-Discovery/stm32f429i_discovery.c ****   * @param  Reg: Reg Address
 517:Drivers/BSP/STM32F429I-Discovery/stm32f429i_discovery.c ****   * @param  pBuffer: pointer to read data buffer
 518:Drivers/BSP/STM32F429I-Discovery/stm32f429i_discovery.c ****   * @param  Length: length of the data
 519:Drivers/BSP/STM32F429I-Discovery/stm32f429i_discovery.c ****   * @retval 0 if no problems to read multiple data
 520:Drivers/BSP/STM32F429I-Discovery/stm32f429i_discovery.c ****   */
 521:Drivers/BSP/STM32F429I-Discovery/stm32f429i_discovery.c **** static uint8_t I2Cx_ReadBuffer(uint8_t Addr, uint8_t Reg, uint8_t *pBuffer, uint16_t Length)
 522:Drivers/BSP/STM32F429I-Discovery/stm32f429i_discovery.c **** {
 1155              		.loc 1 522 1
 1156              		.cfi_startproc
 1157              		@ args = 0, pretend = 0, frame = 16
 1158              		@ frame_needed = 1, uses_anonymous_args = 0
 1159 0000 80B5     		push	{r7, lr}
 1160              	.LCFI61:
 1161              		.cfi_def_cfa_offset 8
 1162              		.cfi_offset 7, -8
 1163              		.cfi_offset 14, -4
 1164 0002 88B0     		sub	sp, sp, #32
 1165              	.LCFI62:
 1166              		.cfi_def_cfa_offset 40
 1167 0004 04AF     		add	r7, sp, #16
 1168              	.LCFI63:
 1169              		.cfi_def_cfa 7, 24
 1170 0006 3A60     		str	r2, [r7]
ARM GAS  /var/folders/06/9k7gq4t13mj84z2yhw3grvhc0000gn/T//ccJ3lc1F.s 			page 30


 1171 0008 1A46     		mov	r2, r3
 1172 000a 0346     		mov	r3, r0
 1173 000c FB71     		strb	r3, [r7, #7]
 1174 000e 0B46     		mov	r3, r1
 1175 0010 BB71     		strb	r3, [r7, #6]
 1176 0012 1346     		mov	r3, r2	@ movhi
 1177 0014 BB80     		strh	r3, [r7, #4]	@ movhi
 523:Drivers/BSP/STM32F429I-Discovery/stm32f429i_discovery.c ****   HAL_StatusTypeDef status = HAL_OK;
 1178              		.loc 1 523 21
 1179 0016 0023     		movs	r3, #0
 1180 0018 FB73     		strb	r3, [r7, #15]
 524:Drivers/BSP/STM32F429I-Discovery/stm32f429i_discovery.c **** 
 525:Drivers/BSP/STM32F429I-Discovery/stm32f429i_discovery.c ****   status = HAL_I2C_Mem_Read(&I2cHandle, Addr, (uint16_t)Reg, I2C_MEMADD_SIZE_8BIT, pBuffer, Length,
 1181              		.loc 1 525 12
 1182 001a FB79     		ldrb	r3, [r7, #7]	@ zero_extendqisi2
 1183 001c 99B2     		uxth	r1, r3
 1184 001e BB79     		ldrb	r3, [r7, #6]	@ zero_extendqisi2
 1185 0020 9AB2     		uxth	r2, r3
 1186 0022 0C4B     		ldr	r3, .L61
 1187 0024 1B68     		ldr	r3, [r3]
 1188 0026 0293     		str	r3, [sp, #8]
 1189 0028 BB88     		ldrh	r3, [r7, #4]
 1190 002a 0193     		str	r3, [sp, #4]
 1191 002c 3B68     		ldr	r3, [r7]
 1192 002e 0093     		str	r3, [sp]
 1193 0030 0123     		movs	r3, #1
 1194 0032 0948     		ldr	r0, .L61+4
 1195 0034 FFF7FEFF 		bl	HAL_I2C_Mem_Read
 1196 0038 0346     		mov	r3, r0
 1197 003a FB73     		strb	r3, [r7, #15]
 526:Drivers/BSP/STM32F429I-Discovery/stm32f429i_discovery.c **** 
 527:Drivers/BSP/STM32F429I-Discovery/stm32f429i_discovery.c ****   /* Check the communication status */
 528:Drivers/BSP/STM32F429I-Discovery/stm32f429i_discovery.c ****   if (status == HAL_OK)
 1198              		.loc 1 528 6
 1199 003c FB7B     		ldrb	r3, [r7, #15]	@ zero_extendqisi2
 1200 003e 002B     		cmp	r3, #0
 1201 0040 01D1     		bne	.L59
 529:Drivers/BSP/STM32F429I-Discovery/stm32f429i_discovery.c ****   {
 530:Drivers/BSP/STM32F429I-Discovery/stm32f429i_discovery.c ****     return 0;
 1202              		.loc 1 530 12
 1203 0042 0023     		movs	r3, #0
 1204 0044 02E0     		b	.L60
 1205              	.L59:
 531:Drivers/BSP/STM32F429I-Discovery/stm32f429i_discovery.c ****   }
 532:Drivers/BSP/STM32F429I-Discovery/stm32f429i_discovery.c ****   else
 533:Drivers/BSP/STM32F429I-Discovery/stm32f429i_discovery.c ****   {
 534:Drivers/BSP/STM32F429I-Discovery/stm32f429i_discovery.c ****     /* Re-Initialize the BUS */
 535:Drivers/BSP/STM32F429I-Discovery/stm32f429i_discovery.c ****     I2Cx_Error();
 1206              		.loc 1 535 5
 1207 0046 FFF7FEFF 		bl	I2Cx_Error
 536:Drivers/BSP/STM32F429I-Discovery/stm32f429i_discovery.c **** 
 537:Drivers/BSP/STM32F429I-Discovery/stm32f429i_discovery.c ****     return 1;
 1208              		.loc 1 537 12
 1209 004a 0123     		movs	r3, #1
 1210              	.L60:
 538:Drivers/BSP/STM32F429I-Discovery/stm32f429i_discovery.c ****   }
 539:Drivers/BSP/STM32F429I-Discovery/stm32f429i_discovery.c **** }
ARM GAS  /var/folders/06/9k7gq4t13mj84z2yhw3grvhc0000gn/T//ccJ3lc1F.s 			page 31


 1211              		.loc 1 539 1
 1212 004c 1846     		mov	r0, r3
 1213 004e 1037     		adds	r7, r7, #16
 1214              	.LCFI64:
 1215              		.cfi_def_cfa_offset 8
 1216 0050 BD46     		mov	sp, r7
 1217              	.LCFI65:
 1218              		.cfi_def_cfa_register 13
 1219              		@ sp needed
 1220 0052 80BD     		pop	{r7, pc}
 1221              	.L62:
 1222              		.align	2
 1223              	.L61:
 1224 0054 00000000 		.word	I2cxTimeout
 1225 0058 00000000 		.word	I2cHandle
 1226              		.cfi_endproc
 1227              	.LFE147:
 1229              		.section	.text.I2Cx_Error,"ax",%progbits
 1230              		.align	1
 1231              		.syntax unified
 1232              		.thumb
 1233              		.thumb_func
 1235              	I2Cx_Error:
 1236              	.LFB148:
 540:Drivers/BSP/STM32F429I-Discovery/stm32f429i_discovery.c **** 
 541:Drivers/BSP/STM32F429I-Discovery/stm32f429i_discovery.c **** #ifdef EE_M24LR64
 542:Drivers/BSP/STM32F429I-Discovery/stm32f429i_discovery.c **** /**
 543:Drivers/BSP/STM32F429I-Discovery/stm32f429i_discovery.c ****   * @brief  Writes a value in a register of the device through BUS in using DMA mode.
 544:Drivers/BSP/STM32F429I-Discovery/stm32f429i_discovery.c ****   * @param  Addr: Device address on BUS Bus.
 545:Drivers/BSP/STM32F429I-Discovery/stm32f429i_discovery.c ****   * @param  Reg: The target register address to write
 546:Drivers/BSP/STM32F429I-Discovery/stm32f429i_discovery.c ****   * @param  pBuffer: The target register value to be written
 547:Drivers/BSP/STM32F429I-Discovery/stm32f429i_discovery.c ****   * @param  Length: buffer size to be written
 548:Drivers/BSP/STM32F429I-Discovery/stm32f429i_discovery.c ****   * @retval HAL status
 549:Drivers/BSP/STM32F429I-Discovery/stm32f429i_discovery.c ****   */
 550:Drivers/BSP/STM32F429I-Discovery/stm32f429i_discovery.c **** static HAL_StatusTypeDef I2Cx_WriteBufferDMA(uint8_t Addr, uint16_t Reg,  uint8_t *pBuffer, uint16_
 551:Drivers/BSP/STM32F429I-Discovery/stm32f429i_discovery.c **** {
 552:Drivers/BSP/STM32F429I-Discovery/stm32f429i_discovery.c ****   HAL_StatusTypeDef status = HAL_OK;
 553:Drivers/BSP/STM32F429I-Discovery/stm32f429i_discovery.c **** 
 554:Drivers/BSP/STM32F429I-Discovery/stm32f429i_discovery.c ****   status = HAL_I2C_Mem_Write_DMA(&I2cHandle, Addr, Reg, I2C_MEMADD_SIZE_16BIT, pBuffer, Length);
 555:Drivers/BSP/STM32F429I-Discovery/stm32f429i_discovery.c **** 
 556:Drivers/BSP/STM32F429I-Discovery/stm32f429i_discovery.c ****   /* Check the communication status */
 557:Drivers/BSP/STM32F429I-Discovery/stm32f429i_discovery.c ****   if (status != HAL_OK)
 558:Drivers/BSP/STM32F429I-Discovery/stm32f429i_discovery.c ****   {
 559:Drivers/BSP/STM32F429I-Discovery/stm32f429i_discovery.c ****     /* Re-Initialize the BUS */
 560:Drivers/BSP/STM32F429I-Discovery/stm32f429i_discovery.c ****     I2Cx_Error();
 561:Drivers/BSP/STM32F429I-Discovery/stm32f429i_discovery.c ****   }
 562:Drivers/BSP/STM32F429I-Discovery/stm32f429i_discovery.c **** 
 563:Drivers/BSP/STM32F429I-Discovery/stm32f429i_discovery.c ****   return status;
 564:Drivers/BSP/STM32F429I-Discovery/stm32f429i_discovery.c **** }
 565:Drivers/BSP/STM32F429I-Discovery/stm32f429i_discovery.c **** 
 566:Drivers/BSP/STM32F429I-Discovery/stm32f429i_discovery.c **** /**
 567:Drivers/BSP/STM32F429I-Discovery/stm32f429i_discovery.c ****   * @brief  Reads multiple data on the BUS in using DMA mode.
 568:Drivers/BSP/STM32F429I-Discovery/stm32f429i_discovery.c ****   * @param  Addr: I2C Address
 569:Drivers/BSP/STM32F429I-Discovery/stm32f429i_discovery.c ****   * @param  Reg: Reg Address
 570:Drivers/BSP/STM32F429I-Discovery/stm32f429i_discovery.c ****   * @param  pBuffer: pointer to read data buffer
 571:Drivers/BSP/STM32F429I-Discovery/stm32f429i_discovery.c ****   * @param  Length: length of the data
 572:Drivers/BSP/STM32F429I-Discovery/stm32f429i_discovery.c ****   * @retval HAL status
ARM GAS  /var/folders/06/9k7gq4t13mj84z2yhw3grvhc0000gn/T//ccJ3lc1F.s 			page 32


 573:Drivers/BSP/STM32F429I-Discovery/stm32f429i_discovery.c ****   */
 574:Drivers/BSP/STM32F429I-Discovery/stm32f429i_discovery.c **** static HAL_StatusTypeDef I2Cx_ReadBufferDMA(uint8_t Addr, uint16_t Reg, uint8_t *pBuffer, uint16_t 
 575:Drivers/BSP/STM32F429I-Discovery/stm32f429i_discovery.c **** {
 576:Drivers/BSP/STM32F429I-Discovery/stm32f429i_discovery.c ****   HAL_StatusTypeDef status = HAL_OK;
 577:Drivers/BSP/STM32F429I-Discovery/stm32f429i_discovery.c **** 
 578:Drivers/BSP/STM32F429I-Discovery/stm32f429i_discovery.c ****   status = HAL_I2C_Mem_Read_DMA(&I2cHandle, Addr, Reg, I2C_MEMADD_SIZE_16BIT, pBuffer, Length);
 579:Drivers/BSP/STM32F429I-Discovery/stm32f429i_discovery.c **** 
 580:Drivers/BSP/STM32F429I-Discovery/stm32f429i_discovery.c ****   /* Check the communication status */
 581:Drivers/BSP/STM32F429I-Discovery/stm32f429i_discovery.c ****   if (status != HAL_OK)
 582:Drivers/BSP/STM32F429I-Discovery/stm32f429i_discovery.c ****   {
 583:Drivers/BSP/STM32F429I-Discovery/stm32f429i_discovery.c ****     /* Re-Initialize the BUS */
 584:Drivers/BSP/STM32F429I-Discovery/stm32f429i_discovery.c ****     I2Cx_Error();
 585:Drivers/BSP/STM32F429I-Discovery/stm32f429i_discovery.c ****   }
 586:Drivers/BSP/STM32F429I-Discovery/stm32f429i_discovery.c **** 
 587:Drivers/BSP/STM32F429I-Discovery/stm32f429i_discovery.c ****   return status;
 588:Drivers/BSP/STM32F429I-Discovery/stm32f429i_discovery.c **** }
 589:Drivers/BSP/STM32F429I-Discovery/stm32f429i_discovery.c **** 
 590:Drivers/BSP/STM32F429I-Discovery/stm32f429i_discovery.c **** /**
 591:Drivers/BSP/STM32F429I-Discovery/stm32f429i_discovery.c ****   * @brief  Checks if target device is ready for communication.
 592:Drivers/BSP/STM32F429I-Discovery/stm32f429i_discovery.c ****   * @note   This function is used with Memory devices
 593:Drivers/BSP/STM32F429I-Discovery/stm32f429i_discovery.c ****   * @param  DevAddress: Target device address
 594:Drivers/BSP/STM32F429I-Discovery/stm32f429i_discovery.c ****   * @param  Trials: Number of trials
 595:Drivers/BSP/STM32F429I-Discovery/stm32f429i_discovery.c ****   * @retval HAL status
 596:Drivers/BSP/STM32F429I-Discovery/stm32f429i_discovery.c ****   */
 597:Drivers/BSP/STM32F429I-Discovery/stm32f429i_discovery.c **** static HAL_StatusTypeDef I2Cx_IsDeviceReady(uint16_t DevAddress, uint32_t Trials)
 598:Drivers/BSP/STM32F429I-Discovery/stm32f429i_discovery.c **** {
 599:Drivers/BSP/STM32F429I-Discovery/stm32f429i_discovery.c ****   return (HAL_I2C_IsDeviceReady(&I2cHandle, DevAddress, Trials, I2cxTimeout));
 600:Drivers/BSP/STM32F429I-Discovery/stm32f429i_discovery.c **** }
 601:Drivers/BSP/STM32F429I-Discovery/stm32f429i_discovery.c **** #endif /* EE_M24LR64 */
 602:Drivers/BSP/STM32F429I-Discovery/stm32f429i_discovery.c **** 
 603:Drivers/BSP/STM32F429I-Discovery/stm32f429i_discovery.c **** /**
 604:Drivers/BSP/STM32F429I-Discovery/stm32f429i_discovery.c ****   * @brief  I2Cx error treatment function
 605:Drivers/BSP/STM32F429I-Discovery/stm32f429i_discovery.c ****   */
 606:Drivers/BSP/STM32F429I-Discovery/stm32f429i_discovery.c **** static void I2Cx_Error(void)
 607:Drivers/BSP/STM32F429I-Discovery/stm32f429i_discovery.c **** {
 1237              		.loc 1 607 1
 1238              		.cfi_startproc
 1239              		@ args = 0, pretend = 0, frame = 0
 1240              		@ frame_needed = 1, uses_anonymous_args = 0
 1241 0000 80B5     		push	{r7, lr}
 1242              	.LCFI66:
 1243              		.cfi_def_cfa_offset 8
 1244              		.cfi_offset 7, -8
 1245              		.cfi_offset 14, -4
 1246 0002 00AF     		add	r7, sp, #0
 1247              	.LCFI67:
 1248              		.cfi_def_cfa_register 7
 608:Drivers/BSP/STM32F429I-Discovery/stm32f429i_discovery.c ****   /* De-initialize the SPI communication BUS */
 609:Drivers/BSP/STM32F429I-Discovery/stm32f429i_discovery.c ****   HAL_I2C_DeInit(&I2cHandle);
 1249              		.loc 1 609 3
 1250 0004 0348     		ldr	r0, .L64
 1251 0006 FFF7FEFF 		bl	HAL_I2C_DeInit
 610:Drivers/BSP/STM32F429I-Discovery/stm32f429i_discovery.c **** 
 611:Drivers/BSP/STM32F429I-Discovery/stm32f429i_discovery.c ****   /* Re-Initialize the SPI communication BUS */
 612:Drivers/BSP/STM32F429I-Discovery/stm32f429i_discovery.c ****   I2Cx_Init();
 1252              		.loc 1 612 3
 1253 000a FFF7FEFF 		bl	I2Cx_Init
ARM GAS  /var/folders/06/9k7gq4t13mj84z2yhw3grvhc0000gn/T//ccJ3lc1F.s 			page 33


 613:Drivers/BSP/STM32F429I-Discovery/stm32f429i_discovery.c **** }
 1254              		.loc 1 613 1
 1255 000e 00BF     		nop
 1256 0010 80BD     		pop	{r7, pc}
 1257              	.L65:
 1258 0012 00BF     		.align	2
 1259              	.L64:
 1260 0014 00000000 		.word	I2cHandle
 1261              		.cfi_endproc
 1262              	.LFE148:
 1264              		.section	.text.SPIx_Init,"ax",%progbits
 1265              		.align	1
 1266              		.syntax unified
 1267              		.thumb
 1268              		.thumb_func
 1270              	SPIx_Init:
 1271              	.LFB149:
 614:Drivers/BSP/STM32F429I-Discovery/stm32f429i_discovery.c **** 
 615:Drivers/BSP/STM32F429I-Discovery/stm32f429i_discovery.c **** /******************************* SPI Routines *********************************/
 616:Drivers/BSP/STM32F429I-Discovery/stm32f429i_discovery.c **** 
 617:Drivers/BSP/STM32F429I-Discovery/stm32f429i_discovery.c **** /**
 618:Drivers/BSP/STM32F429I-Discovery/stm32f429i_discovery.c ****   * @brief  SPIx Bus initialization
 619:Drivers/BSP/STM32F429I-Discovery/stm32f429i_discovery.c ****   */
 620:Drivers/BSP/STM32F429I-Discovery/stm32f429i_discovery.c **** static void SPIx_Init(void)
 621:Drivers/BSP/STM32F429I-Discovery/stm32f429i_discovery.c **** {
 1272              		.loc 1 621 1
 1273              		.cfi_startproc
 1274              		@ args = 0, pretend = 0, frame = 0
 1275              		@ frame_needed = 1, uses_anonymous_args = 0
 1276 0000 80B5     		push	{r7, lr}
 1277              	.LCFI68:
 1278              		.cfi_def_cfa_offset 8
 1279              		.cfi_offset 7, -8
 1280              		.cfi_offset 14, -4
 1281 0002 00AF     		add	r7, sp, #0
 1282              	.LCFI69:
 1283              		.cfi_def_cfa_register 7
 622:Drivers/BSP/STM32F429I-Discovery/stm32f429i_discovery.c ****   if (HAL_SPI_GetState(&SpiHandle) == HAL_SPI_STATE_RESET)
 1284              		.loc 1 622 7
 1285 0004 1948     		ldr	r0, .L69
 1286 0006 FFF7FEFF 		bl	HAL_SPI_GetState
 1287 000a 0346     		mov	r3, r0
 1288              		.loc 1 622 6 discriminator 1
 1289 000c 002B     		cmp	r3, #0
 1290 000e 2BD1     		bne	.L68
 623:Drivers/BSP/STM32F429I-Discovery/stm32f429i_discovery.c ****   {
 624:Drivers/BSP/STM32F429I-Discovery/stm32f429i_discovery.c ****     /* SPI configuration -----------------------------------------------------*/
 625:Drivers/BSP/STM32F429I-Discovery/stm32f429i_discovery.c ****     SpiHandle.Instance = DISCOVERY_SPIx;
 1291              		.loc 1 625 24
 1292 0010 164B     		ldr	r3, .L69
 1293 0012 174A     		ldr	r2, .L69+4
 1294 0014 1A60     		str	r2, [r3]
 626:Drivers/BSP/STM32F429I-Discovery/stm32f429i_discovery.c ****     /* SPI baudrate is set to 5.6 MHz (PCLK2/SPI_BaudRatePrescaler = 90/16 = 5.625 MHz)
 627:Drivers/BSP/STM32F429I-Discovery/stm32f429i_discovery.c ****        to verify these constraints:
 628:Drivers/BSP/STM32F429I-Discovery/stm32f429i_discovery.c ****        - ILI9341 LCD SPI interface max baudrate is 10MHz for write and 6.66MHz for read
 629:Drivers/BSP/STM32F429I-Discovery/stm32f429i_discovery.c ****        - l3gd20 SPI interface max baudrate is 10MHz for write/read
 630:Drivers/BSP/STM32F429I-Discovery/stm32f429i_discovery.c ****        - PCLK2 frequency is set to 90 MHz
ARM GAS  /var/folders/06/9k7gq4t13mj84z2yhw3grvhc0000gn/T//ccJ3lc1F.s 			page 34


 631:Drivers/BSP/STM32F429I-Discovery/stm32f429i_discovery.c ****     */
 632:Drivers/BSP/STM32F429I-Discovery/stm32f429i_discovery.c ****     SpiHandle.Init.BaudRatePrescaler = SPI_BAUDRATEPRESCALER_16;
 1295              		.loc 1 632 38
 1296 0016 154B     		ldr	r3, .L69
 1297 0018 1822     		movs	r2, #24
 1298 001a DA61     		str	r2, [r3, #28]
 633:Drivers/BSP/STM32F429I-Discovery/stm32f429i_discovery.c **** 
 634:Drivers/BSP/STM32F429I-Discovery/stm32f429i_discovery.c ****     /* On STM32F429I-Discovery, LCD ID cannot be read then keep a common configuration */
 635:Drivers/BSP/STM32F429I-Discovery/stm32f429i_discovery.c ****     /* for LCD and GYRO (SPI_DIRECTION_2LINES) */
 636:Drivers/BSP/STM32F429I-Discovery/stm32f429i_discovery.c ****     /* Note: To read a register a LCD, SPI_DIRECTION_1LINE should be set */
 637:Drivers/BSP/STM32F429I-Discovery/stm32f429i_discovery.c ****     SpiHandle.Init.Direction      = SPI_DIRECTION_2LINES;
 1299              		.loc 1 637 35
 1300 001c 134B     		ldr	r3, .L69
 1301 001e 0022     		movs	r2, #0
 1302 0020 9A60     		str	r2, [r3, #8]
 638:Drivers/BSP/STM32F429I-Discovery/stm32f429i_discovery.c ****     SpiHandle.Init.CLKPhase       = SPI_PHASE_1EDGE;
 1303              		.loc 1 638 35
 1304 0022 124B     		ldr	r3, .L69
 1305 0024 0022     		movs	r2, #0
 1306 0026 5A61     		str	r2, [r3, #20]
 639:Drivers/BSP/STM32F429I-Discovery/stm32f429i_discovery.c ****     SpiHandle.Init.CLKPolarity    = SPI_POLARITY_LOW;
 1307              		.loc 1 639 35
 1308 0028 104B     		ldr	r3, .L69
 1309 002a 0022     		movs	r2, #0
 1310 002c 1A61     		str	r2, [r3, #16]
 640:Drivers/BSP/STM32F429I-Discovery/stm32f429i_discovery.c ****     SpiHandle.Init.CRCCalculation = SPI_CRCCALCULATION_DISABLED;
 1311              		.loc 1 640 35
 1312 002e 0F4B     		ldr	r3, .L69
 1313 0030 0022     		movs	r2, #0
 1314 0032 9A62     		str	r2, [r3, #40]
 641:Drivers/BSP/STM32F429I-Discovery/stm32f429i_discovery.c ****     SpiHandle.Init.CRCPolynomial  = 7;
 1315              		.loc 1 641 35
 1316 0034 0D4B     		ldr	r3, .L69
 1317 0036 0722     		movs	r2, #7
 1318 0038 DA62     		str	r2, [r3, #44]
 642:Drivers/BSP/STM32F429I-Discovery/stm32f429i_discovery.c ****     SpiHandle.Init.DataSize       = SPI_DATASIZE_8BIT;
 1319              		.loc 1 642 35
 1320 003a 0C4B     		ldr	r3, .L69
 1321 003c 0022     		movs	r2, #0
 1322 003e DA60     		str	r2, [r3, #12]
 643:Drivers/BSP/STM32F429I-Discovery/stm32f429i_discovery.c ****     SpiHandle.Init.FirstBit       = SPI_FIRSTBIT_MSB;
 1323              		.loc 1 643 35
 1324 0040 0A4B     		ldr	r3, .L69
 1325 0042 0022     		movs	r2, #0
 1326 0044 1A62     		str	r2, [r3, #32]
 644:Drivers/BSP/STM32F429I-Discovery/stm32f429i_discovery.c ****     SpiHandle.Init.NSS            = SPI_NSS_SOFT;
 1327              		.loc 1 644 35
 1328 0046 094B     		ldr	r3, .L69
 1329 0048 4FF40072 		mov	r2, #512
 1330 004c 9A61     		str	r2, [r3, #24]
 645:Drivers/BSP/STM32F429I-Discovery/stm32f429i_discovery.c ****     SpiHandle.Init.TIMode         = SPI_TIMODE_DISABLED;
 1331              		.loc 1 645 35
 1332 004e 074B     		ldr	r3, .L69
 1333 0050 0022     		movs	r2, #0
 1334 0052 5A62     		str	r2, [r3, #36]
 646:Drivers/BSP/STM32F429I-Discovery/stm32f429i_discovery.c ****     SpiHandle.Init.Mode           = SPI_MODE_MASTER;
 1335              		.loc 1 646 35
ARM GAS  /var/folders/06/9k7gq4t13mj84z2yhw3grvhc0000gn/T//ccJ3lc1F.s 			page 35


 1336 0054 054B     		ldr	r3, .L69
 1337 0056 4FF48272 		mov	r2, #260
 1338 005a 5A60     		str	r2, [r3, #4]
 647:Drivers/BSP/STM32F429I-Discovery/stm32f429i_discovery.c **** 
 648:Drivers/BSP/STM32F429I-Discovery/stm32f429i_discovery.c ****     SPIx_MspInit(&SpiHandle);
 1339              		.loc 1 648 5
 1340 005c 0348     		ldr	r0, .L69
 1341 005e FFF7FEFF 		bl	SPIx_MspInit
 649:Drivers/BSP/STM32F429I-Discovery/stm32f429i_discovery.c ****     HAL_SPI_Init(&SpiHandle);
 1342              		.loc 1 649 5
 1343 0062 0248     		ldr	r0, .L69
 1344 0064 FFF7FEFF 		bl	HAL_SPI_Init
 1345              	.L68:
 650:Drivers/BSP/STM32F429I-Discovery/stm32f429i_discovery.c ****   }
 651:Drivers/BSP/STM32F429I-Discovery/stm32f429i_discovery.c **** }
 1346              		.loc 1 651 1
 1347 0068 00BF     		nop
 1348 006a 80BD     		pop	{r7, pc}
 1349              	.L70:
 1350              		.align	2
 1351              	.L69:
 1352 006c 00000000 		.word	SpiHandle
 1353 0070 00500140 		.word	1073827840
 1354              		.cfi_endproc
 1355              	.LFE149:
 1357              		.section	.text.SPIx_Read,"ax",%progbits
 1358              		.align	1
 1359              		.syntax unified
 1360              		.thumb
 1361              		.thumb_func
 1363              	SPIx_Read:
 1364              	.LFB150:
 652:Drivers/BSP/STM32F429I-Discovery/stm32f429i_discovery.c **** 
 653:Drivers/BSP/STM32F429I-Discovery/stm32f429i_discovery.c **** /**
 654:Drivers/BSP/STM32F429I-Discovery/stm32f429i_discovery.c ****   * @brief  Reads 4 bytes from device.
 655:Drivers/BSP/STM32F429I-Discovery/stm32f429i_discovery.c ****   * @param  ReadSize: Number of bytes to read (max 4 bytes)
 656:Drivers/BSP/STM32F429I-Discovery/stm32f429i_discovery.c ****   * @retval Value read on the SPI
 657:Drivers/BSP/STM32F429I-Discovery/stm32f429i_discovery.c ****   */
 658:Drivers/BSP/STM32F429I-Discovery/stm32f429i_discovery.c **** static uint32_t SPIx_Read(uint8_t ReadSize)
 659:Drivers/BSP/STM32F429I-Discovery/stm32f429i_discovery.c **** {
 1365              		.loc 1 659 1
 1366              		.cfi_startproc
 1367              		@ args = 0, pretend = 0, frame = 16
 1368              		@ frame_needed = 1, uses_anonymous_args = 0
 1369 0000 80B5     		push	{r7, lr}
 1370              	.LCFI70:
 1371              		.cfi_def_cfa_offset 8
 1372              		.cfi_offset 7, -8
 1373              		.cfi_offset 14, -4
 1374 0002 84B0     		sub	sp, sp, #16
 1375              	.LCFI71:
 1376              		.cfi_def_cfa_offset 24
 1377 0004 00AF     		add	r7, sp, #0
 1378              	.LCFI72:
 1379              		.cfi_def_cfa_register 7
 1380 0006 0346     		mov	r3, r0
 1381 0008 FB71     		strb	r3, [r7, #7]
ARM GAS  /var/folders/06/9k7gq4t13mj84z2yhw3grvhc0000gn/T//ccJ3lc1F.s 			page 36


 660:Drivers/BSP/STM32F429I-Discovery/stm32f429i_discovery.c ****   HAL_StatusTypeDef status = HAL_OK;
 1382              		.loc 1 660 21
 1383 000a 0023     		movs	r3, #0
 1384 000c FB73     		strb	r3, [r7, #15]
 661:Drivers/BSP/STM32F429I-Discovery/stm32f429i_discovery.c ****   uint32_t readvalue;
 662:Drivers/BSP/STM32F429I-Discovery/stm32f429i_discovery.c **** 
 663:Drivers/BSP/STM32F429I-Discovery/stm32f429i_discovery.c ****   status = HAL_SPI_Receive(&SpiHandle, (uint8_t *) &readvalue, ReadSize, SpixTimeout);
 1385              		.loc 1 663 12
 1386 000e FB79     		ldrb	r3, [r7, #7]	@ zero_extendqisi2
 1387 0010 9AB2     		uxth	r2, r3
 1388 0012 094B     		ldr	r3, .L74
 1389 0014 1B68     		ldr	r3, [r3]
 1390 0016 07F10801 		add	r1, r7, #8
 1391 001a 0848     		ldr	r0, .L74+4
 1392 001c FFF7FEFF 		bl	HAL_SPI_Receive
 1393 0020 0346     		mov	r3, r0
 1394 0022 FB73     		strb	r3, [r7, #15]
 664:Drivers/BSP/STM32F429I-Discovery/stm32f429i_discovery.c **** 
 665:Drivers/BSP/STM32F429I-Discovery/stm32f429i_discovery.c ****   /* Check the communication status */
 666:Drivers/BSP/STM32F429I-Discovery/stm32f429i_discovery.c ****   if (status != HAL_OK)
 1395              		.loc 1 666 6
 1396 0024 FB7B     		ldrb	r3, [r7, #15]	@ zero_extendqisi2
 1397 0026 002B     		cmp	r3, #0
 1398 0028 01D0     		beq	.L72
 667:Drivers/BSP/STM32F429I-Discovery/stm32f429i_discovery.c ****   {
 668:Drivers/BSP/STM32F429I-Discovery/stm32f429i_discovery.c ****     /* Re-Initialize the BUS */
 669:Drivers/BSP/STM32F429I-Discovery/stm32f429i_discovery.c ****     SPIx_Error();
 1399              		.loc 1 669 5
 1400 002a FFF7FEFF 		bl	SPIx_Error
 1401              	.L72:
 670:Drivers/BSP/STM32F429I-Discovery/stm32f429i_discovery.c ****   }
 671:Drivers/BSP/STM32F429I-Discovery/stm32f429i_discovery.c **** 
 672:Drivers/BSP/STM32F429I-Discovery/stm32f429i_discovery.c ****   return readvalue;
 1402              		.loc 1 672 10
 1403 002e BB68     		ldr	r3, [r7, #8]
 673:Drivers/BSP/STM32F429I-Discovery/stm32f429i_discovery.c **** }
 1404              		.loc 1 673 1
 1405 0030 1846     		mov	r0, r3
 1406 0032 1037     		adds	r7, r7, #16
 1407              	.LCFI73:
 1408              		.cfi_def_cfa_offset 8
 1409 0034 BD46     		mov	sp, r7
 1410              	.LCFI74:
 1411              		.cfi_def_cfa_register 13
 1412              		@ sp needed
 1413 0036 80BD     		pop	{r7, pc}
 1414              	.L75:
 1415              		.align	2
 1416              	.L74:
 1417 0038 00000000 		.word	SpixTimeout
 1418 003c 00000000 		.word	SpiHandle
 1419              		.cfi_endproc
 1420              	.LFE150:
 1422              		.section	.text.SPIx_Write,"ax",%progbits
 1423              		.align	1
 1424              		.syntax unified
 1425              		.thumb
ARM GAS  /var/folders/06/9k7gq4t13mj84z2yhw3grvhc0000gn/T//ccJ3lc1F.s 			page 37


 1426              		.thumb_func
 1428              	SPIx_Write:
 1429              	.LFB151:
 674:Drivers/BSP/STM32F429I-Discovery/stm32f429i_discovery.c **** 
 675:Drivers/BSP/STM32F429I-Discovery/stm32f429i_discovery.c **** /**
 676:Drivers/BSP/STM32F429I-Discovery/stm32f429i_discovery.c ****   * @brief  Writes a byte to device.
 677:Drivers/BSP/STM32F429I-Discovery/stm32f429i_discovery.c ****   * @param  Value: value to be written
 678:Drivers/BSP/STM32F429I-Discovery/stm32f429i_discovery.c ****   */
 679:Drivers/BSP/STM32F429I-Discovery/stm32f429i_discovery.c **** static void SPIx_Write(uint16_t Value)
 680:Drivers/BSP/STM32F429I-Discovery/stm32f429i_discovery.c **** {
 1430              		.loc 1 680 1
 1431              		.cfi_startproc
 1432              		@ args = 0, pretend = 0, frame = 16
 1433              		@ frame_needed = 1, uses_anonymous_args = 0
 1434 0000 80B5     		push	{r7, lr}
 1435              	.LCFI75:
 1436              		.cfi_def_cfa_offset 8
 1437              		.cfi_offset 7, -8
 1438              		.cfi_offset 14, -4
 1439 0002 84B0     		sub	sp, sp, #16
 1440              	.LCFI76:
 1441              		.cfi_def_cfa_offset 24
 1442 0004 00AF     		add	r7, sp, #0
 1443              	.LCFI77:
 1444              		.cfi_def_cfa_register 7
 1445 0006 0346     		mov	r3, r0
 1446 0008 FB80     		strh	r3, [r7, #6]	@ movhi
 681:Drivers/BSP/STM32F429I-Discovery/stm32f429i_discovery.c ****   HAL_StatusTypeDef status = HAL_OK;
 1447              		.loc 1 681 21
 1448 000a 0023     		movs	r3, #0
 1449 000c FB73     		strb	r3, [r7, #15]
 682:Drivers/BSP/STM32F429I-Discovery/stm32f429i_discovery.c **** 
 683:Drivers/BSP/STM32F429I-Discovery/stm32f429i_discovery.c ****   status = HAL_SPI_Transmit(&SpiHandle, (uint8_t *) &Value, 1, SpixTimeout);
 1450              		.loc 1 683 12
 1451 000e 094B     		ldr	r3, .L79
 1452 0010 1B68     		ldr	r3, [r3]
 1453 0012 B91D     		adds	r1, r7, #6
 1454 0014 0122     		movs	r2, #1
 1455 0016 0848     		ldr	r0, .L79+4
 1456 0018 FFF7FEFF 		bl	HAL_SPI_Transmit
 1457 001c 0346     		mov	r3, r0
 1458 001e FB73     		strb	r3, [r7, #15]
 684:Drivers/BSP/STM32F429I-Discovery/stm32f429i_discovery.c **** 
 685:Drivers/BSP/STM32F429I-Discovery/stm32f429i_discovery.c ****   /* Check the communication status */
 686:Drivers/BSP/STM32F429I-Discovery/stm32f429i_discovery.c ****   if (status != HAL_OK)
 1459              		.loc 1 686 6
 1460 0020 FB7B     		ldrb	r3, [r7, #15]	@ zero_extendqisi2
 1461 0022 002B     		cmp	r3, #0
 1462 0024 01D0     		beq	.L78
 687:Drivers/BSP/STM32F429I-Discovery/stm32f429i_discovery.c ****   {
 688:Drivers/BSP/STM32F429I-Discovery/stm32f429i_discovery.c ****     /* Re-Initialize the BUS */
 689:Drivers/BSP/STM32F429I-Discovery/stm32f429i_discovery.c ****     SPIx_Error();
 1463              		.loc 1 689 5
 1464 0026 FFF7FEFF 		bl	SPIx_Error
 1465              	.L78:
 690:Drivers/BSP/STM32F429I-Discovery/stm32f429i_discovery.c ****   }
 691:Drivers/BSP/STM32F429I-Discovery/stm32f429i_discovery.c **** }
ARM GAS  /var/folders/06/9k7gq4t13mj84z2yhw3grvhc0000gn/T//ccJ3lc1F.s 			page 38


 1466              		.loc 1 691 1
 1467 002a 00BF     		nop
 1468 002c 1037     		adds	r7, r7, #16
 1469              	.LCFI78:
 1470              		.cfi_def_cfa_offset 8
 1471 002e BD46     		mov	sp, r7
 1472              	.LCFI79:
 1473              		.cfi_def_cfa_register 13
 1474              		@ sp needed
 1475 0030 80BD     		pop	{r7, pc}
 1476              	.L80:
 1477 0032 00BF     		.align	2
 1478              	.L79:
 1479 0034 00000000 		.word	SpixTimeout
 1480 0038 00000000 		.word	SpiHandle
 1481              		.cfi_endproc
 1482              	.LFE151:
 1484              		.section	.text.SPIx_WriteRead,"ax",%progbits
 1485              		.align	1
 1486              		.syntax unified
 1487              		.thumb
 1488              		.thumb_func
 1490              	SPIx_WriteRead:
 1491              	.LFB152:
 692:Drivers/BSP/STM32F429I-Discovery/stm32f429i_discovery.c **** 
 693:Drivers/BSP/STM32F429I-Discovery/stm32f429i_discovery.c **** /**
 694:Drivers/BSP/STM32F429I-Discovery/stm32f429i_discovery.c ****   * @brief  Sends a Byte through the SPI interface and return the Byte received
 695:Drivers/BSP/STM32F429I-Discovery/stm32f429i_discovery.c ****   *         from the SPI bus.
 696:Drivers/BSP/STM32F429I-Discovery/stm32f429i_discovery.c ****   * @param  Byte: Byte send.
 697:Drivers/BSP/STM32F429I-Discovery/stm32f429i_discovery.c ****   * @retval The received byte value
 698:Drivers/BSP/STM32F429I-Discovery/stm32f429i_discovery.c ****   */
 699:Drivers/BSP/STM32F429I-Discovery/stm32f429i_discovery.c **** static uint8_t SPIx_WriteRead(uint8_t Byte)
 700:Drivers/BSP/STM32F429I-Discovery/stm32f429i_discovery.c **** {
 1492              		.loc 1 700 1
 1493              		.cfi_startproc
 1494              		@ args = 0, pretend = 0, frame = 16
 1495              		@ frame_needed = 1, uses_anonymous_args = 0
 1496 0000 80B5     		push	{r7, lr}
 1497              	.LCFI80:
 1498              		.cfi_def_cfa_offset 8
 1499              		.cfi_offset 7, -8
 1500              		.cfi_offset 14, -4
 1501 0002 86B0     		sub	sp, sp, #24
 1502              	.LCFI81:
 1503              		.cfi_def_cfa_offset 32
 1504 0004 02AF     		add	r7, sp, #8
 1505              	.LCFI82:
 1506              		.cfi_def_cfa 7, 24
 1507 0006 0346     		mov	r3, r0
 1508 0008 FB71     		strb	r3, [r7, #7]
 701:Drivers/BSP/STM32F429I-Discovery/stm32f429i_discovery.c ****   uint8_t receivedbyte = 0;
 1509              		.loc 1 701 11
 1510 000a 0023     		movs	r3, #0
 1511 000c FB73     		strb	r3, [r7, #15]
 702:Drivers/BSP/STM32F429I-Discovery/stm32f429i_discovery.c **** 
 703:Drivers/BSP/STM32F429I-Discovery/stm32f429i_discovery.c ****   /* Send a Byte through the SPI peripheral */
 704:Drivers/BSP/STM32F429I-Discovery/stm32f429i_discovery.c ****   /* Read byte from the SPI bus */
ARM GAS  /var/folders/06/9k7gq4t13mj84z2yhw3grvhc0000gn/T//ccJ3lc1F.s 			page 39


 705:Drivers/BSP/STM32F429I-Discovery/stm32f429i_discovery.c ****   if (HAL_SPI_TransmitReceive(&SpiHandle, (uint8_t *) &Byte, (uint8_t *) &receivedbyte, 1, SpixTime
 1512              		.loc 1 705 7
 1513 000e 0A4B     		ldr	r3, .L84
 1514 0010 1B68     		ldr	r3, [r3]
 1515 0012 07F10F02 		add	r2, r7, #15
 1516 0016 F91D     		adds	r1, r7, #7
 1517 0018 0093     		str	r3, [sp]
 1518 001a 0123     		movs	r3, #1
 1519 001c 0748     		ldr	r0, .L84+4
 1520 001e FFF7FEFF 		bl	HAL_SPI_TransmitReceive
 1521 0022 0346     		mov	r3, r0
 1522              		.loc 1 705 6 discriminator 1
 1523 0024 002B     		cmp	r3, #0
 1524 0026 01D0     		beq	.L82
 706:Drivers/BSP/STM32F429I-Discovery/stm32f429i_discovery.c ****   {
 707:Drivers/BSP/STM32F429I-Discovery/stm32f429i_discovery.c ****     SPIx_Error();
 1525              		.loc 1 707 5
 1526 0028 FFF7FEFF 		bl	SPIx_Error
 1527              	.L82:
 708:Drivers/BSP/STM32F429I-Discovery/stm32f429i_discovery.c ****   }
 709:Drivers/BSP/STM32F429I-Discovery/stm32f429i_discovery.c **** 
 710:Drivers/BSP/STM32F429I-Discovery/stm32f429i_discovery.c ****   return receivedbyte;
 1528              		.loc 1 710 10
 1529 002c FB7B     		ldrb	r3, [r7, #15]	@ zero_extendqisi2
 711:Drivers/BSP/STM32F429I-Discovery/stm32f429i_discovery.c **** }
 1530              		.loc 1 711 1
 1531 002e 1846     		mov	r0, r3
 1532 0030 1037     		adds	r7, r7, #16
 1533              	.LCFI83:
 1534              		.cfi_def_cfa_offset 8
 1535 0032 BD46     		mov	sp, r7
 1536              	.LCFI84:
 1537              		.cfi_def_cfa_register 13
 1538              		@ sp needed
 1539 0034 80BD     		pop	{r7, pc}
 1540              	.L85:
 1541 0036 00BF     		.align	2
 1542              	.L84:
 1543 0038 00000000 		.word	SpixTimeout
 1544 003c 00000000 		.word	SpiHandle
 1545              		.cfi_endproc
 1546              	.LFE152:
 1548              		.section	.text.SPIx_Error,"ax",%progbits
 1549              		.align	1
 1550              		.syntax unified
 1551              		.thumb
 1552              		.thumb_func
 1554              	SPIx_Error:
 1555              	.LFB153:
 712:Drivers/BSP/STM32F429I-Discovery/stm32f429i_discovery.c **** 
 713:Drivers/BSP/STM32F429I-Discovery/stm32f429i_discovery.c **** /**
 714:Drivers/BSP/STM32F429I-Discovery/stm32f429i_discovery.c ****   * @brief  SPIx error treatment function.
 715:Drivers/BSP/STM32F429I-Discovery/stm32f429i_discovery.c ****   */
 716:Drivers/BSP/STM32F429I-Discovery/stm32f429i_discovery.c **** static void SPIx_Error(void)
 717:Drivers/BSP/STM32F429I-Discovery/stm32f429i_discovery.c **** {
 1556              		.loc 1 717 1
 1557              		.cfi_startproc
ARM GAS  /var/folders/06/9k7gq4t13mj84z2yhw3grvhc0000gn/T//ccJ3lc1F.s 			page 40


 1558              		@ args = 0, pretend = 0, frame = 0
 1559              		@ frame_needed = 1, uses_anonymous_args = 0
 1560 0000 80B5     		push	{r7, lr}
 1561              	.LCFI85:
 1562              		.cfi_def_cfa_offset 8
 1563              		.cfi_offset 7, -8
 1564              		.cfi_offset 14, -4
 1565 0002 00AF     		add	r7, sp, #0
 1566              	.LCFI86:
 1567              		.cfi_def_cfa_register 7
 718:Drivers/BSP/STM32F429I-Discovery/stm32f429i_discovery.c ****   /* De-initialize the SPI communication BUS */
 719:Drivers/BSP/STM32F429I-Discovery/stm32f429i_discovery.c ****   HAL_SPI_DeInit(&SpiHandle);
 1568              		.loc 1 719 3
 1569 0004 0348     		ldr	r0, .L87
 1570 0006 FFF7FEFF 		bl	HAL_SPI_DeInit
 720:Drivers/BSP/STM32F429I-Discovery/stm32f429i_discovery.c **** 
 721:Drivers/BSP/STM32F429I-Discovery/stm32f429i_discovery.c ****   /* Re- Initialize the SPI communication BUS */
 722:Drivers/BSP/STM32F429I-Discovery/stm32f429i_discovery.c ****   SPIx_Init();
 1571              		.loc 1 722 3
 1572 000a FFF7FEFF 		bl	SPIx_Init
 723:Drivers/BSP/STM32F429I-Discovery/stm32f429i_discovery.c **** }
 1573              		.loc 1 723 1
 1574 000e 00BF     		nop
 1575 0010 80BD     		pop	{r7, pc}
 1576              	.L88:
 1577 0012 00BF     		.align	2
 1578              	.L87:
 1579 0014 00000000 		.word	SpiHandle
 1580              		.cfi_endproc
 1581              	.LFE153:
 1583              		.section	.text.SPIx_MspInit,"ax",%progbits
 1584              		.align	1
 1585              		.syntax unified
 1586              		.thumb
 1587              		.thumb_func
 1589              	SPIx_MspInit:
 1590              	.LFB154:
 724:Drivers/BSP/STM32F429I-Discovery/stm32f429i_discovery.c **** 
 725:Drivers/BSP/STM32F429I-Discovery/stm32f429i_discovery.c **** /**
 726:Drivers/BSP/STM32F429I-Discovery/stm32f429i_discovery.c ****   * @brief  SPI MSP Init.
 727:Drivers/BSP/STM32F429I-Discovery/stm32f429i_discovery.c ****   * @param  hspi: SPI handle
 728:Drivers/BSP/STM32F429I-Discovery/stm32f429i_discovery.c ****   */
 729:Drivers/BSP/STM32F429I-Discovery/stm32f429i_discovery.c **** static void SPIx_MspInit(SPI_HandleTypeDef *hspi)
 730:Drivers/BSP/STM32F429I-Discovery/stm32f429i_discovery.c **** {
 1591              		.loc 1 730 1
 1592              		.cfi_startproc
 1593              		@ args = 0, pretend = 0, frame = 40
 1594              		@ frame_needed = 1, uses_anonymous_args = 0
 1595 0000 80B5     		push	{r7, lr}
 1596              	.LCFI87:
 1597              		.cfi_def_cfa_offset 8
 1598              		.cfi_offset 7, -8
 1599              		.cfi_offset 14, -4
 1600 0002 8AB0     		sub	sp, sp, #40
 1601              	.LCFI88:
 1602              		.cfi_def_cfa_offset 48
 1603 0004 00AF     		add	r7, sp, #0
ARM GAS  /var/folders/06/9k7gq4t13mj84z2yhw3grvhc0000gn/T//ccJ3lc1F.s 			page 41


 1604              	.LCFI89:
 1605              		.cfi_def_cfa_register 7
 1606 0006 7860     		str	r0, [r7, #4]
 1607              	.LBB9:
 731:Drivers/BSP/STM32F429I-Discovery/stm32f429i_discovery.c ****   GPIO_InitTypeDef   GPIO_InitStructure;
 732:Drivers/BSP/STM32F429I-Discovery/stm32f429i_discovery.c **** 
 733:Drivers/BSP/STM32F429I-Discovery/stm32f429i_discovery.c ****   /* Enable SPIx clock */
 734:Drivers/BSP/STM32F429I-Discovery/stm32f429i_discovery.c ****   DISCOVERY_SPIx_CLK_ENABLE();
 1608              		.loc 1 734 3
 1609 0008 0023     		movs	r3, #0
 1610 000a 3B61     		str	r3, [r7, #16]
 1611 000c 174B     		ldr	r3, .L90
 1612 000e 5B6C     		ldr	r3, [r3, #68]
 1613 0010 164A     		ldr	r2, .L90
 1614 0012 43F48013 		orr	r3, r3, #1048576
 1615 0016 5364     		str	r3, [r2, #68]
 1616 0018 144B     		ldr	r3, .L90
 1617 001a 5B6C     		ldr	r3, [r3, #68]
 1618 001c 03F48013 		and	r3, r3, #1048576
 1619 0020 3B61     		str	r3, [r7, #16]
 1620 0022 3B69     		ldr	r3, [r7, #16]
 1621              	.LBE9:
 1622              	.LBB10:
 735:Drivers/BSP/STM32F429I-Discovery/stm32f429i_discovery.c **** 
 736:Drivers/BSP/STM32F429I-Discovery/stm32f429i_discovery.c ****   /* Enable DISCOVERY_SPI GPIO clock */
 737:Drivers/BSP/STM32F429I-Discovery/stm32f429i_discovery.c ****   DISCOVERY_SPIx_GPIO_CLK_ENABLE();
 1623              		.loc 1 737 3
 1624 0024 0023     		movs	r3, #0
 1625 0026 FB60     		str	r3, [r7, #12]
 1626 0028 104B     		ldr	r3, .L90
 1627 002a 1B6B     		ldr	r3, [r3, #48]
 1628 002c 0F4A     		ldr	r2, .L90
 1629 002e 43F02003 		orr	r3, r3, #32
 1630 0032 1363     		str	r3, [r2, #48]
 1631 0034 0D4B     		ldr	r3, .L90
 1632 0036 1B6B     		ldr	r3, [r3, #48]
 1633 0038 03F02003 		and	r3, r3, #32
 1634 003c FB60     		str	r3, [r7, #12]
 1635 003e FB68     		ldr	r3, [r7, #12]
 1636              	.LBE10:
 738:Drivers/BSP/STM32F429I-Discovery/stm32f429i_discovery.c **** 
 739:Drivers/BSP/STM32F429I-Discovery/stm32f429i_discovery.c ****   /* configure SPI SCK, MOSI and MISO */
 740:Drivers/BSP/STM32F429I-Discovery/stm32f429i_discovery.c ****   GPIO_InitStructure.Pin    = (DISCOVERY_SPIx_SCK_PIN | DISCOVERY_SPIx_MOSI_PIN | DISCOVERY_SPIx_MI
 1637              		.loc 1 740 29
 1638 0040 4FF46073 		mov	r3, #896
 1639 0044 7B61     		str	r3, [r7, #20]
 741:Drivers/BSP/STM32F429I-Discovery/stm32f429i_discovery.c ****   GPIO_InitStructure.Mode   = GPIO_MODE_AF_PP;
 1640              		.loc 1 741 29
 1641 0046 0223     		movs	r3, #2
 1642 0048 BB61     		str	r3, [r7, #24]
 742:Drivers/BSP/STM32F429I-Discovery/stm32f429i_discovery.c ****   GPIO_InitStructure.Pull   = GPIO_PULLDOWN;
 1643              		.loc 1 742 29
 1644 004a 0223     		movs	r3, #2
 1645 004c FB61     		str	r3, [r7, #28]
 743:Drivers/BSP/STM32F429I-Discovery/stm32f429i_discovery.c ****   GPIO_InitStructure.Speed  = GPIO_SPEED_MEDIUM;
 1646              		.loc 1 743 29
 1647 004e 0123     		movs	r3, #1
ARM GAS  /var/folders/06/9k7gq4t13mj84z2yhw3grvhc0000gn/T//ccJ3lc1F.s 			page 42


 1648 0050 3B62     		str	r3, [r7, #32]
 744:Drivers/BSP/STM32F429I-Discovery/stm32f429i_discovery.c ****   GPIO_InitStructure.Alternate = DISCOVERY_SPIx_AF;
 1649              		.loc 1 744 32
 1650 0052 0523     		movs	r3, #5
 1651 0054 7B62     		str	r3, [r7, #36]
 745:Drivers/BSP/STM32F429I-Discovery/stm32f429i_discovery.c ****   HAL_GPIO_Init(DISCOVERY_SPIx_GPIO_PORT, &GPIO_InitStructure);
 1652              		.loc 1 745 3
 1653 0056 07F11403 		add	r3, r7, #20
 1654 005a 1946     		mov	r1, r3
 1655 005c 0448     		ldr	r0, .L90+4
 1656 005e FFF7FEFF 		bl	HAL_GPIO_Init
 746:Drivers/BSP/STM32F429I-Discovery/stm32f429i_discovery.c **** }
 1657              		.loc 1 746 1
 1658 0062 00BF     		nop
 1659 0064 2837     		adds	r7, r7, #40
 1660              	.LCFI90:
 1661              		.cfi_def_cfa_offset 8
 1662 0066 BD46     		mov	sp, r7
 1663              	.LCFI91:
 1664              		.cfi_def_cfa_register 13
 1665              		@ sp needed
 1666 0068 80BD     		pop	{r7, pc}
 1667              	.L91:
 1668 006a 00BF     		.align	2
 1669              	.L90:
 1670 006c 00380240 		.word	1073887232
 1671 0070 00140240 		.word	1073878016
 1672              		.cfi_endproc
 1673              	.LFE154:
 1675              		.section	.text.LCD_IO_Init,"ax",%progbits
 1676              		.align	1
 1677              		.global	LCD_IO_Init
 1678              		.syntax unified
 1679              		.thumb
 1680              		.thumb_func
 1682              	LCD_IO_Init:
 1683              	.LFB155:
 747:Drivers/BSP/STM32F429I-Discovery/stm32f429i_discovery.c **** 
 748:Drivers/BSP/STM32F429I-Discovery/stm32f429i_discovery.c **** /********************************* LINK LCD ***********************************/
 749:Drivers/BSP/STM32F429I-Discovery/stm32f429i_discovery.c **** 
 750:Drivers/BSP/STM32F429I-Discovery/stm32f429i_discovery.c **** /**
 751:Drivers/BSP/STM32F429I-Discovery/stm32f429i_discovery.c ****   * @brief  Configures the LCD_SPI interface.
 752:Drivers/BSP/STM32F429I-Discovery/stm32f429i_discovery.c ****   */
 753:Drivers/BSP/STM32F429I-Discovery/stm32f429i_discovery.c **** void LCD_IO_Init(void)
 754:Drivers/BSP/STM32F429I-Discovery/stm32f429i_discovery.c **** {
 1684              		.loc 1 754 1
 1685              		.cfi_startproc
 1686              		@ args = 0, pretend = 0, frame = 32
 1687              		@ frame_needed = 1, uses_anonymous_args = 0
 1688 0000 80B5     		push	{r7, lr}
 1689              	.LCFI92:
 1690              		.cfi_def_cfa_offset 8
 1691              		.cfi_offset 7, -8
 1692              		.cfi_offset 14, -4
 1693 0002 88B0     		sub	sp, sp, #32
 1694              	.LCFI93:
 1695              		.cfi_def_cfa_offset 40
ARM GAS  /var/folders/06/9k7gq4t13mj84z2yhw3grvhc0000gn/T//ccJ3lc1F.s 			page 43


 1696 0004 00AF     		add	r7, sp, #0
 1697              	.LCFI94:
 1698              		.cfi_def_cfa_register 7
 755:Drivers/BSP/STM32F429I-Discovery/stm32f429i_discovery.c ****   GPIO_InitTypeDef GPIO_InitStructure;
 756:Drivers/BSP/STM32F429I-Discovery/stm32f429i_discovery.c **** 
 757:Drivers/BSP/STM32F429I-Discovery/stm32f429i_discovery.c ****   if (Is_LCD_IO_Initialized == 0)
 1699              		.loc 1 757 29
 1700 0006 364B     		ldr	r3, .L95
 1701 0008 1B78     		ldrb	r3, [r3]	@ zero_extendqisi2
 1702              		.loc 1 757 6
 1703 000a 002B     		cmp	r3, #0
 1704 000c 64D1     		bne	.L94
 758:Drivers/BSP/STM32F429I-Discovery/stm32f429i_discovery.c ****   {
 759:Drivers/BSP/STM32F429I-Discovery/stm32f429i_discovery.c ****     Is_LCD_IO_Initialized = 1;
 1705              		.loc 1 759 27
 1706 000e 344B     		ldr	r3, .L95
 1707 0010 0122     		movs	r2, #1
 1708 0012 1A70     		strb	r2, [r3]
 1709              	.LBB11:
 760:Drivers/BSP/STM32F429I-Discovery/stm32f429i_discovery.c **** 
 761:Drivers/BSP/STM32F429I-Discovery/stm32f429i_discovery.c ****     /* Configure NCS in Output Push-Pull mode */
 762:Drivers/BSP/STM32F429I-Discovery/stm32f429i_discovery.c ****     LCD_WRX_GPIO_CLK_ENABLE();
 1710              		.loc 1 762 5
 1711 0014 0023     		movs	r3, #0
 1712 0016 BB60     		str	r3, [r7, #8]
 1713 0018 324B     		ldr	r3, .L95+4
 1714 001a 1B6B     		ldr	r3, [r3, #48]
 1715 001c 314A     		ldr	r2, .L95+4
 1716 001e 43F00803 		orr	r3, r3, #8
 1717 0022 1363     		str	r3, [r2, #48]
 1718 0024 2F4B     		ldr	r3, .L95+4
 1719 0026 1B6B     		ldr	r3, [r3, #48]
 1720 0028 03F00803 		and	r3, r3, #8
 1721 002c BB60     		str	r3, [r7, #8]
 1722 002e BB68     		ldr	r3, [r7, #8]
 1723              	.LBE11:
 763:Drivers/BSP/STM32F429I-Discovery/stm32f429i_discovery.c ****     GPIO_InitStructure.Pin     = LCD_WRX_PIN;
 1724              		.loc 1 763 32
 1725 0030 4FF40053 		mov	r3, #8192
 1726 0034 FB60     		str	r3, [r7, #12]
 764:Drivers/BSP/STM32F429I-Discovery/stm32f429i_discovery.c ****     GPIO_InitStructure.Mode    = GPIO_MODE_OUTPUT_PP;
 1727              		.loc 1 764 32
 1728 0036 0123     		movs	r3, #1
 1729 0038 3B61     		str	r3, [r7, #16]
 765:Drivers/BSP/STM32F429I-Discovery/stm32f429i_discovery.c ****     GPIO_InitStructure.Pull    = GPIO_NOPULL;
 1730              		.loc 1 765 32
 1731 003a 0023     		movs	r3, #0
 1732 003c 7B61     		str	r3, [r7, #20]
 766:Drivers/BSP/STM32F429I-Discovery/stm32f429i_discovery.c ****     GPIO_InitStructure.Speed   = GPIO_SPEED_FAST;
 1733              		.loc 1 766 32
 1734 003e 0223     		movs	r3, #2
 1735 0040 BB61     		str	r3, [r7, #24]
 767:Drivers/BSP/STM32F429I-Discovery/stm32f429i_discovery.c ****     HAL_GPIO_Init(LCD_WRX_GPIO_PORT, &GPIO_InitStructure);
 1736              		.loc 1 767 5
 1737 0042 07F10C03 		add	r3, r7, #12
 1738 0046 1946     		mov	r1, r3
 1739 0048 2748     		ldr	r0, .L95+8
ARM GAS  /var/folders/06/9k7gq4t13mj84z2yhw3grvhc0000gn/T//ccJ3lc1F.s 			page 44


 1740 004a FFF7FEFF 		bl	HAL_GPIO_Init
 1741              	.LBB12:
 768:Drivers/BSP/STM32F429I-Discovery/stm32f429i_discovery.c **** 
 769:Drivers/BSP/STM32F429I-Discovery/stm32f429i_discovery.c ****     LCD_RDX_GPIO_CLK_ENABLE();
 1742              		.loc 1 769 5
 1743 004e 0023     		movs	r3, #0
 1744 0050 7B60     		str	r3, [r7, #4]
 1745 0052 244B     		ldr	r3, .L95+4
 1746 0054 1B6B     		ldr	r3, [r3, #48]
 1747 0056 234A     		ldr	r2, .L95+4
 1748 0058 43F00803 		orr	r3, r3, #8
 1749 005c 1363     		str	r3, [r2, #48]
 1750 005e 214B     		ldr	r3, .L95+4
 1751 0060 1B6B     		ldr	r3, [r3, #48]
 1752 0062 03F00803 		and	r3, r3, #8
 1753 0066 7B60     		str	r3, [r7, #4]
 1754 0068 7B68     		ldr	r3, [r7, #4]
 1755              	.LBE12:
 770:Drivers/BSP/STM32F429I-Discovery/stm32f429i_discovery.c ****     GPIO_InitStructure.Pin     = LCD_RDX_PIN;
 1756              		.loc 1 770 32
 1757 006a 4FF48053 		mov	r3, #4096
 1758 006e FB60     		str	r3, [r7, #12]
 771:Drivers/BSP/STM32F429I-Discovery/stm32f429i_discovery.c ****     GPIO_InitStructure.Mode    = GPIO_MODE_OUTPUT_PP;
 1759              		.loc 1 771 32
 1760 0070 0123     		movs	r3, #1
 1761 0072 3B61     		str	r3, [r7, #16]
 772:Drivers/BSP/STM32F429I-Discovery/stm32f429i_discovery.c ****     GPIO_InitStructure.Pull    = GPIO_NOPULL;
 1762              		.loc 1 772 32
 1763 0074 0023     		movs	r3, #0
 1764 0076 7B61     		str	r3, [r7, #20]
 773:Drivers/BSP/STM32F429I-Discovery/stm32f429i_discovery.c ****     GPIO_InitStructure.Speed   = GPIO_SPEED_FAST;
 1765              		.loc 1 773 32
 1766 0078 0223     		movs	r3, #2
 1767 007a BB61     		str	r3, [r7, #24]
 774:Drivers/BSP/STM32F429I-Discovery/stm32f429i_discovery.c ****     HAL_GPIO_Init(LCD_RDX_GPIO_PORT, &GPIO_InitStructure);
 1768              		.loc 1 774 5
 1769 007c 07F10C03 		add	r3, r7, #12
 1770 0080 1946     		mov	r1, r3
 1771 0082 1948     		ldr	r0, .L95+8
 1772 0084 FFF7FEFF 		bl	HAL_GPIO_Init
 1773              	.LBB13:
 775:Drivers/BSP/STM32F429I-Discovery/stm32f429i_discovery.c **** 
 776:Drivers/BSP/STM32F429I-Discovery/stm32f429i_discovery.c ****     /* Configure the LCD Control pins ----------------------------------------*/
 777:Drivers/BSP/STM32F429I-Discovery/stm32f429i_discovery.c ****     LCD_NCS_GPIO_CLK_ENABLE();
 1774              		.loc 1 777 5
 1775 0088 0023     		movs	r3, #0
 1776 008a 3B60     		str	r3, [r7]
 1777 008c 154B     		ldr	r3, .L95+4
 1778 008e 1B6B     		ldr	r3, [r3, #48]
 1779 0090 144A     		ldr	r2, .L95+4
 1780 0092 43F00403 		orr	r3, r3, #4
 1781 0096 1363     		str	r3, [r2, #48]
 1782 0098 124B     		ldr	r3, .L95+4
 1783 009a 1B6B     		ldr	r3, [r3, #48]
 1784 009c 03F00403 		and	r3, r3, #4
 1785 00a0 3B60     		str	r3, [r7]
 1786 00a2 3B68     		ldr	r3, [r7]
ARM GAS  /var/folders/06/9k7gq4t13mj84z2yhw3grvhc0000gn/T//ccJ3lc1F.s 			page 45


 1787              	.LBE13:
 778:Drivers/BSP/STM32F429I-Discovery/stm32f429i_discovery.c **** 
 779:Drivers/BSP/STM32F429I-Discovery/stm32f429i_discovery.c ****     /* Configure NCS in Output Push-Pull mode */
 780:Drivers/BSP/STM32F429I-Discovery/stm32f429i_discovery.c ****     GPIO_InitStructure.Pin     = LCD_NCS_PIN;
 1788              		.loc 1 780 32
 1789 00a4 0423     		movs	r3, #4
 1790 00a6 FB60     		str	r3, [r7, #12]
 781:Drivers/BSP/STM32F429I-Discovery/stm32f429i_discovery.c ****     GPIO_InitStructure.Mode    = GPIO_MODE_OUTPUT_PP;
 1791              		.loc 1 781 32
 1792 00a8 0123     		movs	r3, #1
 1793 00aa 3B61     		str	r3, [r7, #16]
 782:Drivers/BSP/STM32F429I-Discovery/stm32f429i_discovery.c ****     GPIO_InitStructure.Pull    = GPIO_NOPULL;
 1794              		.loc 1 782 32
 1795 00ac 0023     		movs	r3, #0
 1796 00ae 7B61     		str	r3, [r7, #20]
 783:Drivers/BSP/STM32F429I-Discovery/stm32f429i_discovery.c ****     GPIO_InitStructure.Speed   = GPIO_SPEED_FAST;
 1797              		.loc 1 783 32
 1798 00b0 0223     		movs	r3, #2
 1799 00b2 BB61     		str	r3, [r7, #24]
 784:Drivers/BSP/STM32F429I-Discovery/stm32f429i_discovery.c ****     HAL_GPIO_Init(LCD_NCS_GPIO_PORT, &GPIO_InitStructure);
 1800              		.loc 1 784 5
 1801 00b4 07F10C03 		add	r3, r7, #12
 1802 00b8 1946     		mov	r1, r3
 1803 00ba 0C48     		ldr	r0, .L95+12
 1804 00bc FFF7FEFF 		bl	HAL_GPIO_Init
 785:Drivers/BSP/STM32F429I-Discovery/stm32f429i_discovery.c **** 
 786:Drivers/BSP/STM32F429I-Discovery/stm32f429i_discovery.c ****     /* Set or Reset the control line */
 787:Drivers/BSP/STM32F429I-Discovery/stm32f429i_discovery.c ****     LCD_CS_LOW();
 1805              		.loc 1 787 5
 1806 00c0 0022     		movs	r2, #0
 1807 00c2 0421     		movs	r1, #4
 1808 00c4 0948     		ldr	r0, .L95+12
 1809 00c6 FFF7FEFF 		bl	HAL_GPIO_WritePin
 788:Drivers/BSP/STM32F429I-Discovery/stm32f429i_discovery.c ****     LCD_CS_HIGH();
 1810              		.loc 1 788 5
 1811 00ca 0122     		movs	r2, #1
 1812 00cc 0421     		movs	r1, #4
 1813 00ce 0748     		ldr	r0, .L95+12
 1814 00d0 FFF7FEFF 		bl	HAL_GPIO_WritePin
 789:Drivers/BSP/STM32F429I-Discovery/stm32f429i_discovery.c **** 
 790:Drivers/BSP/STM32F429I-Discovery/stm32f429i_discovery.c ****     SPIx_Init();
 1815              		.loc 1 790 5
 1816 00d4 FFF7FEFF 		bl	SPIx_Init
 1817              	.L94:
 791:Drivers/BSP/STM32F429I-Discovery/stm32f429i_discovery.c ****   }
 792:Drivers/BSP/STM32F429I-Discovery/stm32f429i_discovery.c **** }
 1818              		.loc 1 792 1
 1819 00d8 00BF     		nop
 1820 00da 2037     		adds	r7, r7, #32
 1821              	.LCFI95:
 1822              		.cfi_def_cfa_offset 8
 1823 00dc BD46     		mov	sp, r7
 1824              	.LCFI96:
 1825              		.cfi_def_cfa_register 13
 1826              		@ sp needed
 1827 00de 80BD     		pop	{r7, pc}
 1828              	.L96:
ARM GAS  /var/folders/06/9k7gq4t13mj84z2yhw3grvhc0000gn/T//ccJ3lc1F.s 			page 46


 1829              		.align	2
 1830              	.L95:
 1831 00e0 00000000 		.word	Is_LCD_IO_Initialized
 1832 00e4 00380240 		.word	1073887232
 1833 00e8 000C0240 		.word	1073875968
 1834 00ec 00080240 		.word	1073874944
 1835              		.cfi_endproc
 1836              	.LFE155:
 1838              		.section	.text.LCD_IO_WriteData,"ax",%progbits
 1839              		.align	1
 1840              		.global	LCD_IO_WriteData
 1841              		.syntax unified
 1842              		.thumb
 1843              		.thumb_func
 1845              	LCD_IO_WriteData:
 1846              	.LFB156:
 793:Drivers/BSP/STM32F429I-Discovery/stm32f429i_discovery.c **** 
 794:Drivers/BSP/STM32F429I-Discovery/stm32f429i_discovery.c **** /**
 795:Drivers/BSP/STM32F429I-Discovery/stm32f429i_discovery.c ****   * @brief  Writes register value.
 796:Drivers/BSP/STM32F429I-Discovery/stm32f429i_discovery.c ****   */
 797:Drivers/BSP/STM32F429I-Discovery/stm32f429i_discovery.c **** void LCD_IO_WriteData(uint16_t RegValue)
 798:Drivers/BSP/STM32F429I-Discovery/stm32f429i_discovery.c **** {
 1847              		.loc 1 798 1
 1848              		.cfi_startproc
 1849              		@ args = 0, pretend = 0, frame = 8
 1850              		@ frame_needed = 1, uses_anonymous_args = 0
 1851 0000 80B5     		push	{r7, lr}
 1852              	.LCFI97:
 1853              		.cfi_def_cfa_offset 8
 1854              		.cfi_offset 7, -8
 1855              		.cfi_offset 14, -4
 1856 0002 82B0     		sub	sp, sp, #8
 1857              	.LCFI98:
 1858              		.cfi_def_cfa_offset 16
 1859 0004 00AF     		add	r7, sp, #0
 1860              	.LCFI99:
 1861              		.cfi_def_cfa_register 7
 1862 0006 0346     		mov	r3, r0
 1863 0008 FB80     		strh	r3, [r7, #6]	@ movhi
 799:Drivers/BSP/STM32F429I-Discovery/stm32f429i_discovery.c ****   /* Set WRX to send data */
 800:Drivers/BSP/STM32F429I-Discovery/stm32f429i_discovery.c ****   LCD_WRX_HIGH();
 1864              		.loc 1 800 3
 1865 000a 0122     		movs	r2, #1
 1866 000c 4FF40051 		mov	r1, #8192
 1867 0010 0A48     		ldr	r0, .L98
 1868 0012 FFF7FEFF 		bl	HAL_GPIO_WritePin
 801:Drivers/BSP/STM32F429I-Discovery/stm32f429i_discovery.c **** 
 802:Drivers/BSP/STM32F429I-Discovery/stm32f429i_discovery.c ****   /* Reset LCD control line(/CS) and Send data */
 803:Drivers/BSP/STM32F429I-Discovery/stm32f429i_discovery.c ****   LCD_CS_LOW();
 1869              		.loc 1 803 3
 1870 0016 0022     		movs	r2, #0
 1871 0018 0421     		movs	r1, #4
 1872 001a 0948     		ldr	r0, .L98+4
 1873 001c FFF7FEFF 		bl	HAL_GPIO_WritePin
 804:Drivers/BSP/STM32F429I-Discovery/stm32f429i_discovery.c ****   SPIx_Write(RegValue);
 1874              		.loc 1 804 3
 1875 0020 FB88     		ldrh	r3, [r7, #6]
ARM GAS  /var/folders/06/9k7gq4t13mj84z2yhw3grvhc0000gn/T//ccJ3lc1F.s 			page 47


 1876 0022 1846     		mov	r0, r3
 1877 0024 FFF7FEFF 		bl	SPIx_Write
 805:Drivers/BSP/STM32F429I-Discovery/stm32f429i_discovery.c **** 
 806:Drivers/BSP/STM32F429I-Discovery/stm32f429i_discovery.c ****   /* Deselect: Chip Select high */
 807:Drivers/BSP/STM32F429I-Discovery/stm32f429i_discovery.c ****   LCD_CS_HIGH();
 1878              		.loc 1 807 3
 1879 0028 0122     		movs	r2, #1
 1880 002a 0421     		movs	r1, #4
 1881 002c 0448     		ldr	r0, .L98+4
 1882 002e FFF7FEFF 		bl	HAL_GPIO_WritePin
 808:Drivers/BSP/STM32F429I-Discovery/stm32f429i_discovery.c **** }
 1883              		.loc 1 808 1
 1884 0032 00BF     		nop
 1885 0034 0837     		adds	r7, r7, #8
 1886              	.LCFI100:
 1887              		.cfi_def_cfa_offset 8
 1888 0036 BD46     		mov	sp, r7
 1889              	.LCFI101:
 1890              		.cfi_def_cfa_register 13
 1891              		@ sp needed
 1892 0038 80BD     		pop	{r7, pc}
 1893              	.L99:
 1894 003a 00BF     		.align	2
 1895              	.L98:
 1896 003c 000C0240 		.word	1073875968
 1897 0040 00080240 		.word	1073874944
 1898              		.cfi_endproc
 1899              	.LFE156:
 1901              		.section	.text.LCD_IO_WriteReg,"ax",%progbits
 1902              		.align	1
 1903              		.global	LCD_IO_WriteReg
 1904              		.syntax unified
 1905              		.thumb
 1906              		.thumb_func
 1908              	LCD_IO_WriteReg:
 1909              	.LFB157:
 809:Drivers/BSP/STM32F429I-Discovery/stm32f429i_discovery.c **** 
 810:Drivers/BSP/STM32F429I-Discovery/stm32f429i_discovery.c **** /**
 811:Drivers/BSP/STM32F429I-Discovery/stm32f429i_discovery.c ****   * @brief  Writes register address.
 812:Drivers/BSP/STM32F429I-Discovery/stm32f429i_discovery.c ****   */
 813:Drivers/BSP/STM32F429I-Discovery/stm32f429i_discovery.c **** void LCD_IO_WriteReg(uint8_t Reg)
 814:Drivers/BSP/STM32F429I-Discovery/stm32f429i_discovery.c **** {
 1910              		.loc 1 814 1
 1911              		.cfi_startproc
 1912              		@ args = 0, pretend = 0, frame = 8
 1913              		@ frame_needed = 1, uses_anonymous_args = 0
 1914 0000 80B5     		push	{r7, lr}
 1915              	.LCFI102:
 1916              		.cfi_def_cfa_offset 8
 1917              		.cfi_offset 7, -8
 1918              		.cfi_offset 14, -4
 1919 0002 82B0     		sub	sp, sp, #8
 1920              	.LCFI103:
 1921              		.cfi_def_cfa_offset 16
 1922 0004 00AF     		add	r7, sp, #0
 1923              	.LCFI104:
 1924              		.cfi_def_cfa_register 7
ARM GAS  /var/folders/06/9k7gq4t13mj84z2yhw3grvhc0000gn/T//ccJ3lc1F.s 			page 48


 1925 0006 0346     		mov	r3, r0
 1926 0008 FB71     		strb	r3, [r7, #7]
 815:Drivers/BSP/STM32F429I-Discovery/stm32f429i_discovery.c ****   /* Reset WRX to send command */
 816:Drivers/BSP/STM32F429I-Discovery/stm32f429i_discovery.c ****   LCD_WRX_LOW();
 1927              		.loc 1 816 3
 1928 000a 0022     		movs	r2, #0
 1929 000c 4FF40051 		mov	r1, #8192
 1930 0010 0A48     		ldr	r0, .L101
 1931 0012 FFF7FEFF 		bl	HAL_GPIO_WritePin
 817:Drivers/BSP/STM32F429I-Discovery/stm32f429i_discovery.c **** 
 818:Drivers/BSP/STM32F429I-Discovery/stm32f429i_discovery.c ****   /* Reset LCD control line(/CS) and Send command */
 819:Drivers/BSP/STM32F429I-Discovery/stm32f429i_discovery.c ****   LCD_CS_LOW();
 1932              		.loc 1 819 3
 1933 0016 0022     		movs	r2, #0
 1934 0018 0421     		movs	r1, #4
 1935 001a 0948     		ldr	r0, .L101+4
 1936 001c FFF7FEFF 		bl	HAL_GPIO_WritePin
 820:Drivers/BSP/STM32F429I-Discovery/stm32f429i_discovery.c ****   SPIx_Write(Reg);
 1937              		.loc 1 820 3
 1938 0020 FB79     		ldrb	r3, [r7, #7]	@ zero_extendqisi2
 1939 0022 9BB2     		uxth	r3, r3
 1940 0024 1846     		mov	r0, r3
 1941 0026 FFF7FEFF 		bl	SPIx_Write
 821:Drivers/BSP/STM32F429I-Discovery/stm32f429i_discovery.c **** 
 822:Drivers/BSP/STM32F429I-Discovery/stm32f429i_discovery.c ****   /* Deselect: Chip Select high */
 823:Drivers/BSP/STM32F429I-Discovery/stm32f429i_discovery.c ****   LCD_CS_HIGH();
 1942              		.loc 1 823 3
 1943 002a 0122     		movs	r2, #1
 1944 002c 0421     		movs	r1, #4
 1945 002e 0448     		ldr	r0, .L101+4
 1946 0030 FFF7FEFF 		bl	HAL_GPIO_WritePin
 824:Drivers/BSP/STM32F429I-Discovery/stm32f429i_discovery.c **** }
 1947              		.loc 1 824 1
 1948 0034 00BF     		nop
 1949 0036 0837     		adds	r7, r7, #8
 1950              	.LCFI105:
 1951              		.cfi_def_cfa_offset 8
 1952 0038 BD46     		mov	sp, r7
 1953              	.LCFI106:
 1954              		.cfi_def_cfa_register 13
 1955              		@ sp needed
 1956 003a 80BD     		pop	{r7, pc}
 1957              	.L102:
 1958              		.align	2
 1959              	.L101:
 1960 003c 000C0240 		.word	1073875968
 1961 0040 00080240 		.word	1073874944
 1962              		.cfi_endproc
 1963              	.LFE157:
 1965              		.section	.text.LCD_IO_ReadData,"ax",%progbits
 1966              		.align	1
 1967              		.global	LCD_IO_ReadData
 1968              		.syntax unified
 1969              		.thumb
 1970              		.thumb_func
 1972              	LCD_IO_ReadData:
 1973              	.LFB158:
ARM GAS  /var/folders/06/9k7gq4t13mj84z2yhw3grvhc0000gn/T//ccJ3lc1F.s 			page 49


 825:Drivers/BSP/STM32F429I-Discovery/stm32f429i_discovery.c **** 
 826:Drivers/BSP/STM32F429I-Discovery/stm32f429i_discovery.c **** /**
 827:Drivers/BSP/STM32F429I-Discovery/stm32f429i_discovery.c ****   * @brief  Reads register value.
 828:Drivers/BSP/STM32F429I-Discovery/stm32f429i_discovery.c ****   * @param  RegValue Address of the register to read
 829:Drivers/BSP/STM32F429I-Discovery/stm32f429i_discovery.c ****   * @param  ReadSize Number of bytes to read
 830:Drivers/BSP/STM32F429I-Discovery/stm32f429i_discovery.c ****   * @retval Content of the register value
 831:Drivers/BSP/STM32F429I-Discovery/stm32f429i_discovery.c ****   */
 832:Drivers/BSP/STM32F429I-Discovery/stm32f429i_discovery.c **** uint32_t LCD_IO_ReadData(uint16_t RegValue, uint8_t ReadSize)
 833:Drivers/BSP/STM32F429I-Discovery/stm32f429i_discovery.c **** {
 1974              		.loc 1 833 1
 1975              		.cfi_startproc
 1976              		@ args = 0, pretend = 0, frame = 16
 1977              		@ frame_needed = 1, uses_anonymous_args = 0
 1978 0000 80B5     		push	{r7, lr}
 1979              	.LCFI107:
 1980              		.cfi_def_cfa_offset 8
 1981              		.cfi_offset 7, -8
 1982              		.cfi_offset 14, -4
 1983 0002 84B0     		sub	sp, sp, #16
 1984              	.LCFI108:
 1985              		.cfi_def_cfa_offset 24
 1986 0004 00AF     		add	r7, sp, #0
 1987              	.LCFI109:
 1988              		.cfi_def_cfa_register 7
 1989 0006 0346     		mov	r3, r0
 1990 0008 0A46     		mov	r2, r1
 1991 000a FB80     		strh	r3, [r7, #6]	@ movhi
 1992 000c 1346     		mov	r3, r2
 1993 000e 7B71     		strb	r3, [r7, #5]
 834:Drivers/BSP/STM32F429I-Discovery/stm32f429i_discovery.c ****   uint32_t readvalue = 0;
 1994              		.loc 1 834 12
 1995 0010 0023     		movs	r3, #0
 1996 0012 FB60     		str	r3, [r7, #12]
 835:Drivers/BSP/STM32F429I-Discovery/stm32f429i_discovery.c **** 
 836:Drivers/BSP/STM32F429I-Discovery/stm32f429i_discovery.c ****   /* Select: Chip Select low */
 837:Drivers/BSP/STM32F429I-Discovery/stm32f429i_discovery.c ****   LCD_CS_LOW();
 1997              		.loc 1 837 3
 1998 0014 0022     		movs	r2, #0
 1999 0016 0421     		movs	r1, #4
 2000 0018 1048     		ldr	r0, .L105
 2001 001a FFF7FEFF 		bl	HAL_GPIO_WritePin
 838:Drivers/BSP/STM32F429I-Discovery/stm32f429i_discovery.c **** 
 839:Drivers/BSP/STM32F429I-Discovery/stm32f429i_discovery.c ****   /* Reset WRX to send command */
 840:Drivers/BSP/STM32F429I-Discovery/stm32f429i_discovery.c ****   LCD_WRX_LOW();
 2002              		.loc 1 840 3
 2003 001e 0022     		movs	r2, #0
 2004 0020 4FF40051 		mov	r1, #8192
 2005 0024 0E48     		ldr	r0, .L105+4
 2006 0026 FFF7FEFF 		bl	HAL_GPIO_WritePin
 841:Drivers/BSP/STM32F429I-Discovery/stm32f429i_discovery.c **** 
 842:Drivers/BSP/STM32F429I-Discovery/stm32f429i_discovery.c ****   SPIx_Write(RegValue);
 2007              		.loc 1 842 3
 2008 002a FB88     		ldrh	r3, [r7, #6]
 2009 002c 1846     		mov	r0, r3
 2010 002e FFF7FEFF 		bl	SPIx_Write
 843:Drivers/BSP/STM32F429I-Discovery/stm32f429i_discovery.c **** 
 844:Drivers/BSP/STM32F429I-Discovery/stm32f429i_discovery.c ****   readvalue = SPIx_Read(ReadSize);
ARM GAS  /var/folders/06/9k7gq4t13mj84z2yhw3grvhc0000gn/T//ccJ3lc1F.s 			page 50


 2011              		.loc 1 844 15
 2012 0032 7B79     		ldrb	r3, [r7, #5]	@ zero_extendqisi2
 2013 0034 1846     		mov	r0, r3
 2014 0036 FFF7FEFF 		bl	SPIx_Read
 2015 003a F860     		str	r0, [r7, #12]
 845:Drivers/BSP/STM32F429I-Discovery/stm32f429i_discovery.c **** 
 846:Drivers/BSP/STM32F429I-Discovery/stm32f429i_discovery.c ****   /* Set WRX to send data */
 847:Drivers/BSP/STM32F429I-Discovery/stm32f429i_discovery.c ****   LCD_WRX_HIGH();
 2016              		.loc 1 847 3
 2017 003c 0122     		movs	r2, #1
 2018 003e 4FF40051 		mov	r1, #8192
 2019 0042 0748     		ldr	r0, .L105+4
 2020 0044 FFF7FEFF 		bl	HAL_GPIO_WritePin
 848:Drivers/BSP/STM32F429I-Discovery/stm32f429i_discovery.c **** 
 849:Drivers/BSP/STM32F429I-Discovery/stm32f429i_discovery.c ****   /* Deselect: Chip Select high */
 850:Drivers/BSP/STM32F429I-Discovery/stm32f429i_discovery.c ****   LCD_CS_HIGH();
 2021              		.loc 1 850 3
 2022 0048 0122     		movs	r2, #1
 2023 004a 0421     		movs	r1, #4
 2024 004c 0348     		ldr	r0, .L105
 2025 004e FFF7FEFF 		bl	HAL_GPIO_WritePin
 851:Drivers/BSP/STM32F429I-Discovery/stm32f429i_discovery.c **** 
 852:Drivers/BSP/STM32F429I-Discovery/stm32f429i_discovery.c ****   return readvalue;
 2026              		.loc 1 852 10
 2027 0052 FB68     		ldr	r3, [r7, #12]
 853:Drivers/BSP/STM32F429I-Discovery/stm32f429i_discovery.c **** }
 2028              		.loc 1 853 1
 2029 0054 1846     		mov	r0, r3
 2030 0056 1037     		adds	r7, r7, #16
 2031              	.LCFI110:
 2032              		.cfi_def_cfa_offset 8
 2033 0058 BD46     		mov	sp, r7
 2034              	.LCFI111:
 2035              		.cfi_def_cfa_register 13
 2036              		@ sp needed
 2037 005a 80BD     		pop	{r7, pc}
 2038              	.L106:
 2039              		.align	2
 2040              	.L105:
 2041 005c 00080240 		.word	1073874944
 2042 0060 000C0240 		.word	1073875968
 2043              		.cfi_endproc
 2044              	.LFE158:
 2046              		.section	.text.LCD_Delay,"ax",%progbits
 2047              		.align	1
 2048              		.global	LCD_Delay
 2049              		.syntax unified
 2050              		.thumb
 2051              		.thumb_func
 2053              	LCD_Delay:
 2054              	.LFB159:
 854:Drivers/BSP/STM32F429I-Discovery/stm32f429i_discovery.c **** 
 855:Drivers/BSP/STM32F429I-Discovery/stm32f429i_discovery.c **** /**
 856:Drivers/BSP/STM32F429I-Discovery/stm32f429i_discovery.c ****   * @brief  Wait for loop in ms.
 857:Drivers/BSP/STM32F429I-Discovery/stm32f429i_discovery.c ****   * @param  Delay in ms.
 858:Drivers/BSP/STM32F429I-Discovery/stm32f429i_discovery.c ****   */
 859:Drivers/BSP/STM32F429I-Discovery/stm32f429i_discovery.c **** void LCD_Delay(uint32_t Delay)
ARM GAS  /var/folders/06/9k7gq4t13mj84z2yhw3grvhc0000gn/T//ccJ3lc1F.s 			page 51


 860:Drivers/BSP/STM32F429I-Discovery/stm32f429i_discovery.c **** {
 2055              		.loc 1 860 1
 2056              		.cfi_startproc
 2057              		@ args = 0, pretend = 0, frame = 8
 2058              		@ frame_needed = 1, uses_anonymous_args = 0
 2059 0000 80B5     		push	{r7, lr}
 2060              	.LCFI112:
 2061              		.cfi_def_cfa_offset 8
 2062              		.cfi_offset 7, -8
 2063              		.cfi_offset 14, -4
 2064 0002 82B0     		sub	sp, sp, #8
 2065              	.LCFI113:
 2066              		.cfi_def_cfa_offset 16
 2067 0004 00AF     		add	r7, sp, #0
 2068              	.LCFI114:
 2069              		.cfi_def_cfa_register 7
 2070 0006 7860     		str	r0, [r7, #4]
 861:Drivers/BSP/STM32F429I-Discovery/stm32f429i_discovery.c ****   HAL_Delay(Delay);
 2071              		.loc 1 861 3
 2072 0008 7868     		ldr	r0, [r7, #4]
 2073 000a FFF7FEFF 		bl	HAL_Delay
 862:Drivers/BSP/STM32F429I-Discovery/stm32f429i_discovery.c **** }
 2074              		.loc 1 862 1
 2075 000e 00BF     		nop
 2076 0010 0837     		adds	r7, r7, #8
 2077              	.LCFI115:
 2078              		.cfi_def_cfa_offset 8
 2079 0012 BD46     		mov	sp, r7
 2080              	.LCFI116:
 2081              		.cfi_def_cfa_register 13
 2082              		@ sp needed
 2083 0014 80BD     		pop	{r7, pc}
 2084              		.cfi_endproc
 2085              	.LFE159:
 2087              		.section	.text.IOE_Init,"ax",%progbits
 2088              		.align	1
 2089              		.global	IOE_Init
 2090              		.syntax unified
 2091              		.thumb
 2092              		.thumb_func
 2094              	IOE_Init:
 2095              	.LFB160:
 863:Drivers/BSP/STM32F429I-Discovery/stm32f429i_discovery.c **** 
 864:Drivers/BSP/STM32F429I-Discovery/stm32f429i_discovery.c **** /*******************************************************************************
 865:Drivers/BSP/STM32F429I-Discovery/stm32f429i_discovery.c ****                             LINK OPERATIONS
 866:Drivers/BSP/STM32F429I-Discovery/stm32f429i_discovery.c ****   *******************************************************************************/
 867:Drivers/BSP/STM32F429I-Discovery/stm32f429i_discovery.c **** 
 868:Drivers/BSP/STM32F429I-Discovery/stm32f429i_discovery.c **** /********************************* LINK IOE ***********************************/
 869:Drivers/BSP/STM32F429I-Discovery/stm32f429i_discovery.c **** 
 870:Drivers/BSP/STM32F429I-Discovery/stm32f429i_discovery.c **** /**
 871:Drivers/BSP/STM32F429I-Discovery/stm32f429i_discovery.c ****   * @brief  IOE Low Level Initialization.
 872:Drivers/BSP/STM32F429I-Discovery/stm32f429i_discovery.c ****   */
 873:Drivers/BSP/STM32F429I-Discovery/stm32f429i_discovery.c **** void IOE_Init(void)
 874:Drivers/BSP/STM32F429I-Discovery/stm32f429i_discovery.c **** {
 2096              		.loc 1 874 1
 2097              		.cfi_startproc
 2098              		@ args = 0, pretend = 0, frame = 0
ARM GAS  /var/folders/06/9k7gq4t13mj84z2yhw3grvhc0000gn/T//ccJ3lc1F.s 			page 52


 2099              		@ frame_needed = 1, uses_anonymous_args = 0
 2100 0000 80B5     		push	{r7, lr}
 2101              	.LCFI117:
 2102              		.cfi_def_cfa_offset 8
 2103              		.cfi_offset 7, -8
 2104              		.cfi_offset 14, -4
 2105 0002 00AF     		add	r7, sp, #0
 2106              	.LCFI118:
 2107              		.cfi_def_cfa_register 7
 875:Drivers/BSP/STM32F429I-Discovery/stm32f429i_discovery.c ****   I2Cx_Init();
 2108              		.loc 1 875 3
 2109 0004 FFF7FEFF 		bl	I2Cx_Init
 876:Drivers/BSP/STM32F429I-Discovery/stm32f429i_discovery.c **** }
 2110              		.loc 1 876 1
 2111 0008 00BF     		nop
 2112 000a 80BD     		pop	{r7, pc}
 2113              		.cfi_endproc
 2114              	.LFE160:
 2116              		.section	.text.IOE_ITConfig,"ax",%progbits
 2117              		.align	1
 2118              		.global	IOE_ITConfig
 2119              		.syntax unified
 2120              		.thumb
 2121              		.thumb_func
 2123              	IOE_ITConfig:
 2124              	.LFB161:
 877:Drivers/BSP/STM32F429I-Discovery/stm32f429i_discovery.c **** 
 878:Drivers/BSP/STM32F429I-Discovery/stm32f429i_discovery.c **** /**
 879:Drivers/BSP/STM32F429I-Discovery/stm32f429i_discovery.c ****   * @brief  IOE Low Level Interrupt configuration.
 880:Drivers/BSP/STM32F429I-Discovery/stm32f429i_discovery.c ****   */
 881:Drivers/BSP/STM32F429I-Discovery/stm32f429i_discovery.c **** void IOE_ITConfig(void)
 882:Drivers/BSP/STM32F429I-Discovery/stm32f429i_discovery.c **** {
 2125              		.loc 1 882 1
 2126              		.cfi_startproc
 2127              		@ args = 0, pretend = 0, frame = 0
 2128              		@ frame_needed = 1, uses_anonymous_args = 0
 2129 0000 80B5     		push	{r7, lr}
 2130              	.LCFI119:
 2131              		.cfi_def_cfa_offset 8
 2132              		.cfi_offset 7, -8
 2133              		.cfi_offset 14, -4
 2134 0002 00AF     		add	r7, sp, #0
 2135              	.LCFI120:
 2136              		.cfi_def_cfa_register 7
 883:Drivers/BSP/STM32F429I-Discovery/stm32f429i_discovery.c ****   I2Cx_ITConfig();
 2137              		.loc 1 883 3
 2138 0004 FFF7FEFF 		bl	I2Cx_ITConfig
 884:Drivers/BSP/STM32F429I-Discovery/stm32f429i_discovery.c **** }
 2139              		.loc 1 884 1
 2140 0008 00BF     		nop
 2141 000a 80BD     		pop	{r7, pc}
 2142              		.cfi_endproc
 2143              	.LFE161:
 2145              		.section	.text.IOE_Write,"ax",%progbits
 2146              		.align	1
 2147              		.global	IOE_Write
 2148              		.syntax unified
ARM GAS  /var/folders/06/9k7gq4t13mj84z2yhw3grvhc0000gn/T//ccJ3lc1F.s 			page 53


 2149              		.thumb
 2150              		.thumb_func
 2152              	IOE_Write:
 2153              	.LFB162:
 885:Drivers/BSP/STM32F429I-Discovery/stm32f429i_discovery.c **** 
 886:Drivers/BSP/STM32F429I-Discovery/stm32f429i_discovery.c **** /**
 887:Drivers/BSP/STM32F429I-Discovery/stm32f429i_discovery.c ****   * @brief  IOE Writes single data operation.
 888:Drivers/BSP/STM32F429I-Discovery/stm32f429i_discovery.c ****   * @param  Addr: I2C Address
 889:Drivers/BSP/STM32F429I-Discovery/stm32f429i_discovery.c ****   * @param  Reg: Reg Address
 890:Drivers/BSP/STM32F429I-Discovery/stm32f429i_discovery.c ****   * @param  Value: Data to be written
 891:Drivers/BSP/STM32F429I-Discovery/stm32f429i_discovery.c ****   */
 892:Drivers/BSP/STM32F429I-Discovery/stm32f429i_discovery.c **** void IOE_Write(uint8_t Addr, uint8_t Reg, uint8_t Value)
 893:Drivers/BSP/STM32F429I-Discovery/stm32f429i_discovery.c **** {
 2154              		.loc 1 893 1
 2155              		.cfi_startproc
 2156              		@ args = 0, pretend = 0, frame = 8
 2157              		@ frame_needed = 1, uses_anonymous_args = 0
 2158 0000 80B5     		push	{r7, lr}
 2159              	.LCFI121:
 2160              		.cfi_def_cfa_offset 8
 2161              		.cfi_offset 7, -8
 2162              		.cfi_offset 14, -4
 2163 0002 82B0     		sub	sp, sp, #8
 2164              	.LCFI122:
 2165              		.cfi_def_cfa_offset 16
 2166 0004 00AF     		add	r7, sp, #0
 2167              	.LCFI123:
 2168              		.cfi_def_cfa_register 7
 2169 0006 0346     		mov	r3, r0
 2170 0008 FB71     		strb	r3, [r7, #7]
 2171 000a 0B46     		mov	r3, r1
 2172 000c BB71     		strb	r3, [r7, #6]
 2173 000e 1346     		mov	r3, r2
 2174 0010 7B71     		strb	r3, [r7, #5]
 894:Drivers/BSP/STM32F429I-Discovery/stm32f429i_discovery.c ****   I2Cx_WriteData(Addr, Reg, Value);
 2175              		.loc 1 894 3
 2176 0012 7A79     		ldrb	r2, [r7, #5]	@ zero_extendqisi2
 2177 0014 B979     		ldrb	r1, [r7, #6]	@ zero_extendqisi2
 2178 0016 FB79     		ldrb	r3, [r7, #7]	@ zero_extendqisi2
 2179 0018 1846     		mov	r0, r3
 2180 001a FFF7FEFF 		bl	I2Cx_WriteData
 895:Drivers/BSP/STM32F429I-Discovery/stm32f429i_discovery.c **** }
 2181              		.loc 1 895 1
 2182 001e 00BF     		nop
 2183 0020 0837     		adds	r7, r7, #8
 2184              	.LCFI124:
 2185              		.cfi_def_cfa_offset 8
 2186 0022 BD46     		mov	sp, r7
 2187              	.LCFI125:
 2188              		.cfi_def_cfa_register 13
 2189              		@ sp needed
 2190 0024 80BD     		pop	{r7, pc}
 2191              		.cfi_endproc
 2192              	.LFE162:
 2194              		.section	.text.IOE_Read,"ax",%progbits
 2195              		.align	1
 2196              		.global	IOE_Read
ARM GAS  /var/folders/06/9k7gq4t13mj84z2yhw3grvhc0000gn/T//ccJ3lc1F.s 			page 54


 2197              		.syntax unified
 2198              		.thumb
 2199              		.thumb_func
 2201              	IOE_Read:
 2202              	.LFB163:
 896:Drivers/BSP/STM32F429I-Discovery/stm32f429i_discovery.c **** 
 897:Drivers/BSP/STM32F429I-Discovery/stm32f429i_discovery.c **** /**
 898:Drivers/BSP/STM32F429I-Discovery/stm32f429i_discovery.c ****   * @brief  IOE Reads single data.
 899:Drivers/BSP/STM32F429I-Discovery/stm32f429i_discovery.c ****   * @param  Addr: I2C Address
 900:Drivers/BSP/STM32F429I-Discovery/stm32f429i_discovery.c ****   * @param  Reg: Reg Address
 901:Drivers/BSP/STM32F429I-Discovery/stm32f429i_discovery.c ****   * @retval The read data
 902:Drivers/BSP/STM32F429I-Discovery/stm32f429i_discovery.c ****   */
 903:Drivers/BSP/STM32F429I-Discovery/stm32f429i_discovery.c **** uint8_t IOE_Read(uint8_t Addr, uint8_t Reg)
 904:Drivers/BSP/STM32F429I-Discovery/stm32f429i_discovery.c **** {
 2203              		.loc 1 904 1
 2204              		.cfi_startproc
 2205              		@ args = 0, pretend = 0, frame = 8
 2206              		@ frame_needed = 1, uses_anonymous_args = 0
 2207 0000 80B5     		push	{r7, lr}
 2208              	.LCFI126:
 2209              		.cfi_def_cfa_offset 8
 2210              		.cfi_offset 7, -8
 2211              		.cfi_offset 14, -4
 2212 0002 82B0     		sub	sp, sp, #8
 2213              	.LCFI127:
 2214              		.cfi_def_cfa_offset 16
 2215 0004 00AF     		add	r7, sp, #0
 2216              	.LCFI128:
 2217              		.cfi_def_cfa_register 7
 2218 0006 0346     		mov	r3, r0
 2219 0008 0A46     		mov	r2, r1
 2220 000a FB71     		strb	r3, [r7, #7]
 2221 000c 1346     		mov	r3, r2
 2222 000e BB71     		strb	r3, [r7, #6]
 905:Drivers/BSP/STM32F429I-Discovery/stm32f429i_discovery.c ****   return I2Cx_ReadData(Addr, Reg);
 2223              		.loc 1 905 10
 2224 0010 BA79     		ldrb	r2, [r7, #6]	@ zero_extendqisi2
 2225 0012 FB79     		ldrb	r3, [r7, #7]	@ zero_extendqisi2
 2226 0014 1146     		mov	r1, r2
 2227 0016 1846     		mov	r0, r3
 2228 0018 FFF7FEFF 		bl	I2Cx_ReadData
 2229 001c 0346     		mov	r3, r0
 906:Drivers/BSP/STM32F429I-Discovery/stm32f429i_discovery.c **** }
 2230              		.loc 1 906 1
 2231 001e 1846     		mov	r0, r3
 2232 0020 0837     		adds	r7, r7, #8
 2233              	.LCFI129:
 2234              		.cfi_def_cfa_offset 8
 2235 0022 BD46     		mov	sp, r7
 2236              	.LCFI130:
 2237              		.cfi_def_cfa_register 13
 2238              		@ sp needed
 2239 0024 80BD     		pop	{r7, pc}
 2240              		.cfi_endproc
 2241              	.LFE163:
 2243              		.section	.text.IOE_WriteMultiple,"ax",%progbits
 2244              		.align	1
ARM GAS  /var/folders/06/9k7gq4t13mj84z2yhw3grvhc0000gn/T//ccJ3lc1F.s 			page 55


 2245              		.global	IOE_WriteMultiple
 2246              		.syntax unified
 2247              		.thumb
 2248              		.thumb_func
 2250              	IOE_WriteMultiple:
 2251              	.LFB164:
 907:Drivers/BSP/STM32F429I-Discovery/stm32f429i_discovery.c **** 
 908:Drivers/BSP/STM32F429I-Discovery/stm32f429i_discovery.c **** /**
 909:Drivers/BSP/STM32F429I-Discovery/stm32f429i_discovery.c ****   * @brief  IOE Writes multiple data.
 910:Drivers/BSP/STM32F429I-Discovery/stm32f429i_discovery.c ****   * @param  Addr: I2C Address
 911:Drivers/BSP/STM32F429I-Discovery/stm32f429i_discovery.c ****   * @param  Reg: Reg Address
 912:Drivers/BSP/STM32F429I-Discovery/stm32f429i_discovery.c ****   * @param  pBuffer: pointer to data buffer
 913:Drivers/BSP/STM32F429I-Discovery/stm32f429i_discovery.c ****   * @param  Length: length of the data
 914:Drivers/BSP/STM32F429I-Discovery/stm32f429i_discovery.c ****   */
 915:Drivers/BSP/STM32F429I-Discovery/stm32f429i_discovery.c **** void IOE_WriteMultiple(uint8_t Addr, uint8_t Reg, uint8_t *pBuffer, uint16_t Length)
 916:Drivers/BSP/STM32F429I-Discovery/stm32f429i_discovery.c **** {
 2252              		.loc 1 916 1
 2253              		.cfi_startproc
 2254              		@ args = 0, pretend = 0, frame = 8
 2255              		@ frame_needed = 1, uses_anonymous_args = 0
 2256 0000 80B5     		push	{r7, lr}
 2257              	.LCFI131:
 2258              		.cfi_def_cfa_offset 8
 2259              		.cfi_offset 7, -8
 2260              		.cfi_offset 14, -4
 2261 0002 82B0     		sub	sp, sp, #8
 2262              	.LCFI132:
 2263              		.cfi_def_cfa_offset 16
 2264 0004 00AF     		add	r7, sp, #0
 2265              	.LCFI133:
 2266              		.cfi_def_cfa_register 7
 2267 0006 3A60     		str	r2, [r7]
 2268 0008 1A46     		mov	r2, r3
 2269 000a 0346     		mov	r3, r0
 2270 000c FB71     		strb	r3, [r7, #7]
 2271 000e 0B46     		mov	r3, r1
 2272 0010 BB71     		strb	r3, [r7, #6]
 2273 0012 1346     		mov	r3, r2	@ movhi
 2274 0014 BB80     		strh	r3, [r7, #4]	@ movhi
 917:Drivers/BSP/STM32F429I-Discovery/stm32f429i_discovery.c ****   I2Cx_WriteBuffer(Addr, Reg, pBuffer, Length);
 2275              		.loc 1 917 3
 2276 0016 BB88     		ldrh	r3, [r7, #4]
 2277 0018 B979     		ldrb	r1, [r7, #6]	@ zero_extendqisi2
 2278 001a F879     		ldrb	r0, [r7, #7]	@ zero_extendqisi2
 2279 001c 3A68     		ldr	r2, [r7]
 2280 001e FFF7FEFF 		bl	I2Cx_WriteBuffer
 918:Drivers/BSP/STM32F429I-Discovery/stm32f429i_discovery.c **** }
 2281              		.loc 1 918 1
 2282 0022 00BF     		nop
 2283 0024 0837     		adds	r7, r7, #8
 2284              	.LCFI134:
 2285              		.cfi_def_cfa_offset 8
 2286 0026 BD46     		mov	sp, r7
 2287              	.LCFI135:
 2288              		.cfi_def_cfa_register 13
 2289              		@ sp needed
 2290 0028 80BD     		pop	{r7, pc}
ARM GAS  /var/folders/06/9k7gq4t13mj84z2yhw3grvhc0000gn/T//ccJ3lc1F.s 			page 56


 2291              		.cfi_endproc
 2292              	.LFE164:
 2294              		.section	.text.IOE_ReadMultiple,"ax",%progbits
 2295              		.align	1
 2296              		.global	IOE_ReadMultiple
 2297              		.syntax unified
 2298              		.thumb
 2299              		.thumb_func
 2301              	IOE_ReadMultiple:
 2302              	.LFB165:
 919:Drivers/BSP/STM32F429I-Discovery/stm32f429i_discovery.c **** 
 920:Drivers/BSP/STM32F429I-Discovery/stm32f429i_discovery.c **** /**
 921:Drivers/BSP/STM32F429I-Discovery/stm32f429i_discovery.c ****   * @brief  IOE Reads multiple data.
 922:Drivers/BSP/STM32F429I-Discovery/stm32f429i_discovery.c ****   * @param  Addr: I2C Address
 923:Drivers/BSP/STM32F429I-Discovery/stm32f429i_discovery.c ****   * @param  Reg: Reg Address
 924:Drivers/BSP/STM32F429I-Discovery/stm32f429i_discovery.c ****   * @param  pBuffer: pointer to data buffer
 925:Drivers/BSP/STM32F429I-Discovery/stm32f429i_discovery.c ****   * @param  Length: length of the data
 926:Drivers/BSP/STM32F429I-Discovery/stm32f429i_discovery.c ****   * @retval 0 if no problems to read multiple data
 927:Drivers/BSP/STM32F429I-Discovery/stm32f429i_discovery.c ****   */
 928:Drivers/BSP/STM32F429I-Discovery/stm32f429i_discovery.c **** uint16_t IOE_ReadMultiple(uint8_t Addr, uint8_t Reg, uint8_t *pBuffer, uint16_t Length)
 929:Drivers/BSP/STM32F429I-Discovery/stm32f429i_discovery.c **** {
 2303              		.loc 1 929 1
 2304              		.cfi_startproc
 2305              		@ args = 0, pretend = 0, frame = 8
 2306              		@ frame_needed = 1, uses_anonymous_args = 0
 2307 0000 80B5     		push	{r7, lr}
 2308              	.LCFI136:
 2309              		.cfi_def_cfa_offset 8
 2310              		.cfi_offset 7, -8
 2311              		.cfi_offset 14, -4
 2312 0002 82B0     		sub	sp, sp, #8
 2313              	.LCFI137:
 2314              		.cfi_def_cfa_offset 16
 2315 0004 00AF     		add	r7, sp, #0
 2316              	.LCFI138:
 2317              		.cfi_def_cfa_register 7
 2318 0006 3A60     		str	r2, [r7]
 2319 0008 1A46     		mov	r2, r3
 2320 000a 0346     		mov	r3, r0
 2321 000c FB71     		strb	r3, [r7, #7]
 2322 000e 0B46     		mov	r3, r1
 2323 0010 BB71     		strb	r3, [r7, #6]
 2324 0012 1346     		mov	r3, r2	@ movhi
 2325 0014 BB80     		strh	r3, [r7, #4]	@ movhi
 930:Drivers/BSP/STM32F429I-Discovery/stm32f429i_discovery.c ****   return I2Cx_ReadBuffer(Addr, Reg, pBuffer, Length);
 2326              		.loc 1 930 10
 2327 0016 BB88     		ldrh	r3, [r7, #4]
 2328 0018 B979     		ldrb	r1, [r7, #6]	@ zero_extendqisi2
 2329 001a F879     		ldrb	r0, [r7, #7]	@ zero_extendqisi2
 2330 001c 3A68     		ldr	r2, [r7]
 2331 001e FFF7FEFF 		bl	I2Cx_ReadBuffer
 2332 0022 0346     		mov	r3, r0
 931:Drivers/BSP/STM32F429I-Discovery/stm32f429i_discovery.c **** }
 2333              		.loc 1 931 1
 2334 0024 1846     		mov	r0, r3
 2335 0026 0837     		adds	r7, r7, #8
 2336              	.LCFI139:
ARM GAS  /var/folders/06/9k7gq4t13mj84z2yhw3grvhc0000gn/T//ccJ3lc1F.s 			page 57


 2337              		.cfi_def_cfa_offset 8
 2338 0028 BD46     		mov	sp, r7
 2339              	.LCFI140:
 2340              		.cfi_def_cfa_register 13
 2341              		@ sp needed
 2342 002a 80BD     		pop	{r7, pc}
 2343              		.cfi_endproc
 2344              	.LFE165:
 2346              		.section	.text.IOE_Delay,"ax",%progbits
 2347              		.align	1
 2348              		.global	IOE_Delay
 2349              		.syntax unified
 2350              		.thumb
 2351              		.thumb_func
 2353              	IOE_Delay:
 2354              	.LFB166:
 932:Drivers/BSP/STM32F429I-Discovery/stm32f429i_discovery.c **** 
 933:Drivers/BSP/STM32F429I-Discovery/stm32f429i_discovery.c **** /**
 934:Drivers/BSP/STM32F429I-Discovery/stm32f429i_discovery.c ****   * @brief  IOE Delay.
 935:Drivers/BSP/STM32F429I-Discovery/stm32f429i_discovery.c ****   * @param  Delay in ms
 936:Drivers/BSP/STM32F429I-Discovery/stm32f429i_discovery.c ****   */
 937:Drivers/BSP/STM32F429I-Discovery/stm32f429i_discovery.c **** void IOE_Delay(uint32_t Delay)
 938:Drivers/BSP/STM32F429I-Discovery/stm32f429i_discovery.c **** {
 2355              		.loc 1 938 1
 2356              		.cfi_startproc
 2357              		@ args = 0, pretend = 0, frame = 8
 2358              		@ frame_needed = 1, uses_anonymous_args = 0
 2359 0000 80B5     		push	{r7, lr}
 2360              	.LCFI141:
 2361              		.cfi_def_cfa_offset 8
 2362              		.cfi_offset 7, -8
 2363              		.cfi_offset 14, -4
 2364 0002 82B0     		sub	sp, sp, #8
 2365              	.LCFI142:
 2366              		.cfi_def_cfa_offset 16
 2367 0004 00AF     		add	r7, sp, #0
 2368              	.LCFI143:
 2369              		.cfi_def_cfa_register 7
 2370 0006 7860     		str	r0, [r7, #4]
 939:Drivers/BSP/STM32F429I-Discovery/stm32f429i_discovery.c ****   HAL_Delay(Delay);
 2371              		.loc 1 939 3
 2372 0008 7868     		ldr	r0, [r7, #4]
 2373 000a FFF7FEFF 		bl	HAL_Delay
 940:Drivers/BSP/STM32F429I-Discovery/stm32f429i_discovery.c **** }
 2374              		.loc 1 940 1
 2375 000e 00BF     		nop
 2376 0010 0837     		adds	r7, r7, #8
 2377              	.LCFI144:
 2378              		.cfi_def_cfa_offset 8
 2379 0012 BD46     		mov	sp, r7
 2380              	.LCFI145:
 2381              		.cfi_def_cfa_register 13
 2382              		@ sp needed
 2383 0014 80BD     		pop	{r7, pc}
 2384              		.cfi_endproc
 2385              	.LFE166:
 2387              		.section	.text.GYRO_IO_Init,"ax",%progbits
ARM GAS  /var/folders/06/9k7gq4t13mj84z2yhw3grvhc0000gn/T//ccJ3lc1F.s 			page 58


 2388              		.align	1
 2389              		.global	GYRO_IO_Init
 2390              		.syntax unified
 2391              		.thumb
 2392              		.thumb_func
 2394              	GYRO_IO_Init:
 2395              	.LFB167:
 941:Drivers/BSP/STM32F429I-Discovery/stm32f429i_discovery.c **** 
 942:Drivers/BSP/STM32F429I-Discovery/stm32f429i_discovery.c **** /********************************* LINK GYROSCOPE *****************************/
 943:Drivers/BSP/STM32F429I-Discovery/stm32f429i_discovery.c **** 
 944:Drivers/BSP/STM32F429I-Discovery/stm32f429i_discovery.c **** /**
 945:Drivers/BSP/STM32F429I-Discovery/stm32f429i_discovery.c ****   * @brief  Configures the Gyroscope SPI interface.
 946:Drivers/BSP/STM32F429I-Discovery/stm32f429i_discovery.c ****   */
 947:Drivers/BSP/STM32F429I-Discovery/stm32f429i_discovery.c **** void GYRO_IO_Init(void)
 948:Drivers/BSP/STM32F429I-Discovery/stm32f429i_discovery.c **** {
 2396              		.loc 1 948 1
 2397              		.cfi_startproc
 2398              		@ args = 0, pretend = 0, frame = 32
 2399              		@ frame_needed = 1, uses_anonymous_args = 0
 2400 0000 80B5     		push	{r7, lr}
 2401              	.LCFI146:
 2402              		.cfi_def_cfa_offset 8
 2403              		.cfi_offset 7, -8
 2404              		.cfi_offset 14, -4
 2405 0002 88B0     		sub	sp, sp, #32
 2406              	.LCFI147:
 2407              		.cfi_def_cfa_offset 40
 2408 0004 00AF     		add	r7, sp, #0
 2409              	.LCFI148:
 2410              		.cfi_def_cfa_register 7
 2411              	.LBB14:
 949:Drivers/BSP/STM32F429I-Discovery/stm32f429i_discovery.c ****   GPIO_InitTypeDef GPIO_InitStructure;
 950:Drivers/BSP/STM32F429I-Discovery/stm32f429i_discovery.c **** 
 951:Drivers/BSP/STM32F429I-Discovery/stm32f429i_discovery.c ****   /* Configure the Gyroscope Control pins ------------------------------------*/
 952:Drivers/BSP/STM32F429I-Discovery/stm32f429i_discovery.c ****   /* Enable CS GPIO clock and Configure GPIO PIN for Gyroscope Chip select */
 953:Drivers/BSP/STM32F429I-Discovery/stm32f429i_discovery.c ****   GYRO_CS_GPIO_CLK_ENABLE();
 2412              		.loc 1 953 3
 2413 0006 0023     		movs	r3, #0
 2414 0008 BB60     		str	r3, [r7, #8]
 2415 000a 204B     		ldr	r3, .L118
 2416 000c 1B6B     		ldr	r3, [r3, #48]
 2417 000e 1F4A     		ldr	r2, .L118
 2418 0010 43F00403 		orr	r3, r3, #4
 2419 0014 1363     		str	r3, [r2, #48]
 2420 0016 1D4B     		ldr	r3, .L118
 2421 0018 1B6B     		ldr	r3, [r3, #48]
 2422 001a 03F00403 		and	r3, r3, #4
 2423 001e BB60     		str	r3, [r7, #8]
 2424 0020 BB68     		ldr	r3, [r7, #8]
 2425              	.LBE14:
 954:Drivers/BSP/STM32F429I-Discovery/stm32f429i_discovery.c ****   GPIO_InitStructure.Pin = GYRO_CS_PIN;
 2426              		.loc 1 954 26
 2427 0022 0223     		movs	r3, #2
 2428 0024 FB60     		str	r3, [r7, #12]
 955:Drivers/BSP/STM32F429I-Discovery/stm32f429i_discovery.c ****   GPIO_InitStructure.Mode = GPIO_MODE_OUTPUT_PP;
 2429              		.loc 1 955 27
 2430 0026 0123     		movs	r3, #1
ARM GAS  /var/folders/06/9k7gq4t13mj84z2yhw3grvhc0000gn/T//ccJ3lc1F.s 			page 59


 2431 0028 3B61     		str	r3, [r7, #16]
 956:Drivers/BSP/STM32F429I-Discovery/stm32f429i_discovery.c ****   GPIO_InitStructure.Pull  = GPIO_NOPULL;
 2432              		.loc 1 956 28
 2433 002a 0023     		movs	r3, #0
 2434 002c 7B61     		str	r3, [r7, #20]
 957:Drivers/BSP/STM32F429I-Discovery/stm32f429i_discovery.c ****   GPIO_InitStructure.Speed = GPIO_SPEED_MEDIUM;
 2435              		.loc 1 957 28
 2436 002e 0123     		movs	r3, #1
 2437 0030 BB61     		str	r3, [r7, #24]
 958:Drivers/BSP/STM32F429I-Discovery/stm32f429i_discovery.c ****   HAL_GPIO_Init(GYRO_CS_GPIO_PORT, &GPIO_InitStructure);
 2438              		.loc 1 958 3
 2439 0032 07F10C03 		add	r3, r7, #12
 2440 0036 1946     		mov	r1, r3
 2441 0038 1548     		ldr	r0, .L118+4
 2442 003a FFF7FEFF 		bl	HAL_GPIO_Init
 959:Drivers/BSP/STM32F429I-Discovery/stm32f429i_discovery.c **** 
 960:Drivers/BSP/STM32F429I-Discovery/stm32f429i_discovery.c ****   /* Deselect: Chip Select high */
 961:Drivers/BSP/STM32F429I-Discovery/stm32f429i_discovery.c ****   GYRO_CS_HIGH();
 2443              		.loc 1 961 3
 2444 003e 0122     		movs	r2, #1
 2445 0040 0221     		movs	r1, #2
 2446 0042 1348     		ldr	r0, .L118+4
 2447 0044 FFF7FEFF 		bl	HAL_GPIO_WritePin
 2448              	.LBB15:
 962:Drivers/BSP/STM32F429I-Discovery/stm32f429i_discovery.c **** 
 963:Drivers/BSP/STM32F429I-Discovery/stm32f429i_discovery.c ****   /* Enable INT1, INT2 GPIO clock and Configure GPIO PINs to detect Interrupts */
 964:Drivers/BSP/STM32F429I-Discovery/stm32f429i_discovery.c ****   GYRO_INT_GPIO_CLK_ENABLE();
 2449              		.loc 1 964 3
 2450 0048 0023     		movs	r3, #0
 2451 004a 7B60     		str	r3, [r7, #4]
 2452 004c 0F4B     		ldr	r3, .L118
 2453 004e 1B6B     		ldr	r3, [r3, #48]
 2454 0050 0E4A     		ldr	r2, .L118
 2455 0052 43F00103 		orr	r3, r3, #1
 2456 0056 1363     		str	r3, [r2, #48]
 2457 0058 0C4B     		ldr	r3, .L118
 2458 005a 1B6B     		ldr	r3, [r3, #48]
 2459 005c 03F00103 		and	r3, r3, #1
 2460 0060 7B60     		str	r3, [r7, #4]
 2461 0062 7B68     		ldr	r3, [r7, #4]
 2462              	.LBE15:
 965:Drivers/BSP/STM32F429I-Discovery/stm32f429i_discovery.c ****   GPIO_InitStructure.Pin = GYRO_INT1_PIN | GYRO_INT2_PIN;
 2463              		.loc 1 965 26
 2464 0064 0623     		movs	r3, #6
 2465 0066 FB60     		str	r3, [r7, #12]
 966:Drivers/BSP/STM32F429I-Discovery/stm32f429i_discovery.c ****   GPIO_InitStructure.Mode = GPIO_MODE_INPUT;
 2466              		.loc 1 966 27
 2467 0068 0023     		movs	r3, #0
 2468 006a 3B61     		str	r3, [r7, #16]
 967:Drivers/BSP/STM32F429I-Discovery/stm32f429i_discovery.c ****   GPIO_InitStructure.Speed = GPIO_SPEED_FAST;
 2469              		.loc 1 967 28
 2470 006c 0223     		movs	r3, #2
 2471 006e BB61     		str	r3, [r7, #24]
 968:Drivers/BSP/STM32F429I-Discovery/stm32f429i_discovery.c ****   GPIO_InitStructure.Pull = GPIO_NOPULL;
 2472              		.loc 1 968 27
 2473 0070 0023     		movs	r3, #0
 2474 0072 7B61     		str	r3, [r7, #20]
ARM GAS  /var/folders/06/9k7gq4t13mj84z2yhw3grvhc0000gn/T//ccJ3lc1F.s 			page 60


 969:Drivers/BSP/STM32F429I-Discovery/stm32f429i_discovery.c ****   HAL_GPIO_Init(GYRO_INT_GPIO_PORT, &GPIO_InitStructure);
 2475              		.loc 1 969 3
 2476 0074 07F10C03 		add	r3, r7, #12
 2477 0078 1946     		mov	r1, r3
 2478 007a 0648     		ldr	r0, .L118+8
 2479 007c FFF7FEFF 		bl	HAL_GPIO_Init
 970:Drivers/BSP/STM32F429I-Discovery/stm32f429i_discovery.c **** 
 971:Drivers/BSP/STM32F429I-Discovery/stm32f429i_discovery.c ****   SPIx_Init();
 2480              		.loc 1 971 3
 2481 0080 FFF7FEFF 		bl	SPIx_Init
 972:Drivers/BSP/STM32F429I-Discovery/stm32f429i_discovery.c **** }
 2482              		.loc 1 972 1
 2483 0084 00BF     		nop
 2484 0086 2037     		adds	r7, r7, #32
 2485              	.LCFI149:
 2486              		.cfi_def_cfa_offset 8
 2487 0088 BD46     		mov	sp, r7
 2488              	.LCFI150:
 2489              		.cfi_def_cfa_register 13
 2490              		@ sp needed
 2491 008a 80BD     		pop	{r7, pc}
 2492              	.L119:
 2493              		.align	2
 2494              	.L118:
 2495 008c 00380240 		.word	1073887232
 2496 0090 00080240 		.word	1073874944
 2497 0094 00000240 		.word	1073872896
 2498              		.cfi_endproc
 2499              	.LFE167:
 2501              		.section	.text.GYRO_IO_Write,"ax",%progbits
 2502              		.align	1
 2503              		.global	GYRO_IO_Write
 2504              		.syntax unified
 2505              		.thumb
 2506              		.thumb_func
 2508              	GYRO_IO_Write:
 2509              	.LFB168:
 973:Drivers/BSP/STM32F429I-Discovery/stm32f429i_discovery.c **** 
 974:Drivers/BSP/STM32F429I-Discovery/stm32f429i_discovery.c **** /**
 975:Drivers/BSP/STM32F429I-Discovery/stm32f429i_discovery.c ****   * @brief  Writes one byte to the Gyroscope.
 976:Drivers/BSP/STM32F429I-Discovery/stm32f429i_discovery.c ****   * @param  pBuffer: Pointer to the buffer containing the data to be written to the Gyroscope.
 977:Drivers/BSP/STM32F429I-Discovery/stm32f429i_discovery.c ****   * @param  WriteAddr: Gyroscope's internal address to write to.
 978:Drivers/BSP/STM32F429I-Discovery/stm32f429i_discovery.c ****   * @param  NumByteToWrite: Number of bytes to write.
 979:Drivers/BSP/STM32F429I-Discovery/stm32f429i_discovery.c ****   */
 980:Drivers/BSP/STM32F429I-Discovery/stm32f429i_discovery.c **** void GYRO_IO_Write(uint8_t *pBuffer, uint8_t WriteAddr, uint16_t NumByteToWrite)
 981:Drivers/BSP/STM32F429I-Discovery/stm32f429i_discovery.c **** {
 2510              		.loc 1 981 1
 2511              		.cfi_startproc
 2512              		@ args = 0, pretend = 0, frame = 8
 2513              		@ frame_needed = 1, uses_anonymous_args = 0
 2514 0000 80B5     		push	{r7, lr}
 2515              	.LCFI151:
 2516              		.cfi_def_cfa_offset 8
 2517              		.cfi_offset 7, -8
 2518              		.cfi_offset 14, -4
 2519 0002 82B0     		sub	sp, sp, #8
 2520              	.LCFI152:
ARM GAS  /var/folders/06/9k7gq4t13mj84z2yhw3grvhc0000gn/T//ccJ3lc1F.s 			page 61


 2521              		.cfi_def_cfa_offset 16
 2522 0004 00AF     		add	r7, sp, #0
 2523              	.LCFI153:
 2524              		.cfi_def_cfa_register 7
 2525 0006 7860     		str	r0, [r7, #4]
 2526 0008 0B46     		mov	r3, r1
 2527 000a FB70     		strb	r3, [r7, #3]
 2528 000c 1346     		mov	r3, r2	@ movhi
 2529 000e 3B80     		strh	r3, [r7]	@ movhi
 982:Drivers/BSP/STM32F429I-Discovery/stm32f429i_discovery.c ****   /* Configure the MS bit:
 983:Drivers/BSP/STM32F429I-Discovery/stm32f429i_discovery.c ****        - When 0, the address will remain unchanged in multiple read/write commands.
 984:Drivers/BSP/STM32F429I-Discovery/stm32f429i_discovery.c ****        - When 1, the address will be auto incremented in multiple read/write commands.
 985:Drivers/BSP/STM32F429I-Discovery/stm32f429i_discovery.c ****   */
 986:Drivers/BSP/STM32F429I-Discovery/stm32f429i_discovery.c ****   if (NumByteToWrite > 0x01)
 2530              		.loc 1 986 6
 2531 0010 3B88     		ldrh	r3, [r7]
 2532 0012 012B     		cmp	r3, #1
 2533 0014 03D9     		bls	.L121
 987:Drivers/BSP/STM32F429I-Discovery/stm32f429i_discovery.c ****   {
 988:Drivers/BSP/STM32F429I-Discovery/stm32f429i_discovery.c ****     WriteAddr |= (uint8_t)MULTIPLEBYTE_CMD;
 2534              		.loc 1 988 15
 2535 0016 FB78     		ldrb	r3, [r7, #3]
 2536 0018 43F04003 		orr	r3, r3, #64
 2537 001c FB70     		strb	r3, [r7, #3]
 2538              	.L121:
 989:Drivers/BSP/STM32F429I-Discovery/stm32f429i_discovery.c ****   }
 990:Drivers/BSP/STM32F429I-Discovery/stm32f429i_discovery.c ****   /* Set chip select Low at the start of the transmission */
 991:Drivers/BSP/STM32F429I-Discovery/stm32f429i_discovery.c ****   GYRO_CS_LOW();
 2539              		.loc 1 991 3
 2540 001e 0022     		movs	r2, #0
 2541 0020 0221     		movs	r1, #2
 2542 0022 0F48     		ldr	r0, .L124
 2543 0024 FFF7FEFF 		bl	HAL_GPIO_WritePin
 992:Drivers/BSP/STM32F429I-Discovery/stm32f429i_discovery.c **** 
 993:Drivers/BSP/STM32F429I-Discovery/stm32f429i_discovery.c ****   /* Send the Address of the indexed register */
 994:Drivers/BSP/STM32F429I-Discovery/stm32f429i_discovery.c ****   SPIx_WriteRead(WriteAddr);
 2544              		.loc 1 994 3
 2545 0028 FB78     		ldrb	r3, [r7, #3]	@ zero_extendqisi2
 2546 002a 1846     		mov	r0, r3
 2547 002c FFF7FEFF 		bl	SPIx_WriteRead
 995:Drivers/BSP/STM32F429I-Discovery/stm32f429i_discovery.c **** 
 996:Drivers/BSP/STM32F429I-Discovery/stm32f429i_discovery.c ****   /* Send the data that will be written into the device (MSB First) */
 997:Drivers/BSP/STM32F429I-Discovery/stm32f429i_discovery.c ****   while (NumByteToWrite >= 0x01)
 2548              		.loc 1 997 9
 2549 0030 0AE0     		b	.L122
 2550              	.L123:
 998:Drivers/BSP/STM32F429I-Discovery/stm32f429i_discovery.c ****   {
 999:Drivers/BSP/STM32F429I-Discovery/stm32f429i_discovery.c ****     SPIx_WriteRead(*pBuffer);
 2551              		.loc 1 999 5
 2552 0032 7B68     		ldr	r3, [r7, #4]
 2553 0034 1B78     		ldrb	r3, [r3]	@ zero_extendqisi2
 2554 0036 1846     		mov	r0, r3
 2555 0038 FFF7FEFF 		bl	SPIx_WriteRead
1000:Drivers/BSP/STM32F429I-Discovery/stm32f429i_discovery.c ****     NumByteToWrite--;
 2556              		.loc 1 1000 19
 2557 003c 3B88     		ldrh	r3, [r7]
 2558 003e 013B     		subs	r3, r3, #1
ARM GAS  /var/folders/06/9k7gq4t13mj84z2yhw3grvhc0000gn/T//ccJ3lc1F.s 			page 62


 2559 0040 3B80     		strh	r3, [r7]	@ movhi
1001:Drivers/BSP/STM32F429I-Discovery/stm32f429i_discovery.c ****     pBuffer++;
 2560              		.loc 1 1001 12
 2561 0042 7B68     		ldr	r3, [r7, #4]
 2562 0044 0133     		adds	r3, r3, #1
 2563 0046 7B60     		str	r3, [r7, #4]
 2564              	.L122:
 997:Drivers/BSP/STM32F429I-Discovery/stm32f429i_discovery.c ****   {
 2565              		.loc 1 997 25
 2566 0048 3B88     		ldrh	r3, [r7]
 2567 004a 002B     		cmp	r3, #0
 2568 004c F1D1     		bne	.L123
1002:Drivers/BSP/STM32F429I-Discovery/stm32f429i_discovery.c ****   }
1003:Drivers/BSP/STM32F429I-Discovery/stm32f429i_discovery.c **** 
1004:Drivers/BSP/STM32F429I-Discovery/stm32f429i_discovery.c ****   /* Set chip select High at the end of the transmission */
1005:Drivers/BSP/STM32F429I-Discovery/stm32f429i_discovery.c ****   GYRO_CS_HIGH();
 2569              		.loc 1 1005 3
 2570 004e 0122     		movs	r2, #1
 2571 0050 0221     		movs	r1, #2
 2572 0052 0348     		ldr	r0, .L124
 2573 0054 FFF7FEFF 		bl	HAL_GPIO_WritePin
1006:Drivers/BSP/STM32F429I-Discovery/stm32f429i_discovery.c **** }
 2574              		.loc 1 1006 1
 2575 0058 00BF     		nop
 2576 005a 0837     		adds	r7, r7, #8
 2577              	.LCFI154:
 2578              		.cfi_def_cfa_offset 8
 2579 005c BD46     		mov	sp, r7
 2580              	.LCFI155:
 2581              		.cfi_def_cfa_register 13
 2582              		@ sp needed
 2583 005e 80BD     		pop	{r7, pc}
 2584              	.L125:
 2585              		.align	2
 2586              	.L124:
 2587 0060 00080240 		.word	1073874944
 2588              		.cfi_endproc
 2589              	.LFE168:
 2591              		.section	.text.GYRO_IO_Read,"ax",%progbits
 2592              		.align	1
 2593              		.global	GYRO_IO_Read
 2594              		.syntax unified
 2595              		.thumb
 2596              		.thumb_func
 2598              	GYRO_IO_Read:
 2599              	.LFB169:
1007:Drivers/BSP/STM32F429I-Discovery/stm32f429i_discovery.c **** 
1008:Drivers/BSP/STM32F429I-Discovery/stm32f429i_discovery.c **** /**
1009:Drivers/BSP/STM32F429I-Discovery/stm32f429i_discovery.c ****   * @brief  Reads a block of data from the Gyroscope.
1010:Drivers/BSP/STM32F429I-Discovery/stm32f429i_discovery.c ****   * @param  pBuffer: Pointer to the buffer that receives the data read from the Gyroscope.
1011:Drivers/BSP/STM32F429I-Discovery/stm32f429i_discovery.c ****   * @param  ReadAddr: Gyroscope's internal address to read from.
1012:Drivers/BSP/STM32F429I-Discovery/stm32f429i_discovery.c ****   * @param  NumByteToRead: Number of bytes to read from the Gyroscope.
1013:Drivers/BSP/STM32F429I-Discovery/stm32f429i_discovery.c ****   */
1014:Drivers/BSP/STM32F429I-Discovery/stm32f429i_discovery.c **** void GYRO_IO_Read(uint8_t *pBuffer, uint8_t ReadAddr, uint16_t NumByteToRead)
1015:Drivers/BSP/STM32F429I-Discovery/stm32f429i_discovery.c **** {
 2600              		.loc 1 1015 1
 2601              		.cfi_startproc
ARM GAS  /var/folders/06/9k7gq4t13mj84z2yhw3grvhc0000gn/T//ccJ3lc1F.s 			page 63


 2602              		@ args = 0, pretend = 0, frame = 8
 2603              		@ frame_needed = 1, uses_anonymous_args = 0
 2604 0000 80B5     		push	{r7, lr}
 2605              	.LCFI156:
 2606              		.cfi_def_cfa_offset 8
 2607              		.cfi_offset 7, -8
 2608              		.cfi_offset 14, -4
 2609 0002 82B0     		sub	sp, sp, #8
 2610              	.LCFI157:
 2611              		.cfi_def_cfa_offset 16
 2612 0004 00AF     		add	r7, sp, #0
 2613              	.LCFI158:
 2614              		.cfi_def_cfa_register 7
 2615 0006 7860     		str	r0, [r7, #4]
 2616 0008 0B46     		mov	r3, r1
 2617 000a FB70     		strb	r3, [r7, #3]
 2618 000c 1346     		mov	r3, r2	@ movhi
 2619 000e 3B80     		strh	r3, [r7]	@ movhi
1016:Drivers/BSP/STM32F429I-Discovery/stm32f429i_discovery.c ****   if (NumByteToRead > 0x01)
 2620              		.loc 1 1016 6
 2621 0010 3B88     		ldrh	r3, [r7]
 2622 0012 012B     		cmp	r3, #1
 2623 0014 04D9     		bls	.L127
1017:Drivers/BSP/STM32F429I-Discovery/stm32f429i_discovery.c ****   {
1018:Drivers/BSP/STM32F429I-Discovery/stm32f429i_discovery.c ****     ReadAddr |= (uint8_t)(READWRITE_CMD | MULTIPLEBYTE_CMD);
 2624              		.loc 1 1018 14
 2625 0016 FB78     		ldrb	r3, [r7, #3]
 2626 0018 63F03F03 		orn	r3, r3, #63
 2627 001c FB70     		strb	r3, [r7, #3]
 2628 001e 03E0     		b	.L128
 2629              	.L127:
1019:Drivers/BSP/STM32F429I-Discovery/stm32f429i_discovery.c ****   }
1020:Drivers/BSP/STM32F429I-Discovery/stm32f429i_discovery.c ****   else
1021:Drivers/BSP/STM32F429I-Discovery/stm32f429i_discovery.c ****   {
1022:Drivers/BSP/STM32F429I-Discovery/stm32f429i_discovery.c ****     ReadAddr |= (uint8_t)READWRITE_CMD;
 2630              		.loc 1 1022 14
 2631 0020 FB78     		ldrb	r3, [r7, #3]
 2632 0022 63F07F03 		orn	r3, r3, #127
 2633 0026 FB70     		strb	r3, [r7, #3]
 2634              	.L128:
1023:Drivers/BSP/STM32F429I-Discovery/stm32f429i_discovery.c ****   }
1024:Drivers/BSP/STM32F429I-Discovery/stm32f429i_discovery.c ****   /* Set chip select Low at the start of the transmission */
1025:Drivers/BSP/STM32F429I-Discovery/stm32f429i_discovery.c ****   GYRO_CS_LOW();
 2635              		.loc 1 1025 3
 2636 0028 0022     		movs	r2, #0
 2637 002a 0221     		movs	r1, #2
 2638 002c 1048     		ldr	r0, .L131
 2639 002e FFF7FEFF 		bl	HAL_GPIO_WritePin
1026:Drivers/BSP/STM32F429I-Discovery/stm32f429i_discovery.c **** 
1027:Drivers/BSP/STM32F429I-Discovery/stm32f429i_discovery.c ****   /* Send the Address of the indexed register */
1028:Drivers/BSP/STM32F429I-Discovery/stm32f429i_discovery.c ****   SPIx_WriteRead(ReadAddr);
 2640              		.loc 1 1028 3
 2641 0032 FB78     		ldrb	r3, [r7, #3]	@ zero_extendqisi2
 2642 0034 1846     		mov	r0, r3
 2643 0036 FFF7FEFF 		bl	SPIx_WriteRead
1029:Drivers/BSP/STM32F429I-Discovery/stm32f429i_discovery.c **** 
1030:Drivers/BSP/STM32F429I-Discovery/stm32f429i_discovery.c ****   /* Receive the data that will be read from the device (MSB First) */
ARM GAS  /var/folders/06/9k7gq4t13mj84z2yhw3grvhc0000gn/T//ccJ3lc1F.s 			page 64


1031:Drivers/BSP/STM32F429I-Discovery/stm32f429i_discovery.c ****   while (NumByteToRead > 0x00)
 2644              		.loc 1 1031 9
 2645 003a 0CE0     		b	.L129
 2646              	.L130:
1032:Drivers/BSP/STM32F429I-Discovery/stm32f429i_discovery.c ****   {
1033:Drivers/BSP/STM32F429I-Discovery/stm32f429i_discovery.c ****     /* Send dummy byte (0x00) to generate the SPI clock to Gyroscope (Slave device) */
1034:Drivers/BSP/STM32F429I-Discovery/stm32f429i_discovery.c ****     *pBuffer = SPIx_WriteRead(DUMMY_BYTE);
 2647              		.loc 1 1034 16
 2648 003c 0020     		movs	r0, #0
 2649 003e FFF7FEFF 		bl	SPIx_WriteRead
 2650 0042 0346     		mov	r3, r0
 2651 0044 1A46     		mov	r2, r3
 2652              		.loc 1 1034 14 discriminator 1
 2653 0046 7B68     		ldr	r3, [r7, #4]
 2654 0048 1A70     		strb	r2, [r3]
1035:Drivers/BSP/STM32F429I-Discovery/stm32f429i_discovery.c ****     NumByteToRead--;
 2655              		.loc 1 1035 18
 2656 004a 3B88     		ldrh	r3, [r7]
 2657 004c 013B     		subs	r3, r3, #1
 2658 004e 3B80     		strh	r3, [r7]	@ movhi
1036:Drivers/BSP/STM32F429I-Discovery/stm32f429i_discovery.c ****     pBuffer++;
 2659              		.loc 1 1036 12
 2660 0050 7B68     		ldr	r3, [r7, #4]
 2661 0052 0133     		adds	r3, r3, #1
 2662 0054 7B60     		str	r3, [r7, #4]
 2663              	.L129:
1031:Drivers/BSP/STM32F429I-Discovery/stm32f429i_discovery.c ****   {
 2664              		.loc 1 1031 24
 2665 0056 3B88     		ldrh	r3, [r7]
 2666 0058 002B     		cmp	r3, #0
 2667 005a EFD1     		bne	.L130
1037:Drivers/BSP/STM32F429I-Discovery/stm32f429i_discovery.c ****   }
1038:Drivers/BSP/STM32F429I-Discovery/stm32f429i_discovery.c **** 
1039:Drivers/BSP/STM32F429I-Discovery/stm32f429i_discovery.c ****   /* Set chip select High at the end of the transmission */
1040:Drivers/BSP/STM32F429I-Discovery/stm32f429i_discovery.c ****   GYRO_CS_HIGH();
 2668              		.loc 1 1040 3
 2669 005c 0122     		movs	r2, #1
 2670 005e 0221     		movs	r1, #2
 2671 0060 0348     		ldr	r0, .L131
 2672 0062 FFF7FEFF 		bl	HAL_GPIO_WritePin
1041:Drivers/BSP/STM32F429I-Discovery/stm32f429i_discovery.c **** }
 2673              		.loc 1 1041 1
 2674 0066 00BF     		nop
 2675 0068 0837     		adds	r7, r7, #8
 2676              	.LCFI159:
 2677              		.cfi_def_cfa_offset 8
 2678 006a BD46     		mov	sp, r7
 2679              	.LCFI160:
 2680              		.cfi_def_cfa_register 13
 2681              		@ sp needed
 2682 006c 80BD     		pop	{r7, pc}
 2683              	.L132:
 2684 006e 00BF     		.align	2
 2685              	.L131:
 2686 0070 00080240 		.word	1073874944
 2687              		.cfi_endproc
 2688              	.LFE169:
ARM GAS  /var/folders/06/9k7gq4t13mj84z2yhw3grvhc0000gn/T//ccJ3lc1F.s 			page 65


 2690              		.text
 2691              	.Letext0:
 2692              		.file 2 "Drivers/CMSIS/Device/ST/STM32F4xx/Include/stm32f429xx.h"
 2693              		.file 3 "/Applications/ArmGNUToolchain/13.2.Rel1/arm-none-eabi/arm-none-eabi/include/machine/_defa
 2694              		.file 4 "/Applications/ArmGNUToolchain/13.2.Rel1/arm-none-eabi/arm-none-eabi/include/sys/_stdint.h
 2695              		.file 5 "Drivers/STM32F4xx_HAL_Driver/Inc/stm32f4xx_hal_def.h"
 2696              		.file 6 "Drivers/STM32F4xx_HAL_Driver/Inc/stm32f4xx_hal_gpio.h"
 2697              		.file 7 "Drivers/STM32F4xx_HAL_Driver/Inc/stm32f4xx_hal_dma.h"
 2698              		.file 8 "Drivers/STM32F4xx_HAL_Driver/Inc/stm32f4xx_hal_i2c.h"
 2699              		.file 9 "Drivers/STM32F4xx_HAL_Driver/Inc/stm32f4xx_hal_spi.h"
 2700              		.file 10 "Drivers/BSP/STM32F429I-Discovery/stm32f429i_discovery.h"
 2701              		.file 11 "Drivers/STM32F4xx_HAL_Driver/Inc/stm32f4xx_hal.h"
 2702              		.file 12 "Drivers/STM32F4xx_HAL_Driver/Inc/stm32f4xx_hal_cortex.h"
ARM GAS  /var/folders/06/9k7gq4t13mj84z2yhw3grvhc0000gn/T//ccJ3lc1F.s 			page 66

