ARM GAS  /var/folders/06/9k7gq4t13mj84z2yhw3grvhc0000gn/T//ccfdabgt.s 			page 1


   1              		.cpu cortex-m4
   2              		.arch armv7e-m
   3              		.fpu fpv4-sp-d16
   4              		.eabi_attribute 27, 1
   5              		.eabi_attribute 28, 1
   6              		.eabi_attribute 20, 1
   7              		.eabi_attribute 21, 1
   8              		.eabi_attribute 23, 3
   9              		.eabi_attribute 24, 1
  10              		.eabi_attribute 25, 1
  11              		.eabi_attribute 26, 1
  12              		.eabi_attribute 30, 6
  13              		.eabi_attribute 34, 1
  14              		.eabi_attribute 18, 4
  15              		.file	"stm32f4xx_hal_uart.c"
  16              		.text
  17              	.Ltext0:
  18              		.cfi_sections	.debug_frame
  19              		.file 1 "Drivers/STM32F4xx_HAL_Driver/Src/stm32f4xx_hal_uart.c"
  20              		.section	.text.HAL_UART_Init,"ax",%progbits
  21              		.align	1
  22              		.global	HAL_UART_Init
  23              		.syntax unified
  24              		.thumb
  25              		.thumb_func
  27              	HAL_UART_Init:
  28              	.LFB134:
   1:Drivers/STM32F4xx_HAL_Driver/Src/stm32f4xx_hal_uart.c **** /**
   2:Drivers/STM32F4xx_HAL_Driver/Src/stm32f4xx_hal_uart.c ****   ******************************************************************************
   3:Drivers/STM32F4xx_HAL_Driver/Src/stm32f4xx_hal_uart.c ****   * @file    stm32f4xx_hal_uart.c
   4:Drivers/STM32F4xx_HAL_Driver/Src/stm32f4xx_hal_uart.c ****   * @author  MCD Application Team
   5:Drivers/STM32F4xx_HAL_Driver/Src/stm32f4xx_hal_uart.c ****   * @brief   UART HAL module driver.
   6:Drivers/STM32F4xx_HAL_Driver/Src/stm32f4xx_hal_uart.c ****   *          This file provides firmware functions to manage the following
   7:Drivers/STM32F4xx_HAL_Driver/Src/stm32f4xx_hal_uart.c ****   *          functionalities of the Universal Asynchronous Receiver Transmitter Peripheral (UART).
   8:Drivers/STM32F4xx_HAL_Driver/Src/stm32f4xx_hal_uart.c ****   *           + Initialization and de-initialization functions
   9:Drivers/STM32F4xx_HAL_Driver/Src/stm32f4xx_hal_uart.c ****   *           + IO operation functions
  10:Drivers/STM32F4xx_HAL_Driver/Src/stm32f4xx_hal_uart.c ****   *           + Peripheral Control functions
  11:Drivers/STM32F4xx_HAL_Driver/Src/stm32f4xx_hal_uart.c ****   *           + Peripheral State and Errors functions
  12:Drivers/STM32F4xx_HAL_Driver/Src/stm32f4xx_hal_uart.c ****   *
  13:Drivers/STM32F4xx_HAL_Driver/Src/stm32f4xx_hal_uart.c ****   ******************************************************************************
  14:Drivers/STM32F4xx_HAL_Driver/Src/stm32f4xx_hal_uart.c ****   * @attention
  15:Drivers/STM32F4xx_HAL_Driver/Src/stm32f4xx_hal_uart.c ****   *
  16:Drivers/STM32F4xx_HAL_Driver/Src/stm32f4xx_hal_uart.c ****   * Copyright (c) 2016 STMicroelectronics.
  17:Drivers/STM32F4xx_HAL_Driver/Src/stm32f4xx_hal_uart.c ****   * All rights reserved.
  18:Drivers/STM32F4xx_HAL_Driver/Src/stm32f4xx_hal_uart.c ****   *
  19:Drivers/STM32F4xx_HAL_Driver/Src/stm32f4xx_hal_uart.c ****   * This software is licensed under terms that can be found in the LICENSE file
  20:Drivers/STM32F4xx_HAL_Driver/Src/stm32f4xx_hal_uart.c ****   * in the root directory of this software component.
  21:Drivers/STM32F4xx_HAL_Driver/Src/stm32f4xx_hal_uart.c ****   * If no LICENSE file comes with this software, it is provided AS-IS.
  22:Drivers/STM32F4xx_HAL_Driver/Src/stm32f4xx_hal_uart.c ****   *
  23:Drivers/STM32F4xx_HAL_Driver/Src/stm32f4xx_hal_uart.c ****   ******************************************************************************
  24:Drivers/STM32F4xx_HAL_Driver/Src/stm32f4xx_hal_uart.c ****   @verbatim
  25:Drivers/STM32F4xx_HAL_Driver/Src/stm32f4xx_hal_uart.c ****   ==============================================================================
  26:Drivers/STM32F4xx_HAL_Driver/Src/stm32f4xx_hal_uart.c ****                         ##### How to use this driver #####
  27:Drivers/STM32F4xx_HAL_Driver/Src/stm32f4xx_hal_uart.c ****   ==============================================================================
  28:Drivers/STM32F4xx_HAL_Driver/Src/stm32f4xx_hal_uart.c ****   [..]
  29:Drivers/STM32F4xx_HAL_Driver/Src/stm32f4xx_hal_uart.c ****     The UART HAL driver can be used as follows:
  30:Drivers/STM32F4xx_HAL_Driver/Src/stm32f4xx_hal_uart.c **** 
ARM GAS  /var/folders/06/9k7gq4t13mj84z2yhw3grvhc0000gn/T//ccfdabgt.s 			page 2


  31:Drivers/STM32F4xx_HAL_Driver/Src/stm32f4xx_hal_uart.c ****     (#) Declare a UART_HandleTypeDef handle structure (eg. UART_HandleTypeDef huart).
  32:Drivers/STM32F4xx_HAL_Driver/Src/stm32f4xx_hal_uart.c ****     (#) Initialize the UART low level resources by implementing the HAL_UART_MspInit() API:
  33:Drivers/STM32F4xx_HAL_Driver/Src/stm32f4xx_hal_uart.c ****         (##) Enable the USARTx interface clock.
  34:Drivers/STM32F4xx_HAL_Driver/Src/stm32f4xx_hal_uart.c ****         (##) UART pins configuration:
  35:Drivers/STM32F4xx_HAL_Driver/Src/stm32f4xx_hal_uart.c ****             (+++) Enable the clock for the UART GPIOs.
  36:Drivers/STM32F4xx_HAL_Driver/Src/stm32f4xx_hal_uart.c ****             (+++) Configure the UART TX/RX pins as alternate function pull-up.
  37:Drivers/STM32F4xx_HAL_Driver/Src/stm32f4xx_hal_uart.c ****         (##) NVIC configuration if you need to use interrupt process (HAL_UART_Transmit_IT()
  38:Drivers/STM32F4xx_HAL_Driver/Src/stm32f4xx_hal_uart.c ****              and HAL_UART_Receive_IT() APIs):
  39:Drivers/STM32F4xx_HAL_Driver/Src/stm32f4xx_hal_uart.c ****             (+++) Configure the USARTx interrupt priority.
  40:Drivers/STM32F4xx_HAL_Driver/Src/stm32f4xx_hal_uart.c ****             (+++) Enable the NVIC USART IRQ handle.
  41:Drivers/STM32F4xx_HAL_Driver/Src/stm32f4xx_hal_uart.c ****         (##) DMA Configuration if you need to use DMA process (HAL_UART_Transmit_DMA()
  42:Drivers/STM32F4xx_HAL_Driver/Src/stm32f4xx_hal_uart.c ****              and HAL_UART_Receive_DMA() APIs):
  43:Drivers/STM32F4xx_HAL_Driver/Src/stm32f4xx_hal_uart.c ****             (+++) Declare a DMA handle structure for the Tx/Rx stream.
  44:Drivers/STM32F4xx_HAL_Driver/Src/stm32f4xx_hal_uart.c ****             (+++) Enable the DMAx interface clock.
  45:Drivers/STM32F4xx_HAL_Driver/Src/stm32f4xx_hal_uart.c ****             (+++) Configure the declared DMA handle structure with the required
  46:Drivers/STM32F4xx_HAL_Driver/Src/stm32f4xx_hal_uart.c ****                   Tx/Rx parameters.
  47:Drivers/STM32F4xx_HAL_Driver/Src/stm32f4xx_hal_uart.c ****             (+++) Configure the DMA Tx/Rx stream.
  48:Drivers/STM32F4xx_HAL_Driver/Src/stm32f4xx_hal_uart.c ****             (+++) Associate the initialized DMA handle to the UART DMA Tx/Rx handle.
  49:Drivers/STM32F4xx_HAL_Driver/Src/stm32f4xx_hal_uart.c ****             (+++) Configure the priority and enable the NVIC for the transfer complete
  50:Drivers/STM32F4xx_HAL_Driver/Src/stm32f4xx_hal_uart.c ****                   interrupt on the DMA Tx/Rx stream.
  51:Drivers/STM32F4xx_HAL_Driver/Src/stm32f4xx_hal_uart.c ****             (+++) Configure the USARTx interrupt priority and enable the NVIC USART IRQ handle
  52:Drivers/STM32F4xx_HAL_Driver/Src/stm32f4xx_hal_uart.c ****                   (used for last byte sending completion detection in DMA non circular mode)
  53:Drivers/STM32F4xx_HAL_Driver/Src/stm32f4xx_hal_uart.c **** 
  54:Drivers/STM32F4xx_HAL_Driver/Src/stm32f4xx_hal_uart.c ****     (#) Program the Baud Rate, Word Length, Stop Bit, Parity, Hardware
  55:Drivers/STM32F4xx_HAL_Driver/Src/stm32f4xx_hal_uart.c ****         flow control and Mode(Receiver/Transmitter) in the huart Init structure.
  56:Drivers/STM32F4xx_HAL_Driver/Src/stm32f4xx_hal_uart.c **** 
  57:Drivers/STM32F4xx_HAL_Driver/Src/stm32f4xx_hal_uart.c ****     (#) For the UART asynchronous mode, initialize the UART registers by calling
  58:Drivers/STM32F4xx_HAL_Driver/Src/stm32f4xx_hal_uart.c ****         the HAL_UART_Init() API.
  59:Drivers/STM32F4xx_HAL_Driver/Src/stm32f4xx_hal_uart.c **** 
  60:Drivers/STM32F4xx_HAL_Driver/Src/stm32f4xx_hal_uart.c ****     (#) For the UART Half duplex mode, initialize the UART registers by calling
  61:Drivers/STM32F4xx_HAL_Driver/Src/stm32f4xx_hal_uart.c ****         the HAL_HalfDuplex_Init() API.
  62:Drivers/STM32F4xx_HAL_Driver/Src/stm32f4xx_hal_uart.c **** 
  63:Drivers/STM32F4xx_HAL_Driver/Src/stm32f4xx_hal_uart.c ****     (#) For the LIN mode, initialize the UART registers by calling the HAL_LIN_Init() API.
  64:Drivers/STM32F4xx_HAL_Driver/Src/stm32f4xx_hal_uart.c **** 
  65:Drivers/STM32F4xx_HAL_Driver/Src/stm32f4xx_hal_uart.c ****     (#) For the Multi-Processor mode, initialize the UART registers by calling
  66:Drivers/STM32F4xx_HAL_Driver/Src/stm32f4xx_hal_uart.c ****         the HAL_MultiProcessor_Init() API.
  67:Drivers/STM32F4xx_HAL_Driver/Src/stm32f4xx_hal_uart.c **** 
  68:Drivers/STM32F4xx_HAL_Driver/Src/stm32f4xx_hal_uart.c ****      [..]
  69:Drivers/STM32F4xx_HAL_Driver/Src/stm32f4xx_hal_uart.c ****        (@) The specific UART interrupts (Transmission complete interrupt,
  70:Drivers/STM32F4xx_HAL_Driver/Src/stm32f4xx_hal_uart.c ****             RXNE interrupt and Error Interrupts) will be managed using the macros
  71:Drivers/STM32F4xx_HAL_Driver/Src/stm32f4xx_hal_uart.c ****             __HAL_UART_ENABLE_IT() and __HAL_UART_DISABLE_IT() inside the transmit
  72:Drivers/STM32F4xx_HAL_Driver/Src/stm32f4xx_hal_uart.c ****             and receive process.
  73:Drivers/STM32F4xx_HAL_Driver/Src/stm32f4xx_hal_uart.c **** 
  74:Drivers/STM32F4xx_HAL_Driver/Src/stm32f4xx_hal_uart.c ****      [..]
  75:Drivers/STM32F4xx_HAL_Driver/Src/stm32f4xx_hal_uart.c ****        (@) These APIs (HAL_UART_Init() and HAL_HalfDuplex_Init()) configure also the
  76:Drivers/STM32F4xx_HAL_Driver/Src/stm32f4xx_hal_uart.c ****             low level Hardware GPIO, CLOCK, CORTEX...etc) by calling the customized
  77:Drivers/STM32F4xx_HAL_Driver/Src/stm32f4xx_hal_uart.c ****             HAL_UART_MspInit() API.
  78:Drivers/STM32F4xx_HAL_Driver/Src/stm32f4xx_hal_uart.c **** 
  79:Drivers/STM32F4xx_HAL_Driver/Src/stm32f4xx_hal_uart.c ****     ##### Callback registration #####
  80:Drivers/STM32F4xx_HAL_Driver/Src/stm32f4xx_hal_uart.c ****     ==================================
  81:Drivers/STM32F4xx_HAL_Driver/Src/stm32f4xx_hal_uart.c **** 
  82:Drivers/STM32F4xx_HAL_Driver/Src/stm32f4xx_hal_uart.c ****     [..]
  83:Drivers/STM32F4xx_HAL_Driver/Src/stm32f4xx_hal_uart.c ****     The compilation define USE_HAL_UART_REGISTER_CALLBACKS when set to 1
  84:Drivers/STM32F4xx_HAL_Driver/Src/stm32f4xx_hal_uart.c ****     allows the user to configure dynamically the driver callbacks.
  85:Drivers/STM32F4xx_HAL_Driver/Src/stm32f4xx_hal_uart.c **** 
  86:Drivers/STM32F4xx_HAL_Driver/Src/stm32f4xx_hal_uart.c ****     [..]
  87:Drivers/STM32F4xx_HAL_Driver/Src/stm32f4xx_hal_uart.c ****     Use Function HAL_UART_RegisterCallback() to register a user callback.
ARM GAS  /var/folders/06/9k7gq4t13mj84z2yhw3grvhc0000gn/T//ccfdabgt.s 			page 3


  88:Drivers/STM32F4xx_HAL_Driver/Src/stm32f4xx_hal_uart.c ****     Function HAL_UART_RegisterCallback() allows to register following callbacks:
  89:Drivers/STM32F4xx_HAL_Driver/Src/stm32f4xx_hal_uart.c ****     (+) TxHalfCpltCallback        : Tx Half Complete Callback.
  90:Drivers/STM32F4xx_HAL_Driver/Src/stm32f4xx_hal_uart.c ****     (+) TxCpltCallback            : Tx Complete Callback.
  91:Drivers/STM32F4xx_HAL_Driver/Src/stm32f4xx_hal_uart.c ****     (+) RxHalfCpltCallback        : Rx Half Complete Callback.
  92:Drivers/STM32F4xx_HAL_Driver/Src/stm32f4xx_hal_uart.c ****     (+) RxCpltCallback            : Rx Complete Callback.
  93:Drivers/STM32F4xx_HAL_Driver/Src/stm32f4xx_hal_uart.c ****     (+) ErrorCallback             : Error Callback.
  94:Drivers/STM32F4xx_HAL_Driver/Src/stm32f4xx_hal_uart.c ****     (+) AbortCpltCallback         : Abort Complete Callback.
  95:Drivers/STM32F4xx_HAL_Driver/Src/stm32f4xx_hal_uart.c ****     (+) AbortTransmitCpltCallback : Abort Transmit Complete Callback.
  96:Drivers/STM32F4xx_HAL_Driver/Src/stm32f4xx_hal_uart.c ****     (+) AbortReceiveCpltCallback  : Abort Receive Complete Callback.
  97:Drivers/STM32F4xx_HAL_Driver/Src/stm32f4xx_hal_uart.c ****     (+) MspInitCallback           : UART MspInit.
  98:Drivers/STM32F4xx_HAL_Driver/Src/stm32f4xx_hal_uart.c ****     (+) MspDeInitCallback         : UART MspDeInit.
  99:Drivers/STM32F4xx_HAL_Driver/Src/stm32f4xx_hal_uart.c ****     This function takes as parameters the HAL peripheral handle, the Callback ID
 100:Drivers/STM32F4xx_HAL_Driver/Src/stm32f4xx_hal_uart.c ****     and a pointer to the user callback function.
 101:Drivers/STM32F4xx_HAL_Driver/Src/stm32f4xx_hal_uart.c **** 
 102:Drivers/STM32F4xx_HAL_Driver/Src/stm32f4xx_hal_uart.c ****     [..]
 103:Drivers/STM32F4xx_HAL_Driver/Src/stm32f4xx_hal_uart.c ****     Use function HAL_UART_UnRegisterCallback() to reset a callback to the default
 104:Drivers/STM32F4xx_HAL_Driver/Src/stm32f4xx_hal_uart.c ****     weak (surcharged) function.
 105:Drivers/STM32F4xx_HAL_Driver/Src/stm32f4xx_hal_uart.c ****     HAL_UART_UnRegisterCallback() takes as parameters the HAL peripheral handle,
 106:Drivers/STM32F4xx_HAL_Driver/Src/stm32f4xx_hal_uart.c ****     and the Callback ID.
 107:Drivers/STM32F4xx_HAL_Driver/Src/stm32f4xx_hal_uart.c ****     This function allows to reset following callbacks:
 108:Drivers/STM32F4xx_HAL_Driver/Src/stm32f4xx_hal_uart.c ****     (+) TxHalfCpltCallback        : Tx Half Complete Callback.
 109:Drivers/STM32F4xx_HAL_Driver/Src/stm32f4xx_hal_uart.c ****     (+) TxCpltCallback            : Tx Complete Callback.
 110:Drivers/STM32F4xx_HAL_Driver/Src/stm32f4xx_hal_uart.c ****     (+) RxHalfCpltCallback        : Rx Half Complete Callback.
 111:Drivers/STM32F4xx_HAL_Driver/Src/stm32f4xx_hal_uart.c ****     (+) RxCpltCallback            : Rx Complete Callback.
 112:Drivers/STM32F4xx_HAL_Driver/Src/stm32f4xx_hal_uart.c ****     (+) ErrorCallback             : Error Callback.
 113:Drivers/STM32F4xx_HAL_Driver/Src/stm32f4xx_hal_uart.c ****     (+) AbortCpltCallback         : Abort Complete Callback.
 114:Drivers/STM32F4xx_HAL_Driver/Src/stm32f4xx_hal_uart.c ****     (+) AbortTransmitCpltCallback : Abort Transmit Complete Callback.
 115:Drivers/STM32F4xx_HAL_Driver/Src/stm32f4xx_hal_uart.c ****     (+) AbortReceiveCpltCallback  : Abort Receive Complete Callback.
 116:Drivers/STM32F4xx_HAL_Driver/Src/stm32f4xx_hal_uart.c ****     (+) MspInitCallback           : UART MspInit.
 117:Drivers/STM32F4xx_HAL_Driver/Src/stm32f4xx_hal_uart.c ****     (+) MspDeInitCallback         : UART MspDeInit.
 118:Drivers/STM32F4xx_HAL_Driver/Src/stm32f4xx_hal_uart.c **** 
 119:Drivers/STM32F4xx_HAL_Driver/Src/stm32f4xx_hal_uart.c ****     [..]
 120:Drivers/STM32F4xx_HAL_Driver/Src/stm32f4xx_hal_uart.c ****     For specific callback RxEventCallback, use dedicated registration/reset functions:
 121:Drivers/STM32F4xx_HAL_Driver/Src/stm32f4xx_hal_uart.c ****     respectively HAL_UART_RegisterRxEventCallback() , HAL_UART_UnRegisterRxEventCallback().
 122:Drivers/STM32F4xx_HAL_Driver/Src/stm32f4xx_hal_uart.c **** 
 123:Drivers/STM32F4xx_HAL_Driver/Src/stm32f4xx_hal_uart.c ****     [..]
 124:Drivers/STM32F4xx_HAL_Driver/Src/stm32f4xx_hal_uart.c ****     By default, after the HAL_UART_Init() and when the state is HAL_UART_STATE_RESET
 125:Drivers/STM32F4xx_HAL_Driver/Src/stm32f4xx_hal_uart.c ****     all callbacks are set to the corresponding weak (surcharged) functions:
 126:Drivers/STM32F4xx_HAL_Driver/Src/stm32f4xx_hal_uart.c ****     examples HAL_UART_TxCpltCallback(), HAL_UART_RxHalfCpltCallback().
 127:Drivers/STM32F4xx_HAL_Driver/Src/stm32f4xx_hal_uart.c ****     Exception done for MspInit and MspDeInit functions that are respectively
 128:Drivers/STM32F4xx_HAL_Driver/Src/stm32f4xx_hal_uart.c ****     reset to the legacy weak (surcharged) functions in the HAL_UART_Init()
 129:Drivers/STM32F4xx_HAL_Driver/Src/stm32f4xx_hal_uart.c ****     and HAL_UART_DeInit() only when these callbacks are null (not registered beforehand).
 130:Drivers/STM32F4xx_HAL_Driver/Src/stm32f4xx_hal_uart.c ****     If not, MspInit or MspDeInit are not null, the HAL_UART_Init() and HAL_UART_DeInit()
 131:Drivers/STM32F4xx_HAL_Driver/Src/stm32f4xx_hal_uart.c ****     keep and use the user MspInit/MspDeInit callbacks (registered beforehand).
 132:Drivers/STM32F4xx_HAL_Driver/Src/stm32f4xx_hal_uart.c **** 
 133:Drivers/STM32F4xx_HAL_Driver/Src/stm32f4xx_hal_uart.c ****     [..]
 134:Drivers/STM32F4xx_HAL_Driver/Src/stm32f4xx_hal_uart.c ****     Callbacks can be registered/unregistered in HAL_UART_STATE_READY state only.
 135:Drivers/STM32F4xx_HAL_Driver/Src/stm32f4xx_hal_uart.c ****     Exception done MspInit/MspDeInit that can be registered/unregistered
 136:Drivers/STM32F4xx_HAL_Driver/Src/stm32f4xx_hal_uart.c ****     in HAL_UART_STATE_READY or HAL_UART_STATE_RESET state, thus registered (user)
 137:Drivers/STM32F4xx_HAL_Driver/Src/stm32f4xx_hal_uart.c ****     MspInit/DeInit callbacks can be used during the Init/DeInit.
 138:Drivers/STM32F4xx_HAL_Driver/Src/stm32f4xx_hal_uart.c ****     In that case first register the MspInit/MspDeInit user callbacks
 139:Drivers/STM32F4xx_HAL_Driver/Src/stm32f4xx_hal_uart.c ****     using HAL_UART_RegisterCallback() before calling HAL_UART_DeInit()
 140:Drivers/STM32F4xx_HAL_Driver/Src/stm32f4xx_hal_uart.c ****     or HAL_UART_Init() function.
 141:Drivers/STM32F4xx_HAL_Driver/Src/stm32f4xx_hal_uart.c **** 
 142:Drivers/STM32F4xx_HAL_Driver/Src/stm32f4xx_hal_uart.c ****     [..]
 143:Drivers/STM32F4xx_HAL_Driver/Src/stm32f4xx_hal_uart.c ****     When The compilation define USE_HAL_UART_REGISTER_CALLBACKS is set to 0 or
 144:Drivers/STM32F4xx_HAL_Driver/Src/stm32f4xx_hal_uart.c ****     not defined, the callback registration feature is not available
ARM GAS  /var/folders/06/9k7gq4t13mj84z2yhw3grvhc0000gn/T//ccfdabgt.s 			page 4


 145:Drivers/STM32F4xx_HAL_Driver/Src/stm32f4xx_hal_uart.c ****     and weak (surcharged) callbacks are used.
 146:Drivers/STM32F4xx_HAL_Driver/Src/stm32f4xx_hal_uart.c **** 
 147:Drivers/STM32F4xx_HAL_Driver/Src/stm32f4xx_hal_uart.c ****      [..]
 148:Drivers/STM32F4xx_HAL_Driver/Src/stm32f4xx_hal_uart.c ****         Three operation modes are available within this driver :
 149:Drivers/STM32F4xx_HAL_Driver/Src/stm32f4xx_hal_uart.c **** 
 150:Drivers/STM32F4xx_HAL_Driver/Src/stm32f4xx_hal_uart.c ****      *** Polling mode IO operation ***
 151:Drivers/STM32F4xx_HAL_Driver/Src/stm32f4xx_hal_uart.c ****      =================================
 152:Drivers/STM32F4xx_HAL_Driver/Src/stm32f4xx_hal_uart.c ****      [..]
 153:Drivers/STM32F4xx_HAL_Driver/Src/stm32f4xx_hal_uart.c ****        (+) Send an amount of data in blocking mode using HAL_UART_Transmit()
 154:Drivers/STM32F4xx_HAL_Driver/Src/stm32f4xx_hal_uart.c ****        (+) Receive an amount of data in blocking mode using HAL_UART_Receive()
 155:Drivers/STM32F4xx_HAL_Driver/Src/stm32f4xx_hal_uart.c **** 
 156:Drivers/STM32F4xx_HAL_Driver/Src/stm32f4xx_hal_uart.c ****      *** Interrupt mode IO operation ***
 157:Drivers/STM32F4xx_HAL_Driver/Src/stm32f4xx_hal_uart.c ****      ===================================
 158:Drivers/STM32F4xx_HAL_Driver/Src/stm32f4xx_hal_uart.c ****      [..]
 159:Drivers/STM32F4xx_HAL_Driver/Src/stm32f4xx_hal_uart.c ****        (+) Send an amount of data in non blocking mode using HAL_UART_Transmit_IT()
 160:Drivers/STM32F4xx_HAL_Driver/Src/stm32f4xx_hal_uart.c ****        (+) At transmission end of transfer HAL_UART_TxCpltCallback is executed and user can
 161:Drivers/STM32F4xx_HAL_Driver/Src/stm32f4xx_hal_uart.c ****             add his own code by customization of function pointer HAL_UART_TxCpltCallback
 162:Drivers/STM32F4xx_HAL_Driver/Src/stm32f4xx_hal_uart.c ****        (+) Receive an amount of data in non blocking mode using HAL_UART_Receive_IT()
 163:Drivers/STM32F4xx_HAL_Driver/Src/stm32f4xx_hal_uart.c ****        (+) At reception end of transfer HAL_UART_RxCpltCallback is executed and user can
 164:Drivers/STM32F4xx_HAL_Driver/Src/stm32f4xx_hal_uart.c ****             add his own code by customization of function pointer HAL_UART_RxCpltCallback
 165:Drivers/STM32F4xx_HAL_Driver/Src/stm32f4xx_hal_uart.c ****        (+) In case of transfer Error, HAL_UART_ErrorCallback() function is executed and user can
 166:Drivers/STM32F4xx_HAL_Driver/Src/stm32f4xx_hal_uart.c ****             add his own code by customization of function pointer HAL_UART_ErrorCallback
 167:Drivers/STM32F4xx_HAL_Driver/Src/stm32f4xx_hal_uart.c **** 
 168:Drivers/STM32F4xx_HAL_Driver/Src/stm32f4xx_hal_uart.c ****      *** DMA mode IO operation ***
 169:Drivers/STM32F4xx_HAL_Driver/Src/stm32f4xx_hal_uart.c ****      ==============================
 170:Drivers/STM32F4xx_HAL_Driver/Src/stm32f4xx_hal_uart.c ****      [..]
 171:Drivers/STM32F4xx_HAL_Driver/Src/stm32f4xx_hal_uart.c ****        (+) Send an amount of data in non blocking mode (DMA) using HAL_UART_Transmit_DMA()
 172:Drivers/STM32F4xx_HAL_Driver/Src/stm32f4xx_hal_uart.c ****        (+) At transmission end of half transfer HAL_UART_TxHalfCpltCallback is executed and user ca
 173:Drivers/STM32F4xx_HAL_Driver/Src/stm32f4xx_hal_uart.c ****             add his own code by customization of function pointer HAL_UART_TxHalfCpltCallback
 174:Drivers/STM32F4xx_HAL_Driver/Src/stm32f4xx_hal_uart.c ****        (+) At transmission end of transfer HAL_UART_TxCpltCallback is executed and user can
 175:Drivers/STM32F4xx_HAL_Driver/Src/stm32f4xx_hal_uart.c ****             add his own code by customization of function pointer HAL_UART_TxCpltCallback
 176:Drivers/STM32F4xx_HAL_Driver/Src/stm32f4xx_hal_uart.c ****        (+) Receive an amount of data in non blocking mode (DMA) using HAL_UART_Receive_DMA()
 177:Drivers/STM32F4xx_HAL_Driver/Src/stm32f4xx_hal_uart.c ****        (+) At reception end of half transfer HAL_UART_RxHalfCpltCallback is executed and user can
 178:Drivers/STM32F4xx_HAL_Driver/Src/stm32f4xx_hal_uart.c ****             add his own code by customization of function pointer HAL_UART_RxHalfCpltCallback
 179:Drivers/STM32F4xx_HAL_Driver/Src/stm32f4xx_hal_uart.c ****        (+) At reception end of transfer HAL_UART_RxCpltCallback is executed and user can
 180:Drivers/STM32F4xx_HAL_Driver/Src/stm32f4xx_hal_uart.c ****             add his own code by customization of function pointer HAL_UART_RxCpltCallback
 181:Drivers/STM32F4xx_HAL_Driver/Src/stm32f4xx_hal_uart.c ****        (+) In case of transfer Error, HAL_UART_ErrorCallback() function is executed and user can
 182:Drivers/STM32F4xx_HAL_Driver/Src/stm32f4xx_hal_uart.c ****             add his own code by customization of function pointer HAL_UART_ErrorCallback
 183:Drivers/STM32F4xx_HAL_Driver/Src/stm32f4xx_hal_uart.c ****        (+) Pause the DMA Transfer using HAL_UART_DMAPause()
 184:Drivers/STM32F4xx_HAL_Driver/Src/stm32f4xx_hal_uart.c ****        (+) Resume the DMA Transfer using HAL_UART_DMAResume()
 185:Drivers/STM32F4xx_HAL_Driver/Src/stm32f4xx_hal_uart.c ****        (+) Stop the DMA Transfer using HAL_UART_DMAStop()
 186:Drivers/STM32F4xx_HAL_Driver/Src/stm32f4xx_hal_uart.c **** 
 187:Drivers/STM32F4xx_HAL_Driver/Src/stm32f4xx_hal_uart.c **** 
 188:Drivers/STM32F4xx_HAL_Driver/Src/stm32f4xx_hal_uart.c ****     [..] This subsection also provides a set of additional functions providing enhanced reception
 189:Drivers/STM32F4xx_HAL_Driver/Src/stm32f4xx_hal_uart.c ****     services to user. (For example, these functions allow application to handle use cases
 190:Drivers/STM32F4xx_HAL_Driver/Src/stm32f4xx_hal_uart.c ****     where number of data to be received is unknown).
 191:Drivers/STM32F4xx_HAL_Driver/Src/stm32f4xx_hal_uart.c **** 
 192:Drivers/STM32F4xx_HAL_Driver/Src/stm32f4xx_hal_uart.c ****     (#) Compared to standard reception services which only consider number of received
 193:Drivers/STM32F4xx_HAL_Driver/Src/stm32f4xx_hal_uart.c ****         data elements as reception completion criteria, these functions also consider additional ev
 194:Drivers/STM32F4xx_HAL_Driver/Src/stm32f4xx_hal_uart.c ****         as triggers for updating reception status to caller :
 195:Drivers/STM32F4xx_HAL_Driver/Src/stm32f4xx_hal_uart.c ****        (+) Detection of inactivity period (RX line has not been active for a given period).
 196:Drivers/STM32F4xx_HAL_Driver/Src/stm32f4xx_hal_uart.c ****           (++) RX inactivity detected by IDLE event, i.e. RX line has been in idle state (normally 
 197:Drivers/STM32F4xx_HAL_Driver/Src/stm32f4xx_hal_uart.c ****                for 1 frame time, after last received byte.
 198:Drivers/STM32F4xx_HAL_Driver/Src/stm32f4xx_hal_uart.c **** 
 199:Drivers/STM32F4xx_HAL_Driver/Src/stm32f4xx_hal_uart.c ****     (#) There are two mode of transfer:
 200:Drivers/STM32F4xx_HAL_Driver/Src/stm32f4xx_hal_uart.c ****        (+) Blocking mode: The reception is performed in polling mode, until either expected number 
 201:Drivers/STM32F4xx_HAL_Driver/Src/stm32f4xx_hal_uart.c ****            or till IDLE event occurs. Reception is handled only during function execution.
ARM GAS  /var/folders/06/9k7gq4t13mj84z2yhw3grvhc0000gn/T//ccfdabgt.s 			page 5


 202:Drivers/STM32F4xx_HAL_Driver/Src/stm32f4xx_hal_uart.c ****            When function exits, no data reception could occur. HAL status and number of actually re
 203:Drivers/STM32F4xx_HAL_Driver/Src/stm32f4xx_hal_uart.c ****            are returned by function after finishing transfer.
 204:Drivers/STM32F4xx_HAL_Driver/Src/stm32f4xx_hal_uart.c ****        (+) Non-Blocking mode: The reception is performed using Interrupts or DMA.
 205:Drivers/STM32F4xx_HAL_Driver/Src/stm32f4xx_hal_uart.c ****            These API's return the HAL status.
 206:Drivers/STM32F4xx_HAL_Driver/Src/stm32f4xx_hal_uart.c ****            The end of the data processing will be indicated through the
 207:Drivers/STM32F4xx_HAL_Driver/Src/stm32f4xx_hal_uart.c ****            dedicated UART IRQ when using Interrupt mode or the DMA IRQ when using DMA mode.
 208:Drivers/STM32F4xx_HAL_Driver/Src/stm32f4xx_hal_uart.c ****            The HAL_UARTEx_RxEventCallback() user callback will be executed during Receive process
 209:Drivers/STM32F4xx_HAL_Driver/Src/stm32f4xx_hal_uart.c ****            The HAL_UART_ErrorCallback()user callback will be executed when a reception error is det
 210:Drivers/STM32F4xx_HAL_Driver/Src/stm32f4xx_hal_uart.c **** 
 211:Drivers/STM32F4xx_HAL_Driver/Src/stm32f4xx_hal_uart.c ****     (#) Blocking mode API:
 212:Drivers/STM32F4xx_HAL_Driver/Src/stm32f4xx_hal_uart.c ****         (+) HAL_UARTEx_ReceiveToIdle()
 213:Drivers/STM32F4xx_HAL_Driver/Src/stm32f4xx_hal_uart.c **** 
 214:Drivers/STM32F4xx_HAL_Driver/Src/stm32f4xx_hal_uart.c ****     (#) Non-Blocking mode API with Interrupt:
 215:Drivers/STM32F4xx_HAL_Driver/Src/stm32f4xx_hal_uart.c ****         (+) HAL_UARTEx_ReceiveToIdle_IT()
 216:Drivers/STM32F4xx_HAL_Driver/Src/stm32f4xx_hal_uart.c **** 
 217:Drivers/STM32F4xx_HAL_Driver/Src/stm32f4xx_hal_uart.c ****     (#) Non-Blocking mode API with DMA:
 218:Drivers/STM32F4xx_HAL_Driver/Src/stm32f4xx_hal_uart.c ****         (+) HAL_UARTEx_ReceiveToIdle_DMA()
 219:Drivers/STM32F4xx_HAL_Driver/Src/stm32f4xx_hal_uart.c **** 
 220:Drivers/STM32F4xx_HAL_Driver/Src/stm32f4xx_hal_uart.c **** 
 221:Drivers/STM32F4xx_HAL_Driver/Src/stm32f4xx_hal_uart.c ****      *** UART HAL driver macros list ***
 222:Drivers/STM32F4xx_HAL_Driver/Src/stm32f4xx_hal_uart.c ****      =============================================
 223:Drivers/STM32F4xx_HAL_Driver/Src/stm32f4xx_hal_uart.c ****      [..]
 224:Drivers/STM32F4xx_HAL_Driver/Src/stm32f4xx_hal_uart.c ****        Below the list of most used macros in UART HAL driver.
 225:Drivers/STM32F4xx_HAL_Driver/Src/stm32f4xx_hal_uart.c **** 
 226:Drivers/STM32F4xx_HAL_Driver/Src/stm32f4xx_hal_uart.c ****       (+) __HAL_UART_ENABLE: Enable the UART peripheral
 227:Drivers/STM32F4xx_HAL_Driver/Src/stm32f4xx_hal_uart.c ****       (+) __HAL_UART_DISABLE: Disable the UART peripheral
 228:Drivers/STM32F4xx_HAL_Driver/Src/stm32f4xx_hal_uart.c ****       (+) __HAL_UART_GET_FLAG : Check whether the specified UART flag is set or not
 229:Drivers/STM32F4xx_HAL_Driver/Src/stm32f4xx_hal_uart.c ****       (+) __HAL_UART_CLEAR_FLAG : Clear the specified UART pending flag
 230:Drivers/STM32F4xx_HAL_Driver/Src/stm32f4xx_hal_uart.c ****       (+) __HAL_UART_ENABLE_IT: Enable the specified UART interrupt
 231:Drivers/STM32F4xx_HAL_Driver/Src/stm32f4xx_hal_uart.c ****       (+) __HAL_UART_DISABLE_IT: Disable the specified UART interrupt
 232:Drivers/STM32F4xx_HAL_Driver/Src/stm32f4xx_hal_uart.c ****       (+) __HAL_UART_GET_IT_SOURCE: Check whether the specified UART interrupt has occurred or not
 233:Drivers/STM32F4xx_HAL_Driver/Src/stm32f4xx_hal_uart.c **** 
 234:Drivers/STM32F4xx_HAL_Driver/Src/stm32f4xx_hal_uart.c ****      [..]
 235:Drivers/STM32F4xx_HAL_Driver/Src/stm32f4xx_hal_uart.c ****        (@) You can refer to the UART HAL driver header file for more useful macros
 236:Drivers/STM32F4xx_HAL_Driver/Src/stm32f4xx_hal_uart.c **** 
 237:Drivers/STM32F4xx_HAL_Driver/Src/stm32f4xx_hal_uart.c ****   @endverbatim
 238:Drivers/STM32F4xx_HAL_Driver/Src/stm32f4xx_hal_uart.c ****      [..]
 239:Drivers/STM32F4xx_HAL_Driver/Src/stm32f4xx_hal_uart.c ****        (@) Additional remark: If the parity is enabled, then the MSB bit of the data written
 240:Drivers/STM32F4xx_HAL_Driver/Src/stm32f4xx_hal_uart.c ****            in the data register is transmitted but is changed by the parity bit.
 241:Drivers/STM32F4xx_HAL_Driver/Src/stm32f4xx_hal_uart.c ****            Depending on the frame length defined by the M bit (8-bits or 9-bits),
 242:Drivers/STM32F4xx_HAL_Driver/Src/stm32f4xx_hal_uart.c ****            the possible UART frame formats are as listed in the following table:
 243:Drivers/STM32F4xx_HAL_Driver/Src/stm32f4xx_hal_uart.c ****     +-------------------------------------------------------------+
 244:Drivers/STM32F4xx_HAL_Driver/Src/stm32f4xx_hal_uart.c ****     |   M bit |  PCE bit  |            UART frame                 |
 245:Drivers/STM32F4xx_HAL_Driver/Src/stm32f4xx_hal_uart.c ****     |---------------------|---------------------------------------|
 246:Drivers/STM32F4xx_HAL_Driver/Src/stm32f4xx_hal_uart.c ****     |    0    |    0      |    | SB | 8 bit data | STB |          |
 247:Drivers/STM32F4xx_HAL_Driver/Src/stm32f4xx_hal_uart.c ****     |---------|-----------|---------------------------------------|
 248:Drivers/STM32F4xx_HAL_Driver/Src/stm32f4xx_hal_uart.c ****     |    0    |    1      |    | SB | 7 bit data | PB | STB |     |
 249:Drivers/STM32F4xx_HAL_Driver/Src/stm32f4xx_hal_uart.c ****     |---------|-----------|---------------------------------------|
 250:Drivers/STM32F4xx_HAL_Driver/Src/stm32f4xx_hal_uart.c ****     |    1    |    0      |    | SB | 9 bit data | STB |          |
 251:Drivers/STM32F4xx_HAL_Driver/Src/stm32f4xx_hal_uart.c ****     |---------|-----------|---------------------------------------|
 252:Drivers/STM32F4xx_HAL_Driver/Src/stm32f4xx_hal_uart.c ****     |    1    |    1      |    | SB | 8 bit data | PB | STB |     |
 253:Drivers/STM32F4xx_HAL_Driver/Src/stm32f4xx_hal_uart.c ****     +-------------------------------------------------------------+
 254:Drivers/STM32F4xx_HAL_Driver/Src/stm32f4xx_hal_uart.c ****   ******************************************************************************
 255:Drivers/STM32F4xx_HAL_Driver/Src/stm32f4xx_hal_uart.c ****   */
 256:Drivers/STM32F4xx_HAL_Driver/Src/stm32f4xx_hal_uart.c **** 
 257:Drivers/STM32F4xx_HAL_Driver/Src/stm32f4xx_hal_uart.c **** /* Includes ------------------------------------------------------------------*/
 258:Drivers/STM32F4xx_HAL_Driver/Src/stm32f4xx_hal_uart.c **** #include "stm32f4xx_hal.h"
ARM GAS  /var/folders/06/9k7gq4t13mj84z2yhw3grvhc0000gn/T//ccfdabgt.s 			page 6


 259:Drivers/STM32F4xx_HAL_Driver/Src/stm32f4xx_hal_uart.c **** 
 260:Drivers/STM32F4xx_HAL_Driver/Src/stm32f4xx_hal_uart.c **** /** @addtogroup STM32F4xx_HAL_Driver
 261:Drivers/STM32F4xx_HAL_Driver/Src/stm32f4xx_hal_uart.c ****   * @{
 262:Drivers/STM32F4xx_HAL_Driver/Src/stm32f4xx_hal_uart.c ****   */
 263:Drivers/STM32F4xx_HAL_Driver/Src/stm32f4xx_hal_uart.c **** 
 264:Drivers/STM32F4xx_HAL_Driver/Src/stm32f4xx_hal_uart.c **** /** @defgroup UART UART
 265:Drivers/STM32F4xx_HAL_Driver/Src/stm32f4xx_hal_uart.c ****   * @brief HAL UART module driver
 266:Drivers/STM32F4xx_HAL_Driver/Src/stm32f4xx_hal_uart.c ****   * @{
 267:Drivers/STM32F4xx_HAL_Driver/Src/stm32f4xx_hal_uart.c ****   */
 268:Drivers/STM32F4xx_HAL_Driver/Src/stm32f4xx_hal_uart.c **** #ifdef HAL_UART_MODULE_ENABLED
 269:Drivers/STM32F4xx_HAL_Driver/Src/stm32f4xx_hal_uart.c **** 
 270:Drivers/STM32F4xx_HAL_Driver/Src/stm32f4xx_hal_uart.c **** /* Private typedef -----------------------------------------------------------*/
 271:Drivers/STM32F4xx_HAL_Driver/Src/stm32f4xx_hal_uart.c **** /* Private define ------------------------------------------------------------*/
 272:Drivers/STM32F4xx_HAL_Driver/Src/stm32f4xx_hal_uart.c **** /** @addtogroup UART_Private_Constants
 273:Drivers/STM32F4xx_HAL_Driver/Src/stm32f4xx_hal_uart.c ****   * @{
 274:Drivers/STM32F4xx_HAL_Driver/Src/stm32f4xx_hal_uart.c ****   */
 275:Drivers/STM32F4xx_HAL_Driver/Src/stm32f4xx_hal_uart.c **** /**
 276:Drivers/STM32F4xx_HAL_Driver/Src/stm32f4xx_hal_uart.c ****   * @}
 277:Drivers/STM32F4xx_HAL_Driver/Src/stm32f4xx_hal_uart.c ****   */
 278:Drivers/STM32F4xx_HAL_Driver/Src/stm32f4xx_hal_uart.c **** /* Private macro -------------------------------------------------------------*/
 279:Drivers/STM32F4xx_HAL_Driver/Src/stm32f4xx_hal_uart.c **** /* Private variables ---------------------------------------------------------*/
 280:Drivers/STM32F4xx_HAL_Driver/Src/stm32f4xx_hal_uart.c **** /* Private function prototypes -----------------------------------------------*/
 281:Drivers/STM32F4xx_HAL_Driver/Src/stm32f4xx_hal_uart.c **** /** @addtogroup UART_Private_Functions  UART Private Functions
 282:Drivers/STM32F4xx_HAL_Driver/Src/stm32f4xx_hal_uart.c ****   * @{
 283:Drivers/STM32F4xx_HAL_Driver/Src/stm32f4xx_hal_uart.c ****   */
 284:Drivers/STM32F4xx_HAL_Driver/Src/stm32f4xx_hal_uart.c **** 
 285:Drivers/STM32F4xx_HAL_Driver/Src/stm32f4xx_hal_uart.c **** #if (USE_HAL_UART_REGISTER_CALLBACKS == 1)
 286:Drivers/STM32F4xx_HAL_Driver/Src/stm32f4xx_hal_uart.c **** void UART_InitCallbacksToDefault(UART_HandleTypeDef *huart);
 287:Drivers/STM32F4xx_HAL_Driver/Src/stm32f4xx_hal_uart.c **** #endif /* USE_HAL_UART_REGISTER_CALLBACKS */
 288:Drivers/STM32F4xx_HAL_Driver/Src/stm32f4xx_hal_uart.c **** static void UART_EndTxTransfer(UART_HandleTypeDef *huart);
 289:Drivers/STM32F4xx_HAL_Driver/Src/stm32f4xx_hal_uart.c **** static void UART_EndRxTransfer(UART_HandleTypeDef *huart);
 290:Drivers/STM32F4xx_HAL_Driver/Src/stm32f4xx_hal_uart.c **** static void UART_DMATransmitCplt(DMA_HandleTypeDef *hdma);
 291:Drivers/STM32F4xx_HAL_Driver/Src/stm32f4xx_hal_uart.c **** static void UART_DMAReceiveCplt(DMA_HandleTypeDef *hdma);
 292:Drivers/STM32F4xx_HAL_Driver/Src/stm32f4xx_hal_uart.c **** static void UART_DMATxHalfCplt(DMA_HandleTypeDef *hdma);
 293:Drivers/STM32F4xx_HAL_Driver/Src/stm32f4xx_hal_uart.c **** static void UART_DMARxHalfCplt(DMA_HandleTypeDef *hdma);
 294:Drivers/STM32F4xx_HAL_Driver/Src/stm32f4xx_hal_uart.c **** static void UART_DMAError(DMA_HandleTypeDef *hdma);
 295:Drivers/STM32F4xx_HAL_Driver/Src/stm32f4xx_hal_uart.c **** static void UART_DMAAbortOnError(DMA_HandleTypeDef *hdma);
 296:Drivers/STM32F4xx_HAL_Driver/Src/stm32f4xx_hal_uart.c **** static void UART_DMATxAbortCallback(DMA_HandleTypeDef *hdma);
 297:Drivers/STM32F4xx_HAL_Driver/Src/stm32f4xx_hal_uart.c **** static void UART_DMARxAbortCallback(DMA_HandleTypeDef *hdma);
 298:Drivers/STM32F4xx_HAL_Driver/Src/stm32f4xx_hal_uart.c **** static void UART_DMATxOnlyAbortCallback(DMA_HandleTypeDef *hdma);
 299:Drivers/STM32F4xx_HAL_Driver/Src/stm32f4xx_hal_uart.c **** static void UART_DMARxOnlyAbortCallback(DMA_HandleTypeDef *hdma);
 300:Drivers/STM32F4xx_HAL_Driver/Src/stm32f4xx_hal_uart.c **** static HAL_StatusTypeDef UART_Transmit_IT(UART_HandleTypeDef *huart);
 301:Drivers/STM32F4xx_HAL_Driver/Src/stm32f4xx_hal_uart.c **** static HAL_StatusTypeDef UART_EndTransmit_IT(UART_HandleTypeDef *huart);
 302:Drivers/STM32F4xx_HAL_Driver/Src/stm32f4xx_hal_uart.c **** static HAL_StatusTypeDef UART_Receive_IT(UART_HandleTypeDef *huart);
 303:Drivers/STM32F4xx_HAL_Driver/Src/stm32f4xx_hal_uart.c **** static HAL_StatusTypeDef UART_WaitOnFlagUntilTimeout(UART_HandleTypeDef *huart, uint32_t Flag, Flag
 304:Drivers/STM32F4xx_HAL_Driver/Src/stm32f4xx_hal_uart.c ****                                                      uint32_t Tickstart, uint32_t Timeout);
 305:Drivers/STM32F4xx_HAL_Driver/Src/stm32f4xx_hal_uart.c **** static void UART_SetConfig(UART_HandleTypeDef *huart);
 306:Drivers/STM32F4xx_HAL_Driver/Src/stm32f4xx_hal_uart.c **** 
 307:Drivers/STM32F4xx_HAL_Driver/Src/stm32f4xx_hal_uart.c **** /**
 308:Drivers/STM32F4xx_HAL_Driver/Src/stm32f4xx_hal_uart.c ****   * @}
 309:Drivers/STM32F4xx_HAL_Driver/Src/stm32f4xx_hal_uart.c ****   */
 310:Drivers/STM32F4xx_HAL_Driver/Src/stm32f4xx_hal_uart.c **** 
 311:Drivers/STM32F4xx_HAL_Driver/Src/stm32f4xx_hal_uart.c **** /* Exported functions ---------------------------------------------------------*/
 312:Drivers/STM32F4xx_HAL_Driver/Src/stm32f4xx_hal_uart.c **** /** @defgroup UART_Exported_Functions UART Exported Functions
 313:Drivers/STM32F4xx_HAL_Driver/Src/stm32f4xx_hal_uart.c ****   * @{
 314:Drivers/STM32F4xx_HAL_Driver/Src/stm32f4xx_hal_uart.c ****   */
 315:Drivers/STM32F4xx_HAL_Driver/Src/stm32f4xx_hal_uart.c **** 
ARM GAS  /var/folders/06/9k7gq4t13mj84z2yhw3grvhc0000gn/T//ccfdabgt.s 			page 7


 316:Drivers/STM32F4xx_HAL_Driver/Src/stm32f4xx_hal_uart.c **** /** @defgroup UART_Exported_Functions_Group1 Initialization and de-initialization functions
 317:Drivers/STM32F4xx_HAL_Driver/Src/stm32f4xx_hal_uart.c ****   *  @brief    Initialization and Configuration functions
 318:Drivers/STM32F4xx_HAL_Driver/Src/stm32f4xx_hal_uart.c ****   *
 319:Drivers/STM32F4xx_HAL_Driver/Src/stm32f4xx_hal_uart.c **** @verbatim
 320:Drivers/STM32F4xx_HAL_Driver/Src/stm32f4xx_hal_uart.c ****  ===============================================================================
 321:Drivers/STM32F4xx_HAL_Driver/Src/stm32f4xx_hal_uart.c ****             ##### Initialization and Configuration functions #####
 322:Drivers/STM32F4xx_HAL_Driver/Src/stm32f4xx_hal_uart.c ****  ===============================================================================
 323:Drivers/STM32F4xx_HAL_Driver/Src/stm32f4xx_hal_uart.c ****     [..]
 324:Drivers/STM32F4xx_HAL_Driver/Src/stm32f4xx_hal_uart.c ****     This subsection provides a set of functions allowing to initialize the USARTx or the UARTy
 325:Drivers/STM32F4xx_HAL_Driver/Src/stm32f4xx_hal_uart.c ****     in asynchronous mode.
 326:Drivers/STM32F4xx_HAL_Driver/Src/stm32f4xx_hal_uart.c ****       (+) For the asynchronous mode only these parameters can be configured:
 327:Drivers/STM32F4xx_HAL_Driver/Src/stm32f4xx_hal_uart.c ****         (++) Baud Rate
 328:Drivers/STM32F4xx_HAL_Driver/Src/stm32f4xx_hal_uart.c ****         (++) Word Length
 329:Drivers/STM32F4xx_HAL_Driver/Src/stm32f4xx_hal_uart.c ****         (++) Stop Bit
 330:Drivers/STM32F4xx_HAL_Driver/Src/stm32f4xx_hal_uart.c ****         (++) Parity: If the parity is enabled, then the MSB bit of the data written
 331:Drivers/STM32F4xx_HAL_Driver/Src/stm32f4xx_hal_uart.c ****              in the data register is transmitted but is changed by the parity bit.
 332:Drivers/STM32F4xx_HAL_Driver/Src/stm32f4xx_hal_uart.c ****              Depending on the frame length defined by the M bit (8-bits or 9-bits),
 333:Drivers/STM32F4xx_HAL_Driver/Src/stm32f4xx_hal_uart.c ****              please refer to Reference manual for possible UART frame formats.
 334:Drivers/STM32F4xx_HAL_Driver/Src/stm32f4xx_hal_uart.c ****         (++) Hardware flow control
 335:Drivers/STM32F4xx_HAL_Driver/Src/stm32f4xx_hal_uart.c ****         (++) Receiver/transmitter modes
 336:Drivers/STM32F4xx_HAL_Driver/Src/stm32f4xx_hal_uart.c ****         (++) Over Sampling Method
 337:Drivers/STM32F4xx_HAL_Driver/Src/stm32f4xx_hal_uart.c ****     [..]
 338:Drivers/STM32F4xx_HAL_Driver/Src/stm32f4xx_hal_uart.c ****     The HAL_UART_Init(), HAL_HalfDuplex_Init(), HAL_LIN_Init() and HAL_MultiProcessor_Init() APIs
 339:Drivers/STM32F4xx_HAL_Driver/Src/stm32f4xx_hal_uart.c ****     follow respectively the UART asynchronous, UART Half duplex, LIN and Multi-Processor configurat
 340:Drivers/STM32F4xx_HAL_Driver/Src/stm32f4xx_hal_uart.c ****     procedures (details for the procedures are available in reference manual
 341:Drivers/STM32F4xx_HAL_Driver/Src/stm32f4xx_hal_uart.c ****     (RM0430 for STM32F4X3xx MCUs and RM0402 for STM32F412xx MCUs
 342:Drivers/STM32F4xx_HAL_Driver/Src/stm32f4xx_hal_uart.c ****      RM0383 for STM32F411xC/E MCUs and RM0401 for STM32F410xx MCUs
 343:Drivers/STM32F4xx_HAL_Driver/Src/stm32f4xx_hal_uart.c ****      RM0090 for STM32F4X5xx/STM32F4X7xx/STM32F429xx/STM32F439xx MCUs
 344:Drivers/STM32F4xx_HAL_Driver/Src/stm32f4xx_hal_uart.c ****      RM0390 for STM32F446xx MCUs and RM0386 for STM32F469xx/STM32F479xx MCUs)).
 345:Drivers/STM32F4xx_HAL_Driver/Src/stm32f4xx_hal_uart.c **** 
 346:Drivers/STM32F4xx_HAL_Driver/Src/stm32f4xx_hal_uart.c **** @endverbatim
 347:Drivers/STM32F4xx_HAL_Driver/Src/stm32f4xx_hal_uart.c ****   * @{
 348:Drivers/STM32F4xx_HAL_Driver/Src/stm32f4xx_hal_uart.c ****   */
 349:Drivers/STM32F4xx_HAL_Driver/Src/stm32f4xx_hal_uart.c **** 
 350:Drivers/STM32F4xx_HAL_Driver/Src/stm32f4xx_hal_uart.c **** /**
 351:Drivers/STM32F4xx_HAL_Driver/Src/stm32f4xx_hal_uart.c ****   * @brief  Initializes the UART mode according to the specified parameters in
 352:Drivers/STM32F4xx_HAL_Driver/Src/stm32f4xx_hal_uart.c ****   *         the UART_InitTypeDef and create the associated handle.
 353:Drivers/STM32F4xx_HAL_Driver/Src/stm32f4xx_hal_uart.c ****   * @param  huart  Pointer to a UART_HandleTypeDef structure that contains
 354:Drivers/STM32F4xx_HAL_Driver/Src/stm32f4xx_hal_uart.c ****   *                the configuration information for the specified UART module.
 355:Drivers/STM32F4xx_HAL_Driver/Src/stm32f4xx_hal_uart.c ****   * @retval HAL status
 356:Drivers/STM32F4xx_HAL_Driver/Src/stm32f4xx_hal_uart.c ****   */
 357:Drivers/STM32F4xx_HAL_Driver/Src/stm32f4xx_hal_uart.c **** HAL_StatusTypeDef HAL_UART_Init(UART_HandleTypeDef *huart)
 358:Drivers/STM32F4xx_HAL_Driver/Src/stm32f4xx_hal_uart.c **** {
  29              		.loc 1 358 1
  30              		.cfi_startproc
  31              		@ args = 0, pretend = 0, frame = 8
  32              		@ frame_needed = 1, uses_anonymous_args = 0
  33 0000 80B5     		push	{r7, lr}
  34              	.LCFI0:
  35              		.cfi_def_cfa_offset 8
  36              		.cfi_offset 7, -8
  37              		.cfi_offset 14, -4
  38 0002 82B0     		sub	sp, sp, #8
  39              	.LCFI1:
  40              		.cfi_def_cfa_offset 16
  41 0004 00AF     		add	r7, sp, #0
  42              	.LCFI2:
ARM GAS  /var/folders/06/9k7gq4t13mj84z2yhw3grvhc0000gn/T//ccfdabgt.s 			page 8


  43              		.cfi_def_cfa_register 7
  44 0006 7860     		str	r0, [r7, #4]
 359:Drivers/STM32F4xx_HAL_Driver/Src/stm32f4xx_hal_uart.c ****   /* Check the UART handle allocation */
 360:Drivers/STM32F4xx_HAL_Driver/Src/stm32f4xx_hal_uart.c ****   if (huart == NULL)
  45              		.loc 1 360 6
  46 0008 7B68     		ldr	r3, [r7, #4]
  47 000a 002B     		cmp	r3, #0
  48 000c 01D1     		bne	.L2
 361:Drivers/STM32F4xx_HAL_Driver/Src/stm32f4xx_hal_uart.c ****   {
 362:Drivers/STM32F4xx_HAL_Driver/Src/stm32f4xx_hal_uart.c ****     return HAL_ERROR;
  49              		.loc 1 362 12
  50 000e 0123     		movs	r3, #1
  51 0010 42E0     		b	.L3
  52              	.L2:
 363:Drivers/STM32F4xx_HAL_Driver/Src/stm32f4xx_hal_uart.c ****   }
 364:Drivers/STM32F4xx_HAL_Driver/Src/stm32f4xx_hal_uart.c **** 
 365:Drivers/STM32F4xx_HAL_Driver/Src/stm32f4xx_hal_uart.c ****   /* Check the parameters */
 366:Drivers/STM32F4xx_HAL_Driver/Src/stm32f4xx_hal_uart.c ****   if (huart->Init.HwFlowCtl != UART_HWCONTROL_NONE)
 367:Drivers/STM32F4xx_HAL_Driver/Src/stm32f4xx_hal_uart.c ****   {
 368:Drivers/STM32F4xx_HAL_Driver/Src/stm32f4xx_hal_uart.c ****     /* The hardware flow control is available only for USART1, USART2, USART3 and USART6.
 369:Drivers/STM32F4xx_HAL_Driver/Src/stm32f4xx_hal_uart.c ****        Except for STM32F446xx devices, that is available for USART1, USART2, USART3, USART6, UART4 
 370:Drivers/STM32F4xx_HAL_Driver/Src/stm32f4xx_hal_uart.c ****     */
 371:Drivers/STM32F4xx_HAL_Driver/Src/stm32f4xx_hal_uart.c ****     assert_param(IS_UART_HWFLOW_INSTANCE(huart->Instance));
 372:Drivers/STM32F4xx_HAL_Driver/Src/stm32f4xx_hal_uart.c ****     assert_param(IS_UART_HARDWARE_FLOW_CONTROL(huart->Init.HwFlowCtl));
 373:Drivers/STM32F4xx_HAL_Driver/Src/stm32f4xx_hal_uart.c ****   }
 374:Drivers/STM32F4xx_HAL_Driver/Src/stm32f4xx_hal_uart.c ****   else
 375:Drivers/STM32F4xx_HAL_Driver/Src/stm32f4xx_hal_uart.c ****   {
 376:Drivers/STM32F4xx_HAL_Driver/Src/stm32f4xx_hal_uart.c ****     assert_param(IS_UART_INSTANCE(huart->Instance));
 377:Drivers/STM32F4xx_HAL_Driver/Src/stm32f4xx_hal_uart.c ****   }
 378:Drivers/STM32F4xx_HAL_Driver/Src/stm32f4xx_hal_uart.c ****   assert_param(IS_UART_WORD_LENGTH(huart->Init.WordLength));
 379:Drivers/STM32F4xx_HAL_Driver/Src/stm32f4xx_hal_uart.c ****   assert_param(IS_UART_OVERSAMPLING(huart->Init.OverSampling));
 380:Drivers/STM32F4xx_HAL_Driver/Src/stm32f4xx_hal_uart.c **** 
 381:Drivers/STM32F4xx_HAL_Driver/Src/stm32f4xx_hal_uart.c ****   if (huart->gState == HAL_UART_STATE_RESET)
  53              		.loc 1 381 12
  54 0012 7B68     		ldr	r3, [r7, #4]
  55 0014 93F84130 		ldrb	r3, [r3, #65]
  56 0018 DBB2     		uxtb	r3, r3
  57              		.loc 1 381 6
  58 001a 002B     		cmp	r3, #0
  59 001c 06D1     		bne	.L4
 382:Drivers/STM32F4xx_HAL_Driver/Src/stm32f4xx_hal_uart.c ****   {
 383:Drivers/STM32F4xx_HAL_Driver/Src/stm32f4xx_hal_uart.c ****     /* Allocate lock resource and initialize it */
 384:Drivers/STM32F4xx_HAL_Driver/Src/stm32f4xx_hal_uart.c ****     huart->Lock = HAL_UNLOCKED;
  60              		.loc 1 384 17
  61 001e 7B68     		ldr	r3, [r7, #4]
  62 0020 0022     		movs	r2, #0
  63 0022 83F84020 		strb	r2, [r3, #64]
 385:Drivers/STM32F4xx_HAL_Driver/Src/stm32f4xx_hal_uart.c **** 
 386:Drivers/STM32F4xx_HAL_Driver/Src/stm32f4xx_hal_uart.c **** #if (USE_HAL_UART_REGISTER_CALLBACKS == 1)
 387:Drivers/STM32F4xx_HAL_Driver/Src/stm32f4xx_hal_uart.c ****     UART_InitCallbacksToDefault(huart);
 388:Drivers/STM32F4xx_HAL_Driver/Src/stm32f4xx_hal_uart.c **** 
 389:Drivers/STM32F4xx_HAL_Driver/Src/stm32f4xx_hal_uart.c ****     if (huart->MspInitCallback == NULL)
 390:Drivers/STM32F4xx_HAL_Driver/Src/stm32f4xx_hal_uart.c ****     {
 391:Drivers/STM32F4xx_HAL_Driver/Src/stm32f4xx_hal_uart.c ****       huart->MspInitCallback = HAL_UART_MspInit;
 392:Drivers/STM32F4xx_HAL_Driver/Src/stm32f4xx_hal_uart.c ****     }
 393:Drivers/STM32F4xx_HAL_Driver/Src/stm32f4xx_hal_uart.c **** 
 394:Drivers/STM32F4xx_HAL_Driver/Src/stm32f4xx_hal_uart.c ****     /* Init the low level hardware */
ARM GAS  /var/folders/06/9k7gq4t13mj84z2yhw3grvhc0000gn/T//ccfdabgt.s 			page 9


 395:Drivers/STM32F4xx_HAL_Driver/Src/stm32f4xx_hal_uart.c ****     huart->MspInitCallback(huart);
 396:Drivers/STM32F4xx_HAL_Driver/Src/stm32f4xx_hal_uart.c **** #else
 397:Drivers/STM32F4xx_HAL_Driver/Src/stm32f4xx_hal_uart.c ****     /* Init the low level hardware : GPIO, CLOCK */
 398:Drivers/STM32F4xx_HAL_Driver/Src/stm32f4xx_hal_uart.c ****     HAL_UART_MspInit(huart);
  64              		.loc 1 398 5
  65 0026 7868     		ldr	r0, [r7, #4]
  66 0028 FFF7FEFF 		bl	HAL_UART_MspInit
  67              	.L4:
 399:Drivers/STM32F4xx_HAL_Driver/Src/stm32f4xx_hal_uart.c **** #endif /* (USE_HAL_UART_REGISTER_CALLBACKS) */
 400:Drivers/STM32F4xx_HAL_Driver/Src/stm32f4xx_hal_uart.c ****   }
 401:Drivers/STM32F4xx_HAL_Driver/Src/stm32f4xx_hal_uart.c **** 
 402:Drivers/STM32F4xx_HAL_Driver/Src/stm32f4xx_hal_uart.c ****   huart->gState = HAL_UART_STATE_BUSY;
  68              		.loc 1 402 17
  69 002c 7B68     		ldr	r3, [r7, #4]
  70 002e 2422     		movs	r2, #36
  71 0030 83F84120 		strb	r2, [r3, #65]
 403:Drivers/STM32F4xx_HAL_Driver/Src/stm32f4xx_hal_uart.c **** 
 404:Drivers/STM32F4xx_HAL_Driver/Src/stm32f4xx_hal_uart.c ****   /* Disable the peripheral */
 405:Drivers/STM32F4xx_HAL_Driver/Src/stm32f4xx_hal_uart.c ****   __HAL_UART_DISABLE(huart);
  72              		.loc 1 405 3
  73 0034 7B68     		ldr	r3, [r7, #4]
  74 0036 1B68     		ldr	r3, [r3]
  75 0038 DA68     		ldr	r2, [r3, #12]
  76 003a 7B68     		ldr	r3, [r7, #4]
  77 003c 1B68     		ldr	r3, [r3]
  78 003e 22F40052 		bic	r2, r2, #8192
  79 0042 DA60     		str	r2, [r3, #12]
 406:Drivers/STM32F4xx_HAL_Driver/Src/stm32f4xx_hal_uart.c **** 
 407:Drivers/STM32F4xx_HAL_Driver/Src/stm32f4xx_hal_uart.c ****   /* Set the UART Communication parameters */
 408:Drivers/STM32F4xx_HAL_Driver/Src/stm32f4xx_hal_uart.c ****   UART_SetConfig(huart);
  80              		.loc 1 408 3
  81 0044 7868     		ldr	r0, [r7, #4]
  82 0046 FFF7FEFF 		bl	UART_SetConfig
 409:Drivers/STM32F4xx_HAL_Driver/Src/stm32f4xx_hal_uart.c **** 
 410:Drivers/STM32F4xx_HAL_Driver/Src/stm32f4xx_hal_uart.c ****   /* In asynchronous mode, the following bits must be kept cleared:
 411:Drivers/STM32F4xx_HAL_Driver/Src/stm32f4xx_hal_uart.c ****      - LINEN and CLKEN bits in the USART_CR2 register,
 412:Drivers/STM32F4xx_HAL_Driver/Src/stm32f4xx_hal_uart.c ****      - SCEN, HDSEL and IREN  bits in the USART_CR3 register.*/
 413:Drivers/STM32F4xx_HAL_Driver/Src/stm32f4xx_hal_uart.c ****   CLEAR_BIT(huart->Instance->CR2, (USART_CR2_LINEN | USART_CR2_CLKEN));
  83              		.loc 1 413 3
  84 004a 7B68     		ldr	r3, [r7, #4]
  85 004c 1B68     		ldr	r3, [r3]
  86 004e 1A69     		ldr	r2, [r3, #16]
  87 0050 7B68     		ldr	r3, [r7, #4]
  88 0052 1B68     		ldr	r3, [r3]
  89 0054 22F49042 		bic	r2, r2, #18432
  90 0058 1A61     		str	r2, [r3, #16]
 414:Drivers/STM32F4xx_HAL_Driver/Src/stm32f4xx_hal_uart.c ****   CLEAR_BIT(huart->Instance->CR3, (USART_CR3_SCEN | USART_CR3_HDSEL | USART_CR3_IREN));
  91              		.loc 1 414 3
  92 005a 7B68     		ldr	r3, [r7, #4]
  93 005c 1B68     		ldr	r3, [r3]
  94 005e 5A69     		ldr	r2, [r3, #20]
  95 0060 7B68     		ldr	r3, [r7, #4]
  96 0062 1B68     		ldr	r3, [r3]
  97 0064 22F02A02 		bic	r2, r2, #42
  98 0068 5A61     		str	r2, [r3, #20]
 415:Drivers/STM32F4xx_HAL_Driver/Src/stm32f4xx_hal_uart.c **** 
 416:Drivers/STM32F4xx_HAL_Driver/Src/stm32f4xx_hal_uart.c ****   /* Enable the peripheral */
ARM GAS  /var/folders/06/9k7gq4t13mj84z2yhw3grvhc0000gn/T//ccfdabgt.s 			page 10


 417:Drivers/STM32F4xx_HAL_Driver/Src/stm32f4xx_hal_uart.c ****   __HAL_UART_ENABLE(huart);
  99              		.loc 1 417 3
 100 006a 7B68     		ldr	r3, [r7, #4]
 101 006c 1B68     		ldr	r3, [r3]
 102 006e DA68     		ldr	r2, [r3, #12]
 103 0070 7B68     		ldr	r3, [r7, #4]
 104 0072 1B68     		ldr	r3, [r3]
 105 0074 42F40052 		orr	r2, r2, #8192
 106 0078 DA60     		str	r2, [r3, #12]
 418:Drivers/STM32F4xx_HAL_Driver/Src/stm32f4xx_hal_uart.c **** 
 419:Drivers/STM32F4xx_HAL_Driver/Src/stm32f4xx_hal_uart.c ****   /* Initialize the UART state */
 420:Drivers/STM32F4xx_HAL_Driver/Src/stm32f4xx_hal_uart.c ****   huart->ErrorCode = HAL_UART_ERROR_NONE;
 107              		.loc 1 420 20
 108 007a 7B68     		ldr	r3, [r7, #4]
 109 007c 0022     		movs	r2, #0
 110 007e 5A64     		str	r2, [r3, #68]
 421:Drivers/STM32F4xx_HAL_Driver/Src/stm32f4xx_hal_uart.c ****   huart->gState = HAL_UART_STATE_READY;
 111              		.loc 1 421 17
 112 0080 7B68     		ldr	r3, [r7, #4]
 113 0082 2022     		movs	r2, #32
 114 0084 83F84120 		strb	r2, [r3, #65]
 422:Drivers/STM32F4xx_HAL_Driver/Src/stm32f4xx_hal_uart.c ****   huart->RxState = HAL_UART_STATE_READY;
 115              		.loc 1 422 18
 116 0088 7B68     		ldr	r3, [r7, #4]
 117 008a 2022     		movs	r2, #32
 118 008c 83F84220 		strb	r2, [r3, #66]
 423:Drivers/STM32F4xx_HAL_Driver/Src/stm32f4xx_hal_uart.c ****   huart->RxEventType = HAL_UART_RXEVENT_TC;
 119              		.loc 1 423 22
 120 0090 7B68     		ldr	r3, [r7, #4]
 121 0092 0022     		movs	r2, #0
 122 0094 5A63     		str	r2, [r3, #52]
 424:Drivers/STM32F4xx_HAL_Driver/Src/stm32f4xx_hal_uart.c **** 
 425:Drivers/STM32F4xx_HAL_Driver/Src/stm32f4xx_hal_uart.c ****   return HAL_OK;
 123              		.loc 1 425 10
 124 0096 0023     		movs	r3, #0
 125              	.L3:
 426:Drivers/STM32F4xx_HAL_Driver/Src/stm32f4xx_hal_uart.c **** }
 126              		.loc 1 426 1
 127 0098 1846     		mov	r0, r3
 128 009a 0837     		adds	r7, r7, #8
 129              	.LCFI3:
 130              		.cfi_def_cfa_offset 8
 131 009c BD46     		mov	sp, r7
 132              	.LCFI4:
 133              		.cfi_def_cfa_register 13
 134              		@ sp needed
 135 009e 80BD     		pop	{r7, pc}
 136              		.cfi_endproc
 137              	.LFE134:
 139              		.section	.text.HAL_HalfDuplex_Init,"ax",%progbits
 140              		.align	1
 141              		.global	HAL_HalfDuplex_Init
 142              		.syntax unified
 143              		.thumb
 144              		.thumb_func
 146              	HAL_HalfDuplex_Init:
 147              	.LFB135:
ARM GAS  /var/folders/06/9k7gq4t13mj84z2yhw3grvhc0000gn/T//ccfdabgt.s 			page 11


 427:Drivers/STM32F4xx_HAL_Driver/Src/stm32f4xx_hal_uart.c **** 
 428:Drivers/STM32F4xx_HAL_Driver/Src/stm32f4xx_hal_uart.c **** /**
 429:Drivers/STM32F4xx_HAL_Driver/Src/stm32f4xx_hal_uart.c ****   * @brief  Initializes the half-duplex mode according to the specified
 430:Drivers/STM32F4xx_HAL_Driver/Src/stm32f4xx_hal_uart.c ****   *         parameters in the UART_InitTypeDef and create the associated handle.
 431:Drivers/STM32F4xx_HAL_Driver/Src/stm32f4xx_hal_uart.c ****   * @param  huart  Pointer to a UART_HandleTypeDef structure that contains
 432:Drivers/STM32F4xx_HAL_Driver/Src/stm32f4xx_hal_uart.c ****   *                the configuration information for the specified UART module.
 433:Drivers/STM32F4xx_HAL_Driver/Src/stm32f4xx_hal_uart.c ****   * @retval HAL status
 434:Drivers/STM32F4xx_HAL_Driver/Src/stm32f4xx_hal_uart.c ****   */
 435:Drivers/STM32F4xx_HAL_Driver/Src/stm32f4xx_hal_uart.c **** HAL_StatusTypeDef HAL_HalfDuplex_Init(UART_HandleTypeDef *huart)
 436:Drivers/STM32F4xx_HAL_Driver/Src/stm32f4xx_hal_uart.c **** {
 148              		.loc 1 436 1
 149              		.cfi_startproc
 150              		@ args = 0, pretend = 0, frame = 8
 151              		@ frame_needed = 1, uses_anonymous_args = 0
 152 0000 80B5     		push	{r7, lr}
 153              	.LCFI5:
 154              		.cfi_def_cfa_offset 8
 155              		.cfi_offset 7, -8
 156              		.cfi_offset 14, -4
 157 0002 82B0     		sub	sp, sp, #8
 158              	.LCFI6:
 159              		.cfi_def_cfa_offset 16
 160 0004 00AF     		add	r7, sp, #0
 161              	.LCFI7:
 162              		.cfi_def_cfa_register 7
 163 0006 7860     		str	r0, [r7, #4]
 437:Drivers/STM32F4xx_HAL_Driver/Src/stm32f4xx_hal_uart.c ****   /* Check the UART handle allocation */
 438:Drivers/STM32F4xx_HAL_Driver/Src/stm32f4xx_hal_uart.c ****   if (huart == NULL)
 164              		.loc 1 438 6
 165 0008 7B68     		ldr	r3, [r7, #4]
 166 000a 002B     		cmp	r3, #0
 167 000c 01D1     		bne	.L6
 439:Drivers/STM32F4xx_HAL_Driver/Src/stm32f4xx_hal_uart.c ****   {
 440:Drivers/STM32F4xx_HAL_Driver/Src/stm32f4xx_hal_uart.c ****     return HAL_ERROR;
 168              		.loc 1 440 12
 169 000e 0123     		movs	r3, #1
 170 0010 4AE0     		b	.L7
 171              	.L6:
 441:Drivers/STM32F4xx_HAL_Driver/Src/stm32f4xx_hal_uart.c ****   }
 442:Drivers/STM32F4xx_HAL_Driver/Src/stm32f4xx_hal_uart.c **** 
 443:Drivers/STM32F4xx_HAL_Driver/Src/stm32f4xx_hal_uart.c ****   /* Check the parameters */
 444:Drivers/STM32F4xx_HAL_Driver/Src/stm32f4xx_hal_uart.c ****   assert_param(IS_UART_HALFDUPLEX_INSTANCE(huart->Instance));
 445:Drivers/STM32F4xx_HAL_Driver/Src/stm32f4xx_hal_uart.c ****   assert_param(IS_UART_WORD_LENGTH(huart->Init.WordLength));
 446:Drivers/STM32F4xx_HAL_Driver/Src/stm32f4xx_hal_uart.c ****   assert_param(IS_UART_OVERSAMPLING(huart->Init.OverSampling));
 447:Drivers/STM32F4xx_HAL_Driver/Src/stm32f4xx_hal_uart.c **** 
 448:Drivers/STM32F4xx_HAL_Driver/Src/stm32f4xx_hal_uart.c ****   if (huart->gState == HAL_UART_STATE_RESET)
 172              		.loc 1 448 12
 173 0012 7B68     		ldr	r3, [r7, #4]
 174 0014 93F84130 		ldrb	r3, [r3, #65]
 175 0018 DBB2     		uxtb	r3, r3
 176              		.loc 1 448 6
 177 001a 002B     		cmp	r3, #0
 178 001c 06D1     		bne	.L8
 449:Drivers/STM32F4xx_HAL_Driver/Src/stm32f4xx_hal_uart.c ****   {
 450:Drivers/STM32F4xx_HAL_Driver/Src/stm32f4xx_hal_uart.c ****     /* Allocate lock resource and initialize it */
 451:Drivers/STM32F4xx_HAL_Driver/Src/stm32f4xx_hal_uart.c ****     huart->Lock = HAL_UNLOCKED;
 179              		.loc 1 451 17
ARM GAS  /var/folders/06/9k7gq4t13mj84z2yhw3grvhc0000gn/T//ccfdabgt.s 			page 12


 180 001e 7B68     		ldr	r3, [r7, #4]
 181 0020 0022     		movs	r2, #0
 182 0022 83F84020 		strb	r2, [r3, #64]
 452:Drivers/STM32F4xx_HAL_Driver/Src/stm32f4xx_hal_uart.c **** 
 453:Drivers/STM32F4xx_HAL_Driver/Src/stm32f4xx_hal_uart.c **** #if (USE_HAL_UART_REGISTER_CALLBACKS == 1)
 454:Drivers/STM32F4xx_HAL_Driver/Src/stm32f4xx_hal_uart.c ****     UART_InitCallbacksToDefault(huart);
 455:Drivers/STM32F4xx_HAL_Driver/Src/stm32f4xx_hal_uart.c **** 
 456:Drivers/STM32F4xx_HAL_Driver/Src/stm32f4xx_hal_uart.c ****     if (huart->MspInitCallback == NULL)
 457:Drivers/STM32F4xx_HAL_Driver/Src/stm32f4xx_hal_uart.c ****     {
 458:Drivers/STM32F4xx_HAL_Driver/Src/stm32f4xx_hal_uart.c ****       huart->MspInitCallback = HAL_UART_MspInit;
 459:Drivers/STM32F4xx_HAL_Driver/Src/stm32f4xx_hal_uart.c ****     }
 460:Drivers/STM32F4xx_HAL_Driver/Src/stm32f4xx_hal_uart.c **** 
 461:Drivers/STM32F4xx_HAL_Driver/Src/stm32f4xx_hal_uart.c ****     /* Init the low level hardware */
 462:Drivers/STM32F4xx_HAL_Driver/Src/stm32f4xx_hal_uart.c ****     huart->MspInitCallback(huart);
 463:Drivers/STM32F4xx_HAL_Driver/Src/stm32f4xx_hal_uart.c **** #else
 464:Drivers/STM32F4xx_HAL_Driver/Src/stm32f4xx_hal_uart.c ****     /* Init the low level hardware : GPIO, CLOCK */
 465:Drivers/STM32F4xx_HAL_Driver/Src/stm32f4xx_hal_uart.c ****     HAL_UART_MspInit(huart);
 183              		.loc 1 465 5
 184 0026 7868     		ldr	r0, [r7, #4]
 185 0028 FFF7FEFF 		bl	HAL_UART_MspInit
 186              	.L8:
 466:Drivers/STM32F4xx_HAL_Driver/Src/stm32f4xx_hal_uart.c **** #endif /* (USE_HAL_UART_REGISTER_CALLBACKS) */
 467:Drivers/STM32F4xx_HAL_Driver/Src/stm32f4xx_hal_uart.c ****   }
 468:Drivers/STM32F4xx_HAL_Driver/Src/stm32f4xx_hal_uart.c **** 
 469:Drivers/STM32F4xx_HAL_Driver/Src/stm32f4xx_hal_uart.c ****   huart->gState = HAL_UART_STATE_BUSY;
 187              		.loc 1 469 17
 188 002c 7B68     		ldr	r3, [r7, #4]
 189 002e 2422     		movs	r2, #36
 190 0030 83F84120 		strb	r2, [r3, #65]
 470:Drivers/STM32F4xx_HAL_Driver/Src/stm32f4xx_hal_uart.c **** 
 471:Drivers/STM32F4xx_HAL_Driver/Src/stm32f4xx_hal_uart.c ****   /* Disable the peripheral */
 472:Drivers/STM32F4xx_HAL_Driver/Src/stm32f4xx_hal_uart.c ****   __HAL_UART_DISABLE(huart);
 191              		.loc 1 472 3
 192 0034 7B68     		ldr	r3, [r7, #4]
 193 0036 1B68     		ldr	r3, [r3]
 194 0038 DA68     		ldr	r2, [r3, #12]
 195 003a 7B68     		ldr	r3, [r7, #4]
 196 003c 1B68     		ldr	r3, [r3]
 197 003e 22F40052 		bic	r2, r2, #8192
 198 0042 DA60     		str	r2, [r3, #12]
 473:Drivers/STM32F4xx_HAL_Driver/Src/stm32f4xx_hal_uart.c **** 
 474:Drivers/STM32F4xx_HAL_Driver/Src/stm32f4xx_hal_uart.c ****   /* Set the UART Communication parameters */
 475:Drivers/STM32F4xx_HAL_Driver/Src/stm32f4xx_hal_uart.c ****   UART_SetConfig(huart);
 199              		.loc 1 475 3
 200 0044 7868     		ldr	r0, [r7, #4]
 201 0046 FFF7FEFF 		bl	UART_SetConfig
 476:Drivers/STM32F4xx_HAL_Driver/Src/stm32f4xx_hal_uart.c **** 
 477:Drivers/STM32F4xx_HAL_Driver/Src/stm32f4xx_hal_uart.c ****   /* In half-duplex mode, the following bits must be kept cleared:
 478:Drivers/STM32F4xx_HAL_Driver/Src/stm32f4xx_hal_uart.c ****      - LINEN and CLKEN bits in the USART_CR2 register,
 479:Drivers/STM32F4xx_HAL_Driver/Src/stm32f4xx_hal_uart.c ****      - SCEN and IREN bits in the USART_CR3 register.*/
 480:Drivers/STM32F4xx_HAL_Driver/Src/stm32f4xx_hal_uart.c ****   CLEAR_BIT(huart->Instance->CR2, (USART_CR2_LINEN | USART_CR2_CLKEN));
 202              		.loc 1 480 3
 203 004a 7B68     		ldr	r3, [r7, #4]
 204 004c 1B68     		ldr	r3, [r3]
 205 004e 1A69     		ldr	r2, [r3, #16]
 206 0050 7B68     		ldr	r3, [r7, #4]
 207 0052 1B68     		ldr	r3, [r3]
ARM GAS  /var/folders/06/9k7gq4t13mj84z2yhw3grvhc0000gn/T//ccfdabgt.s 			page 13


 208 0054 22F49042 		bic	r2, r2, #18432
 209 0058 1A61     		str	r2, [r3, #16]
 481:Drivers/STM32F4xx_HAL_Driver/Src/stm32f4xx_hal_uart.c ****   CLEAR_BIT(huart->Instance->CR3, (USART_CR3_IREN | USART_CR3_SCEN));
 210              		.loc 1 481 3
 211 005a 7B68     		ldr	r3, [r7, #4]
 212 005c 1B68     		ldr	r3, [r3]
 213 005e 5A69     		ldr	r2, [r3, #20]
 214 0060 7B68     		ldr	r3, [r7, #4]
 215 0062 1B68     		ldr	r3, [r3]
 216 0064 22F02202 		bic	r2, r2, #34
 217 0068 5A61     		str	r2, [r3, #20]
 482:Drivers/STM32F4xx_HAL_Driver/Src/stm32f4xx_hal_uart.c **** 
 483:Drivers/STM32F4xx_HAL_Driver/Src/stm32f4xx_hal_uart.c ****   /* Enable the Half-Duplex mode by setting the HDSEL bit in the CR3 register */
 484:Drivers/STM32F4xx_HAL_Driver/Src/stm32f4xx_hal_uart.c ****   SET_BIT(huart->Instance->CR3, USART_CR3_HDSEL);
 218              		.loc 1 484 3
 219 006a 7B68     		ldr	r3, [r7, #4]
 220 006c 1B68     		ldr	r3, [r3]
 221 006e 5A69     		ldr	r2, [r3, #20]
 222 0070 7B68     		ldr	r3, [r7, #4]
 223 0072 1B68     		ldr	r3, [r3]
 224 0074 42F00802 		orr	r2, r2, #8
 225 0078 5A61     		str	r2, [r3, #20]
 485:Drivers/STM32F4xx_HAL_Driver/Src/stm32f4xx_hal_uart.c **** 
 486:Drivers/STM32F4xx_HAL_Driver/Src/stm32f4xx_hal_uart.c ****   /* Enable the peripheral */
 487:Drivers/STM32F4xx_HAL_Driver/Src/stm32f4xx_hal_uart.c ****   __HAL_UART_ENABLE(huart);
 226              		.loc 1 487 3
 227 007a 7B68     		ldr	r3, [r7, #4]
 228 007c 1B68     		ldr	r3, [r3]
 229 007e DA68     		ldr	r2, [r3, #12]
 230 0080 7B68     		ldr	r3, [r7, #4]
 231 0082 1B68     		ldr	r3, [r3]
 232 0084 42F40052 		orr	r2, r2, #8192
 233 0088 DA60     		str	r2, [r3, #12]
 488:Drivers/STM32F4xx_HAL_Driver/Src/stm32f4xx_hal_uart.c **** 
 489:Drivers/STM32F4xx_HAL_Driver/Src/stm32f4xx_hal_uart.c ****   /* Initialize the UART state*/
 490:Drivers/STM32F4xx_HAL_Driver/Src/stm32f4xx_hal_uart.c ****   huart->ErrorCode = HAL_UART_ERROR_NONE;
 234              		.loc 1 490 20
 235 008a 7B68     		ldr	r3, [r7, #4]
 236 008c 0022     		movs	r2, #0
 237 008e 5A64     		str	r2, [r3, #68]
 491:Drivers/STM32F4xx_HAL_Driver/Src/stm32f4xx_hal_uart.c ****   huart->gState = HAL_UART_STATE_READY;
 238              		.loc 1 491 17
 239 0090 7B68     		ldr	r3, [r7, #4]
 240 0092 2022     		movs	r2, #32
 241 0094 83F84120 		strb	r2, [r3, #65]
 492:Drivers/STM32F4xx_HAL_Driver/Src/stm32f4xx_hal_uart.c ****   huart->RxState = HAL_UART_STATE_READY;
 242              		.loc 1 492 18
 243 0098 7B68     		ldr	r3, [r7, #4]
 244 009a 2022     		movs	r2, #32
 245 009c 83F84220 		strb	r2, [r3, #66]
 493:Drivers/STM32F4xx_HAL_Driver/Src/stm32f4xx_hal_uart.c ****   huart->RxEventType = HAL_UART_RXEVENT_TC;
 246              		.loc 1 493 22
 247 00a0 7B68     		ldr	r3, [r7, #4]
 248 00a2 0022     		movs	r2, #0
 249 00a4 5A63     		str	r2, [r3, #52]
 494:Drivers/STM32F4xx_HAL_Driver/Src/stm32f4xx_hal_uart.c **** 
 495:Drivers/STM32F4xx_HAL_Driver/Src/stm32f4xx_hal_uart.c ****   return HAL_OK;
ARM GAS  /var/folders/06/9k7gq4t13mj84z2yhw3grvhc0000gn/T//ccfdabgt.s 			page 14


 250              		.loc 1 495 10
 251 00a6 0023     		movs	r3, #0
 252              	.L7:
 496:Drivers/STM32F4xx_HAL_Driver/Src/stm32f4xx_hal_uart.c **** }
 253              		.loc 1 496 1
 254 00a8 1846     		mov	r0, r3
 255 00aa 0837     		adds	r7, r7, #8
 256              	.LCFI8:
 257              		.cfi_def_cfa_offset 8
 258 00ac BD46     		mov	sp, r7
 259              	.LCFI9:
 260              		.cfi_def_cfa_register 13
 261              		@ sp needed
 262 00ae 80BD     		pop	{r7, pc}
 263              		.cfi_endproc
 264              	.LFE135:
 266              		.section	.text.HAL_LIN_Init,"ax",%progbits
 267              		.align	1
 268              		.global	HAL_LIN_Init
 269              		.syntax unified
 270              		.thumb
 271              		.thumb_func
 273              	HAL_LIN_Init:
 274              	.LFB136:
 497:Drivers/STM32F4xx_HAL_Driver/Src/stm32f4xx_hal_uart.c **** 
 498:Drivers/STM32F4xx_HAL_Driver/Src/stm32f4xx_hal_uart.c **** /**
 499:Drivers/STM32F4xx_HAL_Driver/Src/stm32f4xx_hal_uart.c ****   * @brief  Initializes the LIN mode according to the specified
 500:Drivers/STM32F4xx_HAL_Driver/Src/stm32f4xx_hal_uart.c ****   *         parameters in the UART_InitTypeDef and create the associated handle.
 501:Drivers/STM32F4xx_HAL_Driver/Src/stm32f4xx_hal_uart.c ****   * @param  huart  Pointer to a UART_HandleTypeDef structure that contains
 502:Drivers/STM32F4xx_HAL_Driver/Src/stm32f4xx_hal_uart.c ****   *                the configuration information for the specified UART module.
 503:Drivers/STM32F4xx_HAL_Driver/Src/stm32f4xx_hal_uart.c ****   * @param  BreakDetectLength Specifies the LIN break detection length.
 504:Drivers/STM32F4xx_HAL_Driver/Src/stm32f4xx_hal_uart.c ****   *         This parameter can be one of the following values:
 505:Drivers/STM32F4xx_HAL_Driver/Src/stm32f4xx_hal_uart.c ****   *            @arg UART_LINBREAKDETECTLENGTH_10B: 10-bit break detection
 506:Drivers/STM32F4xx_HAL_Driver/Src/stm32f4xx_hal_uart.c ****   *            @arg UART_LINBREAKDETECTLENGTH_11B: 11-bit break detection
 507:Drivers/STM32F4xx_HAL_Driver/Src/stm32f4xx_hal_uart.c ****   * @retval HAL status
 508:Drivers/STM32F4xx_HAL_Driver/Src/stm32f4xx_hal_uart.c ****   */
 509:Drivers/STM32F4xx_HAL_Driver/Src/stm32f4xx_hal_uart.c **** HAL_StatusTypeDef HAL_LIN_Init(UART_HandleTypeDef *huart, uint32_t BreakDetectLength)
 510:Drivers/STM32F4xx_HAL_Driver/Src/stm32f4xx_hal_uart.c **** {
 275              		.loc 1 510 1
 276              		.cfi_startproc
 277              		@ args = 0, pretend = 0, frame = 8
 278              		@ frame_needed = 1, uses_anonymous_args = 0
 279 0000 80B5     		push	{r7, lr}
 280              	.LCFI10:
 281              		.cfi_def_cfa_offset 8
 282              		.cfi_offset 7, -8
 283              		.cfi_offset 14, -4
 284 0002 82B0     		sub	sp, sp, #8
 285              	.LCFI11:
 286              		.cfi_def_cfa_offset 16
 287 0004 00AF     		add	r7, sp, #0
 288              	.LCFI12:
 289              		.cfi_def_cfa_register 7
 290 0006 7860     		str	r0, [r7, #4]
 291 0008 3960     		str	r1, [r7]
 511:Drivers/STM32F4xx_HAL_Driver/Src/stm32f4xx_hal_uart.c ****   /* Check the UART handle allocation */
 512:Drivers/STM32F4xx_HAL_Driver/Src/stm32f4xx_hal_uart.c ****   if (huart == NULL)
ARM GAS  /var/folders/06/9k7gq4t13mj84z2yhw3grvhc0000gn/T//ccfdabgt.s 			page 15


 292              		.loc 1 512 6
 293 000a 7B68     		ldr	r3, [r7, #4]
 294 000c 002B     		cmp	r3, #0
 295 000e 01D1     		bne	.L10
 513:Drivers/STM32F4xx_HAL_Driver/Src/stm32f4xx_hal_uart.c ****   {
 514:Drivers/STM32F4xx_HAL_Driver/Src/stm32f4xx_hal_uart.c ****     return HAL_ERROR;
 296              		.loc 1 514 12
 297 0010 0123     		movs	r3, #1
 298 0012 5AE0     		b	.L11
 299              	.L10:
 515:Drivers/STM32F4xx_HAL_Driver/Src/stm32f4xx_hal_uart.c ****   }
 516:Drivers/STM32F4xx_HAL_Driver/Src/stm32f4xx_hal_uart.c **** 
 517:Drivers/STM32F4xx_HAL_Driver/Src/stm32f4xx_hal_uart.c ****   /* Check the LIN UART instance */
 518:Drivers/STM32F4xx_HAL_Driver/Src/stm32f4xx_hal_uart.c ****   assert_param(IS_UART_LIN_INSTANCE(huart->Instance));
 519:Drivers/STM32F4xx_HAL_Driver/Src/stm32f4xx_hal_uart.c **** 
 520:Drivers/STM32F4xx_HAL_Driver/Src/stm32f4xx_hal_uart.c ****   /* Check the Break detection length parameter */
 521:Drivers/STM32F4xx_HAL_Driver/Src/stm32f4xx_hal_uart.c ****   assert_param(IS_UART_LIN_BREAK_DETECT_LENGTH(BreakDetectLength));
 522:Drivers/STM32F4xx_HAL_Driver/Src/stm32f4xx_hal_uart.c ****   assert_param(IS_UART_LIN_WORD_LENGTH(huart->Init.WordLength));
 523:Drivers/STM32F4xx_HAL_Driver/Src/stm32f4xx_hal_uart.c ****   assert_param(IS_UART_LIN_OVERSAMPLING(huart->Init.OverSampling));
 524:Drivers/STM32F4xx_HAL_Driver/Src/stm32f4xx_hal_uart.c **** 
 525:Drivers/STM32F4xx_HAL_Driver/Src/stm32f4xx_hal_uart.c ****   if (huart->gState == HAL_UART_STATE_RESET)
 300              		.loc 1 525 12
 301 0014 7B68     		ldr	r3, [r7, #4]
 302 0016 93F84130 		ldrb	r3, [r3, #65]
 303 001a DBB2     		uxtb	r3, r3
 304              		.loc 1 525 6
 305 001c 002B     		cmp	r3, #0
 306 001e 06D1     		bne	.L12
 526:Drivers/STM32F4xx_HAL_Driver/Src/stm32f4xx_hal_uart.c ****   {
 527:Drivers/STM32F4xx_HAL_Driver/Src/stm32f4xx_hal_uart.c ****     /* Allocate lock resource and initialize it */
 528:Drivers/STM32F4xx_HAL_Driver/Src/stm32f4xx_hal_uart.c ****     huart->Lock = HAL_UNLOCKED;
 307              		.loc 1 528 17
 308 0020 7B68     		ldr	r3, [r7, #4]
 309 0022 0022     		movs	r2, #0
 310 0024 83F84020 		strb	r2, [r3, #64]
 529:Drivers/STM32F4xx_HAL_Driver/Src/stm32f4xx_hal_uart.c **** 
 530:Drivers/STM32F4xx_HAL_Driver/Src/stm32f4xx_hal_uart.c **** #if (USE_HAL_UART_REGISTER_CALLBACKS == 1)
 531:Drivers/STM32F4xx_HAL_Driver/Src/stm32f4xx_hal_uart.c ****     UART_InitCallbacksToDefault(huart);
 532:Drivers/STM32F4xx_HAL_Driver/Src/stm32f4xx_hal_uart.c **** 
 533:Drivers/STM32F4xx_HAL_Driver/Src/stm32f4xx_hal_uart.c ****     if (huart->MspInitCallback == NULL)
 534:Drivers/STM32F4xx_HAL_Driver/Src/stm32f4xx_hal_uart.c ****     {
 535:Drivers/STM32F4xx_HAL_Driver/Src/stm32f4xx_hal_uart.c ****       huart->MspInitCallback = HAL_UART_MspInit;
 536:Drivers/STM32F4xx_HAL_Driver/Src/stm32f4xx_hal_uart.c ****     }
 537:Drivers/STM32F4xx_HAL_Driver/Src/stm32f4xx_hal_uart.c **** 
 538:Drivers/STM32F4xx_HAL_Driver/Src/stm32f4xx_hal_uart.c ****     /* Init the low level hardware */
 539:Drivers/STM32F4xx_HAL_Driver/Src/stm32f4xx_hal_uart.c ****     huart->MspInitCallback(huart);
 540:Drivers/STM32F4xx_HAL_Driver/Src/stm32f4xx_hal_uart.c **** #else
 541:Drivers/STM32F4xx_HAL_Driver/Src/stm32f4xx_hal_uart.c ****     /* Init the low level hardware : GPIO, CLOCK */
 542:Drivers/STM32F4xx_HAL_Driver/Src/stm32f4xx_hal_uart.c ****     HAL_UART_MspInit(huart);
 311              		.loc 1 542 5
 312 0028 7868     		ldr	r0, [r7, #4]
 313 002a FFF7FEFF 		bl	HAL_UART_MspInit
 314              	.L12:
 543:Drivers/STM32F4xx_HAL_Driver/Src/stm32f4xx_hal_uart.c **** #endif /* (USE_HAL_UART_REGISTER_CALLBACKS) */
 544:Drivers/STM32F4xx_HAL_Driver/Src/stm32f4xx_hal_uart.c ****   }
 545:Drivers/STM32F4xx_HAL_Driver/Src/stm32f4xx_hal_uart.c **** 
 546:Drivers/STM32F4xx_HAL_Driver/Src/stm32f4xx_hal_uart.c ****   huart->gState = HAL_UART_STATE_BUSY;
ARM GAS  /var/folders/06/9k7gq4t13mj84z2yhw3grvhc0000gn/T//ccfdabgt.s 			page 16


 315              		.loc 1 546 17
 316 002e 7B68     		ldr	r3, [r7, #4]
 317 0030 2422     		movs	r2, #36
 318 0032 83F84120 		strb	r2, [r3, #65]
 547:Drivers/STM32F4xx_HAL_Driver/Src/stm32f4xx_hal_uart.c **** 
 548:Drivers/STM32F4xx_HAL_Driver/Src/stm32f4xx_hal_uart.c ****   /* Disable the peripheral */
 549:Drivers/STM32F4xx_HAL_Driver/Src/stm32f4xx_hal_uart.c ****   __HAL_UART_DISABLE(huart);
 319              		.loc 1 549 3
 320 0036 7B68     		ldr	r3, [r7, #4]
 321 0038 1B68     		ldr	r3, [r3]
 322 003a DA68     		ldr	r2, [r3, #12]
 323 003c 7B68     		ldr	r3, [r7, #4]
 324 003e 1B68     		ldr	r3, [r3]
 325 0040 22F40052 		bic	r2, r2, #8192
 326 0044 DA60     		str	r2, [r3, #12]
 550:Drivers/STM32F4xx_HAL_Driver/Src/stm32f4xx_hal_uart.c **** 
 551:Drivers/STM32F4xx_HAL_Driver/Src/stm32f4xx_hal_uart.c ****   /* Set the UART Communication parameters */
 552:Drivers/STM32F4xx_HAL_Driver/Src/stm32f4xx_hal_uart.c ****   UART_SetConfig(huart);
 327              		.loc 1 552 3
 328 0046 7868     		ldr	r0, [r7, #4]
 329 0048 FFF7FEFF 		bl	UART_SetConfig
 553:Drivers/STM32F4xx_HAL_Driver/Src/stm32f4xx_hal_uart.c **** 
 554:Drivers/STM32F4xx_HAL_Driver/Src/stm32f4xx_hal_uart.c ****   /* In LIN mode, the following bits must be kept cleared:
 555:Drivers/STM32F4xx_HAL_Driver/Src/stm32f4xx_hal_uart.c ****      - CLKEN bits in the USART_CR2 register,
 556:Drivers/STM32F4xx_HAL_Driver/Src/stm32f4xx_hal_uart.c ****      - SCEN, HDSEL and IREN bits in the USART_CR3 register.*/
 557:Drivers/STM32F4xx_HAL_Driver/Src/stm32f4xx_hal_uart.c ****   CLEAR_BIT(huart->Instance->CR2, (USART_CR2_CLKEN));
 330              		.loc 1 557 3
 331 004c 7B68     		ldr	r3, [r7, #4]
 332 004e 1B68     		ldr	r3, [r3]
 333 0050 1A69     		ldr	r2, [r3, #16]
 334 0052 7B68     		ldr	r3, [r7, #4]
 335 0054 1B68     		ldr	r3, [r3]
 336 0056 22F40062 		bic	r2, r2, #2048
 337 005a 1A61     		str	r2, [r3, #16]
 558:Drivers/STM32F4xx_HAL_Driver/Src/stm32f4xx_hal_uart.c ****   CLEAR_BIT(huart->Instance->CR3, (USART_CR3_HDSEL | USART_CR3_IREN | USART_CR3_SCEN));
 338              		.loc 1 558 3
 339 005c 7B68     		ldr	r3, [r7, #4]
 340 005e 1B68     		ldr	r3, [r3]
 341 0060 5A69     		ldr	r2, [r3, #20]
 342 0062 7B68     		ldr	r3, [r7, #4]
 343 0064 1B68     		ldr	r3, [r3]
 344 0066 22F02A02 		bic	r2, r2, #42
 345 006a 5A61     		str	r2, [r3, #20]
 559:Drivers/STM32F4xx_HAL_Driver/Src/stm32f4xx_hal_uart.c **** 
 560:Drivers/STM32F4xx_HAL_Driver/Src/stm32f4xx_hal_uart.c ****   /* Enable the LIN mode by setting the LINEN bit in the CR2 register */
 561:Drivers/STM32F4xx_HAL_Driver/Src/stm32f4xx_hal_uart.c ****   SET_BIT(huart->Instance->CR2, USART_CR2_LINEN);
 346              		.loc 1 561 3
 347 006c 7B68     		ldr	r3, [r7, #4]
 348 006e 1B68     		ldr	r3, [r3]
 349 0070 1A69     		ldr	r2, [r3, #16]
 350 0072 7B68     		ldr	r3, [r7, #4]
 351 0074 1B68     		ldr	r3, [r3]
 352 0076 42F48042 		orr	r2, r2, #16384
 353 007a 1A61     		str	r2, [r3, #16]
 562:Drivers/STM32F4xx_HAL_Driver/Src/stm32f4xx_hal_uart.c **** 
 563:Drivers/STM32F4xx_HAL_Driver/Src/stm32f4xx_hal_uart.c ****   /* Set the USART LIN Break detection length. */
 564:Drivers/STM32F4xx_HAL_Driver/Src/stm32f4xx_hal_uart.c ****   CLEAR_BIT(huart->Instance->CR2, USART_CR2_LBDL);
ARM GAS  /var/folders/06/9k7gq4t13mj84z2yhw3grvhc0000gn/T//ccfdabgt.s 			page 17


 354              		.loc 1 564 3
 355 007c 7B68     		ldr	r3, [r7, #4]
 356 007e 1B68     		ldr	r3, [r3]
 357 0080 1A69     		ldr	r2, [r3, #16]
 358 0082 7B68     		ldr	r3, [r7, #4]
 359 0084 1B68     		ldr	r3, [r3]
 360 0086 22F02002 		bic	r2, r2, #32
 361 008a 1A61     		str	r2, [r3, #16]
 565:Drivers/STM32F4xx_HAL_Driver/Src/stm32f4xx_hal_uart.c ****   SET_BIT(huart->Instance->CR2, BreakDetectLength);
 362              		.loc 1 565 3
 363 008c 7B68     		ldr	r3, [r7, #4]
 364 008e 1B68     		ldr	r3, [r3]
 365 0090 1969     		ldr	r1, [r3, #16]
 366 0092 7B68     		ldr	r3, [r7, #4]
 367 0094 1B68     		ldr	r3, [r3]
 368 0096 3A68     		ldr	r2, [r7]
 369 0098 0A43     		orrs	r2, r2, r1
 370 009a 1A61     		str	r2, [r3, #16]
 566:Drivers/STM32F4xx_HAL_Driver/Src/stm32f4xx_hal_uart.c **** 
 567:Drivers/STM32F4xx_HAL_Driver/Src/stm32f4xx_hal_uart.c ****   /* Enable the peripheral */
 568:Drivers/STM32F4xx_HAL_Driver/Src/stm32f4xx_hal_uart.c ****   __HAL_UART_ENABLE(huart);
 371              		.loc 1 568 3
 372 009c 7B68     		ldr	r3, [r7, #4]
 373 009e 1B68     		ldr	r3, [r3]
 374 00a0 DA68     		ldr	r2, [r3, #12]
 375 00a2 7B68     		ldr	r3, [r7, #4]
 376 00a4 1B68     		ldr	r3, [r3]
 377 00a6 42F40052 		orr	r2, r2, #8192
 378 00aa DA60     		str	r2, [r3, #12]
 569:Drivers/STM32F4xx_HAL_Driver/Src/stm32f4xx_hal_uart.c **** 
 570:Drivers/STM32F4xx_HAL_Driver/Src/stm32f4xx_hal_uart.c ****   /* Initialize the UART state*/
 571:Drivers/STM32F4xx_HAL_Driver/Src/stm32f4xx_hal_uart.c ****   huart->ErrorCode = HAL_UART_ERROR_NONE;
 379              		.loc 1 571 20
 380 00ac 7B68     		ldr	r3, [r7, #4]
 381 00ae 0022     		movs	r2, #0
 382 00b0 5A64     		str	r2, [r3, #68]
 572:Drivers/STM32F4xx_HAL_Driver/Src/stm32f4xx_hal_uart.c ****   huart->gState = HAL_UART_STATE_READY;
 383              		.loc 1 572 17
 384 00b2 7B68     		ldr	r3, [r7, #4]
 385 00b4 2022     		movs	r2, #32
 386 00b6 83F84120 		strb	r2, [r3, #65]
 573:Drivers/STM32F4xx_HAL_Driver/Src/stm32f4xx_hal_uart.c ****   huart->RxState = HAL_UART_STATE_READY;
 387              		.loc 1 573 18
 388 00ba 7B68     		ldr	r3, [r7, #4]
 389 00bc 2022     		movs	r2, #32
 390 00be 83F84220 		strb	r2, [r3, #66]
 574:Drivers/STM32F4xx_HAL_Driver/Src/stm32f4xx_hal_uart.c ****   huart->RxEventType = HAL_UART_RXEVENT_TC;
 391              		.loc 1 574 22
 392 00c2 7B68     		ldr	r3, [r7, #4]
 393 00c4 0022     		movs	r2, #0
 394 00c6 5A63     		str	r2, [r3, #52]
 575:Drivers/STM32F4xx_HAL_Driver/Src/stm32f4xx_hal_uart.c **** 
 576:Drivers/STM32F4xx_HAL_Driver/Src/stm32f4xx_hal_uart.c ****   return HAL_OK;
 395              		.loc 1 576 10
 396 00c8 0023     		movs	r3, #0
 397              	.L11:
 577:Drivers/STM32F4xx_HAL_Driver/Src/stm32f4xx_hal_uart.c **** }
ARM GAS  /var/folders/06/9k7gq4t13mj84z2yhw3grvhc0000gn/T//ccfdabgt.s 			page 18


 398              		.loc 1 577 1
 399 00ca 1846     		mov	r0, r3
 400 00cc 0837     		adds	r7, r7, #8
 401              	.LCFI13:
 402              		.cfi_def_cfa_offset 8
 403 00ce BD46     		mov	sp, r7
 404              	.LCFI14:
 405              		.cfi_def_cfa_register 13
 406              		@ sp needed
 407 00d0 80BD     		pop	{r7, pc}
 408              		.cfi_endproc
 409              	.LFE136:
 411              		.section	.text.HAL_MultiProcessor_Init,"ax",%progbits
 412              		.align	1
 413              		.global	HAL_MultiProcessor_Init
 414              		.syntax unified
 415              		.thumb
 416              		.thumb_func
 418              	HAL_MultiProcessor_Init:
 419              	.LFB137:
 578:Drivers/STM32F4xx_HAL_Driver/Src/stm32f4xx_hal_uart.c **** 
 579:Drivers/STM32F4xx_HAL_Driver/Src/stm32f4xx_hal_uart.c **** /**
 580:Drivers/STM32F4xx_HAL_Driver/Src/stm32f4xx_hal_uart.c ****   * @brief  Initializes the Multi-Processor mode according to the specified
 581:Drivers/STM32F4xx_HAL_Driver/Src/stm32f4xx_hal_uart.c ****   *         parameters in the UART_InitTypeDef and create the associated handle.
 582:Drivers/STM32F4xx_HAL_Driver/Src/stm32f4xx_hal_uart.c ****   * @param  huart  Pointer to a UART_HandleTypeDef structure that contains
 583:Drivers/STM32F4xx_HAL_Driver/Src/stm32f4xx_hal_uart.c ****   *                the configuration information for the specified UART module.
 584:Drivers/STM32F4xx_HAL_Driver/Src/stm32f4xx_hal_uart.c ****   * @param  Address USART address
 585:Drivers/STM32F4xx_HAL_Driver/Src/stm32f4xx_hal_uart.c ****   * @param  WakeUpMethod specifies the USART wake-up method.
 586:Drivers/STM32F4xx_HAL_Driver/Src/stm32f4xx_hal_uart.c ****   *         This parameter can be one of the following values:
 587:Drivers/STM32F4xx_HAL_Driver/Src/stm32f4xx_hal_uart.c ****   *            @arg UART_WAKEUPMETHOD_IDLELINE: Wake-up by an idle line detection
 588:Drivers/STM32F4xx_HAL_Driver/Src/stm32f4xx_hal_uart.c ****   *            @arg UART_WAKEUPMETHOD_ADDRESSMARK: Wake-up by an address mark
 589:Drivers/STM32F4xx_HAL_Driver/Src/stm32f4xx_hal_uart.c ****   * @retval HAL status
 590:Drivers/STM32F4xx_HAL_Driver/Src/stm32f4xx_hal_uart.c ****   */
 591:Drivers/STM32F4xx_HAL_Driver/Src/stm32f4xx_hal_uart.c **** HAL_StatusTypeDef HAL_MultiProcessor_Init(UART_HandleTypeDef *huart, uint8_t Address, uint32_t Wake
 592:Drivers/STM32F4xx_HAL_Driver/Src/stm32f4xx_hal_uart.c **** {
 420              		.loc 1 592 1
 421              		.cfi_startproc
 422              		@ args = 0, pretend = 0, frame = 16
 423              		@ frame_needed = 1, uses_anonymous_args = 0
 424 0000 80B5     		push	{r7, lr}
 425              	.LCFI15:
 426              		.cfi_def_cfa_offset 8
 427              		.cfi_offset 7, -8
 428              		.cfi_offset 14, -4
 429 0002 84B0     		sub	sp, sp, #16
 430              	.LCFI16:
 431              		.cfi_def_cfa_offset 24
 432 0004 00AF     		add	r7, sp, #0
 433              	.LCFI17:
 434              		.cfi_def_cfa_register 7
 435 0006 F860     		str	r0, [r7, #12]
 436 0008 0B46     		mov	r3, r1
 437 000a 7A60     		str	r2, [r7, #4]
 438 000c FB72     		strb	r3, [r7, #11]
 593:Drivers/STM32F4xx_HAL_Driver/Src/stm32f4xx_hal_uart.c ****   /* Check the UART handle allocation */
 594:Drivers/STM32F4xx_HAL_Driver/Src/stm32f4xx_hal_uart.c ****   if (huart == NULL)
 439              		.loc 1 594 6
ARM GAS  /var/folders/06/9k7gq4t13mj84z2yhw3grvhc0000gn/T//ccfdabgt.s 			page 19


 440 000e FB68     		ldr	r3, [r7, #12]
 441 0010 002B     		cmp	r3, #0
 442 0012 01D1     		bne	.L14
 595:Drivers/STM32F4xx_HAL_Driver/Src/stm32f4xx_hal_uart.c ****   {
 596:Drivers/STM32F4xx_HAL_Driver/Src/stm32f4xx_hal_uart.c ****     return HAL_ERROR;
 443              		.loc 1 596 12
 444 0014 0123     		movs	r3, #1
 445 0016 62E0     		b	.L15
 446              	.L14:
 597:Drivers/STM32F4xx_HAL_Driver/Src/stm32f4xx_hal_uart.c ****   }
 598:Drivers/STM32F4xx_HAL_Driver/Src/stm32f4xx_hal_uart.c **** 
 599:Drivers/STM32F4xx_HAL_Driver/Src/stm32f4xx_hal_uart.c ****   /* Check the parameters */
 600:Drivers/STM32F4xx_HAL_Driver/Src/stm32f4xx_hal_uart.c ****   assert_param(IS_UART_INSTANCE(huart->Instance));
 601:Drivers/STM32F4xx_HAL_Driver/Src/stm32f4xx_hal_uart.c **** 
 602:Drivers/STM32F4xx_HAL_Driver/Src/stm32f4xx_hal_uart.c ****   /* Check the Address & wake up method parameters */
 603:Drivers/STM32F4xx_HAL_Driver/Src/stm32f4xx_hal_uart.c ****   assert_param(IS_UART_WAKEUPMETHOD(WakeUpMethod));
 604:Drivers/STM32F4xx_HAL_Driver/Src/stm32f4xx_hal_uart.c ****   assert_param(IS_UART_ADDRESS(Address));
 605:Drivers/STM32F4xx_HAL_Driver/Src/stm32f4xx_hal_uart.c ****   assert_param(IS_UART_WORD_LENGTH(huart->Init.WordLength));
 606:Drivers/STM32F4xx_HAL_Driver/Src/stm32f4xx_hal_uart.c ****   assert_param(IS_UART_OVERSAMPLING(huart->Init.OverSampling));
 607:Drivers/STM32F4xx_HAL_Driver/Src/stm32f4xx_hal_uart.c **** 
 608:Drivers/STM32F4xx_HAL_Driver/Src/stm32f4xx_hal_uart.c ****   if (huart->gState == HAL_UART_STATE_RESET)
 447              		.loc 1 608 12
 448 0018 FB68     		ldr	r3, [r7, #12]
 449 001a 93F84130 		ldrb	r3, [r3, #65]
 450 001e DBB2     		uxtb	r3, r3
 451              		.loc 1 608 6
 452 0020 002B     		cmp	r3, #0
 453 0022 06D1     		bne	.L16
 609:Drivers/STM32F4xx_HAL_Driver/Src/stm32f4xx_hal_uart.c ****   {
 610:Drivers/STM32F4xx_HAL_Driver/Src/stm32f4xx_hal_uart.c ****     /* Allocate lock resource and initialize it */
 611:Drivers/STM32F4xx_HAL_Driver/Src/stm32f4xx_hal_uart.c ****     huart->Lock = HAL_UNLOCKED;
 454              		.loc 1 611 17
 455 0024 FB68     		ldr	r3, [r7, #12]
 456 0026 0022     		movs	r2, #0
 457 0028 83F84020 		strb	r2, [r3, #64]
 612:Drivers/STM32F4xx_HAL_Driver/Src/stm32f4xx_hal_uart.c **** 
 613:Drivers/STM32F4xx_HAL_Driver/Src/stm32f4xx_hal_uart.c **** #if (USE_HAL_UART_REGISTER_CALLBACKS == 1)
 614:Drivers/STM32F4xx_HAL_Driver/Src/stm32f4xx_hal_uart.c ****     UART_InitCallbacksToDefault(huart);
 615:Drivers/STM32F4xx_HAL_Driver/Src/stm32f4xx_hal_uart.c **** 
 616:Drivers/STM32F4xx_HAL_Driver/Src/stm32f4xx_hal_uart.c ****     if (huart->MspInitCallback == NULL)
 617:Drivers/STM32F4xx_HAL_Driver/Src/stm32f4xx_hal_uart.c ****     {
 618:Drivers/STM32F4xx_HAL_Driver/Src/stm32f4xx_hal_uart.c ****       huart->MspInitCallback = HAL_UART_MspInit;
 619:Drivers/STM32F4xx_HAL_Driver/Src/stm32f4xx_hal_uart.c ****     }
 620:Drivers/STM32F4xx_HAL_Driver/Src/stm32f4xx_hal_uart.c **** 
 621:Drivers/STM32F4xx_HAL_Driver/Src/stm32f4xx_hal_uart.c ****     /* Init the low level hardware */
 622:Drivers/STM32F4xx_HAL_Driver/Src/stm32f4xx_hal_uart.c ****     huart->MspInitCallback(huart);
 623:Drivers/STM32F4xx_HAL_Driver/Src/stm32f4xx_hal_uart.c **** #else
 624:Drivers/STM32F4xx_HAL_Driver/Src/stm32f4xx_hal_uart.c ****     /* Init the low level hardware : GPIO, CLOCK */
 625:Drivers/STM32F4xx_HAL_Driver/Src/stm32f4xx_hal_uart.c ****     HAL_UART_MspInit(huart);
 458              		.loc 1 625 5
 459 002c F868     		ldr	r0, [r7, #12]
 460 002e FFF7FEFF 		bl	HAL_UART_MspInit
 461              	.L16:
 626:Drivers/STM32F4xx_HAL_Driver/Src/stm32f4xx_hal_uart.c **** #endif /* (USE_HAL_UART_REGISTER_CALLBACKS) */
 627:Drivers/STM32F4xx_HAL_Driver/Src/stm32f4xx_hal_uart.c ****   }
 628:Drivers/STM32F4xx_HAL_Driver/Src/stm32f4xx_hal_uart.c **** 
 629:Drivers/STM32F4xx_HAL_Driver/Src/stm32f4xx_hal_uart.c ****   huart->gState = HAL_UART_STATE_BUSY;
ARM GAS  /var/folders/06/9k7gq4t13mj84z2yhw3grvhc0000gn/T//ccfdabgt.s 			page 20


 462              		.loc 1 629 17
 463 0032 FB68     		ldr	r3, [r7, #12]
 464 0034 2422     		movs	r2, #36
 465 0036 83F84120 		strb	r2, [r3, #65]
 630:Drivers/STM32F4xx_HAL_Driver/Src/stm32f4xx_hal_uart.c **** 
 631:Drivers/STM32F4xx_HAL_Driver/Src/stm32f4xx_hal_uart.c ****   /* Disable the peripheral */
 632:Drivers/STM32F4xx_HAL_Driver/Src/stm32f4xx_hal_uart.c ****   __HAL_UART_DISABLE(huart);
 466              		.loc 1 632 3
 467 003a FB68     		ldr	r3, [r7, #12]
 468 003c 1B68     		ldr	r3, [r3]
 469 003e DA68     		ldr	r2, [r3, #12]
 470 0040 FB68     		ldr	r3, [r7, #12]
 471 0042 1B68     		ldr	r3, [r3]
 472 0044 22F40052 		bic	r2, r2, #8192
 473 0048 DA60     		str	r2, [r3, #12]
 633:Drivers/STM32F4xx_HAL_Driver/Src/stm32f4xx_hal_uart.c **** 
 634:Drivers/STM32F4xx_HAL_Driver/Src/stm32f4xx_hal_uart.c ****   /* Set the UART Communication parameters */
 635:Drivers/STM32F4xx_HAL_Driver/Src/stm32f4xx_hal_uart.c ****   UART_SetConfig(huart);
 474              		.loc 1 635 3
 475 004a F868     		ldr	r0, [r7, #12]
 476 004c FFF7FEFF 		bl	UART_SetConfig
 636:Drivers/STM32F4xx_HAL_Driver/Src/stm32f4xx_hal_uart.c **** 
 637:Drivers/STM32F4xx_HAL_Driver/Src/stm32f4xx_hal_uart.c ****   /* In Multi-Processor mode, the following bits must be kept cleared:
 638:Drivers/STM32F4xx_HAL_Driver/Src/stm32f4xx_hal_uart.c ****      - LINEN and CLKEN bits in the USART_CR2 register,
 639:Drivers/STM32F4xx_HAL_Driver/Src/stm32f4xx_hal_uart.c ****      - SCEN, HDSEL and IREN  bits in the USART_CR3 register */
 640:Drivers/STM32F4xx_HAL_Driver/Src/stm32f4xx_hal_uart.c ****   CLEAR_BIT(huart->Instance->CR2, (USART_CR2_LINEN | USART_CR2_CLKEN));
 477              		.loc 1 640 3
 478 0050 FB68     		ldr	r3, [r7, #12]
 479 0052 1B68     		ldr	r3, [r3]
 480 0054 1A69     		ldr	r2, [r3, #16]
 481 0056 FB68     		ldr	r3, [r7, #12]
 482 0058 1B68     		ldr	r3, [r3]
 483 005a 22F49042 		bic	r2, r2, #18432
 484 005e 1A61     		str	r2, [r3, #16]
 641:Drivers/STM32F4xx_HAL_Driver/Src/stm32f4xx_hal_uart.c ****   CLEAR_BIT(huart->Instance->CR3, (USART_CR3_SCEN | USART_CR3_HDSEL | USART_CR3_IREN));
 485              		.loc 1 641 3
 486 0060 FB68     		ldr	r3, [r7, #12]
 487 0062 1B68     		ldr	r3, [r3]
 488 0064 5A69     		ldr	r2, [r3, #20]
 489 0066 FB68     		ldr	r3, [r7, #12]
 490 0068 1B68     		ldr	r3, [r3]
 491 006a 22F02A02 		bic	r2, r2, #42
 492 006e 5A61     		str	r2, [r3, #20]
 642:Drivers/STM32F4xx_HAL_Driver/Src/stm32f4xx_hal_uart.c **** 
 643:Drivers/STM32F4xx_HAL_Driver/Src/stm32f4xx_hal_uart.c ****   /* Set the USART address node */
 644:Drivers/STM32F4xx_HAL_Driver/Src/stm32f4xx_hal_uart.c ****   CLEAR_BIT(huart->Instance->CR2, USART_CR2_ADD);
 493              		.loc 1 644 3
 494 0070 FB68     		ldr	r3, [r7, #12]
 495 0072 1B68     		ldr	r3, [r3]
 496 0074 1A69     		ldr	r2, [r3, #16]
 497 0076 FB68     		ldr	r3, [r7, #12]
 498 0078 1B68     		ldr	r3, [r3]
 499 007a 22F00F02 		bic	r2, r2, #15
 500 007e 1A61     		str	r2, [r3, #16]
 645:Drivers/STM32F4xx_HAL_Driver/Src/stm32f4xx_hal_uart.c ****   SET_BIT(huart->Instance->CR2, Address);
 501              		.loc 1 645 3
 502 0080 FB68     		ldr	r3, [r7, #12]
ARM GAS  /var/folders/06/9k7gq4t13mj84z2yhw3grvhc0000gn/T//ccfdabgt.s 			page 21


 503 0082 1B68     		ldr	r3, [r3]
 504 0084 1969     		ldr	r1, [r3, #16]
 505 0086 FA7A     		ldrb	r2, [r7, #11]	@ zero_extendqisi2
 506 0088 FB68     		ldr	r3, [r7, #12]
 507 008a 1B68     		ldr	r3, [r3]
 508 008c 0A43     		orrs	r2, r2, r1
 509 008e 1A61     		str	r2, [r3, #16]
 646:Drivers/STM32F4xx_HAL_Driver/Src/stm32f4xx_hal_uart.c **** 
 647:Drivers/STM32F4xx_HAL_Driver/Src/stm32f4xx_hal_uart.c ****   /* Set the wake up method by setting the WAKE bit in the CR1 register */
 648:Drivers/STM32F4xx_HAL_Driver/Src/stm32f4xx_hal_uart.c ****   CLEAR_BIT(huart->Instance->CR1, USART_CR1_WAKE);
 510              		.loc 1 648 3
 511 0090 FB68     		ldr	r3, [r7, #12]
 512 0092 1B68     		ldr	r3, [r3]
 513 0094 DA68     		ldr	r2, [r3, #12]
 514 0096 FB68     		ldr	r3, [r7, #12]
 515 0098 1B68     		ldr	r3, [r3]
 516 009a 22F40062 		bic	r2, r2, #2048
 517 009e DA60     		str	r2, [r3, #12]
 649:Drivers/STM32F4xx_HAL_Driver/Src/stm32f4xx_hal_uart.c ****   SET_BIT(huart->Instance->CR1, WakeUpMethod);
 518              		.loc 1 649 3
 519 00a0 FB68     		ldr	r3, [r7, #12]
 520 00a2 1B68     		ldr	r3, [r3]
 521 00a4 D968     		ldr	r1, [r3, #12]
 522 00a6 FB68     		ldr	r3, [r7, #12]
 523 00a8 1B68     		ldr	r3, [r3]
 524 00aa 7A68     		ldr	r2, [r7, #4]
 525 00ac 0A43     		orrs	r2, r2, r1
 526 00ae DA60     		str	r2, [r3, #12]
 650:Drivers/STM32F4xx_HAL_Driver/Src/stm32f4xx_hal_uart.c **** 
 651:Drivers/STM32F4xx_HAL_Driver/Src/stm32f4xx_hal_uart.c ****   /* Enable the peripheral */
 652:Drivers/STM32F4xx_HAL_Driver/Src/stm32f4xx_hal_uart.c ****   __HAL_UART_ENABLE(huart);
 527              		.loc 1 652 3
 528 00b0 FB68     		ldr	r3, [r7, #12]
 529 00b2 1B68     		ldr	r3, [r3]
 530 00b4 DA68     		ldr	r2, [r3, #12]
 531 00b6 FB68     		ldr	r3, [r7, #12]
 532 00b8 1B68     		ldr	r3, [r3]
 533 00ba 42F40052 		orr	r2, r2, #8192
 534 00be DA60     		str	r2, [r3, #12]
 653:Drivers/STM32F4xx_HAL_Driver/Src/stm32f4xx_hal_uart.c **** 
 654:Drivers/STM32F4xx_HAL_Driver/Src/stm32f4xx_hal_uart.c ****   /* Initialize the UART state */
 655:Drivers/STM32F4xx_HAL_Driver/Src/stm32f4xx_hal_uart.c ****   huart->ErrorCode = HAL_UART_ERROR_NONE;
 535              		.loc 1 655 20
 536 00c0 FB68     		ldr	r3, [r7, #12]
 537 00c2 0022     		movs	r2, #0
 538 00c4 5A64     		str	r2, [r3, #68]
 656:Drivers/STM32F4xx_HAL_Driver/Src/stm32f4xx_hal_uart.c ****   huart->gState = HAL_UART_STATE_READY;
 539              		.loc 1 656 17
 540 00c6 FB68     		ldr	r3, [r7, #12]
 541 00c8 2022     		movs	r2, #32
 542 00ca 83F84120 		strb	r2, [r3, #65]
 657:Drivers/STM32F4xx_HAL_Driver/Src/stm32f4xx_hal_uart.c ****   huart->RxState = HAL_UART_STATE_READY;
 543              		.loc 1 657 18
 544 00ce FB68     		ldr	r3, [r7, #12]
 545 00d0 2022     		movs	r2, #32
 546 00d2 83F84220 		strb	r2, [r3, #66]
 658:Drivers/STM32F4xx_HAL_Driver/Src/stm32f4xx_hal_uart.c ****   huart->RxEventType = HAL_UART_RXEVENT_TC;
ARM GAS  /var/folders/06/9k7gq4t13mj84z2yhw3grvhc0000gn/T//ccfdabgt.s 			page 22


 547              		.loc 1 658 22
 548 00d6 FB68     		ldr	r3, [r7, #12]
 549 00d8 0022     		movs	r2, #0
 550 00da 5A63     		str	r2, [r3, #52]
 659:Drivers/STM32F4xx_HAL_Driver/Src/stm32f4xx_hal_uart.c **** 
 660:Drivers/STM32F4xx_HAL_Driver/Src/stm32f4xx_hal_uart.c ****   return HAL_OK;
 551              		.loc 1 660 10
 552 00dc 0023     		movs	r3, #0
 553              	.L15:
 661:Drivers/STM32F4xx_HAL_Driver/Src/stm32f4xx_hal_uart.c **** }
 554              		.loc 1 661 1
 555 00de 1846     		mov	r0, r3
 556 00e0 1037     		adds	r7, r7, #16
 557              	.LCFI18:
 558              		.cfi_def_cfa_offset 8
 559 00e2 BD46     		mov	sp, r7
 560              	.LCFI19:
 561              		.cfi_def_cfa_register 13
 562              		@ sp needed
 563 00e4 80BD     		pop	{r7, pc}
 564              		.cfi_endproc
 565              	.LFE137:
 567              		.section	.text.HAL_UART_DeInit,"ax",%progbits
 568              		.align	1
 569              		.global	HAL_UART_DeInit
 570              		.syntax unified
 571              		.thumb
 572              		.thumb_func
 574              	HAL_UART_DeInit:
 575              	.LFB138:
 662:Drivers/STM32F4xx_HAL_Driver/Src/stm32f4xx_hal_uart.c **** 
 663:Drivers/STM32F4xx_HAL_Driver/Src/stm32f4xx_hal_uart.c **** /**
 664:Drivers/STM32F4xx_HAL_Driver/Src/stm32f4xx_hal_uart.c ****   * @brief  DeInitializes the UART peripheral.
 665:Drivers/STM32F4xx_HAL_Driver/Src/stm32f4xx_hal_uart.c ****   * @param  huart  Pointer to a UART_HandleTypeDef structure that contains
 666:Drivers/STM32F4xx_HAL_Driver/Src/stm32f4xx_hal_uart.c ****   *                the configuration information for the specified UART module.
 667:Drivers/STM32F4xx_HAL_Driver/Src/stm32f4xx_hal_uart.c ****   * @retval HAL status
 668:Drivers/STM32F4xx_HAL_Driver/Src/stm32f4xx_hal_uart.c ****   */
 669:Drivers/STM32F4xx_HAL_Driver/Src/stm32f4xx_hal_uart.c **** HAL_StatusTypeDef HAL_UART_DeInit(UART_HandleTypeDef *huart)
 670:Drivers/STM32F4xx_HAL_Driver/Src/stm32f4xx_hal_uart.c **** {
 576              		.loc 1 670 1
 577              		.cfi_startproc
 578              		@ args = 0, pretend = 0, frame = 8
 579              		@ frame_needed = 1, uses_anonymous_args = 0
 580 0000 80B5     		push	{r7, lr}
 581              	.LCFI20:
 582              		.cfi_def_cfa_offset 8
 583              		.cfi_offset 7, -8
 584              		.cfi_offset 14, -4
 585 0002 82B0     		sub	sp, sp, #8
 586              	.LCFI21:
 587              		.cfi_def_cfa_offset 16
 588 0004 00AF     		add	r7, sp, #0
 589              	.LCFI22:
 590              		.cfi_def_cfa_register 7
 591 0006 7860     		str	r0, [r7, #4]
 671:Drivers/STM32F4xx_HAL_Driver/Src/stm32f4xx_hal_uart.c ****   /* Check the UART handle allocation */
 672:Drivers/STM32F4xx_HAL_Driver/Src/stm32f4xx_hal_uart.c ****   if (huart == NULL)
ARM GAS  /var/folders/06/9k7gq4t13mj84z2yhw3grvhc0000gn/T//ccfdabgt.s 			page 23


 592              		.loc 1 672 6
 593 0008 7B68     		ldr	r3, [r7, #4]
 594 000a 002B     		cmp	r3, #0
 595 000c 01D1     		bne	.L18
 673:Drivers/STM32F4xx_HAL_Driver/Src/stm32f4xx_hal_uart.c ****   {
 674:Drivers/STM32F4xx_HAL_Driver/Src/stm32f4xx_hal_uart.c ****     return HAL_ERROR;
 596              		.loc 1 674 12
 597 000e 0123     		movs	r3, #1
 598 0010 24E0     		b	.L19
 599              	.L18:
 675:Drivers/STM32F4xx_HAL_Driver/Src/stm32f4xx_hal_uart.c ****   }
 676:Drivers/STM32F4xx_HAL_Driver/Src/stm32f4xx_hal_uart.c **** 
 677:Drivers/STM32F4xx_HAL_Driver/Src/stm32f4xx_hal_uart.c ****   /* Check the parameters */
 678:Drivers/STM32F4xx_HAL_Driver/Src/stm32f4xx_hal_uart.c ****   assert_param(IS_UART_INSTANCE(huart->Instance));
 679:Drivers/STM32F4xx_HAL_Driver/Src/stm32f4xx_hal_uart.c **** 
 680:Drivers/STM32F4xx_HAL_Driver/Src/stm32f4xx_hal_uart.c ****   huart->gState = HAL_UART_STATE_BUSY;
 600              		.loc 1 680 17
 601 0012 7B68     		ldr	r3, [r7, #4]
 602 0014 2422     		movs	r2, #36
 603 0016 83F84120 		strb	r2, [r3, #65]
 681:Drivers/STM32F4xx_HAL_Driver/Src/stm32f4xx_hal_uart.c **** 
 682:Drivers/STM32F4xx_HAL_Driver/Src/stm32f4xx_hal_uart.c ****   /* Disable the Peripheral */
 683:Drivers/STM32F4xx_HAL_Driver/Src/stm32f4xx_hal_uart.c ****   __HAL_UART_DISABLE(huart);
 604              		.loc 1 683 3
 605 001a 7B68     		ldr	r3, [r7, #4]
 606 001c 1B68     		ldr	r3, [r3]
 607 001e DA68     		ldr	r2, [r3, #12]
 608 0020 7B68     		ldr	r3, [r7, #4]
 609 0022 1B68     		ldr	r3, [r3]
 610 0024 22F40052 		bic	r2, r2, #8192
 611 0028 DA60     		str	r2, [r3, #12]
 684:Drivers/STM32F4xx_HAL_Driver/Src/stm32f4xx_hal_uart.c **** 
 685:Drivers/STM32F4xx_HAL_Driver/Src/stm32f4xx_hal_uart.c **** #if (USE_HAL_UART_REGISTER_CALLBACKS == 1)
 686:Drivers/STM32F4xx_HAL_Driver/Src/stm32f4xx_hal_uart.c ****   if (huart->MspDeInitCallback == NULL)
 687:Drivers/STM32F4xx_HAL_Driver/Src/stm32f4xx_hal_uart.c ****   {
 688:Drivers/STM32F4xx_HAL_Driver/Src/stm32f4xx_hal_uart.c ****     huart->MspDeInitCallback = HAL_UART_MspDeInit;
 689:Drivers/STM32F4xx_HAL_Driver/Src/stm32f4xx_hal_uart.c ****   }
 690:Drivers/STM32F4xx_HAL_Driver/Src/stm32f4xx_hal_uart.c ****   /* DeInit the low level hardware */
 691:Drivers/STM32F4xx_HAL_Driver/Src/stm32f4xx_hal_uart.c ****   huart->MspDeInitCallback(huart);
 692:Drivers/STM32F4xx_HAL_Driver/Src/stm32f4xx_hal_uart.c **** #else
 693:Drivers/STM32F4xx_HAL_Driver/Src/stm32f4xx_hal_uart.c ****   /* DeInit the low level hardware */
 694:Drivers/STM32F4xx_HAL_Driver/Src/stm32f4xx_hal_uart.c ****   HAL_UART_MspDeInit(huart);
 612              		.loc 1 694 3
 613 002a 7868     		ldr	r0, [r7, #4]
 614 002c FFF7FEFF 		bl	HAL_UART_MspDeInit
 695:Drivers/STM32F4xx_HAL_Driver/Src/stm32f4xx_hal_uart.c **** #endif /* (USE_HAL_UART_REGISTER_CALLBACKS) */
 696:Drivers/STM32F4xx_HAL_Driver/Src/stm32f4xx_hal_uart.c **** 
 697:Drivers/STM32F4xx_HAL_Driver/Src/stm32f4xx_hal_uart.c ****   huart->ErrorCode = HAL_UART_ERROR_NONE;
 615              		.loc 1 697 20
 616 0030 7B68     		ldr	r3, [r7, #4]
 617 0032 0022     		movs	r2, #0
 618 0034 5A64     		str	r2, [r3, #68]
 698:Drivers/STM32F4xx_HAL_Driver/Src/stm32f4xx_hal_uart.c ****   huart->gState = HAL_UART_STATE_RESET;
 619              		.loc 1 698 17
 620 0036 7B68     		ldr	r3, [r7, #4]
 621 0038 0022     		movs	r2, #0
 622 003a 83F84120 		strb	r2, [r3, #65]
ARM GAS  /var/folders/06/9k7gq4t13mj84z2yhw3grvhc0000gn/T//ccfdabgt.s 			page 24


 699:Drivers/STM32F4xx_HAL_Driver/Src/stm32f4xx_hal_uart.c ****   huart->RxState = HAL_UART_STATE_RESET;
 623              		.loc 1 699 18
 624 003e 7B68     		ldr	r3, [r7, #4]
 625 0040 0022     		movs	r2, #0
 626 0042 83F84220 		strb	r2, [r3, #66]
 700:Drivers/STM32F4xx_HAL_Driver/Src/stm32f4xx_hal_uart.c ****   huart->ReceptionType = HAL_UART_RECEPTION_STANDARD;
 627              		.loc 1 700 24
 628 0046 7B68     		ldr	r3, [r7, #4]
 629 0048 0022     		movs	r2, #0
 630 004a 1A63     		str	r2, [r3, #48]
 701:Drivers/STM32F4xx_HAL_Driver/Src/stm32f4xx_hal_uart.c ****   huart->RxEventType = HAL_UART_RXEVENT_TC;
 631              		.loc 1 701 22
 632 004c 7B68     		ldr	r3, [r7, #4]
 633 004e 0022     		movs	r2, #0
 634 0050 5A63     		str	r2, [r3, #52]
 702:Drivers/STM32F4xx_HAL_Driver/Src/stm32f4xx_hal_uart.c **** 
 703:Drivers/STM32F4xx_HAL_Driver/Src/stm32f4xx_hal_uart.c ****   /* Process Unlock */
 704:Drivers/STM32F4xx_HAL_Driver/Src/stm32f4xx_hal_uart.c ****   __HAL_UNLOCK(huart);
 635              		.loc 1 704 3
 636 0052 7B68     		ldr	r3, [r7, #4]
 637 0054 0022     		movs	r2, #0
 638 0056 83F84020 		strb	r2, [r3, #64]
 705:Drivers/STM32F4xx_HAL_Driver/Src/stm32f4xx_hal_uart.c **** 
 706:Drivers/STM32F4xx_HAL_Driver/Src/stm32f4xx_hal_uart.c ****   return HAL_OK;
 639              		.loc 1 706 10
 640 005a 0023     		movs	r3, #0
 641              	.L19:
 707:Drivers/STM32F4xx_HAL_Driver/Src/stm32f4xx_hal_uart.c **** }
 642              		.loc 1 707 1
 643 005c 1846     		mov	r0, r3
 644 005e 0837     		adds	r7, r7, #8
 645              	.LCFI23:
 646              		.cfi_def_cfa_offset 8
 647 0060 BD46     		mov	sp, r7
 648              	.LCFI24:
 649              		.cfi_def_cfa_register 13
 650              		@ sp needed
 651 0062 80BD     		pop	{r7, pc}
 652              		.cfi_endproc
 653              	.LFE138:
 655              		.section	.text.HAL_UART_MspInit,"ax",%progbits
 656              		.align	1
 657              		.weak	HAL_UART_MspInit
 658              		.syntax unified
 659              		.thumb
 660              		.thumb_func
 662              	HAL_UART_MspInit:
 663              	.LFB139:
 708:Drivers/STM32F4xx_HAL_Driver/Src/stm32f4xx_hal_uart.c **** 
 709:Drivers/STM32F4xx_HAL_Driver/Src/stm32f4xx_hal_uart.c **** /**
 710:Drivers/STM32F4xx_HAL_Driver/Src/stm32f4xx_hal_uart.c ****   * @brief  UART MSP Init.
 711:Drivers/STM32F4xx_HAL_Driver/Src/stm32f4xx_hal_uart.c ****   * @param  huart  Pointer to a UART_HandleTypeDef structure that contains
 712:Drivers/STM32F4xx_HAL_Driver/Src/stm32f4xx_hal_uart.c ****   *                the configuration information for the specified UART module.
 713:Drivers/STM32F4xx_HAL_Driver/Src/stm32f4xx_hal_uart.c ****   * @retval None
 714:Drivers/STM32F4xx_HAL_Driver/Src/stm32f4xx_hal_uart.c ****   */
 715:Drivers/STM32F4xx_HAL_Driver/Src/stm32f4xx_hal_uart.c **** __weak void HAL_UART_MspInit(UART_HandleTypeDef *huart)
 716:Drivers/STM32F4xx_HAL_Driver/Src/stm32f4xx_hal_uart.c **** {
ARM GAS  /var/folders/06/9k7gq4t13mj84z2yhw3grvhc0000gn/T//ccfdabgt.s 			page 25


 664              		.loc 1 716 1
 665              		.cfi_startproc
 666              		@ args = 0, pretend = 0, frame = 8
 667              		@ frame_needed = 1, uses_anonymous_args = 0
 668              		@ link register save eliminated.
 669 0000 80B4     		push	{r7}
 670              	.LCFI25:
 671              		.cfi_def_cfa_offset 4
 672              		.cfi_offset 7, -4
 673 0002 83B0     		sub	sp, sp, #12
 674              	.LCFI26:
 675              		.cfi_def_cfa_offset 16
 676 0004 00AF     		add	r7, sp, #0
 677              	.LCFI27:
 678              		.cfi_def_cfa_register 7
 679 0006 7860     		str	r0, [r7, #4]
 717:Drivers/STM32F4xx_HAL_Driver/Src/stm32f4xx_hal_uart.c ****   /* Prevent unused argument(s) compilation warning */
 718:Drivers/STM32F4xx_HAL_Driver/Src/stm32f4xx_hal_uart.c ****   UNUSED(huart);
 719:Drivers/STM32F4xx_HAL_Driver/Src/stm32f4xx_hal_uart.c ****   /* NOTE: This function should not be modified, when the callback is needed,
 720:Drivers/STM32F4xx_HAL_Driver/Src/stm32f4xx_hal_uart.c ****            the HAL_UART_MspInit could be implemented in the user file
 721:Drivers/STM32F4xx_HAL_Driver/Src/stm32f4xx_hal_uart.c ****    */
 722:Drivers/STM32F4xx_HAL_Driver/Src/stm32f4xx_hal_uart.c **** }
 680              		.loc 1 722 1
 681 0008 00BF     		nop
 682 000a 0C37     		adds	r7, r7, #12
 683              	.LCFI28:
 684              		.cfi_def_cfa_offset 4
 685 000c BD46     		mov	sp, r7
 686              	.LCFI29:
 687              		.cfi_def_cfa_register 13
 688              		@ sp needed
 689 000e 5DF8047B 		ldr	r7, [sp], #4
 690              	.LCFI30:
 691              		.cfi_restore 7
 692              		.cfi_def_cfa_offset 0
 693 0012 7047     		bx	lr
 694              		.cfi_endproc
 695              	.LFE139:
 697              		.section	.text.HAL_UART_MspDeInit,"ax",%progbits
 698              		.align	1
 699              		.weak	HAL_UART_MspDeInit
 700              		.syntax unified
 701              		.thumb
 702              		.thumb_func
 704              	HAL_UART_MspDeInit:
 705              	.LFB140:
 723:Drivers/STM32F4xx_HAL_Driver/Src/stm32f4xx_hal_uart.c **** 
 724:Drivers/STM32F4xx_HAL_Driver/Src/stm32f4xx_hal_uart.c **** /**
 725:Drivers/STM32F4xx_HAL_Driver/Src/stm32f4xx_hal_uart.c ****   * @brief  UART MSP DeInit.
 726:Drivers/STM32F4xx_HAL_Driver/Src/stm32f4xx_hal_uart.c ****   * @param  huart  Pointer to a UART_HandleTypeDef structure that contains
 727:Drivers/STM32F4xx_HAL_Driver/Src/stm32f4xx_hal_uart.c ****   *                the configuration information for the specified UART module.
 728:Drivers/STM32F4xx_HAL_Driver/Src/stm32f4xx_hal_uart.c ****   * @retval None
 729:Drivers/STM32F4xx_HAL_Driver/Src/stm32f4xx_hal_uart.c ****   */
 730:Drivers/STM32F4xx_HAL_Driver/Src/stm32f4xx_hal_uart.c **** __weak void HAL_UART_MspDeInit(UART_HandleTypeDef *huart)
 731:Drivers/STM32F4xx_HAL_Driver/Src/stm32f4xx_hal_uart.c **** {
 706              		.loc 1 731 1
 707              		.cfi_startproc
ARM GAS  /var/folders/06/9k7gq4t13mj84z2yhw3grvhc0000gn/T//ccfdabgt.s 			page 26


 708              		@ args = 0, pretend = 0, frame = 8
 709              		@ frame_needed = 1, uses_anonymous_args = 0
 710              		@ link register save eliminated.
 711 0000 80B4     		push	{r7}
 712              	.LCFI31:
 713              		.cfi_def_cfa_offset 4
 714              		.cfi_offset 7, -4
 715 0002 83B0     		sub	sp, sp, #12
 716              	.LCFI32:
 717              		.cfi_def_cfa_offset 16
 718 0004 00AF     		add	r7, sp, #0
 719              	.LCFI33:
 720              		.cfi_def_cfa_register 7
 721 0006 7860     		str	r0, [r7, #4]
 732:Drivers/STM32F4xx_HAL_Driver/Src/stm32f4xx_hal_uart.c ****   /* Prevent unused argument(s) compilation warning */
 733:Drivers/STM32F4xx_HAL_Driver/Src/stm32f4xx_hal_uart.c ****   UNUSED(huart);
 734:Drivers/STM32F4xx_HAL_Driver/Src/stm32f4xx_hal_uart.c ****   /* NOTE: This function should not be modified, when the callback is needed,
 735:Drivers/STM32F4xx_HAL_Driver/Src/stm32f4xx_hal_uart.c ****            the HAL_UART_MspDeInit could be implemented in the user file
 736:Drivers/STM32F4xx_HAL_Driver/Src/stm32f4xx_hal_uart.c ****    */
 737:Drivers/STM32F4xx_HAL_Driver/Src/stm32f4xx_hal_uart.c **** }
 722              		.loc 1 737 1
 723 0008 00BF     		nop
 724 000a 0C37     		adds	r7, r7, #12
 725              	.LCFI34:
 726              		.cfi_def_cfa_offset 4
 727 000c BD46     		mov	sp, r7
 728              	.LCFI35:
 729              		.cfi_def_cfa_register 13
 730              		@ sp needed
 731 000e 5DF8047B 		ldr	r7, [sp], #4
 732              	.LCFI36:
 733              		.cfi_restore 7
 734              		.cfi_def_cfa_offset 0
 735 0012 7047     		bx	lr
 736              		.cfi_endproc
 737              	.LFE140:
 739              		.section	.text.HAL_UART_Transmit,"ax",%progbits
 740              		.align	1
 741              		.global	HAL_UART_Transmit
 742              		.syntax unified
 743              		.thumb
 744              		.thumb_func
 746              	HAL_UART_Transmit:
 747              	.LFB141:
 738:Drivers/STM32F4xx_HAL_Driver/Src/stm32f4xx_hal_uart.c **** 
 739:Drivers/STM32F4xx_HAL_Driver/Src/stm32f4xx_hal_uart.c **** #if (USE_HAL_UART_REGISTER_CALLBACKS == 1)
 740:Drivers/STM32F4xx_HAL_Driver/Src/stm32f4xx_hal_uart.c **** /**
 741:Drivers/STM32F4xx_HAL_Driver/Src/stm32f4xx_hal_uart.c ****   * @brief  Register a User UART Callback
 742:Drivers/STM32F4xx_HAL_Driver/Src/stm32f4xx_hal_uart.c ****   *         To be used instead of the weak predefined callback
 743:Drivers/STM32F4xx_HAL_Driver/Src/stm32f4xx_hal_uart.c ****   * @note   The HAL_UART_RegisterCallback() may be called before HAL_UART_Init(), HAL_HalfDuplex_In
 744:Drivers/STM32F4xx_HAL_Driver/Src/stm32f4xx_hal_uart.c ****   *         HAL_MultiProcessor_Init() to register callbacks for HAL_UART_MSPINIT_CB_ID and HAL_UART
 745:Drivers/STM32F4xx_HAL_Driver/Src/stm32f4xx_hal_uart.c ****   * @param  huart uart handle
 746:Drivers/STM32F4xx_HAL_Driver/Src/stm32f4xx_hal_uart.c ****   * @param  CallbackID ID of the callback to be registered
 747:Drivers/STM32F4xx_HAL_Driver/Src/stm32f4xx_hal_uart.c ****   *         This parameter can be one of the following values:
 748:Drivers/STM32F4xx_HAL_Driver/Src/stm32f4xx_hal_uart.c ****   *           @arg @ref HAL_UART_TX_HALFCOMPLETE_CB_ID Tx Half Complete Callback ID
 749:Drivers/STM32F4xx_HAL_Driver/Src/stm32f4xx_hal_uart.c ****   *           @arg @ref HAL_UART_TX_COMPLETE_CB_ID Tx Complete Callback ID
 750:Drivers/STM32F4xx_HAL_Driver/Src/stm32f4xx_hal_uart.c ****   *           @arg @ref HAL_UART_RX_HALFCOMPLETE_CB_ID Rx Half Complete Callback ID
ARM GAS  /var/folders/06/9k7gq4t13mj84z2yhw3grvhc0000gn/T//ccfdabgt.s 			page 27


 751:Drivers/STM32F4xx_HAL_Driver/Src/stm32f4xx_hal_uart.c ****   *           @arg @ref HAL_UART_RX_COMPLETE_CB_ID Rx Complete Callback ID
 752:Drivers/STM32F4xx_HAL_Driver/Src/stm32f4xx_hal_uart.c ****   *           @arg @ref HAL_UART_ERROR_CB_ID Error Callback ID
 753:Drivers/STM32F4xx_HAL_Driver/Src/stm32f4xx_hal_uart.c ****   *           @arg @ref HAL_UART_ABORT_COMPLETE_CB_ID Abort Complete Callback ID
 754:Drivers/STM32F4xx_HAL_Driver/Src/stm32f4xx_hal_uart.c ****   *           @arg @ref HAL_UART_ABORT_TRANSMIT_COMPLETE_CB_ID Abort Transmit Complete Callback ID
 755:Drivers/STM32F4xx_HAL_Driver/Src/stm32f4xx_hal_uart.c ****   *           @arg @ref HAL_UART_ABORT_RECEIVE_COMPLETE_CB_ID Abort Receive Complete Callback ID
 756:Drivers/STM32F4xx_HAL_Driver/Src/stm32f4xx_hal_uart.c ****   *           @arg @ref HAL_UART_MSPINIT_CB_ID MspInit Callback ID
 757:Drivers/STM32F4xx_HAL_Driver/Src/stm32f4xx_hal_uart.c ****   *           @arg @ref HAL_UART_MSPDEINIT_CB_ID MspDeInit Callback ID
 758:Drivers/STM32F4xx_HAL_Driver/Src/stm32f4xx_hal_uart.c ****   * @param  pCallback pointer to the Callback function
 759:Drivers/STM32F4xx_HAL_Driver/Src/stm32f4xx_hal_uart.c ****   * @retval HAL status
 760:Drivers/STM32F4xx_HAL_Driver/Src/stm32f4xx_hal_uart.c ****   */
 761:Drivers/STM32F4xx_HAL_Driver/Src/stm32f4xx_hal_uart.c **** HAL_StatusTypeDef HAL_UART_RegisterCallback(UART_HandleTypeDef *huart, HAL_UART_CallbackIDTypeDef C
 762:Drivers/STM32F4xx_HAL_Driver/Src/stm32f4xx_hal_uart.c ****                                             pUART_CallbackTypeDef pCallback)
 763:Drivers/STM32F4xx_HAL_Driver/Src/stm32f4xx_hal_uart.c **** {
 764:Drivers/STM32F4xx_HAL_Driver/Src/stm32f4xx_hal_uart.c ****   HAL_StatusTypeDef status = HAL_OK;
 765:Drivers/STM32F4xx_HAL_Driver/Src/stm32f4xx_hal_uart.c **** 
 766:Drivers/STM32F4xx_HAL_Driver/Src/stm32f4xx_hal_uart.c ****   if (pCallback == NULL)
 767:Drivers/STM32F4xx_HAL_Driver/Src/stm32f4xx_hal_uart.c ****   {
 768:Drivers/STM32F4xx_HAL_Driver/Src/stm32f4xx_hal_uart.c ****     /* Update the error code */
 769:Drivers/STM32F4xx_HAL_Driver/Src/stm32f4xx_hal_uart.c ****     huart->ErrorCode |= HAL_UART_ERROR_INVALID_CALLBACK;
 770:Drivers/STM32F4xx_HAL_Driver/Src/stm32f4xx_hal_uart.c **** 
 771:Drivers/STM32F4xx_HAL_Driver/Src/stm32f4xx_hal_uart.c ****     return HAL_ERROR;
 772:Drivers/STM32F4xx_HAL_Driver/Src/stm32f4xx_hal_uart.c ****   }
 773:Drivers/STM32F4xx_HAL_Driver/Src/stm32f4xx_hal_uart.c **** 
 774:Drivers/STM32F4xx_HAL_Driver/Src/stm32f4xx_hal_uart.c ****   if (huart->gState == HAL_UART_STATE_READY)
 775:Drivers/STM32F4xx_HAL_Driver/Src/stm32f4xx_hal_uart.c ****   {
 776:Drivers/STM32F4xx_HAL_Driver/Src/stm32f4xx_hal_uart.c ****     switch (CallbackID)
 777:Drivers/STM32F4xx_HAL_Driver/Src/stm32f4xx_hal_uart.c ****     {
 778:Drivers/STM32F4xx_HAL_Driver/Src/stm32f4xx_hal_uart.c ****       case HAL_UART_TX_HALFCOMPLETE_CB_ID :
 779:Drivers/STM32F4xx_HAL_Driver/Src/stm32f4xx_hal_uart.c ****         huart->TxHalfCpltCallback = pCallback;
 780:Drivers/STM32F4xx_HAL_Driver/Src/stm32f4xx_hal_uart.c ****         break;
 781:Drivers/STM32F4xx_HAL_Driver/Src/stm32f4xx_hal_uart.c **** 
 782:Drivers/STM32F4xx_HAL_Driver/Src/stm32f4xx_hal_uart.c ****       case HAL_UART_TX_COMPLETE_CB_ID :
 783:Drivers/STM32F4xx_HAL_Driver/Src/stm32f4xx_hal_uart.c ****         huart->TxCpltCallback = pCallback;
 784:Drivers/STM32F4xx_HAL_Driver/Src/stm32f4xx_hal_uart.c ****         break;
 785:Drivers/STM32F4xx_HAL_Driver/Src/stm32f4xx_hal_uart.c **** 
 786:Drivers/STM32F4xx_HAL_Driver/Src/stm32f4xx_hal_uart.c ****       case HAL_UART_RX_HALFCOMPLETE_CB_ID :
 787:Drivers/STM32F4xx_HAL_Driver/Src/stm32f4xx_hal_uart.c ****         huart->RxHalfCpltCallback = pCallback;
 788:Drivers/STM32F4xx_HAL_Driver/Src/stm32f4xx_hal_uart.c ****         break;
 789:Drivers/STM32F4xx_HAL_Driver/Src/stm32f4xx_hal_uart.c **** 
 790:Drivers/STM32F4xx_HAL_Driver/Src/stm32f4xx_hal_uart.c ****       case HAL_UART_RX_COMPLETE_CB_ID :
 791:Drivers/STM32F4xx_HAL_Driver/Src/stm32f4xx_hal_uart.c ****         huart->RxCpltCallback = pCallback;
 792:Drivers/STM32F4xx_HAL_Driver/Src/stm32f4xx_hal_uart.c ****         break;
 793:Drivers/STM32F4xx_HAL_Driver/Src/stm32f4xx_hal_uart.c **** 
 794:Drivers/STM32F4xx_HAL_Driver/Src/stm32f4xx_hal_uart.c ****       case HAL_UART_ERROR_CB_ID :
 795:Drivers/STM32F4xx_HAL_Driver/Src/stm32f4xx_hal_uart.c ****         huart->ErrorCallback = pCallback;
 796:Drivers/STM32F4xx_HAL_Driver/Src/stm32f4xx_hal_uart.c ****         break;
 797:Drivers/STM32F4xx_HAL_Driver/Src/stm32f4xx_hal_uart.c **** 
 798:Drivers/STM32F4xx_HAL_Driver/Src/stm32f4xx_hal_uart.c ****       case HAL_UART_ABORT_COMPLETE_CB_ID :
 799:Drivers/STM32F4xx_HAL_Driver/Src/stm32f4xx_hal_uart.c ****         huart->AbortCpltCallback = pCallback;
 800:Drivers/STM32F4xx_HAL_Driver/Src/stm32f4xx_hal_uart.c ****         break;
 801:Drivers/STM32F4xx_HAL_Driver/Src/stm32f4xx_hal_uart.c **** 
 802:Drivers/STM32F4xx_HAL_Driver/Src/stm32f4xx_hal_uart.c ****       case HAL_UART_ABORT_TRANSMIT_COMPLETE_CB_ID :
 803:Drivers/STM32F4xx_HAL_Driver/Src/stm32f4xx_hal_uart.c ****         huart->AbortTransmitCpltCallback = pCallback;
 804:Drivers/STM32F4xx_HAL_Driver/Src/stm32f4xx_hal_uart.c ****         break;
 805:Drivers/STM32F4xx_HAL_Driver/Src/stm32f4xx_hal_uart.c **** 
 806:Drivers/STM32F4xx_HAL_Driver/Src/stm32f4xx_hal_uart.c ****       case HAL_UART_ABORT_RECEIVE_COMPLETE_CB_ID :
 807:Drivers/STM32F4xx_HAL_Driver/Src/stm32f4xx_hal_uart.c ****         huart->AbortReceiveCpltCallback = pCallback;
ARM GAS  /var/folders/06/9k7gq4t13mj84z2yhw3grvhc0000gn/T//ccfdabgt.s 			page 28


 808:Drivers/STM32F4xx_HAL_Driver/Src/stm32f4xx_hal_uart.c ****         break;
 809:Drivers/STM32F4xx_HAL_Driver/Src/stm32f4xx_hal_uart.c **** 
 810:Drivers/STM32F4xx_HAL_Driver/Src/stm32f4xx_hal_uart.c ****       case HAL_UART_MSPINIT_CB_ID :
 811:Drivers/STM32F4xx_HAL_Driver/Src/stm32f4xx_hal_uart.c ****         huart->MspInitCallback = pCallback;
 812:Drivers/STM32F4xx_HAL_Driver/Src/stm32f4xx_hal_uart.c ****         break;
 813:Drivers/STM32F4xx_HAL_Driver/Src/stm32f4xx_hal_uart.c **** 
 814:Drivers/STM32F4xx_HAL_Driver/Src/stm32f4xx_hal_uart.c ****       case HAL_UART_MSPDEINIT_CB_ID :
 815:Drivers/STM32F4xx_HAL_Driver/Src/stm32f4xx_hal_uart.c ****         huart->MspDeInitCallback = pCallback;
 816:Drivers/STM32F4xx_HAL_Driver/Src/stm32f4xx_hal_uart.c ****         break;
 817:Drivers/STM32F4xx_HAL_Driver/Src/stm32f4xx_hal_uart.c **** 
 818:Drivers/STM32F4xx_HAL_Driver/Src/stm32f4xx_hal_uart.c ****       default :
 819:Drivers/STM32F4xx_HAL_Driver/Src/stm32f4xx_hal_uart.c ****         /* Update the error code */
 820:Drivers/STM32F4xx_HAL_Driver/Src/stm32f4xx_hal_uart.c ****         huart->ErrorCode |= HAL_UART_ERROR_INVALID_CALLBACK;
 821:Drivers/STM32F4xx_HAL_Driver/Src/stm32f4xx_hal_uart.c **** 
 822:Drivers/STM32F4xx_HAL_Driver/Src/stm32f4xx_hal_uart.c ****         /* Return error status */
 823:Drivers/STM32F4xx_HAL_Driver/Src/stm32f4xx_hal_uart.c ****         status =  HAL_ERROR;
 824:Drivers/STM32F4xx_HAL_Driver/Src/stm32f4xx_hal_uart.c ****         break;
 825:Drivers/STM32F4xx_HAL_Driver/Src/stm32f4xx_hal_uart.c ****     }
 826:Drivers/STM32F4xx_HAL_Driver/Src/stm32f4xx_hal_uart.c ****   }
 827:Drivers/STM32F4xx_HAL_Driver/Src/stm32f4xx_hal_uart.c ****   else if (huart->gState == HAL_UART_STATE_RESET)
 828:Drivers/STM32F4xx_HAL_Driver/Src/stm32f4xx_hal_uart.c ****   {
 829:Drivers/STM32F4xx_HAL_Driver/Src/stm32f4xx_hal_uart.c ****     switch (CallbackID)
 830:Drivers/STM32F4xx_HAL_Driver/Src/stm32f4xx_hal_uart.c ****     {
 831:Drivers/STM32F4xx_HAL_Driver/Src/stm32f4xx_hal_uart.c ****       case HAL_UART_MSPINIT_CB_ID :
 832:Drivers/STM32F4xx_HAL_Driver/Src/stm32f4xx_hal_uart.c ****         huart->MspInitCallback = pCallback;
 833:Drivers/STM32F4xx_HAL_Driver/Src/stm32f4xx_hal_uart.c ****         break;
 834:Drivers/STM32F4xx_HAL_Driver/Src/stm32f4xx_hal_uart.c **** 
 835:Drivers/STM32F4xx_HAL_Driver/Src/stm32f4xx_hal_uart.c ****       case HAL_UART_MSPDEINIT_CB_ID :
 836:Drivers/STM32F4xx_HAL_Driver/Src/stm32f4xx_hal_uart.c ****         huart->MspDeInitCallback = pCallback;
 837:Drivers/STM32F4xx_HAL_Driver/Src/stm32f4xx_hal_uart.c ****         break;
 838:Drivers/STM32F4xx_HAL_Driver/Src/stm32f4xx_hal_uart.c **** 
 839:Drivers/STM32F4xx_HAL_Driver/Src/stm32f4xx_hal_uart.c ****       default :
 840:Drivers/STM32F4xx_HAL_Driver/Src/stm32f4xx_hal_uart.c ****         /* Update the error code */
 841:Drivers/STM32F4xx_HAL_Driver/Src/stm32f4xx_hal_uart.c ****         huart->ErrorCode |= HAL_UART_ERROR_INVALID_CALLBACK;
 842:Drivers/STM32F4xx_HAL_Driver/Src/stm32f4xx_hal_uart.c **** 
 843:Drivers/STM32F4xx_HAL_Driver/Src/stm32f4xx_hal_uart.c ****         /* Return error status */
 844:Drivers/STM32F4xx_HAL_Driver/Src/stm32f4xx_hal_uart.c ****         status =  HAL_ERROR;
 845:Drivers/STM32F4xx_HAL_Driver/Src/stm32f4xx_hal_uart.c ****         break;
 846:Drivers/STM32F4xx_HAL_Driver/Src/stm32f4xx_hal_uart.c ****     }
 847:Drivers/STM32F4xx_HAL_Driver/Src/stm32f4xx_hal_uart.c ****   }
 848:Drivers/STM32F4xx_HAL_Driver/Src/stm32f4xx_hal_uart.c ****   else
 849:Drivers/STM32F4xx_HAL_Driver/Src/stm32f4xx_hal_uart.c ****   {
 850:Drivers/STM32F4xx_HAL_Driver/Src/stm32f4xx_hal_uart.c ****     /* Update the error code */
 851:Drivers/STM32F4xx_HAL_Driver/Src/stm32f4xx_hal_uart.c ****     huart->ErrorCode |= HAL_UART_ERROR_INVALID_CALLBACK;
 852:Drivers/STM32F4xx_HAL_Driver/Src/stm32f4xx_hal_uart.c **** 
 853:Drivers/STM32F4xx_HAL_Driver/Src/stm32f4xx_hal_uart.c ****     /* Return error status */
 854:Drivers/STM32F4xx_HAL_Driver/Src/stm32f4xx_hal_uart.c ****     status =  HAL_ERROR;
 855:Drivers/STM32F4xx_HAL_Driver/Src/stm32f4xx_hal_uart.c ****   }
 856:Drivers/STM32F4xx_HAL_Driver/Src/stm32f4xx_hal_uart.c **** 
 857:Drivers/STM32F4xx_HAL_Driver/Src/stm32f4xx_hal_uart.c ****   return status;
 858:Drivers/STM32F4xx_HAL_Driver/Src/stm32f4xx_hal_uart.c **** }
 859:Drivers/STM32F4xx_HAL_Driver/Src/stm32f4xx_hal_uart.c **** 
 860:Drivers/STM32F4xx_HAL_Driver/Src/stm32f4xx_hal_uart.c **** /**
 861:Drivers/STM32F4xx_HAL_Driver/Src/stm32f4xx_hal_uart.c ****   * @brief  Unregister an UART Callback
 862:Drivers/STM32F4xx_HAL_Driver/Src/stm32f4xx_hal_uart.c ****   *         UART callaback is redirected to the weak predefined callback
 863:Drivers/STM32F4xx_HAL_Driver/Src/stm32f4xx_hal_uart.c ****   * @note   The HAL_UART_UnRegisterCallback() may be called before HAL_UART_Init(), HAL_HalfDuplex_
 864:Drivers/STM32F4xx_HAL_Driver/Src/stm32f4xx_hal_uart.c ****   *         HAL_LIN_Init(), HAL_MultiProcessor_Init() to un-register callbacks for HAL_UART_MSPINIT
ARM GAS  /var/folders/06/9k7gq4t13mj84z2yhw3grvhc0000gn/T//ccfdabgt.s 			page 29


 865:Drivers/STM32F4xx_HAL_Driver/Src/stm32f4xx_hal_uart.c ****   *         and HAL_UART_MSPDEINIT_CB_ID
 866:Drivers/STM32F4xx_HAL_Driver/Src/stm32f4xx_hal_uart.c ****   * @param  huart uart handle
 867:Drivers/STM32F4xx_HAL_Driver/Src/stm32f4xx_hal_uart.c ****   * @param  CallbackID ID of the callback to be unregistered
 868:Drivers/STM32F4xx_HAL_Driver/Src/stm32f4xx_hal_uart.c ****   *         This parameter can be one of the following values:
 869:Drivers/STM32F4xx_HAL_Driver/Src/stm32f4xx_hal_uart.c ****   *           @arg @ref HAL_UART_TX_HALFCOMPLETE_CB_ID Tx Half Complete Callback ID
 870:Drivers/STM32F4xx_HAL_Driver/Src/stm32f4xx_hal_uart.c ****   *           @arg @ref HAL_UART_TX_COMPLETE_CB_ID Tx Complete Callback ID
 871:Drivers/STM32F4xx_HAL_Driver/Src/stm32f4xx_hal_uart.c ****   *           @arg @ref HAL_UART_RX_HALFCOMPLETE_CB_ID Rx Half Complete Callback ID
 872:Drivers/STM32F4xx_HAL_Driver/Src/stm32f4xx_hal_uart.c ****   *           @arg @ref HAL_UART_RX_COMPLETE_CB_ID Rx Complete Callback ID
 873:Drivers/STM32F4xx_HAL_Driver/Src/stm32f4xx_hal_uart.c ****   *           @arg @ref HAL_UART_ERROR_CB_ID Error Callback ID
 874:Drivers/STM32F4xx_HAL_Driver/Src/stm32f4xx_hal_uart.c ****   *           @arg @ref HAL_UART_ABORT_COMPLETE_CB_ID Abort Complete Callback ID
 875:Drivers/STM32F4xx_HAL_Driver/Src/stm32f4xx_hal_uart.c ****   *           @arg @ref HAL_UART_ABORT_TRANSMIT_COMPLETE_CB_ID Abort Transmit Complete Callback ID
 876:Drivers/STM32F4xx_HAL_Driver/Src/stm32f4xx_hal_uart.c ****   *           @arg @ref HAL_UART_ABORT_RECEIVE_COMPLETE_CB_ID Abort Receive Complete Callback ID
 877:Drivers/STM32F4xx_HAL_Driver/Src/stm32f4xx_hal_uart.c ****   *           @arg @ref HAL_UART_MSPINIT_CB_ID MspInit Callback ID
 878:Drivers/STM32F4xx_HAL_Driver/Src/stm32f4xx_hal_uart.c ****   *           @arg @ref HAL_UART_MSPDEINIT_CB_ID MspDeInit Callback ID
 879:Drivers/STM32F4xx_HAL_Driver/Src/stm32f4xx_hal_uart.c ****   * @retval HAL status
 880:Drivers/STM32F4xx_HAL_Driver/Src/stm32f4xx_hal_uart.c ****   */
 881:Drivers/STM32F4xx_HAL_Driver/Src/stm32f4xx_hal_uart.c **** HAL_StatusTypeDef HAL_UART_UnRegisterCallback(UART_HandleTypeDef *huart, HAL_UART_CallbackIDTypeDef
 882:Drivers/STM32F4xx_HAL_Driver/Src/stm32f4xx_hal_uart.c **** {
 883:Drivers/STM32F4xx_HAL_Driver/Src/stm32f4xx_hal_uart.c ****   HAL_StatusTypeDef status = HAL_OK;
 884:Drivers/STM32F4xx_HAL_Driver/Src/stm32f4xx_hal_uart.c **** 
 885:Drivers/STM32F4xx_HAL_Driver/Src/stm32f4xx_hal_uart.c ****   if (HAL_UART_STATE_READY == huart->gState)
 886:Drivers/STM32F4xx_HAL_Driver/Src/stm32f4xx_hal_uart.c ****   {
 887:Drivers/STM32F4xx_HAL_Driver/Src/stm32f4xx_hal_uart.c ****     switch (CallbackID)
 888:Drivers/STM32F4xx_HAL_Driver/Src/stm32f4xx_hal_uart.c ****     {
 889:Drivers/STM32F4xx_HAL_Driver/Src/stm32f4xx_hal_uart.c ****       case HAL_UART_TX_HALFCOMPLETE_CB_ID :
 890:Drivers/STM32F4xx_HAL_Driver/Src/stm32f4xx_hal_uart.c ****         huart->TxHalfCpltCallback = HAL_UART_TxHalfCpltCallback;               /* Legacy weak  TxHa
 891:Drivers/STM32F4xx_HAL_Driver/Src/stm32f4xx_hal_uart.c ****         break;
 892:Drivers/STM32F4xx_HAL_Driver/Src/stm32f4xx_hal_uart.c **** 
 893:Drivers/STM32F4xx_HAL_Driver/Src/stm32f4xx_hal_uart.c ****       case HAL_UART_TX_COMPLETE_CB_ID :
 894:Drivers/STM32F4xx_HAL_Driver/Src/stm32f4xx_hal_uart.c ****         huart->TxCpltCallback = HAL_UART_TxCpltCallback;                       /* Legacy weak TxCpl
 895:Drivers/STM32F4xx_HAL_Driver/Src/stm32f4xx_hal_uart.c ****         break;
 896:Drivers/STM32F4xx_HAL_Driver/Src/stm32f4xx_hal_uart.c **** 
 897:Drivers/STM32F4xx_HAL_Driver/Src/stm32f4xx_hal_uart.c ****       case HAL_UART_RX_HALFCOMPLETE_CB_ID :
 898:Drivers/STM32F4xx_HAL_Driver/Src/stm32f4xx_hal_uart.c ****         huart->RxHalfCpltCallback = HAL_UART_RxHalfCpltCallback;               /* Legacy weak RxHal
 899:Drivers/STM32F4xx_HAL_Driver/Src/stm32f4xx_hal_uart.c ****         break;
 900:Drivers/STM32F4xx_HAL_Driver/Src/stm32f4xx_hal_uart.c **** 
 901:Drivers/STM32F4xx_HAL_Driver/Src/stm32f4xx_hal_uart.c ****       case HAL_UART_RX_COMPLETE_CB_ID :
 902:Drivers/STM32F4xx_HAL_Driver/Src/stm32f4xx_hal_uart.c ****         huart->RxCpltCallback = HAL_UART_RxCpltCallback;                       /* Legacy weak RxCpl
 903:Drivers/STM32F4xx_HAL_Driver/Src/stm32f4xx_hal_uart.c ****         break;
 904:Drivers/STM32F4xx_HAL_Driver/Src/stm32f4xx_hal_uart.c **** 
 905:Drivers/STM32F4xx_HAL_Driver/Src/stm32f4xx_hal_uart.c ****       case HAL_UART_ERROR_CB_ID :
 906:Drivers/STM32F4xx_HAL_Driver/Src/stm32f4xx_hal_uart.c ****         huart->ErrorCallback = HAL_UART_ErrorCallback;                         /* Legacy weak Error
 907:Drivers/STM32F4xx_HAL_Driver/Src/stm32f4xx_hal_uart.c ****         break;
 908:Drivers/STM32F4xx_HAL_Driver/Src/stm32f4xx_hal_uart.c **** 
 909:Drivers/STM32F4xx_HAL_Driver/Src/stm32f4xx_hal_uart.c ****       case HAL_UART_ABORT_COMPLETE_CB_ID :
 910:Drivers/STM32F4xx_HAL_Driver/Src/stm32f4xx_hal_uart.c ****         huart->AbortCpltCallback = HAL_UART_AbortCpltCallback;                 /* Legacy weak Abort
 911:Drivers/STM32F4xx_HAL_Driver/Src/stm32f4xx_hal_uart.c ****         break;
 912:Drivers/STM32F4xx_HAL_Driver/Src/stm32f4xx_hal_uart.c **** 
 913:Drivers/STM32F4xx_HAL_Driver/Src/stm32f4xx_hal_uart.c ****       case HAL_UART_ABORT_TRANSMIT_COMPLETE_CB_ID :
 914:Drivers/STM32F4xx_HAL_Driver/Src/stm32f4xx_hal_uart.c ****         huart->AbortTransmitCpltCallback = HAL_UART_AbortTransmitCpltCallback; /* Legacy weak Abort
 915:Drivers/STM32F4xx_HAL_Driver/Src/stm32f4xx_hal_uart.c ****         break;
 916:Drivers/STM32F4xx_HAL_Driver/Src/stm32f4xx_hal_uart.c **** 
 917:Drivers/STM32F4xx_HAL_Driver/Src/stm32f4xx_hal_uart.c ****       case HAL_UART_ABORT_RECEIVE_COMPLETE_CB_ID :
 918:Drivers/STM32F4xx_HAL_Driver/Src/stm32f4xx_hal_uart.c ****         huart->AbortReceiveCpltCallback = HAL_UART_AbortReceiveCpltCallback;   /* Legacy weak Abort
 919:Drivers/STM32F4xx_HAL_Driver/Src/stm32f4xx_hal_uart.c ****         break;
 920:Drivers/STM32F4xx_HAL_Driver/Src/stm32f4xx_hal_uart.c **** 
 921:Drivers/STM32F4xx_HAL_Driver/Src/stm32f4xx_hal_uart.c ****       case HAL_UART_MSPINIT_CB_ID :
ARM GAS  /var/folders/06/9k7gq4t13mj84z2yhw3grvhc0000gn/T//ccfdabgt.s 			page 30


 922:Drivers/STM32F4xx_HAL_Driver/Src/stm32f4xx_hal_uart.c ****         huart->MspInitCallback = HAL_UART_MspInit;                             /* Legacy weak MspIn
 923:Drivers/STM32F4xx_HAL_Driver/Src/stm32f4xx_hal_uart.c ****         break;
 924:Drivers/STM32F4xx_HAL_Driver/Src/stm32f4xx_hal_uart.c **** 
 925:Drivers/STM32F4xx_HAL_Driver/Src/stm32f4xx_hal_uart.c ****       case HAL_UART_MSPDEINIT_CB_ID :
 926:Drivers/STM32F4xx_HAL_Driver/Src/stm32f4xx_hal_uart.c ****         huart->MspDeInitCallback = HAL_UART_MspDeInit;                         /* Legacy weak MspDe
 927:Drivers/STM32F4xx_HAL_Driver/Src/stm32f4xx_hal_uart.c ****         break;
 928:Drivers/STM32F4xx_HAL_Driver/Src/stm32f4xx_hal_uart.c **** 
 929:Drivers/STM32F4xx_HAL_Driver/Src/stm32f4xx_hal_uart.c ****       default :
 930:Drivers/STM32F4xx_HAL_Driver/Src/stm32f4xx_hal_uart.c ****         /* Update the error code */
 931:Drivers/STM32F4xx_HAL_Driver/Src/stm32f4xx_hal_uart.c ****         huart->ErrorCode |= HAL_UART_ERROR_INVALID_CALLBACK;
 932:Drivers/STM32F4xx_HAL_Driver/Src/stm32f4xx_hal_uart.c **** 
 933:Drivers/STM32F4xx_HAL_Driver/Src/stm32f4xx_hal_uart.c ****         /* Return error status */
 934:Drivers/STM32F4xx_HAL_Driver/Src/stm32f4xx_hal_uart.c ****         status =  HAL_ERROR;
 935:Drivers/STM32F4xx_HAL_Driver/Src/stm32f4xx_hal_uart.c ****         break;
 936:Drivers/STM32F4xx_HAL_Driver/Src/stm32f4xx_hal_uart.c ****     }
 937:Drivers/STM32F4xx_HAL_Driver/Src/stm32f4xx_hal_uart.c ****   }
 938:Drivers/STM32F4xx_HAL_Driver/Src/stm32f4xx_hal_uart.c ****   else if (HAL_UART_STATE_RESET == huart->gState)
 939:Drivers/STM32F4xx_HAL_Driver/Src/stm32f4xx_hal_uart.c ****   {
 940:Drivers/STM32F4xx_HAL_Driver/Src/stm32f4xx_hal_uart.c ****     switch (CallbackID)
 941:Drivers/STM32F4xx_HAL_Driver/Src/stm32f4xx_hal_uart.c ****     {
 942:Drivers/STM32F4xx_HAL_Driver/Src/stm32f4xx_hal_uart.c ****       case HAL_UART_MSPINIT_CB_ID :
 943:Drivers/STM32F4xx_HAL_Driver/Src/stm32f4xx_hal_uart.c ****         huart->MspInitCallback = HAL_UART_MspInit;
 944:Drivers/STM32F4xx_HAL_Driver/Src/stm32f4xx_hal_uart.c ****         break;
 945:Drivers/STM32F4xx_HAL_Driver/Src/stm32f4xx_hal_uart.c **** 
 946:Drivers/STM32F4xx_HAL_Driver/Src/stm32f4xx_hal_uart.c ****       case HAL_UART_MSPDEINIT_CB_ID :
 947:Drivers/STM32F4xx_HAL_Driver/Src/stm32f4xx_hal_uart.c ****         huart->MspDeInitCallback = HAL_UART_MspDeInit;
 948:Drivers/STM32F4xx_HAL_Driver/Src/stm32f4xx_hal_uart.c ****         break;
 949:Drivers/STM32F4xx_HAL_Driver/Src/stm32f4xx_hal_uart.c **** 
 950:Drivers/STM32F4xx_HAL_Driver/Src/stm32f4xx_hal_uart.c ****       default :
 951:Drivers/STM32F4xx_HAL_Driver/Src/stm32f4xx_hal_uart.c ****         /* Update the error code */
 952:Drivers/STM32F4xx_HAL_Driver/Src/stm32f4xx_hal_uart.c ****         huart->ErrorCode |= HAL_UART_ERROR_INVALID_CALLBACK;
 953:Drivers/STM32F4xx_HAL_Driver/Src/stm32f4xx_hal_uart.c **** 
 954:Drivers/STM32F4xx_HAL_Driver/Src/stm32f4xx_hal_uart.c ****         /* Return error status */
 955:Drivers/STM32F4xx_HAL_Driver/Src/stm32f4xx_hal_uart.c ****         status =  HAL_ERROR;
 956:Drivers/STM32F4xx_HAL_Driver/Src/stm32f4xx_hal_uart.c ****         break;
 957:Drivers/STM32F4xx_HAL_Driver/Src/stm32f4xx_hal_uart.c ****     }
 958:Drivers/STM32F4xx_HAL_Driver/Src/stm32f4xx_hal_uart.c ****   }
 959:Drivers/STM32F4xx_HAL_Driver/Src/stm32f4xx_hal_uart.c ****   else
 960:Drivers/STM32F4xx_HAL_Driver/Src/stm32f4xx_hal_uart.c ****   {
 961:Drivers/STM32F4xx_HAL_Driver/Src/stm32f4xx_hal_uart.c ****     /* Update the error code */
 962:Drivers/STM32F4xx_HAL_Driver/Src/stm32f4xx_hal_uart.c ****     huart->ErrorCode |= HAL_UART_ERROR_INVALID_CALLBACK;
 963:Drivers/STM32F4xx_HAL_Driver/Src/stm32f4xx_hal_uart.c **** 
 964:Drivers/STM32F4xx_HAL_Driver/Src/stm32f4xx_hal_uart.c ****     /* Return error status */
 965:Drivers/STM32F4xx_HAL_Driver/Src/stm32f4xx_hal_uart.c ****     status =  HAL_ERROR;
 966:Drivers/STM32F4xx_HAL_Driver/Src/stm32f4xx_hal_uart.c ****   }
 967:Drivers/STM32F4xx_HAL_Driver/Src/stm32f4xx_hal_uart.c **** 
 968:Drivers/STM32F4xx_HAL_Driver/Src/stm32f4xx_hal_uart.c ****   return status;
 969:Drivers/STM32F4xx_HAL_Driver/Src/stm32f4xx_hal_uart.c **** }
 970:Drivers/STM32F4xx_HAL_Driver/Src/stm32f4xx_hal_uart.c **** 
 971:Drivers/STM32F4xx_HAL_Driver/Src/stm32f4xx_hal_uart.c **** /**
 972:Drivers/STM32F4xx_HAL_Driver/Src/stm32f4xx_hal_uart.c ****   * @brief  Register a User UART Rx Event Callback
 973:Drivers/STM32F4xx_HAL_Driver/Src/stm32f4xx_hal_uart.c ****   *         To be used instead of the weak predefined callback
 974:Drivers/STM32F4xx_HAL_Driver/Src/stm32f4xx_hal_uart.c ****   * @param  huart     Uart handle
 975:Drivers/STM32F4xx_HAL_Driver/Src/stm32f4xx_hal_uart.c ****   * @param  pCallback Pointer to the Rx Event Callback function
 976:Drivers/STM32F4xx_HAL_Driver/Src/stm32f4xx_hal_uart.c ****   * @retval HAL status
 977:Drivers/STM32F4xx_HAL_Driver/Src/stm32f4xx_hal_uart.c ****   */
 978:Drivers/STM32F4xx_HAL_Driver/Src/stm32f4xx_hal_uart.c **** HAL_StatusTypeDef HAL_UART_RegisterRxEventCallback(UART_HandleTypeDef *huart, pUART_RxEventCallback
ARM GAS  /var/folders/06/9k7gq4t13mj84z2yhw3grvhc0000gn/T//ccfdabgt.s 			page 31


 979:Drivers/STM32F4xx_HAL_Driver/Src/stm32f4xx_hal_uart.c **** {
 980:Drivers/STM32F4xx_HAL_Driver/Src/stm32f4xx_hal_uart.c ****   HAL_StatusTypeDef status = HAL_OK;
 981:Drivers/STM32F4xx_HAL_Driver/Src/stm32f4xx_hal_uart.c **** 
 982:Drivers/STM32F4xx_HAL_Driver/Src/stm32f4xx_hal_uart.c ****   if (pCallback == NULL)
 983:Drivers/STM32F4xx_HAL_Driver/Src/stm32f4xx_hal_uart.c ****   {
 984:Drivers/STM32F4xx_HAL_Driver/Src/stm32f4xx_hal_uart.c ****     huart->ErrorCode |= HAL_UART_ERROR_INVALID_CALLBACK;
 985:Drivers/STM32F4xx_HAL_Driver/Src/stm32f4xx_hal_uart.c **** 
 986:Drivers/STM32F4xx_HAL_Driver/Src/stm32f4xx_hal_uart.c ****     return HAL_ERROR;
 987:Drivers/STM32F4xx_HAL_Driver/Src/stm32f4xx_hal_uart.c ****   }
 988:Drivers/STM32F4xx_HAL_Driver/Src/stm32f4xx_hal_uart.c **** 
 989:Drivers/STM32F4xx_HAL_Driver/Src/stm32f4xx_hal_uart.c ****   /* Process locked */
 990:Drivers/STM32F4xx_HAL_Driver/Src/stm32f4xx_hal_uart.c ****   __HAL_LOCK(huart);
 991:Drivers/STM32F4xx_HAL_Driver/Src/stm32f4xx_hal_uart.c **** 
 992:Drivers/STM32F4xx_HAL_Driver/Src/stm32f4xx_hal_uart.c ****   if (huart->gState == HAL_UART_STATE_READY)
 993:Drivers/STM32F4xx_HAL_Driver/Src/stm32f4xx_hal_uart.c ****   {
 994:Drivers/STM32F4xx_HAL_Driver/Src/stm32f4xx_hal_uart.c ****     huart->RxEventCallback = pCallback;
 995:Drivers/STM32F4xx_HAL_Driver/Src/stm32f4xx_hal_uart.c ****   }
 996:Drivers/STM32F4xx_HAL_Driver/Src/stm32f4xx_hal_uart.c ****   else
 997:Drivers/STM32F4xx_HAL_Driver/Src/stm32f4xx_hal_uart.c ****   {
 998:Drivers/STM32F4xx_HAL_Driver/Src/stm32f4xx_hal_uart.c ****     huart->ErrorCode |= HAL_UART_ERROR_INVALID_CALLBACK;
 999:Drivers/STM32F4xx_HAL_Driver/Src/stm32f4xx_hal_uart.c **** 
1000:Drivers/STM32F4xx_HAL_Driver/Src/stm32f4xx_hal_uart.c ****     status =  HAL_ERROR;
1001:Drivers/STM32F4xx_HAL_Driver/Src/stm32f4xx_hal_uart.c ****   }
1002:Drivers/STM32F4xx_HAL_Driver/Src/stm32f4xx_hal_uart.c **** 
1003:Drivers/STM32F4xx_HAL_Driver/Src/stm32f4xx_hal_uart.c ****   /* Release Lock */
1004:Drivers/STM32F4xx_HAL_Driver/Src/stm32f4xx_hal_uart.c ****   __HAL_UNLOCK(huart);
1005:Drivers/STM32F4xx_HAL_Driver/Src/stm32f4xx_hal_uart.c **** 
1006:Drivers/STM32F4xx_HAL_Driver/Src/stm32f4xx_hal_uart.c ****   return status;
1007:Drivers/STM32F4xx_HAL_Driver/Src/stm32f4xx_hal_uart.c **** }
1008:Drivers/STM32F4xx_HAL_Driver/Src/stm32f4xx_hal_uart.c **** 
1009:Drivers/STM32F4xx_HAL_Driver/Src/stm32f4xx_hal_uart.c **** /**
1010:Drivers/STM32F4xx_HAL_Driver/Src/stm32f4xx_hal_uart.c ****   * @brief  UnRegister the UART Rx Event Callback
1011:Drivers/STM32F4xx_HAL_Driver/Src/stm32f4xx_hal_uart.c ****   *         UART Rx Event Callback is redirected to the weak HAL_UARTEx_RxEventCallback() predefine
1012:Drivers/STM32F4xx_HAL_Driver/Src/stm32f4xx_hal_uart.c ****   * @param  huart     Uart handle
1013:Drivers/STM32F4xx_HAL_Driver/Src/stm32f4xx_hal_uart.c ****   * @retval HAL status
1014:Drivers/STM32F4xx_HAL_Driver/Src/stm32f4xx_hal_uart.c ****   */
1015:Drivers/STM32F4xx_HAL_Driver/Src/stm32f4xx_hal_uart.c **** HAL_StatusTypeDef HAL_UART_UnRegisterRxEventCallback(UART_HandleTypeDef *huart)
1016:Drivers/STM32F4xx_HAL_Driver/Src/stm32f4xx_hal_uart.c **** {
1017:Drivers/STM32F4xx_HAL_Driver/Src/stm32f4xx_hal_uart.c ****   HAL_StatusTypeDef status = HAL_OK;
1018:Drivers/STM32F4xx_HAL_Driver/Src/stm32f4xx_hal_uart.c **** 
1019:Drivers/STM32F4xx_HAL_Driver/Src/stm32f4xx_hal_uart.c ****   /* Process locked */
1020:Drivers/STM32F4xx_HAL_Driver/Src/stm32f4xx_hal_uart.c ****   __HAL_LOCK(huart);
1021:Drivers/STM32F4xx_HAL_Driver/Src/stm32f4xx_hal_uart.c **** 
1022:Drivers/STM32F4xx_HAL_Driver/Src/stm32f4xx_hal_uart.c ****   if (huart->gState == HAL_UART_STATE_READY)
1023:Drivers/STM32F4xx_HAL_Driver/Src/stm32f4xx_hal_uart.c ****   {
1024:Drivers/STM32F4xx_HAL_Driver/Src/stm32f4xx_hal_uart.c ****     huart->RxEventCallback = HAL_UARTEx_RxEventCallback; /* Legacy weak UART Rx Event Callback  */
1025:Drivers/STM32F4xx_HAL_Driver/Src/stm32f4xx_hal_uart.c ****   }
1026:Drivers/STM32F4xx_HAL_Driver/Src/stm32f4xx_hal_uart.c ****   else
1027:Drivers/STM32F4xx_HAL_Driver/Src/stm32f4xx_hal_uart.c ****   {
1028:Drivers/STM32F4xx_HAL_Driver/Src/stm32f4xx_hal_uart.c ****     huart->ErrorCode |= HAL_UART_ERROR_INVALID_CALLBACK;
1029:Drivers/STM32F4xx_HAL_Driver/Src/stm32f4xx_hal_uart.c **** 
1030:Drivers/STM32F4xx_HAL_Driver/Src/stm32f4xx_hal_uart.c ****     status =  HAL_ERROR;
1031:Drivers/STM32F4xx_HAL_Driver/Src/stm32f4xx_hal_uart.c ****   }
1032:Drivers/STM32F4xx_HAL_Driver/Src/stm32f4xx_hal_uart.c **** 
1033:Drivers/STM32F4xx_HAL_Driver/Src/stm32f4xx_hal_uart.c ****   /* Release Lock */
1034:Drivers/STM32F4xx_HAL_Driver/Src/stm32f4xx_hal_uart.c ****   __HAL_UNLOCK(huart);
1035:Drivers/STM32F4xx_HAL_Driver/Src/stm32f4xx_hal_uart.c ****   return status;
ARM GAS  /var/folders/06/9k7gq4t13mj84z2yhw3grvhc0000gn/T//ccfdabgt.s 			page 32


1036:Drivers/STM32F4xx_HAL_Driver/Src/stm32f4xx_hal_uart.c **** }
1037:Drivers/STM32F4xx_HAL_Driver/Src/stm32f4xx_hal_uart.c **** #endif /* USE_HAL_UART_REGISTER_CALLBACKS */
1038:Drivers/STM32F4xx_HAL_Driver/Src/stm32f4xx_hal_uart.c **** 
1039:Drivers/STM32F4xx_HAL_Driver/Src/stm32f4xx_hal_uart.c **** /**
1040:Drivers/STM32F4xx_HAL_Driver/Src/stm32f4xx_hal_uart.c ****   * @}
1041:Drivers/STM32F4xx_HAL_Driver/Src/stm32f4xx_hal_uart.c ****   */
1042:Drivers/STM32F4xx_HAL_Driver/Src/stm32f4xx_hal_uart.c **** 
1043:Drivers/STM32F4xx_HAL_Driver/Src/stm32f4xx_hal_uart.c **** /** @defgroup UART_Exported_Functions_Group2 IO operation functions
1044:Drivers/STM32F4xx_HAL_Driver/Src/stm32f4xx_hal_uart.c ****   *  @brief UART Transmit and Receive functions
1045:Drivers/STM32F4xx_HAL_Driver/Src/stm32f4xx_hal_uart.c ****   *
1046:Drivers/STM32F4xx_HAL_Driver/Src/stm32f4xx_hal_uart.c **** @verbatim
1047:Drivers/STM32F4xx_HAL_Driver/Src/stm32f4xx_hal_uart.c ****  ===============================================================================
1048:Drivers/STM32F4xx_HAL_Driver/Src/stm32f4xx_hal_uart.c ****                       ##### IO operation functions #####
1049:Drivers/STM32F4xx_HAL_Driver/Src/stm32f4xx_hal_uart.c ****  ===============================================================================
1050:Drivers/STM32F4xx_HAL_Driver/Src/stm32f4xx_hal_uart.c ****     This subsection provides a set of functions allowing to manage the UART asynchronous
1051:Drivers/STM32F4xx_HAL_Driver/Src/stm32f4xx_hal_uart.c ****     and Half duplex data transfers.
1052:Drivers/STM32F4xx_HAL_Driver/Src/stm32f4xx_hal_uart.c **** 
1053:Drivers/STM32F4xx_HAL_Driver/Src/stm32f4xx_hal_uart.c ****     (#) There are two modes of transfer:
1054:Drivers/STM32F4xx_HAL_Driver/Src/stm32f4xx_hal_uart.c ****        (+) Blocking mode: The communication is performed in polling mode.
1055:Drivers/STM32F4xx_HAL_Driver/Src/stm32f4xx_hal_uart.c ****            The HAL status of all data processing is returned by the same function
1056:Drivers/STM32F4xx_HAL_Driver/Src/stm32f4xx_hal_uart.c ****            after finishing transfer.
1057:Drivers/STM32F4xx_HAL_Driver/Src/stm32f4xx_hal_uart.c ****        (+) Non-Blocking mode: The communication is performed using Interrupts
1058:Drivers/STM32F4xx_HAL_Driver/Src/stm32f4xx_hal_uart.c ****            or DMA, these API's return the HAL status.
1059:Drivers/STM32F4xx_HAL_Driver/Src/stm32f4xx_hal_uart.c ****            The end of the data processing will be indicated through the
1060:Drivers/STM32F4xx_HAL_Driver/Src/stm32f4xx_hal_uart.c ****            dedicated UART IRQ when using Interrupt mode or the DMA IRQ when
1061:Drivers/STM32F4xx_HAL_Driver/Src/stm32f4xx_hal_uart.c ****            using DMA mode.
1062:Drivers/STM32F4xx_HAL_Driver/Src/stm32f4xx_hal_uart.c ****            The HAL_UART_TxCpltCallback(), HAL_UART_RxCpltCallback() user callbacks
1063:Drivers/STM32F4xx_HAL_Driver/Src/stm32f4xx_hal_uart.c ****            will be executed respectively at the end of the transmit or receive process
1064:Drivers/STM32F4xx_HAL_Driver/Src/stm32f4xx_hal_uart.c ****            The HAL_UART_ErrorCallback()user callback will be executed when a communication error is
1065:Drivers/STM32F4xx_HAL_Driver/Src/stm32f4xx_hal_uart.c **** 
1066:Drivers/STM32F4xx_HAL_Driver/Src/stm32f4xx_hal_uart.c ****     (#) Blocking mode API's are :
1067:Drivers/STM32F4xx_HAL_Driver/Src/stm32f4xx_hal_uart.c ****         (+) HAL_UART_Transmit()
1068:Drivers/STM32F4xx_HAL_Driver/Src/stm32f4xx_hal_uart.c ****         (+) HAL_UART_Receive()
1069:Drivers/STM32F4xx_HAL_Driver/Src/stm32f4xx_hal_uart.c **** 
1070:Drivers/STM32F4xx_HAL_Driver/Src/stm32f4xx_hal_uart.c ****     (#) Non-Blocking mode API's with Interrupt are :
1071:Drivers/STM32F4xx_HAL_Driver/Src/stm32f4xx_hal_uart.c ****         (+) HAL_UART_Transmit_IT()
1072:Drivers/STM32F4xx_HAL_Driver/Src/stm32f4xx_hal_uart.c ****         (+) HAL_UART_Receive_IT()
1073:Drivers/STM32F4xx_HAL_Driver/Src/stm32f4xx_hal_uart.c ****         (+) HAL_UART_IRQHandler()
1074:Drivers/STM32F4xx_HAL_Driver/Src/stm32f4xx_hal_uart.c **** 
1075:Drivers/STM32F4xx_HAL_Driver/Src/stm32f4xx_hal_uart.c ****     (#) Non-Blocking mode API's with DMA are :
1076:Drivers/STM32F4xx_HAL_Driver/Src/stm32f4xx_hal_uart.c ****         (+) HAL_UART_Transmit_DMA()
1077:Drivers/STM32F4xx_HAL_Driver/Src/stm32f4xx_hal_uart.c ****         (+) HAL_UART_Receive_DMA()
1078:Drivers/STM32F4xx_HAL_Driver/Src/stm32f4xx_hal_uart.c ****         (+) HAL_UART_DMAPause()
1079:Drivers/STM32F4xx_HAL_Driver/Src/stm32f4xx_hal_uart.c ****         (+) HAL_UART_DMAResume()
1080:Drivers/STM32F4xx_HAL_Driver/Src/stm32f4xx_hal_uart.c ****         (+) HAL_UART_DMAStop()
1081:Drivers/STM32F4xx_HAL_Driver/Src/stm32f4xx_hal_uart.c **** 
1082:Drivers/STM32F4xx_HAL_Driver/Src/stm32f4xx_hal_uart.c ****     (#) A set of Transfer Complete Callbacks are provided in Non_Blocking mode:
1083:Drivers/STM32F4xx_HAL_Driver/Src/stm32f4xx_hal_uart.c ****         (+) HAL_UART_TxHalfCpltCallback()
1084:Drivers/STM32F4xx_HAL_Driver/Src/stm32f4xx_hal_uart.c ****         (+) HAL_UART_TxCpltCallback()
1085:Drivers/STM32F4xx_HAL_Driver/Src/stm32f4xx_hal_uart.c ****         (+) HAL_UART_RxHalfCpltCallback()
1086:Drivers/STM32F4xx_HAL_Driver/Src/stm32f4xx_hal_uart.c ****         (+) HAL_UART_RxCpltCallback()
1087:Drivers/STM32F4xx_HAL_Driver/Src/stm32f4xx_hal_uart.c ****         (+) HAL_UART_ErrorCallback()
1088:Drivers/STM32F4xx_HAL_Driver/Src/stm32f4xx_hal_uart.c **** 
1089:Drivers/STM32F4xx_HAL_Driver/Src/stm32f4xx_hal_uart.c ****     (#) Non-Blocking mode transfers could be aborted using Abort API's :
1090:Drivers/STM32F4xx_HAL_Driver/Src/stm32f4xx_hal_uart.c ****         (+) HAL_UART_Abort()
1091:Drivers/STM32F4xx_HAL_Driver/Src/stm32f4xx_hal_uart.c ****         (+) HAL_UART_AbortTransmit()
1092:Drivers/STM32F4xx_HAL_Driver/Src/stm32f4xx_hal_uart.c ****         (+) HAL_UART_AbortReceive()
ARM GAS  /var/folders/06/9k7gq4t13mj84z2yhw3grvhc0000gn/T//ccfdabgt.s 			page 33


1093:Drivers/STM32F4xx_HAL_Driver/Src/stm32f4xx_hal_uart.c ****         (+) HAL_UART_Abort_IT()
1094:Drivers/STM32F4xx_HAL_Driver/Src/stm32f4xx_hal_uart.c ****         (+) HAL_UART_AbortTransmit_IT()
1095:Drivers/STM32F4xx_HAL_Driver/Src/stm32f4xx_hal_uart.c ****         (+) HAL_UART_AbortReceive_IT()
1096:Drivers/STM32F4xx_HAL_Driver/Src/stm32f4xx_hal_uart.c **** 
1097:Drivers/STM32F4xx_HAL_Driver/Src/stm32f4xx_hal_uart.c ****     (#) For Abort services based on interrupts (HAL_UART_Abortxxx_IT), a set of Abort Complete Call
1098:Drivers/STM32F4xx_HAL_Driver/Src/stm32f4xx_hal_uart.c ****         (+) HAL_UART_AbortCpltCallback()
1099:Drivers/STM32F4xx_HAL_Driver/Src/stm32f4xx_hal_uart.c ****         (+) HAL_UART_AbortTransmitCpltCallback()
1100:Drivers/STM32F4xx_HAL_Driver/Src/stm32f4xx_hal_uart.c ****         (+) HAL_UART_AbortReceiveCpltCallback()
1101:Drivers/STM32F4xx_HAL_Driver/Src/stm32f4xx_hal_uart.c **** 
1102:Drivers/STM32F4xx_HAL_Driver/Src/stm32f4xx_hal_uart.c ****     (#) A Rx Event Reception Callback (Rx event notification) is available for Non_Blocking modes o
1103:Drivers/STM32F4xx_HAL_Driver/Src/stm32f4xx_hal_uart.c ****         (+) HAL_UARTEx_RxEventCallback()
1104:Drivers/STM32F4xx_HAL_Driver/Src/stm32f4xx_hal_uart.c **** 
1105:Drivers/STM32F4xx_HAL_Driver/Src/stm32f4xx_hal_uart.c ****     (#) In Non-Blocking mode transfers, possible errors are split into 2 categories.
1106:Drivers/STM32F4xx_HAL_Driver/Src/stm32f4xx_hal_uart.c ****         Errors are handled as follows :
1107:Drivers/STM32F4xx_HAL_Driver/Src/stm32f4xx_hal_uart.c ****        (+) Error is considered as Recoverable and non blocking : Transfer could go till end, but er
1108:Drivers/STM32F4xx_HAL_Driver/Src/stm32f4xx_hal_uart.c ****            to be evaluated by user : this concerns Frame Error, Parity Error or Noise Error in Inte
1109:Drivers/STM32F4xx_HAL_Driver/Src/stm32f4xx_hal_uart.c ****            Received character is then retrieved and stored in Rx buffer, Error code is set to allow
1110:Drivers/STM32F4xx_HAL_Driver/Src/stm32f4xx_hal_uart.c ****            and HAL_UART_ErrorCallback() user callback is executed. Transfer is kept ongoing on UART
1111:Drivers/STM32F4xx_HAL_Driver/Src/stm32f4xx_hal_uart.c ****            If user wants to abort it, Abort services should be called by user.
1112:Drivers/STM32F4xx_HAL_Driver/Src/stm32f4xx_hal_uart.c ****        (+) Error is considered as Blocking : Transfer could not be completed properly and is aborte
1113:Drivers/STM32F4xx_HAL_Driver/Src/stm32f4xx_hal_uart.c ****            This concerns Overrun Error In Interrupt mode reception and all errors in DMA mode.
1114:Drivers/STM32F4xx_HAL_Driver/Src/stm32f4xx_hal_uart.c ****            Error code is set to allow user to identify error type, and HAL_UART_ErrorCallback() use
1115:Drivers/STM32F4xx_HAL_Driver/Src/stm32f4xx_hal_uart.c **** 
1116:Drivers/STM32F4xx_HAL_Driver/Src/stm32f4xx_hal_uart.c ****     -@- In the Half duplex communication, it is forbidden to run the transmit
1117:Drivers/STM32F4xx_HAL_Driver/Src/stm32f4xx_hal_uart.c ****         and receive process in parallel, the UART state HAL_UART_STATE_BUSY_TX_RX can't be useful.
1118:Drivers/STM32F4xx_HAL_Driver/Src/stm32f4xx_hal_uart.c **** 
1119:Drivers/STM32F4xx_HAL_Driver/Src/stm32f4xx_hal_uart.c **** @endverbatim
1120:Drivers/STM32F4xx_HAL_Driver/Src/stm32f4xx_hal_uart.c ****   * @{
1121:Drivers/STM32F4xx_HAL_Driver/Src/stm32f4xx_hal_uart.c ****   */
1122:Drivers/STM32F4xx_HAL_Driver/Src/stm32f4xx_hal_uart.c **** 
1123:Drivers/STM32F4xx_HAL_Driver/Src/stm32f4xx_hal_uart.c **** /**
1124:Drivers/STM32F4xx_HAL_Driver/Src/stm32f4xx_hal_uart.c ****   * @brief  Sends an amount of data in blocking mode.
1125:Drivers/STM32F4xx_HAL_Driver/Src/stm32f4xx_hal_uart.c ****   * @note   When UART parity is not enabled (PCE = 0), and Word Length is configured to 9 bits (M1-
1126:Drivers/STM32F4xx_HAL_Driver/Src/stm32f4xx_hal_uart.c ****   *         the sent data is handled as a set of u16. In this case, Size must indicate the number
1127:Drivers/STM32F4xx_HAL_Driver/Src/stm32f4xx_hal_uart.c ****   *         of u16 provided through pData.
1128:Drivers/STM32F4xx_HAL_Driver/Src/stm32f4xx_hal_uart.c ****   * @param  huart Pointer to a UART_HandleTypeDef structure that contains
1129:Drivers/STM32F4xx_HAL_Driver/Src/stm32f4xx_hal_uart.c ****   *               the configuration information for the specified UART module.
1130:Drivers/STM32F4xx_HAL_Driver/Src/stm32f4xx_hal_uart.c ****   * @param  pData Pointer to data buffer (u8 or u16 data elements).
1131:Drivers/STM32F4xx_HAL_Driver/Src/stm32f4xx_hal_uart.c ****   * @param  Size  Amount of data elements (u8 or u16) to be sent
1132:Drivers/STM32F4xx_HAL_Driver/Src/stm32f4xx_hal_uart.c ****   * @param  Timeout Timeout duration
1133:Drivers/STM32F4xx_HAL_Driver/Src/stm32f4xx_hal_uart.c ****   * @retval HAL status
1134:Drivers/STM32F4xx_HAL_Driver/Src/stm32f4xx_hal_uart.c ****   */
1135:Drivers/STM32F4xx_HAL_Driver/Src/stm32f4xx_hal_uart.c **** HAL_StatusTypeDef HAL_UART_Transmit(UART_HandleTypeDef *huart, const uint8_t *pData, uint16_t Size,
1136:Drivers/STM32F4xx_HAL_Driver/Src/stm32f4xx_hal_uart.c **** {
 748              		.loc 1 1136 1
 749              		.cfi_startproc
 750              		@ args = 0, pretend = 0, frame = 32
 751              		@ frame_needed = 1, uses_anonymous_args = 0
 752 0000 80B5     		push	{r7, lr}
 753              	.LCFI37:
 754              		.cfi_def_cfa_offset 8
 755              		.cfi_offset 7, -8
 756              		.cfi_offset 14, -4
 757 0002 8AB0     		sub	sp, sp, #40
 758              	.LCFI38:
 759              		.cfi_def_cfa_offset 48
 760 0004 02AF     		add	r7, sp, #8
ARM GAS  /var/folders/06/9k7gq4t13mj84z2yhw3grvhc0000gn/T//ccfdabgt.s 			page 34


 761              	.LCFI39:
 762              		.cfi_def_cfa 7, 40
 763 0006 F860     		str	r0, [r7, #12]
 764 0008 B960     		str	r1, [r7, #8]
 765 000a 3B60     		str	r3, [r7]
 766 000c 1346     		mov	r3, r2	@ movhi
 767 000e FB80     		strh	r3, [r7, #6]	@ movhi
1137:Drivers/STM32F4xx_HAL_Driver/Src/stm32f4xx_hal_uart.c ****   const uint8_t  *pdata8bits;
1138:Drivers/STM32F4xx_HAL_Driver/Src/stm32f4xx_hal_uart.c ****   const uint16_t *pdata16bits;
1139:Drivers/STM32F4xx_HAL_Driver/Src/stm32f4xx_hal_uart.c ****   uint32_t tickstart = 0U;
 768              		.loc 1 1139 12
 769 0010 0023     		movs	r3, #0
 770 0012 7B61     		str	r3, [r7, #20]
1140:Drivers/STM32F4xx_HAL_Driver/Src/stm32f4xx_hal_uart.c **** 
1141:Drivers/STM32F4xx_HAL_Driver/Src/stm32f4xx_hal_uart.c ****   /* Check that a Tx process is not already ongoing */
1142:Drivers/STM32F4xx_HAL_Driver/Src/stm32f4xx_hal_uart.c ****   if (huart->gState == HAL_UART_STATE_READY)
 771              		.loc 1 1142 12
 772 0014 FB68     		ldr	r3, [r7, #12]
 773 0016 93F84130 		ldrb	r3, [r3, #65]
 774 001a DBB2     		uxtb	r3, r3
 775              		.loc 1 1142 6
 776 001c 202B     		cmp	r3, #32
 777 001e 75D1     		bne	.L23
1143:Drivers/STM32F4xx_HAL_Driver/Src/stm32f4xx_hal_uart.c ****   {
1144:Drivers/STM32F4xx_HAL_Driver/Src/stm32f4xx_hal_uart.c ****     if ((pData == NULL) || (Size == 0U))
 778              		.loc 1 1144 8
 779 0020 BB68     		ldr	r3, [r7, #8]
 780 0022 002B     		cmp	r3, #0
 781 0024 02D0     		beq	.L24
 782              		.loc 1 1144 25 discriminator 1
 783 0026 FB88     		ldrh	r3, [r7, #6]
 784 0028 002B     		cmp	r3, #0
 785 002a 01D1     		bne	.L25
 786              	.L24:
1145:Drivers/STM32F4xx_HAL_Driver/Src/stm32f4xx_hal_uart.c ****     {
1146:Drivers/STM32F4xx_HAL_Driver/Src/stm32f4xx_hal_uart.c ****       return  HAL_ERROR;
 787              		.loc 1 1146 15
 788 002c 0123     		movs	r3, #1
 789 002e 6EE0     		b	.L26
 790              	.L25:
1147:Drivers/STM32F4xx_HAL_Driver/Src/stm32f4xx_hal_uart.c ****     }
1148:Drivers/STM32F4xx_HAL_Driver/Src/stm32f4xx_hal_uart.c **** 
1149:Drivers/STM32F4xx_HAL_Driver/Src/stm32f4xx_hal_uart.c ****     huart->ErrorCode = HAL_UART_ERROR_NONE;
 791              		.loc 1 1149 22
 792 0030 FB68     		ldr	r3, [r7, #12]
 793 0032 0022     		movs	r2, #0
 794 0034 5A64     		str	r2, [r3, #68]
1150:Drivers/STM32F4xx_HAL_Driver/Src/stm32f4xx_hal_uart.c ****     huart->gState = HAL_UART_STATE_BUSY_TX;
 795              		.loc 1 1150 19
 796 0036 FB68     		ldr	r3, [r7, #12]
 797 0038 2122     		movs	r2, #33
 798 003a 83F84120 		strb	r2, [r3, #65]
1151:Drivers/STM32F4xx_HAL_Driver/Src/stm32f4xx_hal_uart.c **** 
1152:Drivers/STM32F4xx_HAL_Driver/Src/stm32f4xx_hal_uart.c ****     /* Init tickstart for timeout management */
1153:Drivers/STM32F4xx_HAL_Driver/Src/stm32f4xx_hal_uart.c ****     tickstart = HAL_GetTick();
 799              		.loc 1 1153 17
 800 003e FFF7FEFF 		bl	HAL_GetTick
ARM GAS  /var/folders/06/9k7gq4t13mj84z2yhw3grvhc0000gn/T//ccfdabgt.s 			page 35


 801 0042 7861     		str	r0, [r7, #20]
1154:Drivers/STM32F4xx_HAL_Driver/Src/stm32f4xx_hal_uart.c **** 
1155:Drivers/STM32F4xx_HAL_Driver/Src/stm32f4xx_hal_uart.c ****     huart->TxXferSize = Size;
 802              		.loc 1 1155 23
 803 0044 FB68     		ldr	r3, [r7, #12]
 804 0046 FA88     		ldrh	r2, [r7, #6]	@ movhi
 805 0048 9A84     		strh	r2, [r3, #36]	@ movhi
1156:Drivers/STM32F4xx_HAL_Driver/Src/stm32f4xx_hal_uart.c ****     huart->TxXferCount = Size;
 806              		.loc 1 1156 24
 807 004a FB68     		ldr	r3, [r7, #12]
 808 004c FA88     		ldrh	r2, [r7, #6]	@ movhi
 809 004e DA84     		strh	r2, [r3, #38]	@ movhi
1157:Drivers/STM32F4xx_HAL_Driver/Src/stm32f4xx_hal_uart.c **** 
1158:Drivers/STM32F4xx_HAL_Driver/Src/stm32f4xx_hal_uart.c ****     /* In case of 9bits/No Parity transfer, pData needs to be handled as a uint16_t pointer */
1159:Drivers/STM32F4xx_HAL_Driver/Src/stm32f4xx_hal_uart.c ****     if ((huart->Init.WordLength == UART_WORDLENGTH_9B) && (huart->Init.Parity == UART_PARITY_NONE))
 810              		.loc 1 1159 21
 811 0050 FB68     		ldr	r3, [r7, #12]
 812 0052 9B68     		ldr	r3, [r3, #8]
 813              		.loc 1 1159 8
 814 0054 B3F5805F 		cmp	r3, #4096
 815 0058 08D1     		bne	.L27
 816              		.loc 1 1159 71 discriminator 1
 817 005a FB68     		ldr	r3, [r7, #12]
 818 005c 1B69     		ldr	r3, [r3, #16]
 819              		.loc 1 1159 56 discriminator 1
 820 005e 002B     		cmp	r3, #0
 821 0060 04D1     		bne	.L27
1160:Drivers/STM32F4xx_HAL_Driver/Src/stm32f4xx_hal_uart.c ****     {
1161:Drivers/STM32F4xx_HAL_Driver/Src/stm32f4xx_hal_uart.c ****       pdata8bits  = NULL;
 822              		.loc 1 1161 19
 823 0062 0023     		movs	r3, #0
 824 0064 FB61     		str	r3, [r7, #28]
1162:Drivers/STM32F4xx_HAL_Driver/Src/stm32f4xx_hal_uart.c ****       pdata16bits = (const uint16_t *) pData;
 825              		.loc 1 1162 19
 826 0066 BB68     		ldr	r3, [r7, #8]
 827 0068 BB61     		str	r3, [r7, #24]
 828 006a 03E0     		b	.L28
 829              	.L27:
1163:Drivers/STM32F4xx_HAL_Driver/Src/stm32f4xx_hal_uart.c ****     }
1164:Drivers/STM32F4xx_HAL_Driver/Src/stm32f4xx_hal_uart.c ****     else
1165:Drivers/STM32F4xx_HAL_Driver/Src/stm32f4xx_hal_uart.c ****     {
1166:Drivers/STM32F4xx_HAL_Driver/Src/stm32f4xx_hal_uart.c ****       pdata8bits  = pData;
 830              		.loc 1 1166 19
 831 006c BB68     		ldr	r3, [r7, #8]
 832 006e FB61     		str	r3, [r7, #28]
1167:Drivers/STM32F4xx_HAL_Driver/Src/stm32f4xx_hal_uart.c ****       pdata16bits = NULL;
 833              		.loc 1 1167 19
 834 0070 0023     		movs	r3, #0
 835 0072 BB61     		str	r3, [r7, #24]
 836              	.L28:
1168:Drivers/STM32F4xx_HAL_Driver/Src/stm32f4xx_hal_uart.c ****     }
1169:Drivers/STM32F4xx_HAL_Driver/Src/stm32f4xx_hal_uart.c **** 
1170:Drivers/STM32F4xx_HAL_Driver/Src/stm32f4xx_hal_uart.c ****     while (huart->TxXferCount > 0U)
 837              		.loc 1 1170 11
 838 0074 2EE0     		b	.L29
 839              	.L33:
1171:Drivers/STM32F4xx_HAL_Driver/Src/stm32f4xx_hal_uart.c ****     {
ARM GAS  /var/folders/06/9k7gq4t13mj84z2yhw3grvhc0000gn/T//ccfdabgt.s 			page 36


1172:Drivers/STM32F4xx_HAL_Driver/Src/stm32f4xx_hal_uart.c ****       if (UART_WaitOnFlagUntilTimeout(huart, UART_FLAG_TXE, RESET, tickstart, Timeout) != HAL_OK)
 840              		.loc 1 1172 11
 841 0076 3B68     		ldr	r3, [r7]
 842 0078 0093     		str	r3, [sp]
 843 007a 7B69     		ldr	r3, [r7, #20]
 844 007c 0022     		movs	r2, #0
 845 007e 8021     		movs	r1, #128
 846 0080 F868     		ldr	r0, [r7, #12]
 847 0082 FFF7FEFF 		bl	UART_WaitOnFlagUntilTimeout
 848 0086 0346     		mov	r3, r0
 849              		.loc 1 1172 10 discriminator 1
 850 0088 002B     		cmp	r3, #0
 851 008a 05D0     		beq	.L30
1173:Drivers/STM32F4xx_HAL_Driver/Src/stm32f4xx_hal_uart.c ****       {
1174:Drivers/STM32F4xx_HAL_Driver/Src/stm32f4xx_hal_uart.c ****         huart->gState = HAL_UART_STATE_READY;
 852              		.loc 1 1174 23
 853 008c FB68     		ldr	r3, [r7, #12]
 854 008e 2022     		movs	r2, #32
 855 0090 83F84120 		strb	r2, [r3, #65]
1175:Drivers/STM32F4xx_HAL_Driver/Src/stm32f4xx_hal_uart.c **** 
1176:Drivers/STM32F4xx_HAL_Driver/Src/stm32f4xx_hal_uart.c ****         return HAL_TIMEOUT;
 856              		.loc 1 1176 16
 857 0094 0323     		movs	r3, #3
 858 0096 3AE0     		b	.L26
 859              	.L30:
1177:Drivers/STM32F4xx_HAL_Driver/Src/stm32f4xx_hal_uart.c ****       }
1178:Drivers/STM32F4xx_HAL_Driver/Src/stm32f4xx_hal_uart.c ****       if (pdata8bits == NULL)
 860              		.loc 1 1178 10
 861 0098 FB69     		ldr	r3, [r7, #28]
 862 009a 002B     		cmp	r3, #0
 863 009c 0BD1     		bne	.L31
1179:Drivers/STM32F4xx_HAL_Driver/Src/stm32f4xx_hal_uart.c ****       {
1180:Drivers/STM32F4xx_HAL_Driver/Src/stm32f4xx_hal_uart.c ****         huart->Instance->DR = (uint16_t)(*pdata16bits & 0x01FFU);
 864              		.loc 1 1180 42
 865 009e BB69     		ldr	r3, [r7, #24]
 866 00a0 1B88     		ldrh	r3, [r3]
 867              		.loc 1 1180 31
 868 00a2 1A46     		mov	r2, r3
 869              		.loc 1 1180 14
 870 00a4 FB68     		ldr	r3, [r7, #12]
 871 00a6 1B68     		ldr	r3, [r3]
 872              		.loc 1 1180 31
 873 00a8 C2F30802 		ubfx	r2, r2, #0, #9
 874              		.loc 1 1180 29
 875 00ac 5A60     		str	r2, [r3, #4]
1181:Drivers/STM32F4xx_HAL_Driver/Src/stm32f4xx_hal_uart.c ****         pdata16bits++;
 876              		.loc 1 1181 20
 877 00ae BB69     		ldr	r3, [r7, #24]
 878 00b0 0233     		adds	r3, r3, #2
 879 00b2 BB61     		str	r3, [r7, #24]
 880 00b4 07E0     		b	.L32
 881              	.L31:
1182:Drivers/STM32F4xx_HAL_Driver/Src/stm32f4xx_hal_uart.c ****       }
1183:Drivers/STM32F4xx_HAL_Driver/Src/stm32f4xx_hal_uart.c ****       else
1184:Drivers/STM32F4xx_HAL_Driver/Src/stm32f4xx_hal_uart.c ****       {
1185:Drivers/STM32F4xx_HAL_Driver/Src/stm32f4xx_hal_uart.c ****         huart->Instance->DR = (uint8_t)(*pdata8bits & 0xFFU);
 882              		.loc 1 1185 41
ARM GAS  /var/folders/06/9k7gq4t13mj84z2yhw3grvhc0000gn/T//ccfdabgt.s 			page 37


 883 00b6 FB69     		ldr	r3, [r7, #28]
 884 00b8 1A78     		ldrb	r2, [r3]	@ zero_extendqisi2
 885              		.loc 1 1185 14
 886 00ba FB68     		ldr	r3, [r7, #12]
 887 00bc 1B68     		ldr	r3, [r3]
 888              		.loc 1 1185 29
 889 00be 5A60     		str	r2, [r3, #4]
1186:Drivers/STM32F4xx_HAL_Driver/Src/stm32f4xx_hal_uart.c ****         pdata8bits++;
 890              		.loc 1 1186 19
 891 00c0 FB69     		ldr	r3, [r7, #28]
 892 00c2 0133     		adds	r3, r3, #1
 893 00c4 FB61     		str	r3, [r7, #28]
 894              	.L32:
1187:Drivers/STM32F4xx_HAL_Driver/Src/stm32f4xx_hal_uart.c ****       }
1188:Drivers/STM32F4xx_HAL_Driver/Src/stm32f4xx_hal_uart.c ****       huart->TxXferCount--;
 895              		.loc 1 1188 12
 896 00c6 FB68     		ldr	r3, [r7, #12]
 897 00c8 DB8C     		ldrh	r3, [r3, #38]	@ movhi
 898 00ca 9BB2     		uxth	r3, r3
 899              		.loc 1 1188 25
 900 00cc 013B     		subs	r3, r3, #1
 901 00ce 9AB2     		uxth	r2, r3
 902 00d0 FB68     		ldr	r3, [r7, #12]
 903 00d2 DA84     		strh	r2, [r3, #38]	@ movhi
 904              	.L29:
1170:Drivers/STM32F4xx_HAL_Driver/Src/stm32f4xx_hal_uart.c ****     {
 905              		.loc 1 1170 17
 906 00d4 FB68     		ldr	r3, [r7, #12]
 907 00d6 DB8C     		ldrh	r3, [r3, #38]	@ movhi
 908 00d8 9BB2     		uxth	r3, r3
1170:Drivers/STM32F4xx_HAL_Driver/Src/stm32f4xx_hal_uart.c ****     {
 909              		.loc 1 1170 31
 910 00da 002B     		cmp	r3, #0
 911 00dc CBD1     		bne	.L33
1189:Drivers/STM32F4xx_HAL_Driver/Src/stm32f4xx_hal_uart.c ****     }
1190:Drivers/STM32F4xx_HAL_Driver/Src/stm32f4xx_hal_uart.c **** 
1191:Drivers/STM32F4xx_HAL_Driver/Src/stm32f4xx_hal_uart.c ****     if (UART_WaitOnFlagUntilTimeout(huart, UART_FLAG_TC, RESET, tickstart, Timeout) != HAL_OK)
 912              		.loc 1 1191 9
 913 00de 3B68     		ldr	r3, [r7]
 914 00e0 0093     		str	r3, [sp]
 915 00e2 7B69     		ldr	r3, [r7, #20]
 916 00e4 0022     		movs	r2, #0
 917 00e6 4021     		movs	r1, #64
 918 00e8 F868     		ldr	r0, [r7, #12]
 919 00ea FFF7FEFF 		bl	UART_WaitOnFlagUntilTimeout
 920 00ee 0346     		mov	r3, r0
 921              		.loc 1 1191 8 discriminator 1
 922 00f0 002B     		cmp	r3, #0
 923 00f2 05D0     		beq	.L34
1192:Drivers/STM32F4xx_HAL_Driver/Src/stm32f4xx_hal_uart.c ****     {
1193:Drivers/STM32F4xx_HAL_Driver/Src/stm32f4xx_hal_uart.c ****       huart->gState = HAL_UART_STATE_READY;
 924              		.loc 1 1193 21
 925 00f4 FB68     		ldr	r3, [r7, #12]
 926 00f6 2022     		movs	r2, #32
 927 00f8 83F84120 		strb	r2, [r3, #65]
1194:Drivers/STM32F4xx_HAL_Driver/Src/stm32f4xx_hal_uart.c **** 
1195:Drivers/STM32F4xx_HAL_Driver/Src/stm32f4xx_hal_uart.c ****       return HAL_TIMEOUT;
ARM GAS  /var/folders/06/9k7gq4t13mj84z2yhw3grvhc0000gn/T//ccfdabgt.s 			page 38


 928              		.loc 1 1195 14
 929 00fc 0323     		movs	r3, #3
 930 00fe 06E0     		b	.L26
 931              	.L34:
1196:Drivers/STM32F4xx_HAL_Driver/Src/stm32f4xx_hal_uart.c ****     }
1197:Drivers/STM32F4xx_HAL_Driver/Src/stm32f4xx_hal_uart.c **** 
1198:Drivers/STM32F4xx_HAL_Driver/Src/stm32f4xx_hal_uart.c ****     /* At end of Tx process, restore huart->gState to Ready */
1199:Drivers/STM32F4xx_HAL_Driver/Src/stm32f4xx_hal_uart.c ****     huart->gState = HAL_UART_STATE_READY;
 932              		.loc 1 1199 19
 933 0100 FB68     		ldr	r3, [r7, #12]
 934 0102 2022     		movs	r2, #32
 935 0104 83F84120 		strb	r2, [r3, #65]
1200:Drivers/STM32F4xx_HAL_Driver/Src/stm32f4xx_hal_uart.c **** 
1201:Drivers/STM32F4xx_HAL_Driver/Src/stm32f4xx_hal_uart.c ****     return HAL_OK;
 936              		.loc 1 1201 12
 937 0108 0023     		movs	r3, #0
 938 010a 00E0     		b	.L26
 939              	.L23:
1202:Drivers/STM32F4xx_HAL_Driver/Src/stm32f4xx_hal_uart.c ****   }
1203:Drivers/STM32F4xx_HAL_Driver/Src/stm32f4xx_hal_uart.c ****   else
1204:Drivers/STM32F4xx_HAL_Driver/Src/stm32f4xx_hal_uart.c ****   {
1205:Drivers/STM32F4xx_HAL_Driver/Src/stm32f4xx_hal_uart.c ****     return HAL_BUSY;
 940              		.loc 1 1205 12
 941 010c 0223     		movs	r3, #2
 942              	.L26:
1206:Drivers/STM32F4xx_HAL_Driver/Src/stm32f4xx_hal_uart.c ****   }
1207:Drivers/STM32F4xx_HAL_Driver/Src/stm32f4xx_hal_uart.c **** }
 943              		.loc 1 1207 1
 944 010e 1846     		mov	r0, r3
 945 0110 2037     		adds	r7, r7, #32
 946              	.LCFI40:
 947              		.cfi_def_cfa_offset 8
 948 0112 BD46     		mov	sp, r7
 949              	.LCFI41:
 950              		.cfi_def_cfa_register 13
 951              		@ sp needed
 952 0114 80BD     		pop	{r7, pc}
 953              		.cfi_endproc
 954              	.LFE141:
 956              		.section	.text.HAL_UART_Receive,"ax",%progbits
 957              		.align	1
 958              		.global	HAL_UART_Receive
 959              		.syntax unified
 960              		.thumb
 961              		.thumb_func
 963              	HAL_UART_Receive:
 964              	.LFB142:
1208:Drivers/STM32F4xx_HAL_Driver/Src/stm32f4xx_hal_uart.c **** 
1209:Drivers/STM32F4xx_HAL_Driver/Src/stm32f4xx_hal_uart.c **** /**
1210:Drivers/STM32F4xx_HAL_Driver/Src/stm32f4xx_hal_uart.c ****   * @brief  Receives an amount of data in blocking mode.
1211:Drivers/STM32F4xx_HAL_Driver/Src/stm32f4xx_hal_uart.c ****   * @note   When UART parity is not enabled (PCE = 0), and Word Length is configured to 9 bits (M1-
1212:Drivers/STM32F4xx_HAL_Driver/Src/stm32f4xx_hal_uart.c ****   *         the received data is handled as a set of u16. In this case, Size must indicate the numb
1213:Drivers/STM32F4xx_HAL_Driver/Src/stm32f4xx_hal_uart.c ****   *         of u16 available through pData.
1214:Drivers/STM32F4xx_HAL_Driver/Src/stm32f4xx_hal_uart.c ****   * @param  huart Pointer to a UART_HandleTypeDef structure that contains
1215:Drivers/STM32F4xx_HAL_Driver/Src/stm32f4xx_hal_uart.c ****   *               the configuration information for the specified UART module.
1216:Drivers/STM32F4xx_HAL_Driver/Src/stm32f4xx_hal_uart.c ****   * @param  pData Pointer to data buffer (u8 or u16 data elements).
1217:Drivers/STM32F4xx_HAL_Driver/Src/stm32f4xx_hal_uart.c ****   * @param  Size  Amount of data elements (u8 or u16) to be received.
ARM GAS  /var/folders/06/9k7gq4t13mj84z2yhw3grvhc0000gn/T//ccfdabgt.s 			page 39


1218:Drivers/STM32F4xx_HAL_Driver/Src/stm32f4xx_hal_uart.c ****   * @param  Timeout Timeout duration
1219:Drivers/STM32F4xx_HAL_Driver/Src/stm32f4xx_hal_uart.c ****   * @retval HAL status
1220:Drivers/STM32F4xx_HAL_Driver/Src/stm32f4xx_hal_uart.c ****   */
1221:Drivers/STM32F4xx_HAL_Driver/Src/stm32f4xx_hal_uart.c **** HAL_StatusTypeDef HAL_UART_Receive(UART_HandleTypeDef *huart, uint8_t *pData, uint16_t Size, uint32
1222:Drivers/STM32F4xx_HAL_Driver/Src/stm32f4xx_hal_uart.c **** {
 965              		.loc 1 1222 1
 966              		.cfi_startproc
 967              		@ args = 0, pretend = 0, frame = 32
 968              		@ frame_needed = 1, uses_anonymous_args = 0
 969 0000 80B5     		push	{r7, lr}
 970              	.LCFI42:
 971              		.cfi_def_cfa_offset 8
 972              		.cfi_offset 7, -8
 973              		.cfi_offset 14, -4
 974 0002 8AB0     		sub	sp, sp, #40
 975              	.LCFI43:
 976              		.cfi_def_cfa_offset 48
 977 0004 02AF     		add	r7, sp, #8
 978              	.LCFI44:
 979              		.cfi_def_cfa 7, 40
 980 0006 F860     		str	r0, [r7, #12]
 981 0008 B960     		str	r1, [r7, #8]
 982 000a 3B60     		str	r3, [r7]
 983 000c 1346     		mov	r3, r2	@ movhi
 984 000e FB80     		strh	r3, [r7, #6]	@ movhi
1223:Drivers/STM32F4xx_HAL_Driver/Src/stm32f4xx_hal_uart.c ****   uint8_t  *pdata8bits;
1224:Drivers/STM32F4xx_HAL_Driver/Src/stm32f4xx_hal_uart.c ****   uint16_t *pdata16bits;
1225:Drivers/STM32F4xx_HAL_Driver/Src/stm32f4xx_hal_uart.c ****   uint32_t tickstart = 0U;
 985              		.loc 1 1225 12
 986 0010 0023     		movs	r3, #0
 987 0012 7B61     		str	r3, [r7, #20]
1226:Drivers/STM32F4xx_HAL_Driver/Src/stm32f4xx_hal_uart.c **** 
1227:Drivers/STM32F4xx_HAL_Driver/Src/stm32f4xx_hal_uart.c ****   /* Check that a Rx process is not already ongoing */
1228:Drivers/STM32F4xx_HAL_Driver/Src/stm32f4xx_hal_uart.c ****   if (huart->RxState == HAL_UART_STATE_READY)
 988              		.loc 1 1228 12
 989 0014 FB68     		ldr	r3, [r7, #12]
 990 0016 93F84230 		ldrb	r3, [r3, #66]
 991 001a DBB2     		uxtb	r3, r3
 992              		.loc 1 1228 6
 993 001c 202B     		cmp	r3, #32
 994 001e 40F08180 		bne	.L36
1229:Drivers/STM32F4xx_HAL_Driver/Src/stm32f4xx_hal_uart.c ****   {
1230:Drivers/STM32F4xx_HAL_Driver/Src/stm32f4xx_hal_uart.c ****     if ((pData == NULL) || (Size == 0U))
 995              		.loc 1 1230 8
 996 0022 BB68     		ldr	r3, [r7, #8]
 997 0024 002B     		cmp	r3, #0
 998 0026 02D0     		beq	.L37
 999              		.loc 1 1230 25 discriminator 1
 1000 0028 FB88     		ldrh	r3, [r7, #6]
 1001 002a 002B     		cmp	r3, #0
 1002 002c 01D1     		bne	.L38
 1003              	.L37:
1231:Drivers/STM32F4xx_HAL_Driver/Src/stm32f4xx_hal_uart.c ****     {
1232:Drivers/STM32F4xx_HAL_Driver/Src/stm32f4xx_hal_uart.c ****       return  HAL_ERROR;
 1004              		.loc 1 1232 15
 1005 002e 0123     		movs	r3, #1
 1006 0030 79E0     		b	.L39
ARM GAS  /var/folders/06/9k7gq4t13mj84z2yhw3grvhc0000gn/T//ccfdabgt.s 			page 40


 1007              	.L38:
1233:Drivers/STM32F4xx_HAL_Driver/Src/stm32f4xx_hal_uart.c ****     }
1234:Drivers/STM32F4xx_HAL_Driver/Src/stm32f4xx_hal_uart.c **** 
1235:Drivers/STM32F4xx_HAL_Driver/Src/stm32f4xx_hal_uart.c ****     huart->ErrorCode = HAL_UART_ERROR_NONE;
 1008              		.loc 1 1235 22
 1009 0032 FB68     		ldr	r3, [r7, #12]
 1010 0034 0022     		movs	r2, #0
 1011 0036 5A64     		str	r2, [r3, #68]
1236:Drivers/STM32F4xx_HAL_Driver/Src/stm32f4xx_hal_uart.c ****     huart->RxState = HAL_UART_STATE_BUSY_RX;
 1012              		.loc 1 1236 20
 1013 0038 FB68     		ldr	r3, [r7, #12]
 1014 003a 2222     		movs	r2, #34
 1015 003c 83F84220 		strb	r2, [r3, #66]
1237:Drivers/STM32F4xx_HAL_Driver/Src/stm32f4xx_hal_uart.c ****     huart->ReceptionType = HAL_UART_RECEPTION_STANDARD;
 1016              		.loc 1 1237 26
 1017 0040 FB68     		ldr	r3, [r7, #12]
 1018 0042 0022     		movs	r2, #0
 1019 0044 1A63     		str	r2, [r3, #48]
1238:Drivers/STM32F4xx_HAL_Driver/Src/stm32f4xx_hal_uart.c **** 
1239:Drivers/STM32F4xx_HAL_Driver/Src/stm32f4xx_hal_uart.c ****     /* Init tickstart for timeout management */
1240:Drivers/STM32F4xx_HAL_Driver/Src/stm32f4xx_hal_uart.c ****     tickstart = HAL_GetTick();
 1020              		.loc 1 1240 17
 1021 0046 FFF7FEFF 		bl	HAL_GetTick
 1022 004a 7861     		str	r0, [r7, #20]
1241:Drivers/STM32F4xx_HAL_Driver/Src/stm32f4xx_hal_uart.c **** 
1242:Drivers/STM32F4xx_HAL_Driver/Src/stm32f4xx_hal_uart.c ****     huart->RxXferSize = Size;
 1023              		.loc 1 1242 23
 1024 004c FB68     		ldr	r3, [r7, #12]
 1025 004e FA88     		ldrh	r2, [r7, #6]	@ movhi
 1026 0050 9A85     		strh	r2, [r3, #44]	@ movhi
1243:Drivers/STM32F4xx_HAL_Driver/Src/stm32f4xx_hal_uart.c ****     huart->RxXferCount = Size;
 1027              		.loc 1 1243 24
 1028 0052 FB68     		ldr	r3, [r7, #12]
 1029 0054 FA88     		ldrh	r2, [r7, #6]	@ movhi
 1030 0056 DA85     		strh	r2, [r3, #46]	@ movhi
1244:Drivers/STM32F4xx_HAL_Driver/Src/stm32f4xx_hal_uart.c **** 
1245:Drivers/STM32F4xx_HAL_Driver/Src/stm32f4xx_hal_uart.c ****     /* In case of 9bits/No Parity transfer, pRxData needs to be handled as a uint16_t pointer */
1246:Drivers/STM32F4xx_HAL_Driver/Src/stm32f4xx_hal_uart.c ****     if ((huart->Init.WordLength == UART_WORDLENGTH_9B) && (huart->Init.Parity == UART_PARITY_NONE))
 1031              		.loc 1 1246 21
 1032 0058 FB68     		ldr	r3, [r7, #12]
 1033 005a 9B68     		ldr	r3, [r3, #8]
 1034              		.loc 1 1246 8
 1035 005c B3F5805F 		cmp	r3, #4096
 1036 0060 08D1     		bne	.L40
 1037              		.loc 1 1246 71 discriminator 1
 1038 0062 FB68     		ldr	r3, [r7, #12]
 1039 0064 1B69     		ldr	r3, [r3, #16]
 1040              		.loc 1 1246 56 discriminator 1
 1041 0066 002B     		cmp	r3, #0
 1042 0068 04D1     		bne	.L40
1247:Drivers/STM32F4xx_HAL_Driver/Src/stm32f4xx_hal_uart.c ****     {
1248:Drivers/STM32F4xx_HAL_Driver/Src/stm32f4xx_hal_uart.c ****       pdata8bits  = NULL;
 1043              		.loc 1 1248 19
 1044 006a 0023     		movs	r3, #0
 1045 006c FB61     		str	r3, [r7, #28]
1249:Drivers/STM32F4xx_HAL_Driver/Src/stm32f4xx_hal_uart.c ****       pdata16bits = (uint16_t *) pData;
 1046              		.loc 1 1249 19
ARM GAS  /var/folders/06/9k7gq4t13mj84z2yhw3grvhc0000gn/T//ccfdabgt.s 			page 41


 1047 006e BB68     		ldr	r3, [r7, #8]
 1048 0070 BB61     		str	r3, [r7, #24]
 1049 0072 03E0     		b	.L41
 1050              	.L40:
1250:Drivers/STM32F4xx_HAL_Driver/Src/stm32f4xx_hal_uart.c ****     }
1251:Drivers/STM32F4xx_HAL_Driver/Src/stm32f4xx_hal_uart.c ****     else
1252:Drivers/STM32F4xx_HAL_Driver/Src/stm32f4xx_hal_uart.c ****     {
1253:Drivers/STM32F4xx_HAL_Driver/Src/stm32f4xx_hal_uart.c ****       pdata8bits  = pData;
 1051              		.loc 1 1253 19
 1052 0074 BB68     		ldr	r3, [r7, #8]
 1053 0076 FB61     		str	r3, [r7, #28]
1254:Drivers/STM32F4xx_HAL_Driver/Src/stm32f4xx_hal_uart.c ****       pdata16bits = NULL;
 1054              		.loc 1 1254 19
 1055 0078 0023     		movs	r3, #0
 1056 007a BB61     		str	r3, [r7, #24]
 1057              	.L41:
1255:Drivers/STM32F4xx_HAL_Driver/Src/stm32f4xx_hal_uart.c ****     }
1256:Drivers/STM32F4xx_HAL_Driver/Src/stm32f4xx_hal_uart.c **** 
1257:Drivers/STM32F4xx_HAL_Driver/Src/stm32f4xx_hal_uart.c ****     /* Check the remain data to be received */
1258:Drivers/STM32F4xx_HAL_Driver/Src/stm32f4xx_hal_uart.c ****     while (huart->RxXferCount > 0U)
 1058              		.loc 1 1258 11
 1059 007c 47E0     		b	.L42
 1060              	.L49:
1259:Drivers/STM32F4xx_HAL_Driver/Src/stm32f4xx_hal_uart.c ****     {
1260:Drivers/STM32F4xx_HAL_Driver/Src/stm32f4xx_hal_uart.c ****       if (UART_WaitOnFlagUntilTimeout(huart, UART_FLAG_RXNE, RESET, tickstart, Timeout) != HAL_OK)
 1061              		.loc 1 1260 11
 1062 007e 3B68     		ldr	r3, [r7]
 1063 0080 0093     		str	r3, [sp]
 1064 0082 7B69     		ldr	r3, [r7, #20]
 1065 0084 0022     		movs	r2, #0
 1066 0086 2021     		movs	r1, #32
 1067 0088 F868     		ldr	r0, [r7, #12]
 1068 008a FFF7FEFF 		bl	UART_WaitOnFlagUntilTimeout
 1069 008e 0346     		mov	r3, r0
 1070              		.loc 1 1260 10 discriminator 1
 1071 0090 002B     		cmp	r3, #0
 1072 0092 05D0     		beq	.L43
1261:Drivers/STM32F4xx_HAL_Driver/Src/stm32f4xx_hal_uart.c ****       {
1262:Drivers/STM32F4xx_HAL_Driver/Src/stm32f4xx_hal_uart.c ****         huart->RxState = HAL_UART_STATE_READY;
 1073              		.loc 1 1262 24
 1074 0094 FB68     		ldr	r3, [r7, #12]
 1075 0096 2022     		movs	r2, #32
 1076 0098 83F84220 		strb	r2, [r3, #66]
1263:Drivers/STM32F4xx_HAL_Driver/Src/stm32f4xx_hal_uart.c **** 
1264:Drivers/STM32F4xx_HAL_Driver/Src/stm32f4xx_hal_uart.c ****         return HAL_TIMEOUT;
 1077              		.loc 1 1264 16
 1078 009c 0323     		movs	r3, #3
 1079 009e 42E0     		b	.L39
 1080              	.L43:
1265:Drivers/STM32F4xx_HAL_Driver/Src/stm32f4xx_hal_uart.c ****       }
1266:Drivers/STM32F4xx_HAL_Driver/Src/stm32f4xx_hal_uart.c ****       if (pdata8bits == NULL)
 1081              		.loc 1 1266 10
 1082 00a0 FB69     		ldr	r3, [r7, #28]
 1083 00a2 002B     		cmp	r3, #0
 1084 00a4 0CD1     		bne	.L44
1267:Drivers/STM32F4xx_HAL_Driver/Src/stm32f4xx_hal_uart.c ****       {
1268:Drivers/STM32F4xx_HAL_Driver/Src/stm32f4xx_hal_uart.c ****         *pdata16bits = (uint16_t)(huart->Instance->DR & 0x01FF);
ARM GAS  /var/folders/06/9k7gq4t13mj84z2yhw3grvhc0000gn/T//ccfdabgt.s 			page 42


 1085              		.loc 1 1268 40
 1086 00a6 FB68     		ldr	r3, [r7, #12]
 1087 00a8 1B68     		ldr	r3, [r3]
 1088              		.loc 1 1268 50
 1089 00aa 5B68     		ldr	r3, [r3, #4]
 1090              		.loc 1 1268 24
 1091 00ac 9BB2     		uxth	r3, r3
 1092 00ae C3F30803 		ubfx	r3, r3, #0, #9
 1093 00b2 9AB2     		uxth	r2, r3
 1094              		.loc 1 1268 22
 1095 00b4 BB69     		ldr	r3, [r7, #24]
 1096 00b6 1A80     		strh	r2, [r3]	@ movhi
1269:Drivers/STM32F4xx_HAL_Driver/Src/stm32f4xx_hal_uart.c ****         pdata16bits++;
 1097              		.loc 1 1269 20
 1098 00b8 BB69     		ldr	r3, [r7, #24]
 1099 00ba 0233     		adds	r3, r3, #2
 1100 00bc BB61     		str	r3, [r7, #24]
 1101 00be 1FE0     		b	.L45
 1102              	.L44:
1270:Drivers/STM32F4xx_HAL_Driver/Src/stm32f4xx_hal_uart.c ****       }
1271:Drivers/STM32F4xx_HAL_Driver/Src/stm32f4xx_hal_uart.c ****       else
1272:Drivers/STM32F4xx_HAL_Driver/Src/stm32f4xx_hal_uart.c ****       {
1273:Drivers/STM32F4xx_HAL_Driver/Src/stm32f4xx_hal_uart.c ****         if ((huart->Init.WordLength == UART_WORDLENGTH_9B) || ((huart->Init.WordLength == UART_WORD
 1103              		.loc 1 1273 25
 1104 00c0 FB68     		ldr	r3, [r7, #12]
 1105 00c2 9B68     		ldr	r3, [r3, #8]
 1106              		.loc 1 1273 12
 1107 00c4 B3F5805F 		cmp	r3, #4096
 1108 00c8 07D0     		beq	.L46
 1109              		.loc 1 1273 76 discriminator 1
 1110 00ca FB68     		ldr	r3, [r7, #12]
 1111 00cc 9B68     		ldr	r3, [r3, #8]
 1112              		.loc 1 1273 60 discriminator 1
 1113 00ce 002B     		cmp	r3, #0
 1114 00d0 0AD1     		bne	.L47
 1115              		.loc 1 1273 126 discriminator 2
 1116 00d2 FB68     		ldr	r3, [r7, #12]
 1117 00d4 1B69     		ldr	r3, [r3, #16]
 1118              		.loc 1 1273 111 discriminator 2
 1119 00d6 002B     		cmp	r3, #0
 1120 00d8 06D1     		bne	.L47
 1121              	.L46:
1274:Drivers/STM32F4xx_HAL_Driver/Src/stm32f4xx_hal_uart.c ****         {
1275:Drivers/STM32F4xx_HAL_Driver/Src/stm32f4xx_hal_uart.c ****           *pdata8bits = (uint8_t)(huart->Instance->DR & (uint8_t)0x00FF);
 1122              		.loc 1 1275 40
 1123 00da FB68     		ldr	r3, [r7, #12]
 1124 00dc 1B68     		ldr	r3, [r3]
 1125              		.loc 1 1275 50
 1126 00de 5B68     		ldr	r3, [r3, #4]
 1127              		.loc 1 1275 25
 1128 00e0 DAB2     		uxtb	r2, r3
 1129              		.loc 1 1275 23
 1130 00e2 FB69     		ldr	r3, [r7, #28]
 1131 00e4 1A70     		strb	r2, [r3]
 1132 00e6 08E0     		b	.L48
 1133              	.L47:
1276:Drivers/STM32F4xx_HAL_Driver/Src/stm32f4xx_hal_uart.c ****         }
ARM GAS  /var/folders/06/9k7gq4t13mj84z2yhw3grvhc0000gn/T//ccfdabgt.s 			page 43


1277:Drivers/STM32F4xx_HAL_Driver/Src/stm32f4xx_hal_uart.c ****         else
1278:Drivers/STM32F4xx_HAL_Driver/Src/stm32f4xx_hal_uart.c ****         {
1279:Drivers/STM32F4xx_HAL_Driver/Src/stm32f4xx_hal_uart.c ****           *pdata8bits = (uint8_t)(huart->Instance->DR & (uint8_t)0x007F);
 1134              		.loc 1 1279 40
 1135 00e8 FB68     		ldr	r3, [r7, #12]
 1136 00ea 1B68     		ldr	r3, [r3]
 1137              		.loc 1 1279 50
 1138 00ec 5B68     		ldr	r3, [r3, #4]
 1139              		.loc 1 1279 25
 1140 00ee DBB2     		uxtb	r3, r3
 1141 00f0 03F07F03 		and	r3, r3, #127
 1142 00f4 DAB2     		uxtb	r2, r3
 1143              		.loc 1 1279 23
 1144 00f6 FB69     		ldr	r3, [r7, #28]
 1145 00f8 1A70     		strb	r2, [r3]
 1146              	.L48:
1280:Drivers/STM32F4xx_HAL_Driver/Src/stm32f4xx_hal_uart.c ****         }
1281:Drivers/STM32F4xx_HAL_Driver/Src/stm32f4xx_hal_uart.c ****         pdata8bits++;
 1147              		.loc 1 1281 19
 1148 00fa FB69     		ldr	r3, [r7, #28]
 1149 00fc 0133     		adds	r3, r3, #1
 1150 00fe FB61     		str	r3, [r7, #28]
 1151              	.L45:
1282:Drivers/STM32F4xx_HAL_Driver/Src/stm32f4xx_hal_uart.c ****       }
1283:Drivers/STM32F4xx_HAL_Driver/Src/stm32f4xx_hal_uart.c ****       huart->RxXferCount--;
 1152              		.loc 1 1283 12
 1153 0100 FB68     		ldr	r3, [r7, #12]
 1154 0102 DB8D     		ldrh	r3, [r3, #46]	@ movhi
 1155 0104 9BB2     		uxth	r3, r3
 1156              		.loc 1 1283 25
 1157 0106 013B     		subs	r3, r3, #1
 1158 0108 9AB2     		uxth	r2, r3
 1159 010a FB68     		ldr	r3, [r7, #12]
 1160 010c DA85     		strh	r2, [r3, #46]	@ movhi
 1161              	.L42:
1258:Drivers/STM32F4xx_HAL_Driver/Src/stm32f4xx_hal_uart.c ****     {
 1162              		.loc 1 1258 17
 1163 010e FB68     		ldr	r3, [r7, #12]
 1164 0110 DB8D     		ldrh	r3, [r3, #46]	@ movhi
 1165 0112 9BB2     		uxth	r3, r3
1258:Drivers/STM32F4xx_HAL_Driver/Src/stm32f4xx_hal_uart.c ****     {
 1166              		.loc 1 1258 31
 1167 0114 002B     		cmp	r3, #0
 1168 0116 B2D1     		bne	.L49
1284:Drivers/STM32F4xx_HAL_Driver/Src/stm32f4xx_hal_uart.c ****     }
1285:Drivers/STM32F4xx_HAL_Driver/Src/stm32f4xx_hal_uart.c **** 
1286:Drivers/STM32F4xx_HAL_Driver/Src/stm32f4xx_hal_uart.c ****     /* At end of Rx process, restore huart->RxState to Ready */
1287:Drivers/STM32F4xx_HAL_Driver/Src/stm32f4xx_hal_uart.c ****     huart->RxState = HAL_UART_STATE_READY;
 1169              		.loc 1 1287 20
 1170 0118 FB68     		ldr	r3, [r7, #12]
 1171 011a 2022     		movs	r2, #32
 1172 011c 83F84220 		strb	r2, [r3, #66]
1288:Drivers/STM32F4xx_HAL_Driver/Src/stm32f4xx_hal_uart.c **** 
1289:Drivers/STM32F4xx_HAL_Driver/Src/stm32f4xx_hal_uart.c ****     return HAL_OK;
 1173              		.loc 1 1289 12
 1174 0120 0023     		movs	r3, #0
 1175 0122 00E0     		b	.L39
ARM GAS  /var/folders/06/9k7gq4t13mj84z2yhw3grvhc0000gn/T//ccfdabgt.s 			page 44


 1176              	.L36:
1290:Drivers/STM32F4xx_HAL_Driver/Src/stm32f4xx_hal_uart.c ****   }
1291:Drivers/STM32F4xx_HAL_Driver/Src/stm32f4xx_hal_uart.c ****   else
1292:Drivers/STM32F4xx_HAL_Driver/Src/stm32f4xx_hal_uart.c ****   {
1293:Drivers/STM32F4xx_HAL_Driver/Src/stm32f4xx_hal_uart.c ****     return HAL_BUSY;
 1177              		.loc 1 1293 12
 1178 0124 0223     		movs	r3, #2
 1179              	.L39:
1294:Drivers/STM32F4xx_HAL_Driver/Src/stm32f4xx_hal_uart.c ****   }
1295:Drivers/STM32F4xx_HAL_Driver/Src/stm32f4xx_hal_uart.c **** }
 1180              		.loc 1 1295 1
 1181 0126 1846     		mov	r0, r3
 1182 0128 2037     		adds	r7, r7, #32
 1183              	.LCFI45:
 1184              		.cfi_def_cfa_offset 8
 1185 012a BD46     		mov	sp, r7
 1186              	.LCFI46:
 1187              		.cfi_def_cfa_register 13
 1188              		@ sp needed
 1189 012c 80BD     		pop	{r7, pc}
 1190              		.cfi_endproc
 1191              	.LFE142:
 1193              		.section	.text.HAL_UART_Transmit_IT,"ax",%progbits
 1194              		.align	1
 1195              		.global	HAL_UART_Transmit_IT
 1196              		.syntax unified
 1197              		.thumb
 1198              		.thumb_func
 1200              	HAL_UART_Transmit_IT:
 1201              	.LFB143:
1296:Drivers/STM32F4xx_HAL_Driver/Src/stm32f4xx_hal_uart.c **** 
1297:Drivers/STM32F4xx_HAL_Driver/Src/stm32f4xx_hal_uart.c **** /**
1298:Drivers/STM32F4xx_HAL_Driver/Src/stm32f4xx_hal_uart.c ****   * @brief  Sends an amount of data in non blocking mode.
1299:Drivers/STM32F4xx_HAL_Driver/Src/stm32f4xx_hal_uart.c ****   * @note   When UART parity is not enabled (PCE = 0), and Word Length is configured to 9 bits (M1-
1300:Drivers/STM32F4xx_HAL_Driver/Src/stm32f4xx_hal_uart.c ****   *         the sent data is handled as a set of u16. In this case, Size must indicate the number
1301:Drivers/STM32F4xx_HAL_Driver/Src/stm32f4xx_hal_uart.c ****   *         of u16 provided through pData.
1302:Drivers/STM32F4xx_HAL_Driver/Src/stm32f4xx_hal_uart.c ****   * @param  huart Pointer to a UART_HandleTypeDef structure that contains
1303:Drivers/STM32F4xx_HAL_Driver/Src/stm32f4xx_hal_uart.c ****   *               the configuration information for the specified UART module.
1304:Drivers/STM32F4xx_HAL_Driver/Src/stm32f4xx_hal_uart.c ****   * @param  pData Pointer to data buffer (u8 or u16 data elements).
1305:Drivers/STM32F4xx_HAL_Driver/Src/stm32f4xx_hal_uart.c ****   * @param  Size  Amount of data elements (u8 or u16) to be sent
1306:Drivers/STM32F4xx_HAL_Driver/Src/stm32f4xx_hal_uart.c ****   * @retval HAL status
1307:Drivers/STM32F4xx_HAL_Driver/Src/stm32f4xx_hal_uart.c ****   */
1308:Drivers/STM32F4xx_HAL_Driver/Src/stm32f4xx_hal_uart.c **** HAL_StatusTypeDef HAL_UART_Transmit_IT(UART_HandleTypeDef *huart, const uint8_t *pData, uint16_t Si
1309:Drivers/STM32F4xx_HAL_Driver/Src/stm32f4xx_hal_uart.c **** {
 1202              		.loc 1 1309 1
 1203              		.cfi_startproc
 1204              		@ args = 0, pretend = 0, frame = 16
 1205              		@ frame_needed = 1, uses_anonymous_args = 0
 1206              		@ link register save eliminated.
 1207 0000 80B4     		push	{r7}
 1208              	.LCFI47:
 1209              		.cfi_def_cfa_offset 4
 1210              		.cfi_offset 7, -4
 1211 0002 85B0     		sub	sp, sp, #20
 1212              	.LCFI48:
 1213              		.cfi_def_cfa_offset 24
 1214 0004 00AF     		add	r7, sp, #0
ARM GAS  /var/folders/06/9k7gq4t13mj84z2yhw3grvhc0000gn/T//ccfdabgt.s 			page 45


 1215              	.LCFI49:
 1216              		.cfi_def_cfa_register 7
 1217 0006 F860     		str	r0, [r7, #12]
 1218 0008 B960     		str	r1, [r7, #8]
 1219 000a 1346     		mov	r3, r2
 1220 000c FB80     		strh	r3, [r7, #6]	@ movhi
1310:Drivers/STM32F4xx_HAL_Driver/Src/stm32f4xx_hal_uart.c ****   /* Check that a Tx process is not already ongoing */
1311:Drivers/STM32F4xx_HAL_Driver/Src/stm32f4xx_hal_uart.c ****   if (huart->gState == HAL_UART_STATE_READY)
 1221              		.loc 1 1311 12
 1222 000e FB68     		ldr	r3, [r7, #12]
 1223 0010 93F84130 		ldrb	r3, [r3, #65]
 1224 0014 DBB2     		uxtb	r3, r3
 1225              		.loc 1 1311 6
 1226 0016 202B     		cmp	r3, #32
 1227 0018 21D1     		bne	.L51
1312:Drivers/STM32F4xx_HAL_Driver/Src/stm32f4xx_hal_uart.c ****   {
1313:Drivers/STM32F4xx_HAL_Driver/Src/stm32f4xx_hal_uart.c ****     if ((pData == NULL) || (Size == 0U))
 1228              		.loc 1 1313 8
 1229 001a BB68     		ldr	r3, [r7, #8]
 1230 001c 002B     		cmp	r3, #0
 1231 001e 02D0     		beq	.L52
 1232              		.loc 1 1313 25 discriminator 1
 1233 0020 FB88     		ldrh	r3, [r7, #6]
 1234 0022 002B     		cmp	r3, #0
 1235 0024 01D1     		bne	.L53
 1236              	.L52:
1314:Drivers/STM32F4xx_HAL_Driver/Src/stm32f4xx_hal_uart.c ****     {
1315:Drivers/STM32F4xx_HAL_Driver/Src/stm32f4xx_hal_uart.c ****       return HAL_ERROR;
 1237              		.loc 1 1315 14
 1238 0026 0123     		movs	r3, #1
 1239 0028 1AE0     		b	.L54
 1240              	.L53:
1316:Drivers/STM32F4xx_HAL_Driver/Src/stm32f4xx_hal_uart.c ****     }
1317:Drivers/STM32F4xx_HAL_Driver/Src/stm32f4xx_hal_uart.c **** 
1318:Drivers/STM32F4xx_HAL_Driver/Src/stm32f4xx_hal_uart.c ****     huart->pTxBuffPtr = pData;
 1241              		.loc 1 1318 23
 1242 002a FB68     		ldr	r3, [r7, #12]
 1243 002c BA68     		ldr	r2, [r7, #8]
 1244 002e 1A62     		str	r2, [r3, #32]
1319:Drivers/STM32F4xx_HAL_Driver/Src/stm32f4xx_hal_uart.c ****     huart->TxXferSize = Size;
 1245              		.loc 1 1319 23
 1246 0030 FB68     		ldr	r3, [r7, #12]
 1247 0032 FA88     		ldrh	r2, [r7, #6]	@ movhi
 1248 0034 9A84     		strh	r2, [r3, #36]	@ movhi
1320:Drivers/STM32F4xx_HAL_Driver/Src/stm32f4xx_hal_uart.c ****     huart->TxXferCount = Size;
 1249              		.loc 1 1320 24
 1250 0036 FB68     		ldr	r3, [r7, #12]
 1251 0038 FA88     		ldrh	r2, [r7, #6]	@ movhi
 1252 003a DA84     		strh	r2, [r3, #38]	@ movhi
1321:Drivers/STM32F4xx_HAL_Driver/Src/stm32f4xx_hal_uart.c **** 
1322:Drivers/STM32F4xx_HAL_Driver/Src/stm32f4xx_hal_uart.c ****     huart->ErrorCode = HAL_UART_ERROR_NONE;
 1253              		.loc 1 1322 22
 1254 003c FB68     		ldr	r3, [r7, #12]
 1255 003e 0022     		movs	r2, #0
 1256 0040 5A64     		str	r2, [r3, #68]
1323:Drivers/STM32F4xx_HAL_Driver/Src/stm32f4xx_hal_uart.c ****     huart->gState = HAL_UART_STATE_BUSY_TX;
 1257              		.loc 1 1323 19
ARM GAS  /var/folders/06/9k7gq4t13mj84z2yhw3grvhc0000gn/T//ccfdabgt.s 			page 46


 1258 0042 FB68     		ldr	r3, [r7, #12]
 1259 0044 2122     		movs	r2, #33
 1260 0046 83F84120 		strb	r2, [r3, #65]
1324:Drivers/STM32F4xx_HAL_Driver/Src/stm32f4xx_hal_uart.c **** 
1325:Drivers/STM32F4xx_HAL_Driver/Src/stm32f4xx_hal_uart.c ****     /* Enable the UART Transmit data register empty Interrupt */
1326:Drivers/STM32F4xx_HAL_Driver/Src/stm32f4xx_hal_uart.c ****     __HAL_UART_ENABLE_IT(huart, UART_IT_TXE);
 1261              		.loc 1 1326 5
 1262 004a FB68     		ldr	r3, [r7, #12]
 1263 004c 1B68     		ldr	r3, [r3]
 1264 004e DA68     		ldr	r2, [r3, #12]
 1265 0050 FB68     		ldr	r3, [r7, #12]
 1266 0052 1B68     		ldr	r3, [r3]
 1267 0054 42F08002 		orr	r2, r2, #128
 1268 0058 DA60     		str	r2, [r3, #12]
1327:Drivers/STM32F4xx_HAL_Driver/Src/stm32f4xx_hal_uart.c **** 
1328:Drivers/STM32F4xx_HAL_Driver/Src/stm32f4xx_hal_uart.c ****     return HAL_OK;
 1269              		.loc 1 1328 12
 1270 005a 0023     		movs	r3, #0
 1271 005c 00E0     		b	.L54
 1272              	.L51:
1329:Drivers/STM32F4xx_HAL_Driver/Src/stm32f4xx_hal_uart.c ****   }
1330:Drivers/STM32F4xx_HAL_Driver/Src/stm32f4xx_hal_uart.c ****   else
1331:Drivers/STM32F4xx_HAL_Driver/Src/stm32f4xx_hal_uart.c ****   {
1332:Drivers/STM32F4xx_HAL_Driver/Src/stm32f4xx_hal_uart.c ****     return HAL_BUSY;
 1273              		.loc 1 1332 12
 1274 005e 0223     		movs	r3, #2
 1275              	.L54:
1333:Drivers/STM32F4xx_HAL_Driver/Src/stm32f4xx_hal_uart.c ****   }
1334:Drivers/STM32F4xx_HAL_Driver/Src/stm32f4xx_hal_uart.c **** }
 1276              		.loc 1 1334 1
 1277 0060 1846     		mov	r0, r3
 1278 0062 1437     		adds	r7, r7, #20
 1279              	.LCFI50:
 1280              		.cfi_def_cfa_offset 4
 1281 0064 BD46     		mov	sp, r7
 1282              	.LCFI51:
 1283              		.cfi_def_cfa_register 13
 1284              		@ sp needed
 1285 0066 5DF8047B 		ldr	r7, [sp], #4
 1286              	.LCFI52:
 1287              		.cfi_restore 7
 1288              		.cfi_def_cfa_offset 0
 1289 006a 7047     		bx	lr
 1290              		.cfi_endproc
 1291              	.LFE143:
 1293              		.section	.text.HAL_UART_Receive_IT,"ax",%progbits
 1294              		.align	1
 1295              		.global	HAL_UART_Receive_IT
 1296              		.syntax unified
 1297              		.thumb
 1298              		.thumb_func
 1300              	HAL_UART_Receive_IT:
 1301              	.LFB144:
1335:Drivers/STM32F4xx_HAL_Driver/Src/stm32f4xx_hal_uart.c **** 
1336:Drivers/STM32F4xx_HAL_Driver/Src/stm32f4xx_hal_uart.c **** /**
1337:Drivers/STM32F4xx_HAL_Driver/Src/stm32f4xx_hal_uart.c ****   * @brief  Receives an amount of data in non blocking mode.
1338:Drivers/STM32F4xx_HAL_Driver/Src/stm32f4xx_hal_uart.c ****   * @note   When UART parity is not enabled (PCE = 0), and Word Length is configured to 9 bits (M1-
ARM GAS  /var/folders/06/9k7gq4t13mj84z2yhw3grvhc0000gn/T//ccfdabgt.s 			page 47


1339:Drivers/STM32F4xx_HAL_Driver/Src/stm32f4xx_hal_uart.c ****   *         the received data is handled as a set of u16. In this case, Size must indicate the numb
1340:Drivers/STM32F4xx_HAL_Driver/Src/stm32f4xx_hal_uart.c ****   *         of u16 available through pData.
1341:Drivers/STM32F4xx_HAL_Driver/Src/stm32f4xx_hal_uart.c ****   * @param  huart Pointer to a UART_HandleTypeDef structure that contains
1342:Drivers/STM32F4xx_HAL_Driver/Src/stm32f4xx_hal_uart.c ****   *               the configuration information for the specified UART module.
1343:Drivers/STM32F4xx_HAL_Driver/Src/stm32f4xx_hal_uart.c ****   * @param  pData Pointer to data buffer (u8 or u16 data elements).
1344:Drivers/STM32F4xx_HAL_Driver/Src/stm32f4xx_hal_uart.c ****   * @param  Size  Amount of data elements (u8 or u16) to be received.
1345:Drivers/STM32F4xx_HAL_Driver/Src/stm32f4xx_hal_uart.c ****   * @retval HAL status
1346:Drivers/STM32F4xx_HAL_Driver/Src/stm32f4xx_hal_uart.c ****   */
1347:Drivers/STM32F4xx_HAL_Driver/Src/stm32f4xx_hal_uart.c **** HAL_StatusTypeDef HAL_UART_Receive_IT(UART_HandleTypeDef *huart, uint8_t *pData, uint16_t Size)
1348:Drivers/STM32F4xx_HAL_Driver/Src/stm32f4xx_hal_uart.c **** {
 1302              		.loc 1 1348 1
 1303              		.cfi_startproc
 1304              		@ args = 0, pretend = 0, frame = 16
 1305              		@ frame_needed = 1, uses_anonymous_args = 0
 1306 0000 80B5     		push	{r7, lr}
 1307              	.LCFI53:
 1308              		.cfi_def_cfa_offset 8
 1309              		.cfi_offset 7, -8
 1310              		.cfi_offset 14, -4
 1311 0002 84B0     		sub	sp, sp, #16
 1312              	.LCFI54:
 1313              		.cfi_def_cfa_offset 24
 1314 0004 00AF     		add	r7, sp, #0
 1315              	.LCFI55:
 1316              		.cfi_def_cfa_register 7
 1317 0006 F860     		str	r0, [r7, #12]
 1318 0008 B960     		str	r1, [r7, #8]
 1319 000a 1346     		mov	r3, r2
 1320 000c FB80     		strh	r3, [r7, #6]	@ movhi
1349:Drivers/STM32F4xx_HAL_Driver/Src/stm32f4xx_hal_uart.c ****   /* Check that a Rx process is not already ongoing */
1350:Drivers/STM32F4xx_HAL_Driver/Src/stm32f4xx_hal_uart.c ****   if (huart->RxState == HAL_UART_STATE_READY)
 1321              		.loc 1 1350 12
 1322 000e FB68     		ldr	r3, [r7, #12]
 1323 0010 93F84230 		ldrb	r3, [r3, #66]
 1324 0014 DBB2     		uxtb	r3, r3
 1325              		.loc 1 1350 6
 1326 0016 202B     		cmp	r3, #32
 1327 0018 12D1     		bne	.L56
1351:Drivers/STM32F4xx_HAL_Driver/Src/stm32f4xx_hal_uart.c ****   {
1352:Drivers/STM32F4xx_HAL_Driver/Src/stm32f4xx_hal_uart.c ****     if ((pData == NULL) || (Size == 0U))
 1328              		.loc 1 1352 8
 1329 001a BB68     		ldr	r3, [r7, #8]
 1330 001c 002B     		cmp	r3, #0
 1331 001e 02D0     		beq	.L57
 1332              		.loc 1 1352 25 discriminator 1
 1333 0020 FB88     		ldrh	r3, [r7, #6]
 1334 0022 002B     		cmp	r3, #0
 1335 0024 01D1     		bne	.L58
 1336              	.L57:
1353:Drivers/STM32F4xx_HAL_Driver/Src/stm32f4xx_hal_uart.c ****     {
1354:Drivers/STM32F4xx_HAL_Driver/Src/stm32f4xx_hal_uart.c ****       return HAL_ERROR;
 1337              		.loc 1 1354 14
 1338 0026 0123     		movs	r3, #1
 1339 0028 0BE0     		b	.L59
 1340              	.L58:
1355:Drivers/STM32F4xx_HAL_Driver/Src/stm32f4xx_hal_uart.c ****     }
1356:Drivers/STM32F4xx_HAL_Driver/Src/stm32f4xx_hal_uart.c **** 
ARM GAS  /var/folders/06/9k7gq4t13mj84z2yhw3grvhc0000gn/T//ccfdabgt.s 			page 48


1357:Drivers/STM32F4xx_HAL_Driver/Src/stm32f4xx_hal_uart.c ****     /* Set Reception type to Standard reception */
1358:Drivers/STM32F4xx_HAL_Driver/Src/stm32f4xx_hal_uart.c ****     huart->ReceptionType = HAL_UART_RECEPTION_STANDARD;
 1341              		.loc 1 1358 26
 1342 002a FB68     		ldr	r3, [r7, #12]
 1343 002c 0022     		movs	r2, #0
 1344 002e 1A63     		str	r2, [r3, #48]
1359:Drivers/STM32F4xx_HAL_Driver/Src/stm32f4xx_hal_uart.c **** 
1360:Drivers/STM32F4xx_HAL_Driver/Src/stm32f4xx_hal_uart.c ****     return (UART_Start_Receive_IT(huart, pData, Size));
 1345              		.loc 1 1360 13
 1346 0030 FB88     		ldrh	r3, [r7, #6]
 1347 0032 1A46     		mov	r2, r3
 1348 0034 B968     		ldr	r1, [r7, #8]
 1349 0036 F868     		ldr	r0, [r7, #12]
 1350 0038 FFF7FEFF 		bl	UART_Start_Receive_IT
 1351 003c 0346     		mov	r3, r0
 1352 003e 00E0     		b	.L59
 1353              	.L56:
1361:Drivers/STM32F4xx_HAL_Driver/Src/stm32f4xx_hal_uart.c ****   }
1362:Drivers/STM32F4xx_HAL_Driver/Src/stm32f4xx_hal_uart.c ****   else
1363:Drivers/STM32F4xx_HAL_Driver/Src/stm32f4xx_hal_uart.c ****   {
1364:Drivers/STM32F4xx_HAL_Driver/Src/stm32f4xx_hal_uart.c ****     return HAL_BUSY;
 1354              		.loc 1 1364 12
 1355 0040 0223     		movs	r3, #2
 1356              	.L59:
1365:Drivers/STM32F4xx_HAL_Driver/Src/stm32f4xx_hal_uart.c ****   }
1366:Drivers/STM32F4xx_HAL_Driver/Src/stm32f4xx_hal_uart.c **** }
 1357              		.loc 1 1366 1
 1358 0042 1846     		mov	r0, r3
 1359 0044 1037     		adds	r7, r7, #16
 1360              	.LCFI56:
 1361              		.cfi_def_cfa_offset 8
 1362 0046 BD46     		mov	sp, r7
 1363              	.LCFI57:
 1364              		.cfi_def_cfa_register 13
 1365              		@ sp needed
 1366 0048 80BD     		pop	{r7, pc}
 1367              		.cfi_endproc
 1368              	.LFE144:
 1370              		.section	.text.HAL_UART_Transmit_DMA,"ax",%progbits
 1371              		.align	1
 1372              		.global	HAL_UART_Transmit_DMA
 1373              		.syntax unified
 1374              		.thumb
 1375              		.thumb_func
 1377              	HAL_UART_Transmit_DMA:
 1378              	.LFB145:
1367:Drivers/STM32F4xx_HAL_Driver/Src/stm32f4xx_hal_uart.c **** 
1368:Drivers/STM32F4xx_HAL_Driver/Src/stm32f4xx_hal_uart.c **** /**
1369:Drivers/STM32F4xx_HAL_Driver/Src/stm32f4xx_hal_uart.c ****   * @brief  Sends an amount of data in DMA mode.
1370:Drivers/STM32F4xx_HAL_Driver/Src/stm32f4xx_hal_uart.c ****   * @note   When UART parity is not enabled (PCE = 0), and Word Length is configured to 9 bits (M1-
1371:Drivers/STM32F4xx_HAL_Driver/Src/stm32f4xx_hal_uart.c ****   *         the sent data is handled as a set of u16. In this case, Size must indicate the number
1372:Drivers/STM32F4xx_HAL_Driver/Src/stm32f4xx_hal_uart.c ****   *         of u16 provided through pData.
1373:Drivers/STM32F4xx_HAL_Driver/Src/stm32f4xx_hal_uart.c ****   * @param  huart  Pointer to a UART_HandleTypeDef structure that contains
1374:Drivers/STM32F4xx_HAL_Driver/Src/stm32f4xx_hal_uart.c ****   *                the configuration information for the specified UART module.
1375:Drivers/STM32F4xx_HAL_Driver/Src/stm32f4xx_hal_uart.c ****   * @param  pData Pointer to data buffer (u8 or u16 data elements).
1376:Drivers/STM32F4xx_HAL_Driver/Src/stm32f4xx_hal_uart.c ****   * @param  Size  Amount of data elements (u8 or u16) to be sent
1377:Drivers/STM32F4xx_HAL_Driver/Src/stm32f4xx_hal_uart.c ****   * @retval HAL status
ARM GAS  /var/folders/06/9k7gq4t13mj84z2yhw3grvhc0000gn/T//ccfdabgt.s 			page 49


1378:Drivers/STM32F4xx_HAL_Driver/Src/stm32f4xx_hal_uart.c ****   */
1379:Drivers/STM32F4xx_HAL_Driver/Src/stm32f4xx_hal_uart.c **** HAL_StatusTypeDef HAL_UART_Transmit_DMA(UART_HandleTypeDef *huart, const uint8_t *pData, uint16_t S
1380:Drivers/STM32F4xx_HAL_Driver/Src/stm32f4xx_hal_uart.c **** {
 1379              		.loc 1 1380 1
 1380              		.cfi_startproc
 1381              		@ args = 0, pretend = 0, frame = 48
 1382              		@ frame_needed = 1, uses_anonymous_args = 0
 1383 0000 80B5     		push	{r7, lr}
 1384              	.LCFI58:
 1385              		.cfi_def_cfa_offset 8
 1386              		.cfi_offset 7, -8
 1387              		.cfi_offset 14, -4
 1388 0002 8CB0     		sub	sp, sp, #48
 1389              	.LCFI59:
 1390              		.cfi_def_cfa_offset 56
 1391 0004 00AF     		add	r7, sp, #0
 1392              	.LCFI60:
 1393              		.cfi_def_cfa_register 7
 1394 0006 F860     		str	r0, [r7, #12]
 1395 0008 B960     		str	r1, [r7, #8]
 1396 000a 1346     		mov	r3, r2
 1397 000c FB80     		strh	r3, [r7, #6]	@ movhi
1381:Drivers/STM32F4xx_HAL_Driver/Src/stm32f4xx_hal_uart.c ****   const uint32_t *tmp;
1382:Drivers/STM32F4xx_HAL_Driver/Src/stm32f4xx_hal_uart.c **** 
1383:Drivers/STM32F4xx_HAL_Driver/Src/stm32f4xx_hal_uart.c ****   /* Check that a Tx process is not already ongoing */
1384:Drivers/STM32F4xx_HAL_Driver/Src/stm32f4xx_hal_uart.c ****   if (huart->gState == HAL_UART_STATE_READY)
 1398              		.loc 1 1384 12
 1399 000e FB68     		ldr	r3, [r7, #12]
 1400 0010 93F84130 		ldrb	r3, [r3, #65]
 1401 0014 DBB2     		uxtb	r3, r3
 1402              		.loc 1 1384 6
 1403 0016 202B     		cmp	r3, #32
 1404 0018 56D1     		bne	.L61
1385:Drivers/STM32F4xx_HAL_Driver/Src/stm32f4xx_hal_uart.c ****   {
1386:Drivers/STM32F4xx_HAL_Driver/Src/stm32f4xx_hal_uart.c ****     if ((pData == NULL) || (Size == 0U))
 1405              		.loc 1 1386 16
 1406 001a BB68     		ldr	r3, [r7, #8]
 1407              		.loc 1 1386 8
 1408 001c 002B     		cmp	r3, #0
 1409 001e 02D0     		beq	.L62
 1410              		.loc 1 1386 25 discriminator 1
 1411 0020 FB88     		ldrh	r3, [r7, #6]
 1412 0022 002B     		cmp	r3, #0
 1413 0024 01D1     		bne	.L63
 1414              	.L62:
1387:Drivers/STM32F4xx_HAL_Driver/Src/stm32f4xx_hal_uart.c ****     {
1388:Drivers/STM32F4xx_HAL_Driver/Src/stm32f4xx_hal_uart.c ****       return HAL_ERROR;
 1415              		.loc 1 1388 14
 1416 0026 0123     		movs	r3, #1
 1417 0028 4FE0     		b	.L64
 1418              	.L63:
1389:Drivers/STM32F4xx_HAL_Driver/Src/stm32f4xx_hal_uart.c ****     }
1390:Drivers/STM32F4xx_HAL_Driver/Src/stm32f4xx_hal_uart.c **** 
1391:Drivers/STM32F4xx_HAL_Driver/Src/stm32f4xx_hal_uart.c ****     huart->pTxBuffPtr = pData;
 1419              		.loc 1 1391 23
 1420 002a BA68     		ldr	r2, [r7, #8]
 1421 002c FB68     		ldr	r3, [r7, #12]
ARM GAS  /var/folders/06/9k7gq4t13mj84z2yhw3grvhc0000gn/T//ccfdabgt.s 			page 50


 1422 002e 1A62     		str	r2, [r3, #32]
1392:Drivers/STM32F4xx_HAL_Driver/Src/stm32f4xx_hal_uart.c ****     huart->TxXferSize = Size;
 1423              		.loc 1 1392 23
 1424 0030 FB68     		ldr	r3, [r7, #12]
 1425 0032 FA88     		ldrh	r2, [r7, #6]	@ movhi
 1426 0034 9A84     		strh	r2, [r3, #36]	@ movhi
1393:Drivers/STM32F4xx_HAL_Driver/Src/stm32f4xx_hal_uart.c ****     huart->TxXferCount = Size;
 1427              		.loc 1 1393 24
 1428 0036 FB68     		ldr	r3, [r7, #12]
 1429 0038 FA88     		ldrh	r2, [r7, #6]	@ movhi
 1430 003a DA84     		strh	r2, [r3, #38]	@ movhi
1394:Drivers/STM32F4xx_HAL_Driver/Src/stm32f4xx_hal_uart.c **** 
1395:Drivers/STM32F4xx_HAL_Driver/Src/stm32f4xx_hal_uart.c ****     huart->ErrorCode = HAL_UART_ERROR_NONE;
 1431              		.loc 1 1395 22
 1432 003c FB68     		ldr	r3, [r7, #12]
 1433 003e 0022     		movs	r2, #0
 1434 0040 5A64     		str	r2, [r3, #68]
1396:Drivers/STM32F4xx_HAL_Driver/Src/stm32f4xx_hal_uart.c ****     huart->gState = HAL_UART_STATE_BUSY_TX;
 1435              		.loc 1 1396 19
 1436 0042 FB68     		ldr	r3, [r7, #12]
 1437 0044 2122     		movs	r2, #33
 1438 0046 83F84120 		strb	r2, [r3, #65]
1397:Drivers/STM32F4xx_HAL_Driver/Src/stm32f4xx_hal_uart.c **** 
1398:Drivers/STM32F4xx_HAL_Driver/Src/stm32f4xx_hal_uart.c ****     /* Set the UART DMA transfer complete callback */
1399:Drivers/STM32F4xx_HAL_Driver/Src/stm32f4xx_hal_uart.c ****     huart->hdmatx->XferCpltCallback = UART_DMATransmitCplt;
 1439              		.loc 1 1399 10
 1440 004a FB68     		ldr	r3, [r7, #12]
 1441 004c 9B6B     		ldr	r3, [r3, #56]
 1442              		.loc 1 1399 37
 1443 004e 214A     		ldr	r2, .L68
 1444 0050 DA63     		str	r2, [r3, #60]
1400:Drivers/STM32F4xx_HAL_Driver/Src/stm32f4xx_hal_uart.c **** 
1401:Drivers/STM32F4xx_HAL_Driver/Src/stm32f4xx_hal_uart.c ****     /* Set the UART DMA Half transfer complete callback */
1402:Drivers/STM32F4xx_HAL_Driver/Src/stm32f4xx_hal_uart.c ****     huart->hdmatx->XferHalfCpltCallback = UART_DMATxHalfCplt;
 1445              		.loc 1 1402 10
 1446 0052 FB68     		ldr	r3, [r7, #12]
 1447 0054 9B6B     		ldr	r3, [r3, #56]
 1448              		.loc 1 1402 41
 1449 0056 204A     		ldr	r2, .L68+4
 1450 0058 1A64     		str	r2, [r3, #64]
1403:Drivers/STM32F4xx_HAL_Driver/Src/stm32f4xx_hal_uart.c **** 
1404:Drivers/STM32F4xx_HAL_Driver/Src/stm32f4xx_hal_uart.c ****     /* Set the DMA error callback */
1405:Drivers/STM32F4xx_HAL_Driver/Src/stm32f4xx_hal_uart.c ****     huart->hdmatx->XferErrorCallback = UART_DMAError;
 1451              		.loc 1 1405 10
 1452 005a FB68     		ldr	r3, [r7, #12]
 1453 005c 9B6B     		ldr	r3, [r3, #56]
 1454              		.loc 1 1405 38
 1455 005e 1F4A     		ldr	r2, .L68+8
 1456 0060 DA64     		str	r2, [r3, #76]
1406:Drivers/STM32F4xx_HAL_Driver/Src/stm32f4xx_hal_uart.c **** 
1407:Drivers/STM32F4xx_HAL_Driver/Src/stm32f4xx_hal_uart.c ****     /* Set the DMA abort callback */
1408:Drivers/STM32F4xx_HAL_Driver/Src/stm32f4xx_hal_uart.c ****     huart->hdmatx->XferAbortCallback = NULL;
 1457              		.loc 1 1408 10
 1458 0062 FB68     		ldr	r3, [r7, #12]
 1459 0064 9B6B     		ldr	r3, [r3, #56]
 1460              		.loc 1 1408 38
 1461 0066 0022     		movs	r2, #0
ARM GAS  /var/folders/06/9k7gq4t13mj84z2yhw3grvhc0000gn/T//ccfdabgt.s 			page 51


 1462 0068 1A65     		str	r2, [r3, #80]
1409:Drivers/STM32F4xx_HAL_Driver/Src/stm32f4xx_hal_uart.c **** 
1410:Drivers/STM32F4xx_HAL_Driver/Src/stm32f4xx_hal_uart.c ****     /* Enable the UART transmit DMA stream */
1411:Drivers/STM32F4xx_HAL_Driver/Src/stm32f4xx_hal_uart.c ****     tmp = (const uint32_t *)&pData;
 1463              		.loc 1 1411 9
 1464 006a 07F10803 		add	r3, r7, #8
 1465 006e FB62     		str	r3, [r7, #44]
1412:Drivers/STM32F4xx_HAL_Driver/Src/stm32f4xx_hal_uart.c ****     HAL_DMA_Start_IT(huart->hdmatx, *(const uint32_t *)tmp, (uint32_t)&huart->Instance->DR, Size);
 1466              		.loc 1 1412 5
 1467 0070 FB68     		ldr	r3, [r7, #12]
 1468 0072 986B     		ldr	r0, [r3, #56]
 1469 0074 FB6A     		ldr	r3, [r7, #44]
 1470 0076 1968     		ldr	r1, [r3]
 1471              		.loc 1 1412 77
 1472 0078 FB68     		ldr	r3, [r7, #12]
 1473 007a 1B68     		ldr	r3, [r3]
 1474              		.loc 1 1412 71
 1475 007c 0433     		adds	r3, r3, #4
 1476              		.loc 1 1412 5
 1477 007e 1A46     		mov	r2, r3
 1478 0080 FB88     		ldrh	r3, [r7, #6]
 1479 0082 FFF7FEFF 		bl	HAL_DMA_Start_IT
1413:Drivers/STM32F4xx_HAL_Driver/Src/stm32f4xx_hal_uart.c **** 
1414:Drivers/STM32F4xx_HAL_Driver/Src/stm32f4xx_hal_uart.c ****     /* Clear the TC flag in the SR register by writing 0 to it */
1415:Drivers/STM32F4xx_HAL_Driver/Src/stm32f4xx_hal_uart.c ****     __HAL_UART_CLEAR_FLAG(huart, UART_FLAG_TC);
 1480              		.loc 1 1415 5
 1481 0086 FB68     		ldr	r3, [r7, #12]
 1482 0088 1B68     		ldr	r3, [r3]
 1483 008a 6FF04002 		mvn	r2, #64
 1484 008e 1A60     		str	r2, [r3]
 1485              	.L67:
 1486              	.LBB310:
1416:Drivers/STM32F4xx_HAL_Driver/Src/stm32f4xx_hal_uart.c **** 
1417:Drivers/STM32F4xx_HAL_Driver/Src/stm32f4xx_hal_uart.c ****     /* Enable the DMA transfer for transmit request by setting the DMAT bit
1418:Drivers/STM32F4xx_HAL_Driver/Src/stm32f4xx_hal_uart.c ****        in the UART CR3 register */
1419:Drivers/STM32F4xx_HAL_Driver/Src/stm32f4xx_hal_uart.c ****     ATOMIC_SET_BIT(huart->Instance->CR3, USART_CR3_DMAT);
 1487              		.loc 1 1419 5 discriminator 1
 1488 0090 FB68     		ldr	r3, [r7, #12]
 1489 0092 1B68     		ldr	r3, [r3]
 1490 0094 1433     		adds	r3, r3, #20
 1491 0096 BB61     		str	r3, [r7, #24]
 1492              	.LBB311:
 1493              	.LBB312:
 1494              		.file 2 "Drivers/CMSIS/Include/cmsis_gcc.h"
   1:Drivers/CMSIS/Include/cmsis_gcc.h **** /**************************************************************************//**
   2:Drivers/CMSIS/Include/cmsis_gcc.h ****  * @file     cmsis_gcc.h
   3:Drivers/CMSIS/Include/cmsis_gcc.h ****  * @brief    CMSIS compiler GCC header file
   4:Drivers/CMSIS/Include/cmsis_gcc.h ****  * @version  V5.4.1
   5:Drivers/CMSIS/Include/cmsis_gcc.h ****  * @date     27. May 2021
   6:Drivers/CMSIS/Include/cmsis_gcc.h ****  ******************************************************************************/
   7:Drivers/CMSIS/Include/cmsis_gcc.h **** /*
   8:Drivers/CMSIS/Include/cmsis_gcc.h ****  * Copyright (c) 2009-2021 Arm Limited. All rights reserved.
   9:Drivers/CMSIS/Include/cmsis_gcc.h ****  *
  10:Drivers/CMSIS/Include/cmsis_gcc.h ****  * SPDX-License-Identifier: Apache-2.0
  11:Drivers/CMSIS/Include/cmsis_gcc.h ****  *
  12:Drivers/CMSIS/Include/cmsis_gcc.h ****  * Licensed under the Apache License, Version 2.0 (the License); you may
  13:Drivers/CMSIS/Include/cmsis_gcc.h ****  * not use this file except in compliance with the License.
ARM GAS  /var/folders/06/9k7gq4t13mj84z2yhw3grvhc0000gn/T//ccfdabgt.s 			page 52


  14:Drivers/CMSIS/Include/cmsis_gcc.h ****  * You may obtain a copy of the License at
  15:Drivers/CMSIS/Include/cmsis_gcc.h ****  *
  16:Drivers/CMSIS/Include/cmsis_gcc.h ****  * www.apache.org/licenses/LICENSE-2.0
  17:Drivers/CMSIS/Include/cmsis_gcc.h ****  *
  18:Drivers/CMSIS/Include/cmsis_gcc.h ****  * Unless required by applicable law or agreed to in writing, software
  19:Drivers/CMSIS/Include/cmsis_gcc.h ****  * distributed under the License is distributed on an AS IS BASIS, WITHOUT
  20:Drivers/CMSIS/Include/cmsis_gcc.h ****  * WARRANTIES OR CONDITIONS OF ANY KIND, either express or implied.
  21:Drivers/CMSIS/Include/cmsis_gcc.h ****  * See the License for the specific language governing permissions and
  22:Drivers/CMSIS/Include/cmsis_gcc.h ****  * limitations under the License.
  23:Drivers/CMSIS/Include/cmsis_gcc.h ****  */
  24:Drivers/CMSIS/Include/cmsis_gcc.h **** 
  25:Drivers/CMSIS/Include/cmsis_gcc.h **** #ifndef __CMSIS_GCC_H
  26:Drivers/CMSIS/Include/cmsis_gcc.h **** #define __CMSIS_GCC_H
  27:Drivers/CMSIS/Include/cmsis_gcc.h **** 
  28:Drivers/CMSIS/Include/cmsis_gcc.h **** /* ignore some GCC warnings */
  29:Drivers/CMSIS/Include/cmsis_gcc.h **** #pragma GCC diagnostic push
  30:Drivers/CMSIS/Include/cmsis_gcc.h **** #pragma GCC diagnostic ignored "-Wsign-conversion"
  31:Drivers/CMSIS/Include/cmsis_gcc.h **** #pragma GCC diagnostic ignored "-Wconversion"
  32:Drivers/CMSIS/Include/cmsis_gcc.h **** #pragma GCC diagnostic ignored "-Wunused-parameter"
  33:Drivers/CMSIS/Include/cmsis_gcc.h **** 
  34:Drivers/CMSIS/Include/cmsis_gcc.h **** /* Fallback for __has_builtin */
  35:Drivers/CMSIS/Include/cmsis_gcc.h **** #ifndef __has_builtin
  36:Drivers/CMSIS/Include/cmsis_gcc.h ****   #define __has_builtin(x) (0)
  37:Drivers/CMSIS/Include/cmsis_gcc.h **** #endif
  38:Drivers/CMSIS/Include/cmsis_gcc.h **** 
  39:Drivers/CMSIS/Include/cmsis_gcc.h **** /* CMSIS compiler specific defines */
  40:Drivers/CMSIS/Include/cmsis_gcc.h **** #ifndef   __ASM
  41:Drivers/CMSIS/Include/cmsis_gcc.h ****   #define __ASM                                  __asm
  42:Drivers/CMSIS/Include/cmsis_gcc.h **** #endif
  43:Drivers/CMSIS/Include/cmsis_gcc.h **** #ifndef   __INLINE
  44:Drivers/CMSIS/Include/cmsis_gcc.h ****   #define __INLINE                               inline
  45:Drivers/CMSIS/Include/cmsis_gcc.h **** #endif
  46:Drivers/CMSIS/Include/cmsis_gcc.h **** #ifndef   __STATIC_INLINE
  47:Drivers/CMSIS/Include/cmsis_gcc.h ****   #define __STATIC_INLINE                        static inline
  48:Drivers/CMSIS/Include/cmsis_gcc.h **** #endif
  49:Drivers/CMSIS/Include/cmsis_gcc.h **** #ifndef   __STATIC_FORCEINLINE
  50:Drivers/CMSIS/Include/cmsis_gcc.h ****   #define __STATIC_FORCEINLINE                   __attribute__((always_inline)) static inline
  51:Drivers/CMSIS/Include/cmsis_gcc.h **** #endif
  52:Drivers/CMSIS/Include/cmsis_gcc.h **** #ifndef   __NO_RETURN
  53:Drivers/CMSIS/Include/cmsis_gcc.h ****   #define __NO_RETURN                            __attribute__((__noreturn__))
  54:Drivers/CMSIS/Include/cmsis_gcc.h **** #endif
  55:Drivers/CMSIS/Include/cmsis_gcc.h **** #ifndef   __USED
  56:Drivers/CMSIS/Include/cmsis_gcc.h ****   #define __USED                                 __attribute__((used))
  57:Drivers/CMSIS/Include/cmsis_gcc.h **** #endif
  58:Drivers/CMSIS/Include/cmsis_gcc.h **** #ifndef   __WEAK
  59:Drivers/CMSIS/Include/cmsis_gcc.h ****   #define __WEAK                                 __attribute__((weak))
  60:Drivers/CMSIS/Include/cmsis_gcc.h **** #endif
  61:Drivers/CMSIS/Include/cmsis_gcc.h **** #ifndef   __PACKED
  62:Drivers/CMSIS/Include/cmsis_gcc.h ****   #define __PACKED                               __attribute__((packed, aligned(1)))
  63:Drivers/CMSIS/Include/cmsis_gcc.h **** #endif
  64:Drivers/CMSIS/Include/cmsis_gcc.h **** #ifndef   __PACKED_STRUCT
  65:Drivers/CMSIS/Include/cmsis_gcc.h ****   #define __PACKED_STRUCT                        struct __attribute__((packed, aligned(1)))
  66:Drivers/CMSIS/Include/cmsis_gcc.h **** #endif
  67:Drivers/CMSIS/Include/cmsis_gcc.h **** #ifndef   __PACKED_UNION
  68:Drivers/CMSIS/Include/cmsis_gcc.h ****   #define __PACKED_UNION                         union __attribute__((packed, aligned(1)))
  69:Drivers/CMSIS/Include/cmsis_gcc.h **** #endif
  70:Drivers/CMSIS/Include/cmsis_gcc.h **** #ifndef   __UNALIGNED_UINT32        /* deprecated */
ARM GAS  /var/folders/06/9k7gq4t13mj84z2yhw3grvhc0000gn/T//ccfdabgt.s 			page 53


  71:Drivers/CMSIS/Include/cmsis_gcc.h ****   #pragma GCC diagnostic push
  72:Drivers/CMSIS/Include/cmsis_gcc.h ****   #pragma GCC diagnostic ignored "-Wpacked"
  73:Drivers/CMSIS/Include/cmsis_gcc.h ****   #pragma GCC diagnostic ignored "-Wattributes"
  74:Drivers/CMSIS/Include/cmsis_gcc.h ****   struct __attribute__((packed)) T_UINT32 { uint32_t v; };
  75:Drivers/CMSIS/Include/cmsis_gcc.h ****   #pragma GCC diagnostic pop
  76:Drivers/CMSIS/Include/cmsis_gcc.h ****   #define __UNALIGNED_UINT32(x)                  (((struct T_UINT32 *)(x))->v)
  77:Drivers/CMSIS/Include/cmsis_gcc.h **** #endif
  78:Drivers/CMSIS/Include/cmsis_gcc.h **** #ifndef   __UNALIGNED_UINT16_WRITE
  79:Drivers/CMSIS/Include/cmsis_gcc.h ****   #pragma GCC diagnostic push
  80:Drivers/CMSIS/Include/cmsis_gcc.h ****   #pragma GCC diagnostic ignored "-Wpacked"
  81:Drivers/CMSIS/Include/cmsis_gcc.h ****   #pragma GCC diagnostic ignored "-Wattributes"
  82:Drivers/CMSIS/Include/cmsis_gcc.h ****   __PACKED_STRUCT T_UINT16_WRITE { uint16_t v; };
  83:Drivers/CMSIS/Include/cmsis_gcc.h ****   #pragma GCC diagnostic pop
  84:Drivers/CMSIS/Include/cmsis_gcc.h ****   #define __UNALIGNED_UINT16_WRITE(addr, val)    (void)((((struct T_UINT16_WRITE *)(void *)(addr))-
  85:Drivers/CMSIS/Include/cmsis_gcc.h **** #endif
  86:Drivers/CMSIS/Include/cmsis_gcc.h **** #ifndef   __UNALIGNED_UINT16_READ
  87:Drivers/CMSIS/Include/cmsis_gcc.h ****   #pragma GCC diagnostic push
  88:Drivers/CMSIS/Include/cmsis_gcc.h ****   #pragma GCC diagnostic ignored "-Wpacked"
  89:Drivers/CMSIS/Include/cmsis_gcc.h ****   #pragma GCC diagnostic ignored "-Wattributes"
  90:Drivers/CMSIS/Include/cmsis_gcc.h ****   __PACKED_STRUCT T_UINT16_READ { uint16_t v; };
  91:Drivers/CMSIS/Include/cmsis_gcc.h ****   #pragma GCC diagnostic pop
  92:Drivers/CMSIS/Include/cmsis_gcc.h ****   #define __UNALIGNED_UINT16_READ(addr)          (((const struct T_UINT16_READ *)(const void *)(add
  93:Drivers/CMSIS/Include/cmsis_gcc.h **** #endif
  94:Drivers/CMSIS/Include/cmsis_gcc.h **** #ifndef   __UNALIGNED_UINT32_WRITE
  95:Drivers/CMSIS/Include/cmsis_gcc.h ****   #pragma GCC diagnostic push
  96:Drivers/CMSIS/Include/cmsis_gcc.h ****   #pragma GCC diagnostic ignored "-Wpacked"
  97:Drivers/CMSIS/Include/cmsis_gcc.h ****   #pragma GCC diagnostic ignored "-Wattributes"
  98:Drivers/CMSIS/Include/cmsis_gcc.h ****   __PACKED_STRUCT T_UINT32_WRITE { uint32_t v; };
  99:Drivers/CMSIS/Include/cmsis_gcc.h ****   #pragma GCC diagnostic pop
 100:Drivers/CMSIS/Include/cmsis_gcc.h ****   #define __UNALIGNED_UINT32_WRITE(addr, val)    (void)((((struct T_UINT32_WRITE *)(void *)(addr))-
 101:Drivers/CMSIS/Include/cmsis_gcc.h **** #endif
 102:Drivers/CMSIS/Include/cmsis_gcc.h **** #ifndef   __UNALIGNED_UINT32_READ
 103:Drivers/CMSIS/Include/cmsis_gcc.h ****   #pragma GCC diagnostic push
 104:Drivers/CMSIS/Include/cmsis_gcc.h ****   #pragma GCC diagnostic ignored "-Wpacked"
 105:Drivers/CMSIS/Include/cmsis_gcc.h ****   #pragma GCC diagnostic ignored "-Wattributes"
 106:Drivers/CMSIS/Include/cmsis_gcc.h ****   __PACKED_STRUCT T_UINT32_READ { uint32_t v; };
 107:Drivers/CMSIS/Include/cmsis_gcc.h ****   #pragma GCC diagnostic pop
 108:Drivers/CMSIS/Include/cmsis_gcc.h ****   #define __UNALIGNED_UINT32_READ(addr)          (((const struct T_UINT32_READ *)(const void *)(add
 109:Drivers/CMSIS/Include/cmsis_gcc.h **** #endif
 110:Drivers/CMSIS/Include/cmsis_gcc.h **** #ifndef   __ALIGNED
 111:Drivers/CMSIS/Include/cmsis_gcc.h ****   #define __ALIGNED(x)                           __attribute__((aligned(x)))
 112:Drivers/CMSIS/Include/cmsis_gcc.h **** #endif
 113:Drivers/CMSIS/Include/cmsis_gcc.h **** #ifndef   __RESTRICT
 114:Drivers/CMSIS/Include/cmsis_gcc.h ****   #define __RESTRICT                             __restrict
 115:Drivers/CMSIS/Include/cmsis_gcc.h **** #endif
 116:Drivers/CMSIS/Include/cmsis_gcc.h **** #ifndef   __COMPILER_BARRIER
 117:Drivers/CMSIS/Include/cmsis_gcc.h ****   #define __COMPILER_BARRIER()                   __ASM volatile("":::"memory")
 118:Drivers/CMSIS/Include/cmsis_gcc.h **** #endif
 119:Drivers/CMSIS/Include/cmsis_gcc.h **** 
 120:Drivers/CMSIS/Include/cmsis_gcc.h **** /* #########################  Startup and Lowlevel Init  ######################## */
 121:Drivers/CMSIS/Include/cmsis_gcc.h **** 
 122:Drivers/CMSIS/Include/cmsis_gcc.h **** #ifndef __PROGRAM_START
 123:Drivers/CMSIS/Include/cmsis_gcc.h **** 
 124:Drivers/CMSIS/Include/cmsis_gcc.h **** /**
 125:Drivers/CMSIS/Include/cmsis_gcc.h ****   \brief   Initializes data and bss sections
 126:Drivers/CMSIS/Include/cmsis_gcc.h ****   \details This default implementations initialized all data and additional bss
 127:Drivers/CMSIS/Include/cmsis_gcc.h ****            sections relying on .copy.table and .zero.table specified properly
ARM GAS  /var/folders/06/9k7gq4t13mj84z2yhw3grvhc0000gn/T//ccfdabgt.s 			page 54


 128:Drivers/CMSIS/Include/cmsis_gcc.h ****            in the used linker script.
 129:Drivers/CMSIS/Include/cmsis_gcc.h **** 
 130:Drivers/CMSIS/Include/cmsis_gcc.h ****  */
 131:Drivers/CMSIS/Include/cmsis_gcc.h **** __STATIC_FORCEINLINE __NO_RETURN void __cmsis_start(void)
 132:Drivers/CMSIS/Include/cmsis_gcc.h **** {
 133:Drivers/CMSIS/Include/cmsis_gcc.h ****   extern void _start(void) __NO_RETURN;
 134:Drivers/CMSIS/Include/cmsis_gcc.h **** 
 135:Drivers/CMSIS/Include/cmsis_gcc.h ****   typedef struct {
 136:Drivers/CMSIS/Include/cmsis_gcc.h ****     uint32_t const* src;
 137:Drivers/CMSIS/Include/cmsis_gcc.h ****     uint32_t* dest;
 138:Drivers/CMSIS/Include/cmsis_gcc.h ****     uint32_t  wlen;
 139:Drivers/CMSIS/Include/cmsis_gcc.h ****   } __copy_table_t;
 140:Drivers/CMSIS/Include/cmsis_gcc.h **** 
 141:Drivers/CMSIS/Include/cmsis_gcc.h ****   typedef struct {
 142:Drivers/CMSIS/Include/cmsis_gcc.h ****     uint32_t* dest;
 143:Drivers/CMSIS/Include/cmsis_gcc.h ****     uint32_t  wlen;
 144:Drivers/CMSIS/Include/cmsis_gcc.h ****   } __zero_table_t;
 145:Drivers/CMSIS/Include/cmsis_gcc.h **** 
 146:Drivers/CMSIS/Include/cmsis_gcc.h ****   extern const __copy_table_t __copy_table_start__;
 147:Drivers/CMSIS/Include/cmsis_gcc.h ****   extern const __copy_table_t __copy_table_end__;
 148:Drivers/CMSIS/Include/cmsis_gcc.h ****   extern const __zero_table_t __zero_table_start__;
 149:Drivers/CMSIS/Include/cmsis_gcc.h ****   extern const __zero_table_t __zero_table_end__;
 150:Drivers/CMSIS/Include/cmsis_gcc.h **** 
 151:Drivers/CMSIS/Include/cmsis_gcc.h ****   for (__copy_table_t const* pTable = &__copy_table_start__; pTable < &__copy_table_end__; ++pTable
 152:Drivers/CMSIS/Include/cmsis_gcc.h ****     for(uint32_t i=0u; i<pTable->wlen; ++i) {
 153:Drivers/CMSIS/Include/cmsis_gcc.h ****       pTable->dest[i] = pTable->src[i];
 154:Drivers/CMSIS/Include/cmsis_gcc.h ****     }
 155:Drivers/CMSIS/Include/cmsis_gcc.h ****   }
 156:Drivers/CMSIS/Include/cmsis_gcc.h **** 
 157:Drivers/CMSIS/Include/cmsis_gcc.h ****   for (__zero_table_t const* pTable = &__zero_table_start__; pTable < &__zero_table_end__; ++pTable
 158:Drivers/CMSIS/Include/cmsis_gcc.h ****     for(uint32_t i=0u; i<pTable->wlen; ++i) {
 159:Drivers/CMSIS/Include/cmsis_gcc.h ****       pTable->dest[i] = 0u;
 160:Drivers/CMSIS/Include/cmsis_gcc.h ****     }
 161:Drivers/CMSIS/Include/cmsis_gcc.h ****   }
 162:Drivers/CMSIS/Include/cmsis_gcc.h **** 
 163:Drivers/CMSIS/Include/cmsis_gcc.h ****   _start();
 164:Drivers/CMSIS/Include/cmsis_gcc.h **** }
 165:Drivers/CMSIS/Include/cmsis_gcc.h **** 
 166:Drivers/CMSIS/Include/cmsis_gcc.h **** #define __PROGRAM_START           __cmsis_start
 167:Drivers/CMSIS/Include/cmsis_gcc.h **** #endif
 168:Drivers/CMSIS/Include/cmsis_gcc.h **** 
 169:Drivers/CMSIS/Include/cmsis_gcc.h **** #ifndef __INITIAL_SP
 170:Drivers/CMSIS/Include/cmsis_gcc.h **** #define __INITIAL_SP              __StackTop
 171:Drivers/CMSIS/Include/cmsis_gcc.h **** #endif
 172:Drivers/CMSIS/Include/cmsis_gcc.h **** 
 173:Drivers/CMSIS/Include/cmsis_gcc.h **** #ifndef __STACK_LIMIT
 174:Drivers/CMSIS/Include/cmsis_gcc.h **** #define __STACK_LIMIT             __StackLimit
 175:Drivers/CMSIS/Include/cmsis_gcc.h **** #endif
 176:Drivers/CMSIS/Include/cmsis_gcc.h **** 
 177:Drivers/CMSIS/Include/cmsis_gcc.h **** #ifndef __VECTOR_TABLE
 178:Drivers/CMSIS/Include/cmsis_gcc.h **** #define __VECTOR_TABLE            __Vectors
 179:Drivers/CMSIS/Include/cmsis_gcc.h **** #endif
 180:Drivers/CMSIS/Include/cmsis_gcc.h **** 
 181:Drivers/CMSIS/Include/cmsis_gcc.h **** #ifndef __VECTOR_TABLE_ATTRIBUTE
 182:Drivers/CMSIS/Include/cmsis_gcc.h **** #define __VECTOR_TABLE_ATTRIBUTE  __attribute__((used, section(".vectors")))
 183:Drivers/CMSIS/Include/cmsis_gcc.h **** #endif
 184:Drivers/CMSIS/Include/cmsis_gcc.h **** 
ARM GAS  /var/folders/06/9k7gq4t13mj84z2yhw3grvhc0000gn/T//ccfdabgt.s 			page 55


 185:Drivers/CMSIS/Include/cmsis_gcc.h **** #if defined (__ARM_FEATURE_CMSE) && (__ARM_FEATURE_CMSE == 3U)
 186:Drivers/CMSIS/Include/cmsis_gcc.h **** #ifndef __STACK_SEAL
 187:Drivers/CMSIS/Include/cmsis_gcc.h **** #define __STACK_SEAL              __StackSeal
 188:Drivers/CMSIS/Include/cmsis_gcc.h **** #endif
 189:Drivers/CMSIS/Include/cmsis_gcc.h **** 
 190:Drivers/CMSIS/Include/cmsis_gcc.h **** #ifndef __TZ_STACK_SEAL_SIZE
 191:Drivers/CMSIS/Include/cmsis_gcc.h **** #define __TZ_STACK_SEAL_SIZE      8U
 192:Drivers/CMSIS/Include/cmsis_gcc.h **** #endif
 193:Drivers/CMSIS/Include/cmsis_gcc.h **** 
 194:Drivers/CMSIS/Include/cmsis_gcc.h **** #ifndef __TZ_STACK_SEAL_VALUE
 195:Drivers/CMSIS/Include/cmsis_gcc.h **** #define __TZ_STACK_SEAL_VALUE     0xFEF5EDA5FEF5EDA5ULL
 196:Drivers/CMSIS/Include/cmsis_gcc.h **** #endif
 197:Drivers/CMSIS/Include/cmsis_gcc.h **** 
 198:Drivers/CMSIS/Include/cmsis_gcc.h **** 
 199:Drivers/CMSIS/Include/cmsis_gcc.h **** __STATIC_FORCEINLINE void __TZ_set_STACKSEAL_S (uint32_t* stackTop) {
 200:Drivers/CMSIS/Include/cmsis_gcc.h ****   *((uint64_t *)stackTop) = __TZ_STACK_SEAL_VALUE;
 201:Drivers/CMSIS/Include/cmsis_gcc.h **** }
 202:Drivers/CMSIS/Include/cmsis_gcc.h **** #endif
 203:Drivers/CMSIS/Include/cmsis_gcc.h **** 
 204:Drivers/CMSIS/Include/cmsis_gcc.h **** 
 205:Drivers/CMSIS/Include/cmsis_gcc.h **** /* ##########################  Core Instruction Access  ######################### */
 206:Drivers/CMSIS/Include/cmsis_gcc.h **** /** \defgroup CMSIS_Core_InstructionInterface CMSIS Core Instruction Interface
 207:Drivers/CMSIS/Include/cmsis_gcc.h ****   Access to dedicated instructions
 208:Drivers/CMSIS/Include/cmsis_gcc.h ****   @{
 209:Drivers/CMSIS/Include/cmsis_gcc.h **** */
 210:Drivers/CMSIS/Include/cmsis_gcc.h **** 
 211:Drivers/CMSIS/Include/cmsis_gcc.h **** /* Define macros for porting to both thumb1 and thumb2.
 212:Drivers/CMSIS/Include/cmsis_gcc.h ****  * For thumb1, use low register (r0-r7), specified by constraint "l"
 213:Drivers/CMSIS/Include/cmsis_gcc.h ****  * Otherwise, use general registers, specified by constraint "r" */
 214:Drivers/CMSIS/Include/cmsis_gcc.h **** #if defined (__thumb__) && !defined (__thumb2__)
 215:Drivers/CMSIS/Include/cmsis_gcc.h **** #define __CMSIS_GCC_OUT_REG(r) "=l" (r)
 216:Drivers/CMSIS/Include/cmsis_gcc.h **** #define __CMSIS_GCC_RW_REG(r) "+l" (r)
 217:Drivers/CMSIS/Include/cmsis_gcc.h **** #define __CMSIS_GCC_USE_REG(r) "l" (r)
 218:Drivers/CMSIS/Include/cmsis_gcc.h **** #else
 219:Drivers/CMSIS/Include/cmsis_gcc.h **** #define __CMSIS_GCC_OUT_REG(r) "=r" (r)
 220:Drivers/CMSIS/Include/cmsis_gcc.h **** #define __CMSIS_GCC_RW_REG(r) "+r" (r)
 221:Drivers/CMSIS/Include/cmsis_gcc.h **** #define __CMSIS_GCC_USE_REG(r) "r" (r)
 222:Drivers/CMSIS/Include/cmsis_gcc.h **** #endif
 223:Drivers/CMSIS/Include/cmsis_gcc.h **** 
 224:Drivers/CMSIS/Include/cmsis_gcc.h **** /**
 225:Drivers/CMSIS/Include/cmsis_gcc.h ****   \brief   No Operation
 226:Drivers/CMSIS/Include/cmsis_gcc.h ****   \details No Operation does nothing. This instruction can be used for code alignment purposes.
 227:Drivers/CMSIS/Include/cmsis_gcc.h ****  */
 228:Drivers/CMSIS/Include/cmsis_gcc.h **** #define __NOP()                             __ASM volatile ("nop")
 229:Drivers/CMSIS/Include/cmsis_gcc.h **** 
 230:Drivers/CMSIS/Include/cmsis_gcc.h **** /**
 231:Drivers/CMSIS/Include/cmsis_gcc.h ****   \brief   Wait For Interrupt
 232:Drivers/CMSIS/Include/cmsis_gcc.h ****   \details Wait For Interrupt is a hint instruction that suspends execution until one of a number o
 233:Drivers/CMSIS/Include/cmsis_gcc.h ****  */
 234:Drivers/CMSIS/Include/cmsis_gcc.h **** #define __WFI()                             __ASM volatile ("wfi":::"memory")
 235:Drivers/CMSIS/Include/cmsis_gcc.h **** 
 236:Drivers/CMSIS/Include/cmsis_gcc.h **** 
 237:Drivers/CMSIS/Include/cmsis_gcc.h **** /**
 238:Drivers/CMSIS/Include/cmsis_gcc.h ****   \brief   Wait For Event
 239:Drivers/CMSIS/Include/cmsis_gcc.h ****   \details Wait For Event is a hint instruction that permits the processor to enter
 240:Drivers/CMSIS/Include/cmsis_gcc.h ****            a low-power state until one of a number of events occurs.
 241:Drivers/CMSIS/Include/cmsis_gcc.h ****  */
ARM GAS  /var/folders/06/9k7gq4t13mj84z2yhw3grvhc0000gn/T//ccfdabgt.s 			page 56


 242:Drivers/CMSIS/Include/cmsis_gcc.h **** #define __WFE()                             __ASM volatile ("wfe":::"memory")
 243:Drivers/CMSIS/Include/cmsis_gcc.h **** 
 244:Drivers/CMSIS/Include/cmsis_gcc.h **** 
 245:Drivers/CMSIS/Include/cmsis_gcc.h **** /**
 246:Drivers/CMSIS/Include/cmsis_gcc.h ****   \brief   Send Event
 247:Drivers/CMSIS/Include/cmsis_gcc.h ****   \details Send Event is a hint instruction. It causes an event to be signaled to the CPU.
 248:Drivers/CMSIS/Include/cmsis_gcc.h ****  */
 249:Drivers/CMSIS/Include/cmsis_gcc.h **** #define __SEV()                             __ASM volatile ("sev")
 250:Drivers/CMSIS/Include/cmsis_gcc.h **** 
 251:Drivers/CMSIS/Include/cmsis_gcc.h **** 
 252:Drivers/CMSIS/Include/cmsis_gcc.h **** /**
 253:Drivers/CMSIS/Include/cmsis_gcc.h ****   \brief   Instruction Synchronization Barrier
 254:Drivers/CMSIS/Include/cmsis_gcc.h ****   \details Instruction Synchronization Barrier flushes the pipeline in the processor,
 255:Drivers/CMSIS/Include/cmsis_gcc.h ****            so that all instructions following the ISB are fetched from cache or memory,
 256:Drivers/CMSIS/Include/cmsis_gcc.h ****            after the instruction has been completed.
 257:Drivers/CMSIS/Include/cmsis_gcc.h ****  */
 258:Drivers/CMSIS/Include/cmsis_gcc.h **** __STATIC_FORCEINLINE void __ISB(void)
 259:Drivers/CMSIS/Include/cmsis_gcc.h **** {
 260:Drivers/CMSIS/Include/cmsis_gcc.h ****   __ASM volatile ("isb 0xF":::"memory");
 261:Drivers/CMSIS/Include/cmsis_gcc.h **** }
 262:Drivers/CMSIS/Include/cmsis_gcc.h **** 
 263:Drivers/CMSIS/Include/cmsis_gcc.h **** 
 264:Drivers/CMSIS/Include/cmsis_gcc.h **** /**
 265:Drivers/CMSIS/Include/cmsis_gcc.h ****   \brief   Data Synchronization Barrier
 266:Drivers/CMSIS/Include/cmsis_gcc.h ****   \details Acts as a special kind of Data Memory Barrier.
 267:Drivers/CMSIS/Include/cmsis_gcc.h ****            It completes when all explicit memory accesses before this instruction complete.
 268:Drivers/CMSIS/Include/cmsis_gcc.h ****  */
 269:Drivers/CMSIS/Include/cmsis_gcc.h **** __STATIC_FORCEINLINE void __DSB(void)
 270:Drivers/CMSIS/Include/cmsis_gcc.h **** {
 271:Drivers/CMSIS/Include/cmsis_gcc.h ****   __ASM volatile ("dsb 0xF":::"memory");
 272:Drivers/CMSIS/Include/cmsis_gcc.h **** }
 273:Drivers/CMSIS/Include/cmsis_gcc.h **** 
 274:Drivers/CMSIS/Include/cmsis_gcc.h **** 
 275:Drivers/CMSIS/Include/cmsis_gcc.h **** /**
 276:Drivers/CMSIS/Include/cmsis_gcc.h ****   \brief   Data Memory Barrier
 277:Drivers/CMSIS/Include/cmsis_gcc.h ****   \details Ensures the apparent order of the explicit memory operations before
 278:Drivers/CMSIS/Include/cmsis_gcc.h ****            and after the instruction, without ensuring their completion.
 279:Drivers/CMSIS/Include/cmsis_gcc.h ****  */
 280:Drivers/CMSIS/Include/cmsis_gcc.h **** __STATIC_FORCEINLINE void __DMB(void)
 281:Drivers/CMSIS/Include/cmsis_gcc.h **** {
 282:Drivers/CMSIS/Include/cmsis_gcc.h ****   __ASM volatile ("dmb 0xF":::"memory");
 283:Drivers/CMSIS/Include/cmsis_gcc.h **** }
 284:Drivers/CMSIS/Include/cmsis_gcc.h **** 
 285:Drivers/CMSIS/Include/cmsis_gcc.h **** 
 286:Drivers/CMSIS/Include/cmsis_gcc.h **** /**
 287:Drivers/CMSIS/Include/cmsis_gcc.h ****   \brief   Reverse byte order (32 bit)
 288:Drivers/CMSIS/Include/cmsis_gcc.h ****   \details Reverses the byte order in unsigned integer value. For example, 0x12345678 becomes 0x785
 289:Drivers/CMSIS/Include/cmsis_gcc.h ****   \param [in]    value  Value to reverse
 290:Drivers/CMSIS/Include/cmsis_gcc.h ****   \return               Reversed value
 291:Drivers/CMSIS/Include/cmsis_gcc.h ****  */
 292:Drivers/CMSIS/Include/cmsis_gcc.h **** __STATIC_FORCEINLINE uint32_t __REV(uint32_t value)
 293:Drivers/CMSIS/Include/cmsis_gcc.h **** {
 294:Drivers/CMSIS/Include/cmsis_gcc.h **** #if (__GNUC__ > 4) || (__GNUC__ == 4 && __GNUC_MINOR__ >= 5)
 295:Drivers/CMSIS/Include/cmsis_gcc.h ****   return __builtin_bswap32(value);
 296:Drivers/CMSIS/Include/cmsis_gcc.h **** #else
 297:Drivers/CMSIS/Include/cmsis_gcc.h ****   uint32_t result;
 298:Drivers/CMSIS/Include/cmsis_gcc.h **** 
ARM GAS  /var/folders/06/9k7gq4t13mj84z2yhw3grvhc0000gn/T//ccfdabgt.s 			page 57


 299:Drivers/CMSIS/Include/cmsis_gcc.h ****   __ASM ("rev %0, %1" : __CMSIS_GCC_OUT_REG (result) : __CMSIS_GCC_USE_REG (value) );
 300:Drivers/CMSIS/Include/cmsis_gcc.h ****   return result;
 301:Drivers/CMSIS/Include/cmsis_gcc.h **** #endif
 302:Drivers/CMSIS/Include/cmsis_gcc.h **** }
 303:Drivers/CMSIS/Include/cmsis_gcc.h **** 
 304:Drivers/CMSIS/Include/cmsis_gcc.h **** 
 305:Drivers/CMSIS/Include/cmsis_gcc.h **** /**
 306:Drivers/CMSIS/Include/cmsis_gcc.h ****   \brief   Reverse byte order (16 bit)
 307:Drivers/CMSIS/Include/cmsis_gcc.h ****   \details Reverses the byte order within each halfword of a word. For example, 0x12345678 becomes 
 308:Drivers/CMSIS/Include/cmsis_gcc.h ****   \param [in]    value  Value to reverse
 309:Drivers/CMSIS/Include/cmsis_gcc.h ****   \return               Reversed value
 310:Drivers/CMSIS/Include/cmsis_gcc.h ****  */
 311:Drivers/CMSIS/Include/cmsis_gcc.h **** __STATIC_FORCEINLINE uint32_t __REV16(uint32_t value)
 312:Drivers/CMSIS/Include/cmsis_gcc.h **** {
 313:Drivers/CMSIS/Include/cmsis_gcc.h ****   uint32_t result;
 314:Drivers/CMSIS/Include/cmsis_gcc.h **** 
 315:Drivers/CMSIS/Include/cmsis_gcc.h ****   __ASM ("rev16 %0, %1" : __CMSIS_GCC_OUT_REG (result) : __CMSIS_GCC_USE_REG (value) );
 316:Drivers/CMSIS/Include/cmsis_gcc.h ****   return result;
 317:Drivers/CMSIS/Include/cmsis_gcc.h **** }
 318:Drivers/CMSIS/Include/cmsis_gcc.h **** 
 319:Drivers/CMSIS/Include/cmsis_gcc.h **** 
 320:Drivers/CMSIS/Include/cmsis_gcc.h **** /**
 321:Drivers/CMSIS/Include/cmsis_gcc.h ****   \brief   Reverse byte order (16 bit)
 322:Drivers/CMSIS/Include/cmsis_gcc.h ****   \details Reverses the byte order in a 16-bit value and returns the signed 16-bit result. For exam
 323:Drivers/CMSIS/Include/cmsis_gcc.h ****   \param [in]    value  Value to reverse
 324:Drivers/CMSIS/Include/cmsis_gcc.h ****   \return               Reversed value
 325:Drivers/CMSIS/Include/cmsis_gcc.h ****  */
 326:Drivers/CMSIS/Include/cmsis_gcc.h **** __STATIC_FORCEINLINE int16_t __REVSH(int16_t value)
 327:Drivers/CMSIS/Include/cmsis_gcc.h **** {
 328:Drivers/CMSIS/Include/cmsis_gcc.h **** #if (__GNUC__ > 4) || (__GNUC__ == 4 && __GNUC_MINOR__ >= 8)
 329:Drivers/CMSIS/Include/cmsis_gcc.h ****   return (int16_t)__builtin_bswap16(value);
 330:Drivers/CMSIS/Include/cmsis_gcc.h **** #else
 331:Drivers/CMSIS/Include/cmsis_gcc.h ****   int16_t result;
 332:Drivers/CMSIS/Include/cmsis_gcc.h **** 
 333:Drivers/CMSIS/Include/cmsis_gcc.h ****   __ASM ("revsh %0, %1" : __CMSIS_GCC_OUT_REG (result) : __CMSIS_GCC_USE_REG (value) );
 334:Drivers/CMSIS/Include/cmsis_gcc.h ****   return result;
 335:Drivers/CMSIS/Include/cmsis_gcc.h **** #endif
 336:Drivers/CMSIS/Include/cmsis_gcc.h **** }
 337:Drivers/CMSIS/Include/cmsis_gcc.h **** 
 338:Drivers/CMSIS/Include/cmsis_gcc.h **** 
 339:Drivers/CMSIS/Include/cmsis_gcc.h **** /**
 340:Drivers/CMSIS/Include/cmsis_gcc.h ****   \brief   Rotate Right in unsigned value (32 bit)
 341:Drivers/CMSIS/Include/cmsis_gcc.h ****   \details Rotate Right (immediate) provides the value of the contents of a register rotated by a v
 342:Drivers/CMSIS/Include/cmsis_gcc.h ****   \param [in]    op1  Value to rotate
 343:Drivers/CMSIS/Include/cmsis_gcc.h ****   \param [in]    op2  Number of Bits to rotate
 344:Drivers/CMSIS/Include/cmsis_gcc.h ****   \return               Rotated value
 345:Drivers/CMSIS/Include/cmsis_gcc.h ****  */
 346:Drivers/CMSIS/Include/cmsis_gcc.h **** __STATIC_FORCEINLINE uint32_t __ROR(uint32_t op1, uint32_t op2)
 347:Drivers/CMSIS/Include/cmsis_gcc.h **** {
 348:Drivers/CMSIS/Include/cmsis_gcc.h ****   op2 %= 32U;
 349:Drivers/CMSIS/Include/cmsis_gcc.h ****   if (op2 == 0U)
 350:Drivers/CMSIS/Include/cmsis_gcc.h ****   {
 351:Drivers/CMSIS/Include/cmsis_gcc.h ****     return op1;
 352:Drivers/CMSIS/Include/cmsis_gcc.h ****   }
 353:Drivers/CMSIS/Include/cmsis_gcc.h ****   return (op1 >> op2) | (op1 << (32U - op2));
 354:Drivers/CMSIS/Include/cmsis_gcc.h **** }
 355:Drivers/CMSIS/Include/cmsis_gcc.h **** 
ARM GAS  /var/folders/06/9k7gq4t13mj84z2yhw3grvhc0000gn/T//ccfdabgt.s 			page 58


 356:Drivers/CMSIS/Include/cmsis_gcc.h **** 
 357:Drivers/CMSIS/Include/cmsis_gcc.h **** /**
 358:Drivers/CMSIS/Include/cmsis_gcc.h ****   \brief   Breakpoint
 359:Drivers/CMSIS/Include/cmsis_gcc.h ****   \details Causes the processor to enter Debug state.
 360:Drivers/CMSIS/Include/cmsis_gcc.h ****            Debug tools can use this to investigate system state when the instruction at a particula
 361:Drivers/CMSIS/Include/cmsis_gcc.h ****   \param [in]    value  is ignored by the processor.
 362:Drivers/CMSIS/Include/cmsis_gcc.h ****                  If required, a debugger can use it to store additional information about the break
 363:Drivers/CMSIS/Include/cmsis_gcc.h ****  */
 364:Drivers/CMSIS/Include/cmsis_gcc.h **** #define __BKPT(value)                       __ASM volatile ("bkpt "#value)
 365:Drivers/CMSIS/Include/cmsis_gcc.h **** 
 366:Drivers/CMSIS/Include/cmsis_gcc.h **** 
 367:Drivers/CMSIS/Include/cmsis_gcc.h **** /**
 368:Drivers/CMSIS/Include/cmsis_gcc.h ****   \brief   Reverse bit order of value
 369:Drivers/CMSIS/Include/cmsis_gcc.h ****   \details Reverses the bit order of the given value.
 370:Drivers/CMSIS/Include/cmsis_gcc.h ****   \param [in]    value  Value to reverse
 371:Drivers/CMSIS/Include/cmsis_gcc.h ****   \return               Reversed value
 372:Drivers/CMSIS/Include/cmsis_gcc.h ****  */
 373:Drivers/CMSIS/Include/cmsis_gcc.h **** __STATIC_FORCEINLINE uint32_t __RBIT(uint32_t value)
 374:Drivers/CMSIS/Include/cmsis_gcc.h **** {
 375:Drivers/CMSIS/Include/cmsis_gcc.h ****   uint32_t result;
 376:Drivers/CMSIS/Include/cmsis_gcc.h **** 
 377:Drivers/CMSIS/Include/cmsis_gcc.h **** #if ((defined (__ARM_ARCH_7M__      ) && (__ARM_ARCH_7M__      == 1)) || \
 378:Drivers/CMSIS/Include/cmsis_gcc.h ****      (defined (__ARM_ARCH_7EM__     ) && (__ARM_ARCH_7EM__     == 1)) || \
 379:Drivers/CMSIS/Include/cmsis_gcc.h ****      (defined (__ARM_ARCH_8M_MAIN__ ) && (__ARM_ARCH_8M_MAIN__ == 1))    )
 380:Drivers/CMSIS/Include/cmsis_gcc.h ****    __ASM ("rbit %0, %1" : "=r" (result) : "r" (value) );
 381:Drivers/CMSIS/Include/cmsis_gcc.h **** #else
 382:Drivers/CMSIS/Include/cmsis_gcc.h ****   uint32_t s = (4U /*sizeof(v)*/ * 8U) - 1U; /* extra shift needed at end */
 383:Drivers/CMSIS/Include/cmsis_gcc.h **** 
 384:Drivers/CMSIS/Include/cmsis_gcc.h ****   result = value;                      /* r will be reversed bits of v; first get LSB of v */
 385:Drivers/CMSIS/Include/cmsis_gcc.h ****   for (value >>= 1U; value != 0U; value >>= 1U)
 386:Drivers/CMSIS/Include/cmsis_gcc.h ****   {
 387:Drivers/CMSIS/Include/cmsis_gcc.h ****     result <<= 1U;
 388:Drivers/CMSIS/Include/cmsis_gcc.h ****     result |= value & 1U;
 389:Drivers/CMSIS/Include/cmsis_gcc.h ****     s--;
 390:Drivers/CMSIS/Include/cmsis_gcc.h ****   }
 391:Drivers/CMSIS/Include/cmsis_gcc.h ****   result <<= s;                        /* shift when v's highest bits are zero */
 392:Drivers/CMSIS/Include/cmsis_gcc.h **** #endif
 393:Drivers/CMSIS/Include/cmsis_gcc.h ****   return result;
 394:Drivers/CMSIS/Include/cmsis_gcc.h **** }
 395:Drivers/CMSIS/Include/cmsis_gcc.h **** 
 396:Drivers/CMSIS/Include/cmsis_gcc.h **** 
 397:Drivers/CMSIS/Include/cmsis_gcc.h **** /**
 398:Drivers/CMSIS/Include/cmsis_gcc.h ****   \brief   Count leading zeros
 399:Drivers/CMSIS/Include/cmsis_gcc.h ****   \details Counts the number of leading zeros of a data value.
 400:Drivers/CMSIS/Include/cmsis_gcc.h ****   \param [in]  value  Value to count the leading zeros
 401:Drivers/CMSIS/Include/cmsis_gcc.h ****   \return             number of leading zeros in value
 402:Drivers/CMSIS/Include/cmsis_gcc.h ****  */
 403:Drivers/CMSIS/Include/cmsis_gcc.h **** __STATIC_FORCEINLINE uint8_t __CLZ(uint32_t value)
 404:Drivers/CMSIS/Include/cmsis_gcc.h **** {
 405:Drivers/CMSIS/Include/cmsis_gcc.h ****   /* Even though __builtin_clz produces a CLZ instruction on ARM, formally
 406:Drivers/CMSIS/Include/cmsis_gcc.h ****      __builtin_clz(0) is undefined behaviour, so handle this case specially.
 407:Drivers/CMSIS/Include/cmsis_gcc.h ****      This guarantees ARM-compatible results if happening to compile on a non-ARM
 408:Drivers/CMSIS/Include/cmsis_gcc.h ****      target, and ensures the compiler doesn't decide to activate any
 409:Drivers/CMSIS/Include/cmsis_gcc.h ****      optimisations using the logic "value was passed to __builtin_clz, so it
 410:Drivers/CMSIS/Include/cmsis_gcc.h ****      is non-zero".
 411:Drivers/CMSIS/Include/cmsis_gcc.h ****      ARM GCC 7.3 and possibly earlier will optimise this test away, leaving a
 412:Drivers/CMSIS/Include/cmsis_gcc.h ****      single CLZ instruction.
ARM GAS  /var/folders/06/9k7gq4t13mj84z2yhw3grvhc0000gn/T//ccfdabgt.s 			page 59


 413:Drivers/CMSIS/Include/cmsis_gcc.h ****    */
 414:Drivers/CMSIS/Include/cmsis_gcc.h ****   if (value == 0U)
 415:Drivers/CMSIS/Include/cmsis_gcc.h ****   {
 416:Drivers/CMSIS/Include/cmsis_gcc.h ****     return 32U;
 417:Drivers/CMSIS/Include/cmsis_gcc.h ****   }
 418:Drivers/CMSIS/Include/cmsis_gcc.h ****   return __builtin_clz(value);
 419:Drivers/CMSIS/Include/cmsis_gcc.h **** }
 420:Drivers/CMSIS/Include/cmsis_gcc.h **** 
 421:Drivers/CMSIS/Include/cmsis_gcc.h **** 
 422:Drivers/CMSIS/Include/cmsis_gcc.h **** #if ((defined (__ARM_ARCH_7M__      ) && (__ARM_ARCH_7M__      == 1)) || \
 423:Drivers/CMSIS/Include/cmsis_gcc.h ****      (defined (__ARM_ARCH_7EM__     ) && (__ARM_ARCH_7EM__     == 1)) || \
 424:Drivers/CMSIS/Include/cmsis_gcc.h ****      (defined (__ARM_ARCH_8M_MAIN__ ) && (__ARM_ARCH_8M_MAIN__ == 1)) || \
 425:Drivers/CMSIS/Include/cmsis_gcc.h ****      (defined (__ARM_ARCH_8M_BASE__ ) && (__ARM_ARCH_8M_BASE__ == 1))    )
 426:Drivers/CMSIS/Include/cmsis_gcc.h **** /**
 427:Drivers/CMSIS/Include/cmsis_gcc.h ****   \brief   LDR Exclusive (8 bit)
 428:Drivers/CMSIS/Include/cmsis_gcc.h ****   \details Executes a exclusive LDR instruction for 8 bit value.
 429:Drivers/CMSIS/Include/cmsis_gcc.h ****   \param [in]    ptr  Pointer to data
 430:Drivers/CMSIS/Include/cmsis_gcc.h ****   \return             value of type uint8_t at (*ptr)
 431:Drivers/CMSIS/Include/cmsis_gcc.h ****  */
 432:Drivers/CMSIS/Include/cmsis_gcc.h **** __STATIC_FORCEINLINE uint8_t __LDREXB(volatile uint8_t *addr)
 433:Drivers/CMSIS/Include/cmsis_gcc.h **** {
 434:Drivers/CMSIS/Include/cmsis_gcc.h ****     uint32_t result;
 435:Drivers/CMSIS/Include/cmsis_gcc.h **** 
 436:Drivers/CMSIS/Include/cmsis_gcc.h **** #if (__GNUC__ > 4) || (__GNUC__ == 4 && __GNUC_MINOR__ >= 8)
 437:Drivers/CMSIS/Include/cmsis_gcc.h ****    __ASM volatile ("ldrexb %0, %1" : "=r" (result) : "Q" (*addr) );
 438:Drivers/CMSIS/Include/cmsis_gcc.h **** #else
 439:Drivers/CMSIS/Include/cmsis_gcc.h ****     /* Prior to GCC 4.8, "Q" will be expanded to [rx, #0] which is not
 440:Drivers/CMSIS/Include/cmsis_gcc.h ****        accepted by assembler. So has to use following less efficient pattern.
 441:Drivers/CMSIS/Include/cmsis_gcc.h ****     */
 442:Drivers/CMSIS/Include/cmsis_gcc.h ****    __ASM volatile ("ldrexb %0, [%1]" : "=r" (result) : "r" (addr) : "memory" );
 443:Drivers/CMSIS/Include/cmsis_gcc.h **** #endif
 444:Drivers/CMSIS/Include/cmsis_gcc.h ****    return ((uint8_t) result);    /* Add explicit type cast here */
 445:Drivers/CMSIS/Include/cmsis_gcc.h **** }
 446:Drivers/CMSIS/Include/cmsis_gcc.h **** 
 447:Drivers/CMSIS/Include/cmsis_gcc.h **** 
 448:Drivers/CMSIS/Include/cmsis_gcc.h **** /**
 449:Drivers/CMSIS/Include/cmsis_gcc.h ****   \brief   LDR Exclusive (16 bit)
 450:Drivers/CMSIS/Include/cmsis_gcc.h ****   \details Executes a exclusive LDR instruction for 16 bit values.
 451:Drivers/CMSIS/Include/cmsis_gcc.h ****   \param [in]    ptr  Pointer to data
 452:Drivers/CMSIS/Include/cmsis_gcc.h ****   \return        value of type uint16_t at (*ptr)
 453:Drivers/CMSIS/Include/cmsis_gcc.h ****  */
 454:Drivers/CMSIS/Include/cmsis_gcc.h **** __STATIC_FORCEINLINE uint16_t __LDREXH(volatile uint16_t *addr)
 455:Drivers/CMSIS/Include/cmsis_gcc.h **** {
 456:Drivers/CMSIS/Include/cmsis_gcc.h ****     uint32_t result;
 457:Drivers/CMSIS/Include/cmsis_gcc.h **** 
 458:Drivers/CMSIS/Include/cmsis_gcc.h **** #if (__GNUC__ > 4) || (__GNUC__ == 4 && __GNUC_MINOR__ >= 8)
 459:Drivers/CMSIS/Include/cmsis_gcc.h ****    __ASM volatile ("ldrexh %0, %1" : "=r" (result) : "Q" (*addr) );
 460:Drivers/CMSIS/Include/cmsis_gcc.h **** #else
 461:Drivers/CMSIS/Include/cmsis_gcc.h ****     /* Prior to GCC 4.8, "Q" will be expanded to [rx, #0] which is not
 462:Drivers/CMSIS/Include/cmsis_gcc.h ****        accepted by assembler. So has to use following less efficient pattern.
 463:Drivers/CMSIS/Include/cmsis_gcc.h ****     */
 464:Drivers/CMSIS/Include/cmsis_gcc.h ****    __ASM volatile ("ldrexh %0, [%1]" : "=r" (result) : "r" (addr) : "memory" );
 465:Drivers/CMSIS/Include/cmsis_gcc.h **** #endif
 466:Drivers/CMSIS/Include/cmsis_gcc.h ****    return ((uint16_t) result);    /* Add explicit type cast here */
 467:Drivers/CMSIS/Include/cmsis_gcc.h **** }
 468:Drivers/CMSIS/Include/cmsis_gcc.h **** 
 469:Drivers/CMSIS/Include/cmsis_gcc.h **** 
ARM GAS  /var/folders/06/9k7gq4t13mj84z2yhw3grvhc0000gn/T//ccfdabgt.s 			page 60


 470:Drivers/CMSIS/Include/cmsis_gcc.h **** /**
 471:Drivers/CMSIS/Include/cmsis_gcc.h ****   \brief   LDR Exclusive (32 bit)
 472:Drivers/CMSIS/Include/cmsis_gcc.h ****   \details Executes a exclusive LDR instruction for 32 bit values.
 473:Drivers/CMSIS/Include/cmsis_gcc.h ****   \param [in]    ptr  Pointer to data
 474:Drivers/CMSIS/Include/cmsis_gcc.h ****   \return        value of type uint32_t at (*ptr)
 475:Drivers/CMSIS/Include/cmsis_gcc.h ****  */
 476:Drivers/CMSIS/Include/cmsis_gcc.h **** __STATIC_FORCEINLINE uint32_t __LDREXW(volatile uint32_t *addr)
 477:Drivers/CMSIS/Include/cmsis_gcc.h **** {
 478:Drivers/CMSIS/Include/cmsis_gcc.h ****     uint32_t result;
 479:Drivers/CMSIS/Include/cmsis_gcc.h **** 
 480:Drivers/CMSIS/Include/cmsis_gcc.h ****    __ASM volatile ("ldrex %0, %1" : "=r" (result) : "Q" (*addr) );
 1495              		.loc 2 480 4
 1496 0098 BB69     		ldr	r3, [r7, #24]
 1497              		.syntax unified
 1498              	@ 480 "Drivers/CMSIS/Include/cmsis_gcc.h" 1
 1499 009a 53E8003F 		ldrex r3, [r3]
 1500              	@ 0 "" 2
 1501              		.thumb
 1502              		.syntax unified
 1503 009e 7B61     		str	r3, [r7, #20]
 481:Drivers/CMSIS/Include/cmsis_gcc.h ****    return(result);
 1504              		.loc 2 481 10
 1505 00a0 7B69     		ldr	r3, [r7, #20]
 1506              	.LBE312:
 1507              	.LBE311:
 1508              		.loc 1 1419 5 discriminator 1
 1509 00a2 43F08003 		orr	r3, r3, #128
 1510 00a6 BB62     		str	r3, [r7, #40]
 1511 00a8 FB68     		ldr	r3, [r7, #12]
 1512 00aa 1B68     		ldr	r3, [r3]
 1513 00ac 1433     		adds	r3, r3, #20
 1514 00ae BA6A     		ldr	r2, [r7, #40]
 1515 00b0 7A62     		str	r2, [r7, #36]
 1516 00b2 3B62     		str	r3, [r7, #32]
 1517              	.LBB313:
 1518              	.LBB314:
 482:Drivers/CMSIS/Include/cmsis_gcc.h **** }
 483:Drivers/CMSIS/Include/cmsis_gcc.h **** 
 484:Drivers/CMSIS/Include/cmsis_gcc.h **** 
 485:Drivers/CMSIS/Include/cmsis_gcc.h **** /**
 486:Drivers/CMSIS/Include/cmsis_gcc.h ****   \brief   STR Exclusive (8 bit)
 487:Drivers/CMSIS/Include/cmsis_gcc.h ****   \details Executes a exclusive STR instruction for 8 bit values.
 488:Drivers/CMSIS/Include/cmsis_gcc.h ****   \param [in]  value  Value to store
 489:Drivers/CMSIS/Include/cmsis_gcc.h ****   \param [in]    ptr  Pointer to location
 490:Drivers/CMSIS/Include/cmsis_gcc.h ****   \return          0  Function succeeded
 491:Drivers/CMSIS/Include/cmsis_gcc.h ****   \return          1  Function failed
 492:Drivers/CMSIS/Include/cmsis_gcc.h ****  */
 493:Drivers/CMSIS/Include/cmsis_gcc.h **** __STATIC_FORCEINLINE uint32_t __STREXB(uint8_t value, volatile uint8_t *addr)
 494:Drivers/CMSIS/Include/cmsis_gcc.h **** {
 495:Drivers/CMSIS/Include/cmsis_gcc.h ****    uint32_t result;
 496:Drivers/CMSIS/Include/cmsis_gcc.h **** 
 497:Drivers/CMSIS/Include/cmsis_gcc.h ****    __ASM volatile ("strexb %0, %2, %1" : "=&r" (result), "=Q" (*addr) : "r" ((uint32_t)value) );
 498:Drivers/CMSIS/Include/cmsis_gcc.h ****    return(result);
 499:Drivers/CMSIS/Include/cmsis_gcc.h **** }
 500:Drivers/CMSIS/Include/cmsis_gcc.h **** 
 501:Drivers/CMSIS/Include/cmsis_gcc.h **** 
 502:Drivers/CMSIS/Include/cmsis_gcc.h **** /**
ARM GAS  /var/folders/06/9k7gq4t13mj84z2yhw3grvhc0000gn/T//ccfdabgt.s 			page 61


 503:Drivers/CMSIS/Include/cmsis_gcc.h ****   \brief   STR Exclusive (16 bit)
 504:Drivers/CMSIS/Include/cmsis_gcc.h ****   \details Executes a exclusive STR instruction for 16 bit values.
 505:Drivers/CMSIS/Include/cmsis_gcc.h ****   \param [in]  value  Value to store
 506:Drivers/CMSIS/Include/cmsis_gcc.h ****   \param [in]    ptr  Pointer to location
 507:Drivers/CMSIS/Include/cmsis_gcc.h ****   \return          0  Function succeeded
 508:Drivers/CMSIS/Include/cmsis_gcc.h ****   \return          1  Function failed
 509:Drivers/CMSIS/Include/cmsis_gcc.h ****  */
 510:Drivers/CMSIS/Include/cmsis_gcc.h **** __STATIC_FORCEINLINE uint32_t __STREXH(uint16_t value, volatile uint16_t *addr)
 511:Drivers/CMSIS/Include/cmsis_gcc.h **** {
 512:Drivers/CMSIS/Include/cmsis_gcc.h ****    uint32_t result;
 513:Drivers/CMSIS/Include/cmsis_gcc.h **** 
 514:Drivers/CMSIS/Include/cmsis_gcc.h ****    __ASM volatile ("strexh %0, %2, %1" : "=&r" (result), "=Q" (*addr) : "r" ((uint32_t)value) );
 515:Drivers/CMSIS/Include/cmsis_gcc.h ****    return(result);
 516:Drivers/CMSIS/Include/cmsis_gcc.h **** }
 517:Drivers/CMSIS/Include/cmsis_gcc.h **** 
 518:Drivers/CMSIS/Include/cmsis_gcc.h **** 
 519:Drivers/CMSIS/Include/cmsis_gcc.h **** /**
 520:Drivers/CMSIS/Include/cmsis_gcc.h ****   \brief   STR Exclusive (32 bit)
 521:Drivers/CMSIS/Include/cmsis_gcc.h ****   \details Executes a exclusive STR instruction for 32 bit values.
 522:Drivers/CMSIS/Include/cmsis_gcc.h ****   \param [in]  value  Value to store
 523:Drivers/CMSIS/Include/cmsis_gcc.h ****   \param [in]    ptr  Pointer to location
 524:Drivers/CMSIS/Include/cmsis_gcc.h ****   \return          0  Function succeeded
 525:Drivers/CMSIS/Include/cmsis_gcc.h ****   \return          1  Function failed
 526:Drivers/CMSIS/Include/cmsis_gcc.h ****  */
 527:Drivers/CMSIS/Include/cmsis_gcc.h **** __STATIC_FORCEINLINE uint32_t __STREXW(uint32_t value, volatile uint32_t *addr)
 528:Drivers/CMSIS/Include/cmsis_gcc.h **** {
 529:Drivers/CMSIS/Include/cmsis_gcc.h ****    uint32_t result;
 530:Drivers/CMSIS/Include/cmsis_gcc.h **** 
 531:Drivers/CMSIS/Include/cmsis_gcc.h ****    __ASM volatile ("strex %0, %2, %1" : "=&r" (result), "=Q" (*addr) : "r" (value) );
 1519              		.loc 2 531 4
 1520 00b4 396A     		ldr	r1, [r7, #32]
 1521 00b6 7A6A     		ldr	r2, [r7, #36]
 1522              		.syntax unified
 1523              	@ 531 "Drivers/CMSIS/Include/cmsis_gcc.h" 1
 1524 00b8 41E80023 		strex r3, r2, [r1]
 1525              	@ 0 "" 2
 1526              		.thumb
 1527              		.syntax unified
 1528 00bc FB61     		str	r3, [r7, #28]
 532:Drivers/CMSIS/Include/cmsis_gcc.h ****    return(result);
 1529              		.loc 2 532 10
 1530 00be FB69     		ldr	r3, [r7, #28]
 1531              	.LBE314:
 1532              	.LBE313:
 1533              		.loc 1 1419 5 discriminator 1
 1534 00c0 002B     		cmp	r3, #0
 1535 00c2 E5D1     		bne	.L67
 1536              	.LBE310:
1420:Drivers/STM32F4xx_HAL_Driver/Src/stm32f4xx_hal_uart.c **** 
1421:Drivers/STM32F4xx_HAL_Driver/Src/stm32f4xx_hal_uart.c ****     return HAL_OK;
 1537              		.loc 1 1421 12
 1538 00c4 0023     		movs	r3, #0
 1539 00c6 00E0     		b	.L64
 1540              	.L61:
1422:Drivers/STM32F4xx_HAL_Driver/Src/stm32f4xx_hal_uart.c ****   }
1423:Drivers/STM32F4xx_HAL_Driver/Src/stm32f4xx_hal_uart.c ****   else
1424:Drivers/STM32F4xx_HAL_Driver/Src/stm32f4xx_hal_uart.c ****   {
ARM GAS  /var/folders/06/9k7gq4t13mj84z2yhw3grvhc0000gn/T//ccfdabgt.s 			page 62


1425:Drivers/STM32F4xx_HAL_Driver/Src/stm32f4xx_hal_uart.c ****     return HAL_BUSY;
 1541              		.loc 1 1425 12
 1542 00c8 0223     		movs	r3, #2
 1543              	.L64:
1426:Drivers/STM32F4xx_HAL_Driver/Src/stm32f4xx_hal_uart.c ****   }
1427:Drivers/STM32F4xx_HAL_Driver/Src/stm32f4xx_hal_uart.c **** }
 1544              		.loc 1 1427 1
 1545 00ca 1846     		mov	r0, r3
 1546 00cc 3037     		adds	r7, r7, #48
 1547              	.LCFI61:
 1548              		.cfi_def_cfa_offset 8
 1549 00ce BD46     		mov	sp, r7
 1550              	.LCFI62:
 1551              		.cfi_def_cfa_register 13
 1552              		@ sp needed
 1553 00d0 80BD     		pop	{r7, pc}
 1554              	.L69:
 1555 00d2 00BF     		.align	2
 1556              	.L68:
 1557 00d4 00000000 		.word	UART_DMATransmitCplt
 1558 00d8 00000000 		.word	UART_DMATxHalfCplt
 1559 00dc 00000000 		.word	UART_DMAError
 1560              		.cfi_endproc
 1561              	.LFE145:
 1563              		.section	.text.HAL_UART_Receive_DMA,"ax",%progbits
 1564              		.align	1
 1565              		.global	HAL_UART_Receive_DMA
 1566              		.syntax unified
 1567              		.thumb
 1568              		.thumb_func
 1570              	HAL_UART_Receive_DMA:
 1571              	.LFB146:
1428:Drivers/STM32F4xx_HAL_Driver/Src/stm32f4xx_hal_uart.c **** 
1429:Drivers/STM32F4xx_HAL_Driver/Src/stm32f4xx_hal_uart.c **** /**
1430:Drivers/STM32F4xx_HAL_Driver/Src/stm32f4xx_hal_uart.c ****   * @brief  Receives an amount of data in DMA mode.
1431:Drivers/STM32F4xx_HAL_Driver/Src/stm32f4xx_hal_uart.c ****   * @note   When UART parity is not enabled (PCE = 0), and Word Length is configured to 9 bits (M1-
1432:Drivers/STM32F4xx_HAL_Driver/Src/stm32f4xx_hal_uart.c ****   *         the received data is handled as a set of u16. In this case, Size must indicate the numb
1433:Drivers/STM32F4xx_HAL_Driver/Src/stm32f4xx_hal_uart.c ****   *         of u16 available through pData.
1434:Drivers/STM32F4xx_HAL_Driver/Src/stm32f4xx_hal_uart.c ****   * @param  huart Pointer to a UART_HandleTypeDef structure that contains
1435:Drivers/STM32F4xx_HAL_Driver/Src/stm32f4xx_hal_uart.c ****   *               the configuration information for the specified UART module.
1436:Drivers/STM32F4xx_HAL_Driver/Src/stm32f4xx_hal_uart.c ****   * @param  pData Pointer to data buffer (u8 or u16 data elements).
1437:Drivers/STM32F4xx_HAL_Driver/Src/stm32f4xx_hal_uart.c ****   * @param  Size  Amount of data elements (u8 or u16) to be received.
1438:Drivers/STM32F4xx_HAL_Driver/Src/stm32f4xx_hal_uart.c ****   * @note   When the UART parity is enabled (PCE = 1) the received data contains the parity bit.
1439:Drivers/STM32F4xx_HAL_Driver/Src/stm32f4xx_hal_uart.c ****   * @retval HAL status
1440:Drivers/STM32F4xx_HAL_Driver/Src/stm32f4xx_hal_uart.c ****   */
1441:Drivers/STM32F4xx_HAL_Driver/Src/stm32f4xx_hal_uart.c **** HAL_StatusTypeDef HAL_UART_Receive_DMA(UART_HandleTypeDef *huart, uint8_t *pData, uint16_t Size)
1442:Drivers/STM32F4xx_HAL_Driver/Src/stm32f4xx_hal_uart.c **** {
 1572              		.loc 1 1442 1
 1573              		.cfi_startproc
 1574              		@ args = 0, pretend = 0, frame = 16
 1575              		@ frame_needed = 1, uses_anonymous_args = 0
 1576 0000 80B5     		push	{r7, lr}
 1577              	.LCFI63:
 1578              		.cfi_def_cfa_offset 8
 1579              		.cfi_offset 7, -8
 1580              		.cfi_offset 14, -4
 1581 0002 84B0     		sub	sp, sp, #16
ARM GAS  /var/folders/06/9k7gq4t13mj84z2yhw3grvhc0000gn/T//ccfdabgt.s 			page 63


 1582              	.LCFI64:
 1583              		.cfi_def_cfa_offset 24
 1584 0004 00AF     		add	r7, sp, #0
 1585              	.LCFI65:
 1586              		.cfi_def_cfa_register 7
 1587 0006 F860     		str	r0, [r7, #12]
 1588 0008 B960     		str	r1, [r7, #8]
 1589 000a 1346     		mov	r3, r2
 1590 000c FB80     		strh	r3, [r7, #6]	@ movhi
1443:Drivers/STM32F4xx_HAL_Driver/Src/stm32f4xx_hal_uart.c ****   /* Check that a Rx process is not already ongoing */
1444:Drivers/STM32F4xx_HAL_Driver/Src/stm32f4xx_hal_uart.c ****   if (huart->RxState == HAL_UART_STATE_READY)
 1591              		.loc 1 1444 12
 1592 000e FB68     		ldr	r3, [r7, #12]
 1593 0010 93F84230 		ldrb	r3, [r3, #66]
 1594 0014 DBB2     		uxtb	r3, r3
 1595              		.loc 1 1444 6
 1596 0016 202B     		cmp	r3, #32
 1597 0018 12D1     		bne	.L71
1445:Drivers/STM32F4xx_HAL_Driver/Src/stm32f4xx_hal_uart.c ****   {
1446:Drivers/STM32F4xx_HAL_Driver/Src/stm32f4xx_hal_uart.c ****     if ((pData == NULL) || (Size == 0U))
 1598              		.loc 1 1446 8
 1599 001a BB68     		ldr	r3, [r7, #8]
 1600 001c 002B     		cmp	r3, #0
 1601 001e 02D0     		beq	.L72
 1602              		.loc 1 1446 25 discriminator 1
 1603 0020 FB88     		ldrh	r3, [r7, #6]
 1604 0022 002B     		cmp	r3, #0
 1605 0024 01D1     		bne	.L73
 1606              	.L72:
1447:Drivers/STM32F4xx_HAL_Driver/Src/stm32f4xx_hal_uart.c ****     {
1448:Drivers/STM32F4xx_HAL_Driver/Src/stm32f4xx_hal_uart.c ****       return HAL_ERROR;
