ARM GAS  /var/folders/06/9k7gq4t13mj84z2yhw3grvhc0000gn/T//ccIrgumz.s 			page 1


   1              		.cpu cortex-m4
   2              		.arch armv7e-m
   3              		.fpu fpv4-sp-d16
   4              		.eabi_attribute 27, 1
   5              		.eabi_attribute 28, 1
   6              		.eabi_attribute 20, 1
   7              		.eabi_attribute 21, 1
   8              		.eabi_attribute 23, 3
   9              		.eabi_attribute 24, 1
  10              		.eabi_attribute 25, 1
  11              		.eabi_attribute 26, 1
  12              		.eabi_attribute 30, 6
  13              		.eabi_attribute 34, 1
  14              		.eabi_attribute 18, 4
  15              		.file	"stm32f4xx_hal_exti.c"
  16              		.text
  17              	.Ltext0:
  18              		.cfi_sections	.debug_frame
  19              		.file 1 "Drivers/STM32F4xx_HAL_Driver/Src/stm32f4xx_hal_exti.c"
  20              		.section	.text.HAL_EXTI_SetConfigLine,"ax",%progbits
  21              		.align	1
  22              		.global	HAL_EXTI_SetConfigLine
  23              		.syntax unified
  24              		.thumb
  25              		.thumb_func
  27              	HAL_EXTI_SetConfigLine:
  28              	.LFB134:
   1:Drivers/STM32F4xx_HAL_Driver/Src/stm32f4xx_hal_exti.c **** /**
   2:Drivers/STM32F4xx_HAL_Driver/Src/stm32f4xx_hal_exti.c ****   ******************************************************************************
   3:Drivers/STM32F4xx_HAL_Driver/Src/stm32f4xx_hal_exti.c ****   * @file    stm32f4xx_hal_exti.c
   4:Drivers/STM32F4xx_HAL_Driver/Src/stm32f4xx_hal_exti.c ****   * @author  MCD Application Team
   5:Drivers/STM32F4xx_HAL_Driver/Src/stm32f4xx_hal_exti.c ****   * @brief   EXTI HAL module driver.
   6:Drivers/STM32F4xx_HAL_Driver/Src/stm32f4xx_hal_exti.c ****   *          This file provides firmware functions to manage the following
   7:Drivers/STM32F4xx_HAL_Driver/Src/stm32f4xx_hal_exti.c ****   *          functionalities of the Extended Interrupts and events controller (EXTI) peripheral:
   8:Drivers/STM32F4xx_HAL_Driver/Src/stm32f4xx_hal_exti.c ****   *           + Initialization and de-initialization functions
   9:Drivers/STM32F4xx_HAL_Driver/Src/stm32f4xx_hal_exti.c ****   *           + IO operation functions
  10:Drivers/STM32F4xx_HAL_Driver/Src/stm32f4xx_hal_exti.c ****   *
  11:Drivers/STM32F4xx_HAL_Driver/Src/stm32f4xx_hal_exti.c ****   ******************************************************************************
  12:Drivers/STM32F4xx_HAL_Driver/Src/stm32f4xx_hal_exti.c ****   * @attention
  13:Drivers/STM32F4xx_HAL_Driver/Src/stm32f4xx_hal_exti.c ****   *
  14:Drivers/STM32F4xx_HAL_Driver/Src/stm32f4xx_hal_exti.c ****   * Copyright (c) 2018 STMicroelectronics.
  15:Drivers/STM32F4xx_HAL_Driver/Src/stm32f4xx_hal_exti.c ****   * All rights reserved.
  16:Drivers/STM32F4xx_HAL_Driver/Src/stm32f4xx_hal_exti.c ****   *
  17:Drivers/STM32F4xx_HAL_Driver/Src/stm32f4xx_hal_exti.c ****   * This software is licensed under terms that can be found in the LICENSE file
  18:Drivers/STM32F4xx_HAL_Driver/Src/stm32f4xx_hal_exti.c ****   * in the root directory of this software component.
  19:Drivers/STM32F4xx_HAL_Driver/Src/stm32f4xx_hal_exti.c ****   * If no LICENSE file comes with this software, it is provided AS-IS.
  20:Drivers/STM32F4xx_HAL_Driver/Src/stm32f4xx_hal_exti.c ****   *
  21:Drivers/STM32F4xx_HAL_Driver/Src/stm32f4xx_hal_exti.c ****   ******************************************************************************
  22:Drivers/STM32F4xx_HAL_Driver/Src/stm32f4xx_hal_exti.c ****   @verbatim
  23:Drivers/STM32F4xx_HAL_Driver/Src/stm32f4xx_hal_exti.c ****   ==============================================================================
  24:Drivers/STM32F4xx_HAL_Driver/Src/stm32f4xx_hal_exti.c ****                     ##### EXTI Peripheral features #####
  25:Drivers/STM32F4xx_HAL_Driver/Src/stm32f4xx_hal_exti.c ****   ==============================================================================
  26:Drivers/STM32F4xx_HAL_Driver/Src/stm32f4xx_hal_exti.c ****   [..]
  27:Drivers/STM32F4xx_HAL_Driver/Src/stm32f4xx_hal_exti.c ****     (+) Each Exti line can be configured within this driver.
  28:Drivers/STM32F4xx_HAL_Driver/Src/stm32f4xx_hal_exti.c **** 
  29:Drivers/STM32F4xx_HAL_Driver/Src/stm32f4xx_hal_exti.c ****     (+) Exti line can be configured in 3 different modes
  30:Drivers/STM32F4xx_HAL_Driver/Src/stm32f4xx_hal_exti.c ****         (++) Interrupt
ARM GAS  /var/folders/06/9k7gq4t13mj84z2yhw3grvhc0000gn/T//ccIrgumz.s 			page 2


  31:Drivers/STM32F4xx_HAL_Driver/Src/stm32f4xx_hal_exti.c ****         (++) Event
  32:Drivers/STM32F4xx_HAL_Driver/Src/stm32f4xx_hal_exti.c ****         (++) Both of them
  33:Drivers/STM32F4xx_HAL_Driver/Src/stm32f4xx_hal_exti.c **** 
  34:Drivers/STM32F4xx_HAL_Driver/Src/stm32f4xx_hal_exti.c ****     (+) Configurable Exti lines can be configured with 3 different triggers
  35:Drivers/STM32F4xx_HAL_Driver/Src/stm32f4xx_hal_exti.c ****         (++) Rising
  36:Drivers/STM32F4xx_HAL_Driver/Src/stm32f4xx_hal_exti.c ****         (++) Falling
  37:Drivers/STM32F4xx_HAL_Driver/Src/stm32f4xx_hal_exti.c ****         (++) Both of them
  38:Drivers/STM32F4xx_HAL_Driver/Src/stm32f4xx_hal_exti.c **** 
  39:Drivers/STM32F4xx_HAL_Driver/Src/stm32f4xx_hal_exti.c ****     (+) When set in interrupt mode, configurable Exti lines have two different
  40:Drivers/STM32F4xx_HAL_Driver/Src/stm32f4xx_hal_exti.c ****         interrupts pending registers which allow to distinguish which transition
  41:Drivers/STM32F4xx_HAL_Driver/Src/stm32f4xx_hal_exti.c ****         occurs:
  42:Drivers/STM32F4xx_HAL_Driver/Src/stm32f4xx_hal_exti.c ****         (++) Rising edge pending interrupt
  43:Drivers/STM32F4xx_HAL_Driver/Src/stm32f4xx_hal_exti.c ****         (++) Falling
  44:Drivers/STM32F4xx_HAL_Driver/Src/stm32f4xx_hal_exti.c **** 
  45:Drivers/STM32F4xx_HAL_Driver/Src/stm32f4xx_hal_exti.c ****     (+) Exti lines 0 to 15 are linked to gpio pin number 0 to 15. Gpio port can
  46:Drivers/STM32F4xx_HAL_Driver/Src/stm32f4xx_hal_exti.c ****         be selected through multiplexer.
  47:Drivers/STM32F4xx_HAL_Driver/Src/stm32f4xx_hal_exti.c **** 
  48:Drivers/STM32F4xx_HAL_Driver/Src/stm32f4xx_hal_exti.c ****                      ##### How to use this driver #####
  49:Drivers/STM32F4xx_HAL_Driver/Src/stm32f4xx_hal_exti.c ****   ==============================================================================
  50:Drivers/STM32F4xx_HAL_Driver/Src/stm32f4xx_hal_exti.c ****   [..]
  51:Drivers/STM32F4xx_HAL_Driver/Src/stm32f4xx_hal_exti.c **** 
  52:Drivers/STM32F4xx_HAL_Driver/Src/stm32f4xx_hal_exti.c ****     (#) Configure the EXTI line using HAL_EXTI_SetConfigLine().
  53:Drivers/STM32F4xx_HAL_Driver/Src/stm32f4xx_hal_exti.c ****         (++) Choose the interrupt line number by setting "Line" member from
  54:Drivers/STM32F4xx_HAL_Driver/Src/stm32f4xx_hal_exti.c ****              EXTI_ConfigTypeDef structure.
  55:Drivers/STM32F4xx_HAL_Driver/Src/stm32f4xx_hal_exti.c ****         (++) Configure the interrupt and/or event mode using "Mode" member from
  56:Drivers/STM32F4xx_HAL_Driver/Src/stm32f4xx_hal_exti.c ****              EXTI_ConfigTypeDef structure.
  57:Drivers/STM32F4xx_HAL_Driver/Src/stm32f4xx_hal_exti.c ****         (++) For configurable lines, configure rising and/or falling trigger
  58:Drivers/STM32F4xx_HAL_Driver/Src/stm32f4xx_hal_exti.c ****              "Trigger" member from EXTI_ConfigTypeDef structure.
  59:Drivers/STM32F4xx_HAL_Driver/Src/stm32f4xx_hal_exti.c ****         (++) For Exti lines linked to gpio, choose gpio port using "GPIOSel"
  60:Drivers/STM32F4xx_HAL_Driver/Src/stm32f4xx_hal_exti.c ****              member from GPIO_InitTypeDef structure.
  61:Drivers/STM32F4xx_HAL_Driver/Src/stm32f4xx_hal_exti.c **** 
  62:Drivers/STM32F4xx_HAL_Driver/Src/stm32f4xx_hal_exti.c ****     (#) Get current Exti configuration of a dedicated line using
  63:Drivers/STM32F4xx_HAL_Driver/Src/stm32f4xx_hal_exti.c ****         HAL_EXTI_GetConfigLine().
  64:Drivers/STM32F4xx_HAL_Driver/Src/stm32f4xx_hal_exti.c ****         (++) Provide exiting handle as parameter.
  65:Drivers/STM32F4xx_HAL_Driver/Src/stm32f4xx_hal_exti.c ****         (++) Provide pointer on EXTI_ConfigTypeDef structure as second parameter.
  66:Drivers/STM32F4xx_HAL_Driver/Src/stm32f4xx_hal_exti.c **** 
  67:Drivers/STM32F4xx_HAL_Driver/Src/stm32f4xx_hal_exti.c ****     (#) Clear Exti configuration of a dedicated line using HAL_EXTI_ClearConfigLine().
  68:Drivers/STM32F4xx_HAL_Driver/Src/stm32f4xx_hal_exti.c ****         (++) Provide exiting handle as parameter.
  69:Drivers/STM32F4xx_HAL_Driver/Src/stm32f4xx_hal_exti.c **** 
  70:Drivers/STM32F4xx_HAL_Driver/Src/stm32f4xx_hal_exti.c ****     (#) Register callback to treat Exti interrupts using HAL_EXTI_RegisterCallback().
  71:Drivers/STM32F4xx_HAL_Driver/Src/stm32f4xx_hal_exti.c ****         (++) Provide exiting handle as first parameter.
  72:Drivers/STM32F4xx_HAL_Driver/Src/stm32f4xx_hal_exti.c ****         (++) Provide which callback will be registered using one value from
  73:Drivers/STM32F4xx_HAL_Driver/Src/stm32f4xx_hal_exti.c ****              EXTI_CallbackIDTypeDef.
  74:Drivers/STM32F4xx_HAL_Driver/Src/stm32f4xx_hal_exti.c ****         (++) Provide callback function pointer.
  75:Drivers/STM32F4xx_HAL_Driver/Src/stm32f4xx_hal_exti.c **** 
  76:Drivers/STM32F4xx_HAL_Driver/Src/stm32f4xx_hal_exti.c ****     (#) Get interrupt pending bit using HAL_EXTI_GetPending().
  77:Drivers/STM32F4xx_HAL_Driver/Src/stm32f4xx_hal_exti.c **** 
  78:Drivers/STM32F4xx_HAL_Driver/Src/stm32f4xx_hal_exti.c ****     (#) Clear interrupt pending bit using HAL_EXTI_ClearPending().
  79:Drivers/STM32F4xx_HAL_Driver/Src/stm32f4xx_hal_exti.c **** 
  80:Drivers/STM32F4xx_HAL_Driver/Src/stm32f4xx_hal_exti.c ****     (#) Generate software interrupt using HAL_EXTI_GenerateSWI().
  81:Drivers/STM32F4xx_HAL_Driver/Src/stm32f4xx_hal_exti.c **** 
  82:Drivers/STM32F4xx_HAL_Driver/Src/stm32f4xx_hal_exti.c ****   @endverbatim
  83:Drivers/STM32F4xx_HAL_Driver/Src/stm32f4xx_hal_exti.c ****   */
  84:Drivers/STM32F4xx_HAL_Driver/Src/stm32f4xx_hal_exti.c **** 
  85:Drivers/STM32F4xx_HAL_Driver/Src/stm32f4xx_hal_exti.c **** #pragma GCC diagnostic ignored "-Wunused-parameter"
  86:Drivers/STM32F4xx_HAL_Driver/Src/stm32f4xx_hal_exti.c **** 
  87:Drivers/STM32F4xx_HAL_Driver/Src/stm32f4xx_hal_exti.c **** /* Includes ------------------------------------------------------------------*/
ARM GAS  /var/folders/06/9k7gq4t13mj84z2yhw3grvhc0000gn/T//ccIrgumz.s 			page 3


  88:Drivers/STM32F4xx_HAL_Driver/Src/stm32f4xx_hal_exti.c **** #include "stm32f4xx_hal.h"
  89:Drivers/STM32F4xx_HAL_Driver/Src/stm32f4xx_hal_exti.c **** 
  90:Drivers/STM32F4xx_HAL_Driver/Src/stm32f4xx_hal_exti.c **** /** @addtogroup STM32F4xx_HAL_Driver
  91:Drivers/STM32F4xx_HAL_Driver/Src/stm32f4xx_hal_exti.c ****   * @{
  92:Drivers/STM32F4xx_HAL_Driver/Src/stm32f4xx_hal_exti.c ****   */
  93:Drivers/STM32F4xx_HAL_Driver/Src/stm32f4xx_hal_exti.c **** 
  94:Drivers/STM32F4xx_HAL_Driver/Src/stm32f4xx_hal_exti.c **** /** @addtogroup EXTI
  95:Drivers/STM32F4xx_HAL_Driver/Src/stm32f4xx_hal_exti.c ****   * @{
  96:Drivers/STM32F4xx_HAL_Driver/Src/stm32f4xx_hal_exti.c ****   */
  97:Drivers/STM32F4xx_HAL_Driver/Src/stm32f4xx_hal_exti.c **** /** MISRA C:2012 deviation rule has been granted for following rule:
  98:Drivers/STM32F4xx_HAL_Driver/Src/stm32f4xx_hal_exti.c ****   * Rule-18.1_b - Medium: Array `EXTICR' 1st subscript interval [0,7] may be out
  99:Drivers/STM32F4xx_HAL_Driver/Src/stm32f4xx_hal_exti.c ****   * of bounds [0,3] in following API :
 100:Drivers/STM32F4xx_HAL_Driver/Src/stm32f4xx_hal_exti.c ****   * HAL_EXTI_SetConfigLine
 101:Drivers/STM32F4xx_HAL_Driver/Src/stm32f4xx_hal_exti.c ****   * HAL_EXTI_GetConfigLine
 102:Drivers/STM32F4xx_HAL_Driver/Src/stm32f4xx_hal_exti.c ****   * HAL_EXTI_ClearConfigLine
 103:Drivers/STM32F4xx_HAL_Driver/Src/stm32f4xx_hal_exti.c ****   */
 104:Drivers/STM32F4xx_HAL_Driver/Src/stm32f4xx_hal_exti.c **** 
 105:Drivers/STM32F4xx_HAL_Driver/Src/stm32f4xx_hal_exti.c **** #ifdef HAL_EXTI_MODULE_ENABLED
 106:Drivers/STM32F4xx_HAL_Driver/Src/stm32f4xx_hal_exti.c **** 
 107:Drivers/STM32F4xx_HAL_Driver/Src/stm32f4xx_hal_exti.c **** /* Private typedef -----------------------------------------------------------*/
 108:Drivers/STM32F4xx_HAL_Driver/Src/stm32f4xx_hal_exti.c **** /* Private defines -----------------------------------------------------------*/
 109:Drivers/STM32F4xx_HAL_Driver/Src/stm32f4xx_hal_exti.c **** /** @defgroup EXTI_Private_Constants EXTI Private Constants
 110:Drivers/STM32F4xx_HAL_Driver/Src/stm32f4xx_hal_exti.c ****   * @{
 111:Drivers/STM32F4xx_HAL_Driver/Src/stm32f4xx_hal_exti.c ****   */
 112:Drivers/STM32F4xx_HAL_Driver/Src/stm32f4xx_hal_exti.c **** 
 113:Drivers/STM32F4xx_HAL_Driver/Src/stm32f4xx_hal_exti.c **** /**
 114:Drivers/STM32F4xx_HAL_Driver/Src/stm32f4xx_hal_exti.c ****   * @}
 115:Drivers/STM32F4xx_HAL_Driver/Src/stm32f4xx_hal_exti.c ****   */
 116:Drivers/STM32F4xx_HAL_Driver/Src/stm32f4xx_hal_exti.c **** 
 117:Drivers/STM32F4xx_HAL_Driver/Src/stm32f4xx_hal_exti.c **** /* Private macros ------------------------------------------------------------*/
 118:Drivers/STM32F4xx_HAL_Driver/Src/stm32f4xx_hal_exti.c **** /* Private variables ---------------------------------------------------------*/
 119:Drivers/STM32F4xx_HAL_Driver/Src/stm32f4xx_hal_exti.c **** /* Private function prototypes -----------------------------------------------*/
 120:Drivers/STM32F4xx_HAL_Driver/Src/stm32f4xx_hal_exti.c **** /* Exported functions --------------------------------------------------------*/
 121:Drivers/STM32F4xx_HAL_Driver/Src/stm32f4xx_hal_exti.c **** 
 122:Drivers/STM32F4xx_HAL_Driver/Src/stm32f4xx_hal_exti.c **** /** @addtogroup EXTI_Exported_Functions
 123:Drivers/STM32F4xx_HAL_Driver/Src/stm32f4xx_hal_exti.c ****   * @{
 124:Drivers/STM32F4xx_HAL_Driver/Src/stm32f4xx_hal_exti.c ****   */
 125:Drivers/STM32F4xx_HAL_Driver/Src/stm32f4xx_hal_exti.c **** 
 126:Drivers/STM32F4xx_HAL_Driver/Src/stm32f4xx_hal_exti.c **** /** @addtogroup EXTI_Exported_Functions_Group1
 127:Drivers/STM32F4xx_HAL_Driver/Src/stm32f4xx_hal_exti.c ****   *  @brief    Configuration functions
 128:Drivers/STM32F4xx_HAL_Driver/Src/stm32f4xx_hal_exti.c ****   *
 129:Drivers/STM32F4xx_HAL_Driver/Src/stm32f4xx_hal_exti.c **** @verbatim
 130:Drivers/STM32F4xx_HAL_Driver/Src/stm32f4xx_hal_exti.c ****  ===============================================================================
 131:Drivers/STM32F4xx_HAL_Driver/Src/stm32f4xx_hal_exti.c ****               ##### Configuration functions #####
 132:Drivers/STM32F4xx_HAL_Driver/Src/stm32f4xx_hal_exti.c ****  ===============================================================================
 133:Drivers/STM32F4xx_HAL_Driver/Src/stm32f4xx_hal_exti.c **** 
 134:Drivers/STM32F4xx_HAL_Driver/Src/stm32f4xx_hal_exti.c **** @endverbatim
 135:Drivers/STM32F4xx_HAL_Driver/Src/stm32f4xx_hal_exti.c ****   * @{
 136:Drivers/STM32F4xx_HAL_Driver/Src/stm32f4xx_hal_exti.c ****   */
 137:Drivers/STM32F4xx_HAL_Driver/Src/stm32f4xx_hal_exti.c **** 
 138:Drivers/STM32F4xx_HAL_Driver/Src/stm32f4xx_hal_exti.c **** /**
 139:Drivers/STM32F4xx_HAL_Driver/Src/stm32f4xx_hal_exti.c ****   * @brief  Set configuration of a dedicated Exti line.
 140:Drivers/STM32F4xx_HAL_Driver/Src/stm32f4xx_hal_exti.c ****   * @param  hexti Exti handle.
 141:Drivers/STM32F4xx_HAL_Driver/Src/stm32f4xx_hal_exti.c ****   * @param  pExtiConfig Pointer on EXTI configuration to be set.
 142:Drivers/STM32F4xx_HAL_Driver/Src/stm32f4xx_hal_exti.c ****   * @retval HAL Status.
 143:Drivers/STM32F4xx_HAL_Driver/Src/stm32f4xx_hal_exti.c ****   */
 144:Drivers/STM32F4xx_HAL_Driver/Src/stm32f4xx_hal_exti.c **** HAL_StatusTypeDef HAL_EXTI_SetConfigLine(EXTI_HandleTypeDef *hexti, EXTI_ConfigTypeDef *pExtiConfig
ARM GAS  /var/folders/06/9k7gq4t13mj84z2yhw3grvhc0000gn/T//ccIrgumz.s 			page 4


 145:Drivers/STM32F4xx_HAL_Driver/Src/stm32f4xx_hal_exti.c **** {
  29              		.loc 1 145 1
  30              		.cfi_startproc
  31              		@ args = 0, pretend = 0, frame = 24
  32              		@ frame_needed = 1, uses_anonymous_args = 0
  33              		@ link register save eliminated.
  34 0000 80B4     		push	{r7}
  35              	.LCFI0:
  36              		.cfi_def_cfa_offset 4
  37              		.cfi_offset 7, -4
  38 0002 87B0     		sub	sp, sp, #28
  39              	.LCFI1:
  40              		.cfi_def_cfa_offset 32
  41 0004 00AF     		add	r7, sp, #0
  42              	.LCFI2:
  43              		.cfi_def_cfa_register 7
  44 0006 7860     		str	r0, [r7, #4]
  45 0008 3960     		str	r1, [r7]
 146:Drivers/STM32F4xx_HAL_Driver/Src/stm32f4xx_hal_exti.c ****   uint32_t regval;
 147:Drivers/STM32F4xx_HAL_Driver/Src/stm32f4xx_hal_exti.c ****   uint32_t linepos;
 148:Drivers/STM32F4xx_HAL_Driver/Src/stm32f4xx_hal_exti.c ****   uint32_t maskline;
 149:Drivers/STM32F4xx_HAL_Driver/Src/stm32f4xx_hal_exti.c **** 
 150:Drivers/STM32F4xx_HAL_Driver/Src/stm32f4xx_hal_exti.c ****   /* Check null pointer */
 151:Drivers/STM32F4xx_HAL_Driver/Src/stm32f4xx_hal_exti.c ****   if ((hexti == NULL) || (pExtiConfig == NULL))
  46              		.loc 1 151 6
  47 000a 7B68     		ldr	r3, [r7, #4]
  48 000c 002B     		cmp	r3, #0
  49 000e 02D0     		beq	.L2
  50              		.loc 1 151 23 discriminator 1
  51 0010 3B68     		ldr	r3, [r7]
  52 0012 002B     		cmp	r3, #0
  53 0014 01D1     		bne	.L3
  54              	.L2:
 152:Drivers/STM32F4xx_HAL_Driver/Src/stm32f4xx_hal_exti.c ****   {
 153:Drivers/STM32F4xx_HAL_Driver/Src/stm32f4xx_hal_exti.c ****     return HAL_ERROR;
  55              		.loc 1 153 12
  56 0016 0123     		movs	r3, #1
  57 0018 8FE0     		b	.L4
  58              	.L3:
 154:Drivers/STM32F4xx_HAL_Driver/Src/stm32f4xx_hal_exti.c ****   }
 155:Drivers/STM32F4xx_HAL_Driver/Src/stm32f4xx_hal_exti.c **** 
 156:Drivers/STM32F4xx_HAL_Driver/Src/stm32f4xx_hal_exti.c ****   /* Check parameters */
 157:Drivers/STM32F4xx_HAL_Driver/Src/stm32f4xx_hal_exti.c ****   assert_param(IS_EXTI_LINE(pExtiConfig->Line));
 158:Drivers/STM32F4xx_HAL_Driver/Src/stm32f4xx_hal_exti.c ****   assert_param(IS_EXTI_MODE(pExtiConfig->Mode));
 159:Drivers/STM32F4xx_HAL_Driver/Src/stm32f4xx_hal_exti.c **** 
 160:Drivers/STM32F4xx_HAL_Driver/Src/stm32f4xx_hal_exti.c ****   /* Assign line number to handle */
 161:Drivers/STM32F4xx_HAL_Driver/Src/stm32f4xx_hal_exti.c ****   hexti->Line = pExtiConfig->Line;
  59              		.loc 1 161 28
  60 001a 3B68     		ldr	r3, [r7]
  61 001c 1A68     		ldr	r2, [r3]
  62              		.loc 1 161 15
  63 001e 7B68     		ldr	r3, [r7, #4]
  64 0020 1A60     		str	r2, [r3]
 162:Drivers/STM32F4xx_HAL_Driver/Src/stm32f4xx_hal_exti.c **** 
 163:Drivers/STM32F4xx_HAL_Driver/Src/stm32f4xx_hal_exti.c ****   /* Compute line mask */
 164:Drivers/STM32F4xx_HAL_Driver/Src/stm32f4xx_hal_exti.c ****   linepos = (pExtiConfig->Line & EXTI_PIN_MASK);
  65              		.loc 1 164 25
ARM GAS  /var/folders/06/9k7gq4t13mj84z2yhw3grvhc0000gn/T//ccIrgumz.s 			page 5


  66 0022 3B68     		ldr	r3, [r7]
  67 0024 1B68     		ldr	r3, [r3]
  68              		.loc 1 164 11
  69 0026 03F01F03 		and	r3, r3, #31
  70 002a 7B61     		str	r3, [r7, #20]
 165:Drivers/STM32F4xx_HAL_Driver/Src/stm32f4xx_hal_exti.c ****   maskline = (1uL << linepos);
  71              		.loc 1 165 12
  72 002c 0122     		movs	r2, #1
  73 002e 7B69     		ldr	r3, [r7, #20]
  74 0030 02FA03F3 		lsl	r3, r2, r3
  75 0034 3B61     		str	r3, [r7, #16]
 166:Drivers/STM32F4xx_HAL_Driver/Src/stm32f4xx_hal_exti.c **** 
 167:Drivers/STM32F4xx_HAL_Driver/Src/stm32f4xx_hal_exti.c ****   /* Configure triggers for configurable lines */
 168:Drivers/STM32F4xx_HAL_Driver/Src/stm32f4xx_hal_exti.c ****   if ((pExtiConfig->Line & EXTI_CONFIG) != 0x00u)
  76              		.loc 1 168 19
  77 0036 3B68     		ldr	r3, [r7]
  78 0038 1B68     		ldr	r3, [r3]
  79              		.loc 1 168 26
  80 003a 03F00073 		and	r3, r3, #33554432
  81              		.loc 1 168 6
  82 003e 002B     		cmp	r3, #0
  83 0040 52D0     		beq	.L5
 169:Drivers/STM32F4xx_HAL_Driver/Src/stm32f4xx_hal_exti.c ****   {
 170:Drivers/STM32F4xx_HAL_Driver/Src/stm32f4xx_hal_exti.c ****     assert_param(IS_EXTI_TRIGGER(pExtiConfig->Trigger));
 171:Drivers/STM32F4xx_HAL_Driver/Src/stm32f4xx_hal_exti.c **** 
 172:Drivers/STM32F4xx_HAL_Driver/Src/stm32f4xx_hal_exti.c ****     /* Configure rising trigger */
 173:Drivers/STM32F4xx_HAL_Driver/Src/stm32f4xx_hal_exti.c ****     /* Mask or set line */
 174:Drivers/STM32F4xx_HAL_Driver/Src/stm32f4xx_hal_exti.c ****     if ((pExtiConfig->Trigger & EXTI_TRIGGER_RISING) != 0x00u)
  84              		.loc 1 174 21
  85 0042 3B68     		ldr	r3, [r7]
  86 0044 9B68     		ldr	r3, [r3, #8]
  87              		.loc 1 174 31
  88 0046 03F00103 		and	r3, r3, #1
  89              		.loc 1 174 8
  90 004a 002B     		cmp	r3, #0
  91 004c 06D0     		beq	.L6
 175:Drivers/STM32F4xx_HAL_Driver/Src/stm32f4xx_hal_exti.c ****     {
 176:Drivers/STM32F4xx_HAL_Driver/Src/stm32f4xx_hal_exti.c ****       EXTI->RTSR |= maskline;
  92              		.loc 1 176 11
  93 004e 3E4B     		ldr	r3, .L14
  94 0050 9A68     		ldr	r2, [r3, #8]
  95 0052 3D49     		ldr	r1, .L14
  96              		.loc 1 176 18
  97 0054 3B69     		ldr	r3, [r7, #16]
  98 0056 1343     		orrs	r3, r3, r2
  99 0058 8B60     		str	r3, [r1, #8]
 100 005a 06E0     		b	.L7
 101              	.L6:
 177:Drivers/STM32F4xx_HAL_Driver/Src/stm32f4xx_hal_exti.c ****     }
 178:Drivers/STM32F4xx_HAL_Driver/Src/stm32f4xx_hal_exti.c ****     else
 179:Drivers/STM32F4xx_HAL_Driver/Src/stm32f4xx_hal_exti.c ****     {
 180:Drivers/STM32F4xx_HAL_Driver/Src/stm32f4xx_hal_exti.c ****       EXTI->RTSR &= ~maskline;
 102              		.loc 1 180 11
 103 005c 3A4B     		ldr	r3, .L14
 104 005e 9A68     		ldr	r2, [r3, #8]
 105              		.loc 1 180 21
 106 0060 3B69     		ldr	r3, [r7, #16]
ARM GAS  /var/folders/06/9k7gq4t13mj84z2yhw3grvhc0000gn/T//ccIrgumz.s 			page 6


 107 0062 DB43     		mvns	r3, r3
 108              		.loc 1 180 11
 109 0064 3849     		ldr	r1, .L14
 110              		.loc 1 180 18
 111 0066 1340     		ands	r3, r3, r2
 112 0068 8B60     		str	r3, [r1, #8]
 113              	.L7:
 181:Drivers/STM32F4xx_HAL_Driver/Src/stm32f4xx_hal_exti.c ****     }
 182:Drivers/STM32F4xx_HAL_Driver/Src/stm32f4xx_hal_exti.c **** 
 183:Drivers/STM32F4xx_HAL_Driver/Src/stm32f4xx_hal_exti.c ****     /* Configure falling trigger */
 184:Drivers/STM32F4xx_HAL_Driver/Src/stm32f4xx_hal_exti.c ****     /* Mask or set line */
 185:Drivers/STM32F4xx_HAL_Driver/Src/stm32f4xx_hal_exti.c ****     if ((pExtiConfig->Trigger & EXTI_TRIGGER_FALLING) != 0x00u)
 114              		.loc 1 185 21
 115 006a 3B68     		ldr	r3, [r7]
 116 006c 9B68     		ldr	r3, [r3, #8]
 117              		.loc 1 185 31
 118 006e 03F00203 		and	r3, r3, #2
 119              		.loc 1 185 8
 120 0072 002B     		cmp	r3, #0
 121 0074 06D0     		beq	.L8
 186:Drivers/STM32F4xx_HAL_Driver/Src/stm32f4xx_hal_exti.c ****     {
 187:Drivers/STM32F4xx_HAL_Driver/Src/stm32f4xx_hal_exti.c ****       EXTI->FTSR |= maskline;
 122              		.loc 1 187 11
 123 0076 344B     		ldr	r3, .L14
 124 0078 DA68     		ldr	r2, [r3, #12]
 125 007a 3349     		ldr	r1, .L14
 126              		.loc 1 187 18
 127 007c 3B69     		ldr	r3, [r7, #16]
 128 007e 1343     		orrs	r3, r3, r2
 129 0080 CB60     		str	r3, [r1, #12]
 130 0082 06E0     		b	.L9
 131              	.L8:
 188:Drivers/STM32F4xx_HAL_Driver/Src/stm32f4xx_hal_exti.c ****     }
 189:Drivers/STM32F4xx_HAL_Driver/Src/stm32f4xx_hal_exti.c ****     else
 190:Drivers/STM32F4xx_HAL_Driver/Src/stm32f4xx_hal_exti.c ****     {
 191:Drivers/STM32F4xx_HAL_Driver/Src/stm32f4xx_hal_exti.c ****       EXTI->FTSR &= ~maskline;
 132              		.loc 1 191 11
 133 0084 304B     		ldr	r3, .L14
 134 0086 DA68     		ldr	r2, [r3, #12]
 135              		.loc 1 191 21
 136 0088 3B69     		ldr	r3, [r7, #16]
 137 008a DB43     		mvns	r3, r3
 138              		.loc 1 191 11
 139 008c 2E49     		ldr	r1, .L14
 140              		.loc 1 191 18
 141 008e 1340     		ands	r3, r3, r2
 142 0090 CB60     		str	r3, [r1, #12]
 143              	.L9:
 192:Drivers/STM32F4xx_HAL_Driver/Src/stm32f4xx_hal_exti.c ****     }
 193:Drivers/STM32F4xx_HAL_Driver/Src/stm32f4xx_hal_exti.c **** 
 194:Drivers/STM32F4xx_HAL_Driver/Src/stm32f4xx_hal_exti.c **** 
 195:Drivers/STM32F4xx_HAL_Driver/Src/stm32f4xx_hal_exti.c ****     /* Configure gpio port selection in case of gpio exti line */
 196:Drivers/STM32F4xx_HAL_Driver/Src/stm32f4xx_hal_exti.c ****     if ((pExtiConfig->Line & EXTI_GPIO) == EXTI_GPIO)
 144              		.loc 1 196 21
 145 0092 3B68     		ldr	r3, [r7]
 146 0094 1B68     		ldr	r3, [r3]
 147              		.loc 1 196 28
ARM GAS  /var/folders/06/9k7gq4t13mj84z2yhw3grvhc0000gn/T//ccIrgumz.s 			page 7


 148 0096 03F0C063 		and	r3, r3, #100663296
 149              		.loc 1 196 8
 150 009a B3F1C06F 		cmp	r3, #100663296
 151 009e 23D1     		bne	.L5
 197:Drivers/STM32F4xx_HAL_Driver/Src/stm32f4xx_hal_exti.c ****     {
 198:Drivers/STM32F4xx_HAL_Driver/Src/stm32f4xx_hal_exti.c ****       assert_param(IS_EXTI_GPIO_PORT(pExtiConfig->GPIOSel));
 199:Drivers/STM32F4xx_HAL_Driver/Src/stm32f4xx_hal_exti.c ****       assert_param(IS_EXTI_GPIO_PIN(linepos));
 200:Drivers/STM32F4xx_HAL_Driver/Src/stm32f4xx_hal_exti.c **** 
 201:Drivers/STM32F4xx_HAL_Driver/Src/stm32f4xx_hal_exti.c ****       regval = SYSCFG->EXTICR[linepos >> 2u];
 152              		.loc 1 201 22
 153 00a0 2A4A     		ldr	r2, .L14+4
 154              		.loc 1 201 39
 155 00a2 7B69     		ldr	r3, [r7, #20]
 156 00a4 9B08     		lsrs	r3, r3, #2
 157              		.loc 1 201 14
 158 00a6 0233     		adds	r3, r3, #2
 159 00a8 52F82330 		ldr	r3, [r2, r3, lsl #2]
 160 00ac FB60     		str	r3, [r7, #12]
 202:Drivers/STM32F4xx_HAL_Driver/Src/stm32f4xx_hal_exti.c ****       regval &= ~(SYSCFG_EXTICR1_EXTI0 << (SYSCFG_EXTICR1_EXTI1_Pos * (linepos & 0x03u)));
 161              		.loc 1 202 80
 162 00ae 7B69     		ldr	r3, [r7, #20]
 163 00b0 03F00303 		and	r3, r3, #3
 164              		.loc 1 202 69
 165 00b4 9B00     		lsls	r3, r3, #2
 166              		.loc 1 202 40
 167 00b6 0F22     		movs	r2, #15
 168 00b8 02FA03F3 		lsl	r3, r2, r3
 169              		.loc 1 202 17
 170 00bc DB43     		mvns	r3, r3
 171              		.loc 1 202 14
 172 00be FA68     		ldr	r2, [r7, #12]
 173 00c0 1340     		ands	r3, r3, r2
 174 00c2 FB60     		str	r3, [r7, #12]
 203:Drivers/STM32F4xx_HAL_Driver/Src/stm32f4xx_hal_exti.c ****       regval |= (pExtiConfig->GPIOSel << (SYSCFG_EXTICR1_EXTI1_Pos * (linepos & 0x03u)));
 175              		.loc 1 203 29
 176 00c4 3B68     		ldr	r3, [r7]
 177 00c6 DA68     		ldr	r2, [r3, #12]
 178              		.loc 1 203 79
 179 00c8 7B69     		ldr	r3, [r7, #20]
 180 00ca 03F00303 		and	r3, r3, #3
 181              		.loc 1 203 68
 182 00ce 9B00     		lsls	r3, r3, #2
 183              		.loc 1 203 39
 184 00d0 02FA03F3 		lsl	r3, r2, r3
 185              		.loc 1 203 14
 186 00d4 FA68     		ldr	r2, [r7, #12]
 187 00d6 1343     		orrs	r3, r3, r2
 188 00d8 FB60     		str	r3, [r7, #12]
 204:Drivers/STM32F4xx_HAL_Driver/Src/stm32f4xx_hal_exti.c ****       SYSCFG->EXTICR[linepos >> 2u] = regval;
 189              		.loc 1 204 13
 190 00da 1C49     		ldr	r1, .L14+4
 191              		.loc 1 204 30
 192 00dc 7B69     		ldr	r3, [r7, #20]
 193 00de 9B08     		lsrs	r3, r3, #2
 194              		.loc 1 204 37
 195 00e0 0233     		adds	r3, r3, #2
 196 00e2 FA68     		ldr	r2, [r7, #12]
ARM GAS  /var/folders/06/9k7gq4t13mj84z2yhw3grvhc0000gn/T//ccIrgumz.s 			page 8


 197 00e4 41F82320 		str	r2, [r1, r3, lsl #2]
 198              	.L5:
 205:Drivers/STM32F4xx_HAL_Driver/Src/stm32f4xx_hal_exti.c ****     }
 206:Drivers/STM32F4xx_HAL_Driver/Src/stm32f4xx_hal_exti.c ****   }
 207:Drivers/STM32F4xx_HAL_Driver/Src/stm32f4xx_hal_exti.c **** 
 208:Drivers/STM32F4xx_HAL_Driver/Src/stm32f4xx_hal_exti.c ****   /* Configure interrupt mode : read current mode */
 209:Drivers/STM32F4xx_HAL_Driver/Src/stm32f4xx_hal_exti.c ****   /* Mask or set line */
 210:Drivers/STM32F4xx_HAL_Driver/Src/stm32f4xx_hal_exti.c ****   if ((pExtiConfig->Mode & EXTI_MODE_INTERRUPT) != 0x00u)
 199              		.loc 1 210 19
 200 00e8 3B68     		ldr	r3, [r7]
 201 00ea 5B68     		ldr	r3, [r3, #4]
 202              		.loc 1 210 26
 203 00ec 03F00103 		and	r3, r3, #1
 204              		.loc 1 210 6
 205 00f0 002B     		cmp	r3, #0
 206 00f2 06D0     		beq	.L10
 211:Drivers/STM32F4xx_HAL_Driver/Src/stm32f4xx_hal_exti.c ****   {
 212:Drivers/STM32F4xx_HAL_Driver/Src/stm32f4xx_hal_exti.c ****     EXTI->IMR |= maskline;
 207              		.loc 1 212 9
 208 00f4 144B     		ldr	r3, .L14
 209 00f6 1A68     		ldr	r2, [r3]
 210 00f8 1349     		ldr	r1, .L14
 211              		.loc 1 212 15
 212 00fa 3B69     		ldr	r3, [r7, #16]
 213 00fc 1343     		orrs	r3, r3, r2
 214 00fe 0B60     		str	r3, [r1]
 215 0100 06E0     		b	.L11
 216              	.L10:
 213:Drivers/STM32F4xx_HAL_Driver/Src/stm32f4xx_hal_exti.c ****   }
 214:Drivers/STM32F4xx_HAL_Driver/Src/stm32f4xx_hal_exti.c ****   else
 215:Drivers/STM32F4xx_HAL_Driver/Src/stm32f4xx_hal_exti.c ****   {
 216:Drivers/STM32F4xx_HAL_Driver/Src/stm32f4xx_hal_exti.c ****     EXTI->IMR &= ~maskline;
 217              		.loc 1 216 9
 218 0102 114B     		ldr	r3, .L14
 219 0104 1A68     		ldr	r2, [r3]
 220              		.loc 1 216 18
 221 0106 3B69     		ldr	r3, [r7, #16]
 222 0108 DB43     		mvns	r3, r3
 223              		.loc 1 216 9
 224 010a 0F49     		ldr	r1, .L14
 225              		.loc 1 216 15
 226 010c 1340     		ands	r3, r3, r2
 227 010e 0B60     		str	r3, [r1]
 228              	.L11:
 217:Drivers/STM32F4xx_HAL_Driver/Src/stm32f4xx_hal_exti.c ****   }
 218:Drivers/STM32F4xx_HAL_Driver/Src/stm32f4xx_hal_exti.c **** 
 219:Drivers/STM32F4xx_HAL_Driver/Src/stm32f4xx_hal_exti.c ****   /* Configure event mode : read current mode */
 220:Drivers/STM32F4xx_HAL_Driver/Src/stm32f4xx_hal_exti.c ****   /* Mask or set line */
 221:Drivers/STM32F4xx_HAL_Driver/Src/stm32f4xx_hal_exti.c ****   if ((pExtiConfig->Mode & EXTI_MODE_EVENT) != 0x00u)
 229              		.loc 1 221 19
 230 0110 3B68     		ldr	r3, [r7]
 231 0112 5B68     		ldr	r3, [r3, #4]
 232              		.loc 1 221 26
 233 0114 03F00203 		and	r3, r3, #2
 234              		.loc 1 221 6
 235 0118 002B     		cmp	r3, #0
 236 011a 06D0     		beq	.L12
ARM GAS  /var/folders/06/9k7gq4t13mj84z2yhw3grvhc0000gn/T//ccIrgumz.s 			page 9


 222:Drivers/STM32F4xx_HAL_Driver/Src/stm32f4xx_hal_exti.c ****   {
 223:Drivers/STM32F4xx_HAL_Driver/Src/stm32f4xx_hal_exti.c ****     EXTI->EMR |= maskline;
 237              		.loc 1 223 9
 238 011c 0A4B     		ldr	r3, .L14
 239 011e 5A68     		ldr	r2, [r3, #4]
 240 0120 0949     		ldr	r1, .L14
 241              		.loc 1 223 15
 242 0122 3B69     		ldr	r3, [r7, #16]
 243 0124 1343     		orrs	r3, r3, r2
 244 0126 4B60     		str	r3, [r1, #4]
 245 0128 06E0     		b	.L13
 246              	.L12:
 224:Drivers/STM32F4xx_HAL_Driver/Src/stm32f4xx_hal_exti.c ****   }
 225:Drivers/STM32F4xx_HAL_Driver/Src/stm32f4xx_hal_exti.c ****   else
 226:Drivers/STM32F4xx_HAL_Driver/Src/stm32f4xx_hal_exti.c ****   {
 227:Drivers/STM32F4xx_HAL_Driver/Src/stm32f4xx_hal_exti.c ****     EXTI->EMR &= ~maskline;
 247              		.loc 1 227 9
 248 012a 074B     		ldr	r3, .L14
 249 012c 5A68     		ldr	r2, [r3, #4]
 250              		.loc 1 227 18
 251 012e 3B69     		ldr	r3, [r7, #16]
 252 0130 DB43     		mvns	r3, r3
 253              		.loc 1 227 9
 254 0132 0549     		ldr	r1, .L14
 255              		.loc 1 227 15
 256 0134 1340     		ands	r3, r3, r2
 257 0136 4B60     		str	r3, [r1, #4]
 258              	.L13:
 228:Drivers/STM32F4xx_HAL_Driver/Src/stm32f4xx_hal_exti.c ****   }
 229:Drivers/STM32F4xx_HAL_Driver/Src/stm32f4xx_hal_exti.c **** 
 230:Drivers/STM32F4xx_HAL_Driver/Src/stm32f4xx_hal_exti.c ****   return HAL_OK;
 259              		.loc 1 230 10
 260 0138 0023     		movs	r3, #0
 261              	.L4:
 231:Drivers/STM32F4xx_HAL_Driver/Src/stm32f4xx_hal_exti.c **** }
 262              		.loc 1 231 1
 263 013a 1846     		mov	r0, r3
 264 013c 1C37     		adds	r7, r7, #28
 265              	.LCFI3:
 266              		.cfi_def_cfa_offset 4
 267 013e BD46     		mov	sp, r7
 268              	.LCFI4:
 269              		.cfi_def_cfa_register 13
 270              		@ sp needed
 271 0140 5DF8047B 		ldr	r7, [sp], #4
 272              	.LCFI5:
 273              		.cfi_restore 7
 274              		.cfi_def_cfa_offset 0
 275 0144 7047     		bx	lr
 276              	.L15:
 277 0146 00BF     		.align	2
 278              	.L14:
 279 0148 003C0140 		.word	1073822720
 280 014c 00380140 		.word	1073821696
 281              		.cfi_endproc
 282              	.LFE134:
 284              		.section	.text.HAL_EXTI_GetConfigLine,"ax",%progbits
ARM GAS  /var/folders/06/9k7gq4t13mj84z2yhw3grvhc0000gn/T//ccIrgumz.s 			page 10


 285              		.align	1
 286              		.global	HAL_EXTI_GetConfigLine
 287              		.syntax unified
 288              		.thumb
 289              		.thumb_func
 291              	HAL_EXTI_GetConfigLine:
 292              	.LFB135:
 232:Drivers/STM32F4xx_HAL_Driver/Src/stm32f4xx_hal_exti.c **** 
 233:Drivers/STM32F4xx_HAL_Driver/Src/stm32f4xx_hal_exti.c **** /**
 234:Drivers/STM32F4xx_HAL_Driver/Src/stm32f4xx_hal_exti.c ****   * @brief  Get configuration of a dedicated Exti line.
 235:Drivers/STM32F4xx_HAL_Driver/Src/stm32f4xx_hal_exti.c ****   * @param  hexti Exti handle.
 236:Drivers/STM32F4xx_HAL_Driver/Src/stm32f4xx_hal_exti.c ****   * @param  pExtiConfig Pointer on structure to store Exti configuration.
 237:Drivers/STM32F4xx_HAL_Driver/Src/stm32f4xx_hal_exti.c ****   * @retval HAL Status.
 238:Drivers/STM32F4xx_HAL_Driver/Src/stm32f4xx_hal_exti.c ****   */
 239:Drivers/STM32F4xx_HAL_Driver/Src/stm32f4xx_hal_exti.c **** HAL_StatusTypeDef HAL_EXTI_GetConfigLine(EXTI_HandleTypeDef *hexti, EXTI_ConfigTypeDef *pExtiConfig
 240:Drivers/STM32F4xx_HAL_Driver/Src/stm32f4xx_hal_exti.c **** {
 293              		.loc 1 240 1
 294              		.cfi_startproc
 295              		@ args = 0, pretend = 0, frame = 24
 296              		@ frame_needed = 1, uses_anonymous_args = 0
 297              		@ link register save eliminated.
 298 0000 80B4     		push	{r7}
 299              	.LCFI6:
 300              		.cfi_def_cfa_offset 4
 301              		.cfi_offset 7, -4
 302 0002 87B0     		sub	sp, sp, #28
 303              	.LCFI7:
 304              		.cfi_def_cfa_offset 32
 305 0004 00AF     		add	r7, sp, #0
 306              	.LCFI8:
 307              		.cfi_def_cfa_register 7
 308 0006 7860     		str	r0, [r7, #4]
 309 0008 3960     		str	r1, [r7]
 241:Drivers/STM32F4xx_HAL_Driver/Src/stm32f4xx_hal_exti.c ****   uint32_t regval;
 242:Drivers/STM32F4xx_HAL_Driver/Src/stm32f4xx_hal_exti.c ****   uint32_t linepos;
 243:Drivers/STM32F4xx_HAL_Driver/Src/stm32f4xx_hal_exti.c ****   uint32_t maskline;
 244:Drivers/STM32F4xx_HAL_Driver/Src/stm32f4xx_hal_exti.c **** 
 245:Drivers/STM32F4xx_HAL_Driver/Src/stm32f4xx_hal_exti.c ****   /* Check null pointer */
 246:Drivers/STM32F4xx_HAL_Driver/Src/stm32f4xx_hal_exti.c ****   if ((hexti == NULL) || (pExtiConfig == NULL))
 310              		.loc 1 246 6
 311 000a 7B68     		ldr	r3, [r7, #4]
 312 000c 002B     		cmp	r3, #0
 313 000e 02D0     		beq	.L17
 314              		.loc 1 246 23 discriminator 1
 315 0010 3B68     		ldr	r3, [r7]
 316 0012 002B     		cmp	r3, #0
 317 0014 01D1     		bne	.L18
 318              	.L17:
 247:Drivers/STM32F4xx_HAL_Driver/Src/stm32f4xx_hal_exti.c ****   {
 248:Drivers/STM32F4xx_HAL_Driver/Src/stm32f4xx_hal_exti.c ****     return HAL_ERROR;
 319              		.loc 1 248 12
 320 0016 0123     		movs	r3, #1
 321 0018 61E0     		b	.L19
 322              	.L18:
 249:Drivers/STM32F4xx_HAL_Driver/Src/stm32f4xx_hal_exti.c ****   }
 250:Drivers/STM32F4xx_HAL_Driver/Src/stm32f4xx_hal_exti.c **** 
 251:Drivers/STM32F4xx_HAL_Driver/Src/stm32f4xx_hal_exti.c ****   /* Check the parameter */
ARM GAS  /var/folders/06/9k7gq4t13mj84z2yhw3grvhc0000gn/T//ccIrgumz.s 			page 11


 252:Drivers/STM32F4xx_HAL_Driver/Src/stm32f4xx_hal_exti.c ****   assert_param(IS_EXTI_LINE(hexti->Line));
 253:Drivers/STM32F4xx_HAL_Driver/Src/stm32f4xx_hal_exti.c **** 
 254:Drivers/STM32F4xx_HAL_Driver/Src/stm32f4xx_hal_exti.c ****   /* Store handle line number to configuration structure */
 255:Drivers/STM32F4xx_HAL_Driver/Src/stm32f4xx_hal_exti.c ****   pExtiConfig->Line = hexti->Line;
 323              		.loc 1 255 28
 324 001a 7B68     		ldr	r3, [r7, #4]
 325 001c 1A68     		ldr	r2, [r3]
 326              		.loc 1 255 21
 327 001e 3B68     		ldr	r3, [r7]
 328 0020 1A60     		str	r2, [r3]
 256:Drivers/STM32F4xx_HAL_Driver/Src/stm32f4xx_hal_exti.c **** 
 257:Drivers/STM32F4xx_HAL_Driver/Src/stm32f4xx_hal_exti.c ****   /* Compute line mask */
 258:Drivers/STM32F4xx_HAL_Driver/Src/stm32f4xx_hal_exti.c ****   linepos = (pExtiConfig->Line & EXTI_PIN_MASK);
 329              		.loc 1 258 25
 330 0022 3B68     		ldr	r3, [r7]
 331 0024 1B68     		ldr	r3, [r3]
 332              		.loc 1 258 11
 333 0026 03F01F03 		and	r3, r3, #31
 334 002a 7B61     		str	r3, [r7, #20]
 259:Drivers/STM32F4xx_HAL_Driver/Src/stm32f4xx_hal_exti.c ****   maskline = (1uL << linepos);
 335              		.loc 1 259 12
 336 002c 0122     		movs	r2, #1
 337 002e 7B69     		ldr	r3, [r7, #20]
 338 0030 02FA03F3 		lsl	r3, r2, r3
 339 0034 3B61     		str	r3, [r7, #16]
 260:Drivers/STM32F4xx_HAL_Driver/Src/stm32f4xx_hal_exti.c **** 
 261:Drivers/STM32F4xx_HAL_Driver/Src/stm32f4xx_hal_exti.c ****   /* 1] Get core mode : interrupt */
 262:Drivers/STM32F4xx_HAL_Driver/Src/stm32f4xx_hal_exti.c **** 
 263:Drivers/STM32F4xx_HAL_Driver/Src/stm32f4xx_hal_exti.c ****   /* Check if selected line is enable */
 264:Drivers/STM32F4xx_HAL_Driver/Src/stm32f4xx_hal_exti.c ****   if ((EXTI->IMR & maskline) != 0x00u)
 340              		.loc 1 264 12
 341 0036 2D4B     		ldr	r3, .L26
 342 0038 1A68     		ldr	r2, [r3]
 343              		.loc 1 264 18
 344 003a 3B69     		ldr	r3, [r7, #16]
 345 003c 1340     		ands	r3, r3, r2
 346              		.loc 1 264 6
 347 003e 002B     		cmp	r3, #0
 348 0040 03D0     		beq	.L20
 265:Drivers/STM32F4xx_HAL_Driver/Src/stm32f4xx_hal_exti.c ****   {
 266:Drivers/STM32F4xx_HAL_Driver/Src/stm32f4xx_hal_exti.c ****     pExtiConfig->Mode = EXTI_MODE_INTERRUPT;
 349              		.loc 1 266 23
 350 0042 3B68     		ldr	r3, [r7]
 351 0044 0122     		movs	r2, #1
 352 0046 5A60     		str	r2, [r3, #4]
 353 0048 02E0     		b	.L21
 354              	.L20:
 267:Drivers/STM32F4xx_HAL_Driver/Src/stm32f4xx_hal_exti.c ****   }
 268:Drivers/STM32F4xx_HAL_Driver/Src/stm32f4xx_hal_exti.c ****   else
 269:Drivers/STM32F4xx_HAL_Driver/Src/stm32f4xx_hal_exti.c ****   {
 270:Drivers/STM32F4xx_HAL_Driver/Src/stm32f4xx_hal_exti.c ****     pExtiConfig->Mode = EXTI_MODE_NONE;
 355              		.loc 1 270 23
 356 004a 3B68     		ldr	r3, [r7]
 357 004c 0022     		movs	r2, #0
 358 004e 5A60     		str	r2, [r3, #4]
 359              	.L21:
 271:Drivers/STM32F4xx_HAL_Driver/Src/stm32f4xx_hal_exti.c ****   }
ARM GAS  /var/folders/06/9k7gq4t13mj84z2yhw3grvhc0000gn/T//ccIrgumz.s 			page 12


 272:Drivers/STM32F4xx_HAL_Driver/Src/stm32f4xx_hal_exti.c **** 
 273:Drivers/STM32F4xx_HAL_Driver/Src/stm32f4xx_hal_exti.c ****   /* Get event mode */
 274:Drivers/STM32F4xx_HAL_Driver/Src/stm32f4xx_hal_exti.c ****   /* Check if selected line is enable */
 275:Drivers/STM32F4xx_HAL_Driver/Src/stm32f4xx_hal_exti.c ****   if ((EXTI->EMR & maskline) != 0x00u)
 360              		.loc 1 275 12
 361 0050 264B     		ldr	r3, .L26
 362 0052 5A68     		ldr	r2, [r3, #4]
 363              		.loc 1 275 18
 364 0054 3B69     		ldr	r3, [r7, #16]
 365 0056 1340     		ands	r3, r3, r2
 366              		.loc 1 275 6
 367 0058 002B     		cmp	r3, #0
 368 005a 05D0     		beq	.L22
 276:Drivers/STM32F4xx_HAL_Driver/Src/stm32f4xx_hal_exti.c ****   {
 277:Drivers/STM32F4xx_HAL_Driver/Src/stm32f4xx_hal_exti.c ****     pExtiConfig->Mode |= EXTI_MODE_EVENT;
 369              		.loc 1 277 16
 370 005c 3B68     		ldr	r3, [r7]
 371 005e 5B68     		ldr	r3, [r3, #4]
 372              		.loc 1 277 23
 373 0060 43F00202 		orr	r2, r3, #2
 374 0064 3B68     		ldr	r3, [r7]
 375 0066 5A60     		str	r2, [r3, #4]
 376              	.L22:
 278:Drivers/STM32F4xx_HAL_Driver/Src/stm32f4xx_hal_exti.c ****   }
 279:Drivers/STM32F4xx_HAL_Driver/Src/stm32f4xx_hal_exti.c **** 
 280:Drivers/STM32F4xx_HAL_Driver/Src/stm32f4xx_hal_exti.c ****   /* Get default Trigger and GPIOSel configuration */
 281:Drivers/STM32F4xx_HAL_Driver/Src/stm32f4xx_hal_exti.c ****   pExtiConfig->Trigger = EXTI_TRIGGER_NONE;
 377              		.loc 1 281 24
 378 0068 3B68     		ldr	r3, [r7]
 379 006a 0022     		movs	r2, #0
 380 006c 9A60     		str	r2, [r3, #8]
 282:Drivers/STM32F4xx_HAL_Driver/Src/stm32f4xx_hal_exti.c ****   pExtiConfig->GPIOSel = 0x00u;
 381              		.loc 1 282 24
 382 006e 3B68     		ldr	r3, [r7]
 383 0070 0022     		movs	r2, #0
 384 0072 DA60     		str	r2, [r3, #12]
 283:Drivers/STM32F4xx_HAL_Driver/Src/stm32f4xx_hal_exti.c **** 
 284:Drivers/STM32F4xx_HAL_Driver/Src/stm32f4xx_hal_exti.c ****   /* 2] Get trigger for configurable lines : rising */
 285:Drivers/STM32F4xx_HAL_Driver/Src/stm32f4xx_hal_exti.c ****   if ((pExtiConfig->Line & EXTI_CONFIG) != 0x00u)
 385              		.loc 1 285 19
 386 0074 3B68     		ldr	r3, [r7]
 387 0076 1B68     		ldr	r3, [r3]
 388              		.loc 1 285 26
 389 0078 03F00073 		and	r3, r3, #33554432
 390              		.loc 1 285 6
 391 007c 002B     		cmp	r3, #0
 392 007e 2DD0     		beq	.L23
 286:Drivers/STM32F4xx_HAL_Driver/Src/stm32f4xx_hal_exti.c ****   {
 287:Drivers/STM32F4xx_HAL_Driver/Src/stm32f4xx_hal_exti.c ****     /* Check if configuration of selected line is enable */
 288:Drivers/STM32F4xx_HAL_Driver/Src/stm32f4xx_hal_exti.c ****     if ((EXTI->RTSR & maskline) != 0x00u)
 393              		.loc 1 288 14
 394 0080 1A4B     		ldr	r3, .L26
 395 0082 9A68     		ldr	r2, [r3, #8]
 396              		.loc 1 288 21
 397 0084 3B69     		ldr	r3, [r7, #16]
 398 0086 1340     		ands	r3, r3, r2
 399              		.loc 1 288 8
ARM GAS  /var/folders/06/9k7gq4t13mj84z2yhw3grvhc0000gn/T//ccIrgumz.s 			page 13


 400 0088 002B     		cmp	r3, #0
 401 008a 02D0     		beq	.L24
 289:Drivers/STM32F4xx_HAL_Driver/Src/stm32f4xx_hal_exti.c ****     {
 290:Drivers/STM32F4xx_HAL_Driver/Src/stm32f4xx_hal_exti.c ****       pExtiConfig->Trigger = EXTI_TRIGGER_RISING;
 402              		.loc 1 290 28
 403 008c 3B68     		ldr	r3, [r7]
 404 008e 0122     		movs	r2, #1
 405 0090 9A60     		str	r2, [r3, #8]
 406              	.L24:
 291:Drivers/STM32F4xx_HAL_Driver/Src/stm32f4xx_hal_exti.c ****     }
 292:Drivers/STM32F4xx_HAL_Driver/Src/stm32f4xx_hal_exti.c **** 
 293:Drivers/STM32F4xx_HAL_Driver/Src/stm32f4xx_hal_exti.c ****     /* Get falling configuration */
 294:Drivers/STM32F4xx_HAL_Driver/Src/stm32f4xx_hal_exti.c ****     /* Check if configuration of selected line is enable */
 295:Drivers/STM32F4xx_HAL_Driver/Src/stm32f4xx_hal_exti.c ****     if ((EXTI->FTSR & maskline) != 0x00u)
 407              		.loc 1 295 14
 408 0092 164B     		ldr	r3, .L26
 409 0094 DA68     		ldr	r2, [r3, #12]
 410              		.loc 1 295 21
 411 0096 3B69     		ldr	r3, [r7, #16]
 412 0098 1340     		ands	r3, r3, r2
 413              		.loc 1 295 8
 414 009a 002B     		cmp	r3, #0
 415 009c 05D0     		beq	.L25
 296:Drivers/STM32F4xx_HAL_Driver/Src/stm32f4xx_hal_exti.c ****     {
 297:Drivers/STM32F4xx_HAL_Driver/Src/stm32f4xx_hal_exti.c ****       pExtiConfig->Trigger |= EXTI_TRIGGER_FALLING;
 416              		.loc 1 297 18
 417 009e 3B68     		ldr	r3, [r7]
 418 00a0 9B68     		ldr	r3, [r3, #8]
 419              		.loc 1 297 28
 420 00a2 43F00202 		orr	r2, r3, #2
 421 00a6 3B68     		ldr	r3, [r7]
 422 00a8 9A60     		str	r2, [r3, #8]
 423              	.L25:
 298:Drivers/STM32F4xx_HAL_Driver/Src/stm32f4xx_hal_exti.c ****     }
 299:Drivers/STM32F4xx_HAL_Driver/Src/stm32f4xx_hal_exti.c **** 
 300:Drivers/STM32F4xx_HAL_Driver/Src/stm32f4xx_hal_exti.c ****     /* Get Gpio port selection for gpio lines */
 301:Drivers/STM32F4xx_HAL_Driver/Src/stm32f4xx_hal_exti.c ****     if ((pExtiConfig->Line & EXTI_GPIO) == EXTI_GPIO)
 424              		.loc 1 301 21
 425 00aa 3B68     		ldr	r3, [r7]
 426 00ac 1B68     		ldr	r3, [r3]
 427              		.loc 1 301 28
 428 00ae 03F0C063 		and	r3, r3, #100663296
 429              		.loc 1 301 8
 430 00b2 B3F1C06F 		cmp	r3, #100663296
 431 00b6 11D1     		bne	.L23
 302:Drivers/STM32F4xx_HAL_Driver/Src/stm32f4xx_hal_exti.c ****     {
 303:Drivers/STM32F4xx_HAL_Driver/Src/stm32f4xx_hal_exti.c ****       assert_param(IS_EXTI_GPIO_PIN(linepos));
 304:Drivers/STM32F4xx_HAL_Driver/Src/stm32f4xx_hal_exti.c **** 
 305:Drivers/STM32F4xx_HAL_Driver/Src/stm32f4xx_hal_exti.c ****       regval = SYSCFG->EXTICR[linepos >> 2u];
 432              		.loc 1 305 22
 433 00b8 0D4A     		ldr	r2, .L26+4
 434              		.loc 1 305 39
 435 00ba 7B69     		ldr	r3, [r7, #20]
 436 00bc 9B08     		lsrs	r3, r3, #2
 437              		.loc 1 305 14
 438 00be 0233     		adds	r3, r3, #2
 439 00c0 52F82330 		ldr	r3, [r2, r3, lsl #2]
ARM GAS  /var/folders/06/9k7gq4t13mj84z2yhw3grvhc0000gn/T//ccIrgumz.s 			page 14


 440 00c4 FB60     		str	r3, [r7, #12]
 306:Drivers/STM32F4xx_HAL_Driver/Src/stm32f4xx_hal_exti.c ****       pExtiConfig->GPIOSel = (regval >> (SYSCFG_EXTICR1_EXTI1_Pos * (linepos & 0x03u))) & SYSCFG_EX
 441              		.loc 1 306 78
 442 00c6 7B69     		ldr	r3, [r7, #20]
 443 00c8 03F00303 		and	r3, r3, #3
 444              		.loc 1 306 67
 445 00cc 9B00     		lsls	r3, r3, #2
 446              		.loc 1 306 38
 447 00ce FA68     		ldr	r2, [r7, #12]
 448 00d0 22FA03F3 		lsr	r3, r2, r3
 449              		.loc 1 306 89
 450 00d4 03F00F02 		and	r2, r3, #15
 451              		.loc 1 306 28
 452 00d8 3B68     		ldr	r3, [r7]
 453 00da DA60     		str	r2, [r3, #12]
 454              	.L23:
 307:Drivers/STM32F4xx_HAL_Driver/Src/stm32f4xx_hal_exti.c ****     }
 308:Drivers/STM32F4xx_HAL_Driver/Src/stm32f4xx_hal_exti.c ****   }
 309:Drivers/STM32F4xx_HAL_Driver/Src/stm32f4xx_hal_exti.c **** 
 310:Drivers/STM32F4xx_HAL_Driver/Src/stm32f4xx_hal_exti.c ****   return HAL_OK;
 455              		.loc 1 310 10
 456 00dc 0023     		movs	r3, #0
 457              	.L19:
 311:Drivers/STM32F4xx_HAL_Driver/Src/stm32f4xx_hal_exti.c **** }
 458              		.loc 1 311 1
 459 00de 1846     		mov	r0, r3
 460 00e0 1C37     		adds	r7, r7, #28
 461              	.LCFI9:
 462              		.cfi_def_cfa_offset 4
 463 00e2 BD46     		mov	sp, r7
 464              	.LCFI10:
 465              		.cfi_def_cfa_register 13
 466              		@ sp needed
 467 00e4 5DF8047B 		ldr	r7, [sp], #4
 468              	.LCFI11:
 469              		.cfi_restore 7
 470              		.cfi_def_cfa_offset 0
 471 00e8 7047     		bx	lr
 472              	.L27:
 473 00ea 00BF     		.align	2
 474              	.L26:
 475 00ec 003C0140 		.word	1073822720
 476 00f0 00380140 		.word	1073821696
 477              		.cfi_endproc
 478              	.LFE135:
 480              		.section	.text.HAL_EXTI_ClearConfigLine,"ax",%progbits
 481              		.align	1
 482              		.global	HAL_EXTI_ClearConfigLine
 483              		.syntax unified
 484              		.thumb
 485              		.thumb_func
 487              	HAL_EXTI_ClearConfigLine:
 488              	.LFB136:
 312:Drivers/STM32F4xx_HAL_Driver/Src/stm32f4xx_hal_exti.c **** 
 313:Drivers/STM32F4xx_HAL_Driver/Src/stm32f4xx_hal_exti.c **** /**
 314:Drivers/STM32F4xx_HAL_Driver/Src/stm32f4xx_hal_exti.c ****   * @brief  Clear whole configuration of a dedicated Exti line.
 315:Drivers/STM32F4xx_HAL_Driver/Src/stm32f4xx_hal_exti.c ****   * @param  hexti Exti handle.
ARM GAS  /var/folders/06/9k7gq4t13mj84z2yhw3grvhc0000gn/T//ccIrgumz.s 			page 15


 316:Drivers/STM32F4xx_HAL_Driver/Src/stm32f4xx_hal_exti.c ****   * @retval HAL Status.
 317:Drivers/STM32F4xx_HAL_Driver/Src/stm32f4xx_hal_exti.c ****   */
 318:Drivers/STM32F4xx_HAL_Driver/Src/stm32f4xx_hal_exti.c **** HAL_StatusTypeDef HAL_EXTI_ClearConfigLine(EXTI_HandleTypeDef *hexti)
 319:Drivers/STM32F4xx_HAL_Driver/Src/stm32f4xx_hal_exti.c **** {
 489              		.loc 1 319 1
 490              		.cfi_startproc
 491              		@ args = 0, pretend = 0, frame = 24
 492              		@ frame_needed = 1, uses_anonymous_args = 0
 493              		@ link register save eliminated.
 494 0000 80B4     		push	{r7}
 495              	.LCFI12:
 496              		.cfi_def_cfa_offset 4
 497              		.cfi_offset 7, -4
 498 0002 87B0     		sub	sp, sp, #28
 499              	.LCFI13:
 500              		.cfi_def_cfa_offset 32
 501 0004 00AF     		add	r7, sp, #0
 502              	.LCFI14:
 503              		.cfi_def_cfa_register 7
 504 0006 7860     		str	r0, [r7, #4]
 320:Drivers/STM32F4xx_HAL_Driver/Src/stm32f4xx_hal_exti.c ****   uint32_t regval;
 321:Drivers/STM32F4xx_HAL_Driver/Src/stm32f4xx_hal_exti.c ****   uint32_t linepos;
 322:Drivers/STM32F4xx_HAL_Driver/Src/stm32f4xx_hal_exti.c ****   uint32_t maskline;
 323:Drivers/STM32F4xx_HAL_Driver/Src/stm32f4xx_hal_exti.c **** 
 324:Drivers/STM32F4xx_HAL_Driver/Src/stm32f4xx_hal_exti.c ****   /* Check null pointer */
 325:Drivers/STM32F4xx_HAL_Driver/Src/stm32f4xx_hal_exti.c ****   if (hexti == NULL)
 505              		.loc 1 325 6
 506 0008 7B68     		ldr	r3, [r7, #4]
 507 000a 002B     		cmp	r3, #0
 508 000c 01D1     		bne	.L29
 326:Drivers/STM32F4xx_HAL_Driver/Src/stm32f4xx_hal_exti.c ****   {
 327:Drivers/STM32F4xx_HAL_Driver/Src/stm32f4xx_hal_exti.c ****     return HAL_ERROR;
 509              		.loc 1 327 12
 510 000e 0123     		movs	r3, #1
 511 0010 4CE0     		b	.L30
 512              	.L29:
 328:Drivers/STM32F4xx_HAL_Driver/Src/stm32f4xx_hal_exti.c ****   }
 329:Drivers/STM32F4xx_HAL_Driver/Src/stm32f4xx_hal_exti.c **** 
 330:Drivers/STM32F4xx_HAL_Driver/Src/stm32f4xx_hal_exti.c ****   /* Check the parameter */
 331:Drivers/STM32F4xx_HAL_Driver/Src/stm32f4xx_hal_exti.c ****   assert_param(IS_EXTI_LINE(hexti->Line));
 332:Drivers/STM32F4xx_HAL_Driver/Src/stm32f4xx_hal_exti.c **** 
 333:Drivers/STM32F4xx_HAL_Driver/Src/stm32f4xx_hal_exti.c ****   /* compute line mask */
 334:Drivers/STM32F4xx_HAL_Driver/Src/stm32f4xx_hal_exti.c ****   linepos = (hexti->Line & EXTI_PIN_MASK);
 513              		.loc 1 334 19
 514 0012 7B68     		ldr	r3, [r7, #4]
 515 0014 1B68     		ldr	r3, [r3]
 516              		.loc 1 334 11
 517 0016 03F01F03 		and	r3, r3, #31
 518 001a 7B61     		str	r3, [r7, #20]
 335:Drivers/STM32F4xx_HAL_Driver/Src/stm32f4xx_hal_exti.c ****   maskline = (1uL << linepos);
 519              		.loc 1 335 12
 520 001c 0122     		movs	r2, #1
 521 001e 7B69     		ldr	r3, [r7, #20]
 522 0020 02FA03F3 		lsl	r3, r2, r3
 523 0024 3B61     		str	r3, [r7, #16]
 336:Drivers/STM32F4xx_HAL_Driver/Src/stm32f4xx_hal_exti.c **** 
 337:Drivers/STM32F4xx_HAL_Driver/Src/stm32f4xx_hal_exti.c ****   /* 1] Clear interrupt mode */
ARM GAS  /var/folders/06/9k7gq4t13mj84z2yhw3grvhc0000gn/T//ccIrgumz.s 			page 16


 338:Drivers/STM32F4xx_HAL_Driver/Src/stm32f4xx_hal_exti.c ****   EXTI->IMR = (EXTI->IMR & ~maskline);
 524              		.loc 1 338 20
 525 0026 244B     		ldr	r3, .L32
 526 0028 1A68     		ldr	r2, [r3]
 527              		.loc 1 338 28
 528 002a 3B69     		ldr	r3, [r7, #16]
 529 002c DB43     		mvns	r3, r3
 530              		.loc 1 338 7
 531 002e 2249     		ldr	r1, .L32
 532              		.loc 1 338 26
 533 0030 1340     		ands	r3, r3, r2
 534              		.loc 1 338 13
 535 0032 0B60     		str	r3, [r1]
 339:Drivers/STM32F4xx_HAL_Driver/Src/stm32f4xx_hal_exti.c **** 
 340:Drivers/STM32F4xx_HAL_Driver/Src/stm32f4xx_hal_exti.c ****   /* 2] Clear event mode */
 341:Drivers/STM32F4xx_HAL_Driver/Src/stm32f4xx_hal_exti.c ****   EXTI->EMR = (EXTI->EMR & ~maskline);
 536              		.loc 1 341 20
 537 0034 204B     		ldr	r3, .L32
 538 0036 5A68     		ldr	r2, [r3, #4]
 539              		.loc 1 341 28
 540 0038 3B69     		ldr	r3, [r7, #16]
 541 003a DB43     		mvns	r3, r3
 542              		.loc 1 341 7
 543 003c 1E49     		ldr	r1, .L32
 544              		.loc 1 341 26
 545 003e 1340     		ands	r3, r3, r2
 546              		.loc 1 341 13
 547 0040 4B60     		str	r3, [r1, #4]
 342:Drivers/STM32F4xx_HAL_Driver/Src/stm32f4xx_hal_exti.c **** 
 343:Drivers/STM32F4xx_HAL_Driver/Src/stm32f4xx_hal_exti.c ****   /* 3] Clear triggers in case of configurable lines */
 344:Drivers/STM32F4xx_HAL_Driver/Src/stm32f4xx_hal_exti.c ****   if ((hexti->Line & EXTI_CONFIG) != 0x00u)
 548              		.loc 1 344 13
 549 0042 7B68     		ldr	r3, [r7, #4]
 550 0044 1B68     		ldr	r3, [r3]
 551              		.loc 1 344 20
 552 0046 03F00073 		and	r3, r3, #33554432
 553              		.loc 1 344 6
 554 004a 002B     		cmp	r3, #0
 555 004c 2DD0     		beq	.L31
 345:Drivers/STM32F4xx_HAL_Driver/Src/stm32f4xx_hal_exti.c ****   {
 346:Drivers/STM32F4xx_HAL_Driver/Src/stm32f4xx_hal_exti.c ****     EXTI->RTSR = (EXTI->RTSR & ~maskline);
 556              		.loc 1 346 23
 557 004e 1A4B     		ldr	r3, .L32
 558 0050 9A68     		ldr	r2, [r3, #8]
 559              		.loc 1 346 32
 560 0052 3B69     		ldr	r3, [r7, #16]
 561 0054 DB43     		mvns	r3, r3
 562              		.loc 1 346 9
 563 0056 1849     		ldr	r1, .L32
 564              		.loc 1 346 30
 565 0058 1340     		ands	r3, r3, r2
 566              		.loc 1 346 16
 567 005a 8B60     		str	r3, [r1, #8]
 347:Drivers/STM32F4xx_HAL_Driver/Src/stm32f4xx_hal_exti.c ****     EXTI->FTSR = (EXTI->FTSR & ~maskline);
 568              		.loc 1 347 23
 569 005c 164B     		ldr	r3, .L32
 570 005e DA68     		ldr	r2, [r3, #12]
ARM GAS  /var/folders/06/9k7gq4t13mj84z2yhw3grvhc0000gn/T//ccIrgumz.s 			page 17


 571              		.loc 1 347 32
 572 0060 3B69     		ldr	r3, [r7, #16]
 573 0062 DB43     		mvns	r3, r3
 574              		.loc 1 347 9
 575 0064 1449     		ldr	r1, .L32
 576              		.loc 1 347 30
 577 0066 1340     		ands	r3, r3, r2
 578              		.loc 1 347 16
 579 0068 CB60     		str	r3, [r1, #12]
 348:Drivers/STM32F4xx_HAL_Driver/Src/stm32f4xx_hal_exti.c **** 
 349:Drivers/STM32F4xx_HAL_Driver/Src/stm32f4xx_hal_exti.c ****     /* Get Gpio port selection for gpio lines */
 350:Drivers/STM32F4xx_HAL_Driver/Src/stm32f4xx_hal_exti.c ****     if ((hexti->Line & EXTI_GPIO) == EXTI_GPIO)
 580              		.loc 1 350 15
 581 006a 7B68     		ldr	r3, [r7, #4]
 582 006c 1B68     		ldr	r3, [r3]
 583              		.loc 1 350 22
 584 006e 03F0C063 		and	r3, r3, #100663296
 585              		.loc 1 350 8
 586 0072 B3F1C06F 		cmp	r3, #100663296
 587 0076 18D1     		bne	.L31
 351:Drivers/STM32F4xx_HAL_Driver/Src/stm32f4xx_hal_exti.c ****     {
 352:Drivers/STM32F4xx_HAL_Driver/Src/stm32f4xx_hal_exti.c ****       assert_param(IS_EXTI_GPIO_PIN(linepos));
 353:Drivers/STM32F4xx_HAL_Driver/Src/stm32f4xx_hal_exti.c **** 
 354:Drivers/STM32F4xx_HAL_Driver/Src/stm32f4xx_hal_exti.c ****       regval = SYSCFG->EXTICR[linepos >> 2u];
 588              		.loc 1 354 22
 589 0078 104A     		ldr	r2, .L32+4
 590              		.loc 1 354 39
 591 007a 7B69     		ldr	r3, [r7, #20]
 592 007c 9B08     		lsrs	r3, r3, #2
 593              		.loc 1 354 14
 594 007e 0233     		adds	r3, r3, #2
 595 0080 52F82330 		ldr	r3, [r2, r3, lsl #2]
 596 0084 FB60     		str	r3, [r7, #12]
 355:Drivers/STM32F4xx_HAL_Driver/Src/stm32f4xx_hal_exti.c ****       regval &= ~(SYSCFG_EXTICR1_EXTI0 << (SYSCFG_EXTICR1_EXTI1_Pos * (linepos & 0x03u)));
 597              		.loc 1 355 80
 598 0086 7B69     		ldr	r3, [r7, #20]
 599 0088 03F00303 		and	r3, r3, #3
 600              		.loc 1 355 69
 601 008c 9B00     		lsls	r3, r3, #2
 602              		.loc 1 355 40
 603 008e 0F22     		movs	r2, #15
 604 0090 02FA03F3 		lsl	r3, r2, r3
 605              		.loc 1 355 17
 606 0094 DB43     		mvns	r3, r3
 607              		.loc 1 355 14
 608 0096 FA68     		ldr	r2, [r7, #12]
 609 0098 1340     		ands	r3, r3, r2
 610 009a FB60     		str	r3, [r7, #12]
 356:Drivers/STM32F4xx_HAL_Driver/Src/stm32f4xx_hal_exti.c ****       SYSCFG->EXTICR[linepos >> 2u] = regval;
 611              		.loc 1 356 13
 612 009c 0749     		ldr	r1, .L32+4
 613              		.loc 1 356 30
 614 009e 7B69     		ldr	r3, [r7, #20]
 615 00a0 9B08     		lsrs	r3, r3, #2
 616              		.loc 1 356 37
 617 00a2 0233     		adds	r3, r3, #2
 618 00a4 FA68     		ldr	r2, [r7, #12]
ARM GAS  /var/folders/06/9k7gq4t13mj84z2yhw3grvhc0000gn/T//ccIrgumz.s 			page 18


 619 00a6 41F82320 		str	r2, [r1, r3, lsl #2]
 620              	.L31:
 357:Drivers/STM32F4xx_HAL_Driver/Src/stm32f4xx_hal_exti.c ****     }
 358:Drivers/STM32F4xx_HAL_Driver/Src/stm32f4xx_hal_exti.c ****   }
 359:Drivers/STM32F4xx_HAL_Driver/Src/stm32f4xx_hal_exti.c **** 
 360:Drivers/STM32F4xx_HAL_Driver/Src/stm32f4xx_hal_exti.c ****   return HAL_OK;
 621              		.loc 1 360 10
 622 00aa 0023     		movs	r3, #0
 623              	.L30:
 361:Drivers/STM32F4xx_HAL_Driver/Src/stm32f4xx_hal_exti.c **** }
 624              		.loc 1 361 1
 625 00ac 1846     		mov	r0, r3
 626 00ae 1C37     		adds	r7, r7, #28
 627              	.LCFI15:
 628              		.cfi_def_cfa_offset 4
 629 00b0 BD46     		mov	sp, r7
 630              	.LCFI16:
 631              		.cfi_def_cfa_register 13
 632              		@ sp needed
 633 00b2 5DF8047B 		ldr	r7, [sp], #4
 634              	.LCFI17:
 635              		.cfi_restore 7
 636              		.cfi_def_cfa_offset 0
 637 00b6 7047     		bx	lr
 638              	.L33:
 639              		.align	2
 640              	.L32:
 641 00b8 003C0140 		.word	1073822720
 642 00bc 00380140 		.word	1073821696
 643              		.cfi_endproc
 644              	.LFE136:
 646              		.section	.text.HAL_EXTI_RegisterCallback,"ax",%progbits
 647              		.align	1
 648              		.global	HAL_EXTI_RegisterCallback
 649              		.syntax unified
 650              		.thumb
 651              		.thumb_func
 653              	HAL_EXTI_RegisterCallback:
 654              	.LFB137:
 362:Drivers/STM32F4xx_HAL_Driver/Src/stm32f4xx_hal_exti.c **** 
 363:Drivers/STM32F4xx_HAL_Driver/Src/stm32f4xx_hal_exti.c **** /**
 364:Drivers/STM32F4xx_HAL_Driver/Src/stm32f4xx_hal_exti.c ****   * @brief  Register callback for a dedicated Exti line.
 365:Drivers/STM32F4xx_HAL_Driver/Src/stm32f4xx_hal_exti.c ****   * @param  hexti Exti handle.
 366:Drivers/STM32F4xx_HAL_Driver/Src/stm32f4xx_hal_exti.c ****   * @param  CallbackID User callback identifier.
 367:Drivers/STM32F4xx_HAL_Driver/Src/stm32f4xx_hal_exti.c ****   *         This parameter can be one of @arg @ref EXTI_CallbackIDTypeDef values.
 368:Drivers/STM32F4xx_HAL_Driver/Src/stm32f4xx_hal_exti.c ****   * @param  pPendingCbfn function pointer to be stored as callback.
 369:Drivers/STM32F4xx_HAL_Driver/Src/stm32f4xx_hal_exti.c ****   * @retval HAL Status.
 370:Drivers/STM32F4xx_HAL_Driver/Src/stm32f4xx_hal_exti.c ****   */
 371:Drivers/STM32F4xx_HAL_Driver/Src/stm32f4xx_hal_exti.c **** HAL_StatusTypeDef HAL_EXTI_RegisterCallback(EXTI_HandleTypeDef *hexti, EXTI_CallbackIDTypeDef Callb
 372:Drivers/STM32F4xx_HAL_Driver/Src/stm32f4xx_hal_exti.c **** {
 655              		.loc 1 372 1
 656              		.cfi_startproc
 657              		@ args = 0, pretend = 0, frame = 24
 658              		@ frame_needed = 1, uses_anonymous_args = 0
 659              		@ link register save eliminated.
 660 0000 80B4     		push	{r7}
 661              	.LCFI18:
ARM GAS  /var/folders/06/9k7gq4t13mj84z2yhw3grvhc0000gn/T//ccIrgumz.s 			page 19


 662              		.cfi_def_cfa_offset 4
 663              		.cfi_offset 7, -4
 664 0002 87B0     		sub	sp, sp, #28
 665              	.LCFI19:
 666              		.cfi_def_cfa_offset 32
 667 0004 00AF     		add	r7, sp, #0
 668              	.LCFI20:
 669              		.cfi_def_cfa_register 7
 670 0006 F860     		str	r0, [r7, #12]
 671 0008 0B46     		mov	r3, r1
 672 000a 7A60     		str	r2, [r7, #4]
 673 000c FB72     		strb	r3, [r7, #11]
 373:Drivers/STM32F4xx_HAL_Driver/Src/stm32f4xx_hal_exti.c ****   HAL_StatusTypeDef status = HAL_OK;
 674              		.loc 1 373 21
 675 000e 0023     		movs	r3, #0
 676 0010 FB75     		strb	r3, [r7, #23]
 374:Drivers/STM32F4xx_HAL_Driver/Src/stm32f4xx_hal_exti.c **** 
 375:Drivers/STM32F4xx_HAL_Driver/Src/stm32f4xx_hal_exti.c ****   switch (CallbackID)
 677              		.loc 1 375 3
 678 0012 FB7A     		ldrb	r3, [r7, #11]	@ zero_extendqisi2
 679 0014 002B     		cmp	r3, #0
 680 0016 03D1     		bne	.L35
 376:Drivers/STM32F4xx_HAL_Driver/Src/stm32f4xx_hal_exti.c ****   {
 377:Drivers/STM32F4xx_HAL_Driver/Src/stm32f4xx_hal_exti.c ****     case  HAL_EXTI_COMMON_CB_ID:
 378:Drivers/STM32F4xx_HAL_Driver/Src/stm32f4xx_hal_exti.c ****       hexti->PendingCallback = pPendingCbfn;
 681              		.loc 1 378 30
 682 0018 FB68     		ldr	r3, [r7, #12]
 683 001a 7A68     		ldr	r2, [r7, #4]
 684 001c 5A60     		str	r2, [r3, #4]
 379:Drivers/STM32F4xx_HAL_Driver/Src/stm32f4xx_hal_exti.c ****       break;
 685              		.loc 1 379 7
 686 001e 02E0     		b	.L36
 687              	.L35:
 380:Drivers/STM32F4xx_HAL_Driver/Src/stm32f4xx_hal_exti.c **** 
 381:Drivers/STM32F4xx_HAL_Driver/Src/stm32f4xx_hal_exti.c ****     default:
 382:Drivers/STM32F4xx_HAL_Driver/Src/stm32f4xx_hal_exti.c ****       status = HAL_ERROR;
 688              		.loc 1 382 14
 689 0020 0123     		movs	r3, #1
 690 0022 FB75     		strb	r3, [r7, #23]
 383:Drivers/STM32F4xx_HAL_Driver/Src/stm32f4xx_hal_exti.c ****       break;
 691              		.loc 1 383 7
 692 0024 00BF     		nop
 693              	.L36:
 384:Drivers/STM32F4xx_HAL_Driver/Src/stm32f4xx_hal_exti.c ****   }
 385:Drivers/STM32F4xx_HAL_Driver/Src/stm32f4xx_hal_exti.c **** 
 386:Drivers/STM32F4xx_HAL_Driver/Src/stm32f4xx_hal_exti.c ****   return status;
 694              		.loc 1 386 10
 695 0026 FB7D     		ldrb	r3, [r7, #23]	@ zero_extendqisi2
 387:Drivers/STM32F4xx_HAL_Driver/Src/stm32f4xx_hal_exti.c **** }
 696              		.loc 1 387 1
 697 0028 1846     		mov	r0, r3
 698 002a 1C37     		adds	r7, r7, #28
 699              	.LCFI21:
 700              		.cfi_def_cfa_offset 4
 701 002c BD46     		mov	sp, r7
 702              	.LCFI22:
 703              		.cfi_def_cfa_register 13
ARM GAS  /var/folders/06/9k7gq4t13mj84z2yhw3grvhc0000gn/T//ccIrgumz.s 			page 20


 704              		@ sp needed
 705 002e 5DF8047B 		ldr	r7, [sp], #4
 706              	.LCFI23:
 707              		.cfi_restore 7
 708              		.cfi_def_cfa_offset 0
 709 0032 7047     		bx	lr
 710              		.cfi_endproc
 711              	.LFE137:
 713              		.section	.text.HAL_EXTI_GetHandle,"ax",%progbits
 714              		.align	1
 715              		.global	HAL_EXTI_GetHandle
 716              		.syntax unified
 717              		.thumb
 718              		.thumb_func
 720              	HAL_EXTI_GetHandle:
 721              	.LFB138:
 388:Drivers/STM32F4xx_HAL_Driver/Src/stm32f4xx_hal_exti.c **** 
 389:Drivers/STM32F4xx_HAL_Driver/Src/stm32f4xx_hal_exti.c **** /**
 390:Drivers/STM32F4xx_HAL_Driver/Src/stm32f4xx_hal_exti.c ****   * @brief  Store line number as handle private field.
 391:Drivers/STM32F4xx_HAL_Driver/Src/stm32f4xx_hal_exti.c ****   * @param  hexti Exti handle.
 392:Drivers/STM32F4xx_HAL_Driver/Src/stm32f4xx_hal_exti.c ****   * @param  ExtiLine Exti line number.
 393:Drivers/STM32F4xx_HAL_Driver/Src/stm32f4xx_hal_exti.c ****   *         This parameter can be from 0 to @ref EXTI_LINE_NB.
 394:Drivers/STM32F4xx_HAL_Driver/Src/stm32f4xx_hal_exti.c ****   * @retval HAL Status.
 395:Drivers/STM32F4xx_HAL_Driver/Src/stm32f4xx_hal_exti.c ****   */
 396:Drivers/STM32F4xx_HAL_Driver/Src/stm32f4xx_hal_exti.c **** HAL_StatusTypeDef HAL_EXTI_GetHandle(EXTI_HandleTypeDef *hexti, uint32_t ExtiLine)
 397:Drivers/STM32F4xx_HAL_Driver/Src/stm32f4xx_hal_exti.c **** {
 722              		.loc 1 397 1
 723              		.cfi_startproc
 724              		@ args = 0, pretend = 0, frame = 8
 725              		@ frame_needed = 1, uses_anonymous_args = 0
 726              		@ link register save eliminated.
 727 0000 80B4     		push	{r7}
 728              	.LCFI24:
 729              		.cfi_def_cfa_offset 4
 730              		.cfi_offset 7, -4
 731 0002 83B0     		sub	sp, sp, #12
 732              	.LCFI25:
 733              		.cfi_def_cfa_offset 16
 734 0004 00AF     		add	r7, sp, #0
 735              	.LCFI26:
 736              		.cfi_def_cfa_register 7
 737 0006 7860     		str	r0, [r7, #4]
 738 0008 3960     		str	r1, [r7]
 398:Drivers/STM32F4xx_HAL_Driver/Src/stm32f4xx_hal_exti.c ****   /* Check the parameters */
 399:Drivers/STM32F4xx_HAL_Driver/Src/stm32f4xx_hal_exti.c ****   assert_param(IS_EXTI_LINE(ExtiLine));
 400:Drivers/STM32F4xx_HAL_Driver/Src/stm32f4xx_hal_exti.c **** 
 401:Drivers/STM32F4xx_HAL_Driver/Src/stm32f4xx_hal_exti.c ****   /* Check null pointer */
 402:Drivers/STM32F4xx_HAL_Driver/Src/stm32f4xx_hal_exti.c ****   if (hexti == NULL)
 739              		.loc 1 402 6
 740 000a 7B68     		ldr	r3, [r7, #4]
 741 000c 002B     		cmp	r3, #0
 742 000e 01D1     		bne	.L39
 403:Drivers/STM32F4xx_HAL_Driver/Src/stm32f4xx_hal_exti.c ****   {
 404:Drivers/STM32F4xx_HAL_Driver/Src/stm32f4xx_hal_exti.c ****     return HAL_ERROR;
 743              		.loc 1 404 12
 744 0010 0123     		movs	r3, #1
 745 0012 03E0     		b	.L40
ARM GAS  /var/folders/06/9k7gq4t13mj84z2yhw3grvhc0000gn/T//ccIrgumz.s 			page 21


 746              	.L39:
 405:Drivers/STM32F4xx_HAL_Driver/Src/stm32f4xx_hal_exti.c ****   }
 406:Drivers/STM32F4xx_HAL_Driver/Src/stm32f4xx_hal_exti.c ****   else
 407:Drivers/STM32F4xx_HAL_Driver/Src/stm32f4xx_hal_exti.c ****   {
 408:Drivers/STM32F4xx_HAL_Driver/Src/stm32f4xx_hal_exti.c ****     /* Store line number as handle private field */
 409:Drivers/STM32F4xx_HAL_Driver/Src/stm32f4xx_hal_exti.c ****     hexti->Line = ExtiLine;
 747              		.loc 1 409 17
 748 0014 7B68     		ldr	r3, [r7, #4]
 749 0016 3A68     		ldr	r2, [r7]
 750 0018 1A60     		str	r2, [r3]
 410:Drivers/STM32F4xx_HAL_Driver/Src/stm32f4xx_hal_exti.c **** 
 411:Drivers/STM32F4xx_HAL_Driver/Src/stm32f4xx_hal_exti.c ****     return HAL_OK;
 751              		.loc 1 411 12
 752 001a 0023     		movs	r3, #0
 753              	.L40:
 412:Drivers/STM32F4xx_HAL_Driver/Src/stm32f4xx_hal_exti.c ****   }
 413:Drivers/STM32F4xx_HAL_Driver/Src/stm32f4xx_hal_exti.c **** }
 754              		.loc 1 413 1
 755 001c 1846     		mov	r0, r3
 756 001e 0C37     		adds	r7, r7, #12
 757              	.LCFI27:
 758              		.cfi_def_cfa_offset 4
 759 0020 BD46     		mov	sp, r7
 760              	.LCFI28:
 761              		.cfi_def_cfa_register 13
 762              		@ sp needed
 763 0022 5DF8047B 		ldr	r7, [sp], #4
 764              	.LCFI29:
 765              		.cfi_restore 7
 766              		.cfi_def_cfa_offset 0
 767 0026 7047     		bx	lr
 768              		.cfi_endproc
 769              	.LFE138:
 771              		.section	.text.HAL_EXTI_IRQHandler,"ax",%progbits
 772              		.align	1
 773              		.global	HAL_EXTI_IRQHandler
 774              		.syntax unified
 775              		.thumb
 776              		.thumb_func
 778              	HAL_EXTI_IRQHandler:
 779              	.LFB139:
 414:Drivers/STM32F4xx_HAL_Driver/Src/stm32f4xx_hal_exti.c **** 
 415:Drivers/STM32F4xx_HAL_Driver/Src/stm32f4xx_hal_exti.c **** /**
 416:Drivers/STM32F4xx_HAL_Driver/Src/stm32f4xx_hal_exti.c ****   * @}
 417:Drivers/STM32F4xx_HAL_Driver/Src/stm32f4xx_hal_exti.c ****   */
 418:Drivers/STM32F4xx_HAL_Driver/Src/stm32f4xx_hal_exti.c **** 
 419:Drivers/STM32F4xx_HAL_Driver/Src/stm32f4xx_hal_exti.c **** /** @addtogroup EXTI_Exported_Functions_Group2
 420:Drivers/STM32F4xx_HAL_Driver/Src/stm32f4xx_hal_exti.c ****   *  @brief EXTI IO functions.
 421:Drivers/STM32F4xx_HAL_Driver/Src/stm32f4xx_hal_exti.c ****   *
 422:Drivers/STM32F4xx_HAL_Driver/Src/stm32f4xx_hal_exti.c **** @verbatim
 423:Drivers/STM32F4xx_HAL_Driver/Src/stm32f4xx_hal_exti.c ****  ===============================================================================
 424:Drivers/STM32F4xx_HAL_Driver/Src/stm32f4xx_hal_exti.c ****                        ##### IO operation functions #####
 425:Drivers/STM32F4xx_HAL_Driver/Src/stm32f4xx_hal_exti.c ****  ===============================================================================
 426:Drivers/STM32F4xx_HAL_Driver/Src/stm32f4xx_hal_exti.c **** 
 427:Drivers/STM32F4xx_HAL_Driver/Src/stm32f4xx_hal_exti.c **** @endverbatim
 428:Drivers/STM32F4xx_HAL_Driver/Src/stm32f4xx_hal_exti.c ****   * @{
 429:Drivers/STM32F4xx_HAL_Driver/Src/stm32f4xx_hal_exti.c ****   */
ARM GAS  /var/folders/06/9k7gq4t13mj84z2yhw3grvhc0000gn/T//ccIrgumz.s 			page 22


 430:Drivers/STM32F4xx_HAL_Driver/Src/stm32f4xx_hal_exti.c **** 
 431:Drivers/STM32F4xx_HAL_Driver/Src/stm32f4xx_hal_exti.c **** /**
 432:Drivers/STM32F4xx_HAL_Driver/Src/stm32f4xx_hal_exti.c ****   * @brief  Handle EXTI interrupt request.
 433:Drivers/STM32F4xx_HAL_Driver/Src/stm32f4xx_hal_exti.c ****   * @param  hexti Exti handle.
 434:Drivers/STM32F4xx_HAL_Driver/Src/stm32f4xx_hal_exti.c ****   * @retval none.
 435:Drivers/STM32F4xx_HAL_Driver/Src/stm32f4xx_hal_exti.c ****   */
 436:Drivers/STM32F4xx_HAL_Driver/Src/stm32f4xx_hal_exti.c **** void HAL_EXTI_IRQHandler(EXTI_HandleTypeDef *hexti)
 437:Drivers/STM32F4xx_HAL_Driver/Src/stm32f4xx_hal_exti.c **** {
 780              		.loc 1 437 1
 781              		.cfi_startproc
 782              		@ args = 0, pretend = 0, frame = 16
 783              		@ frame_needed = 1, uses_anonymous_args = 0
 784 0000 80B5     		push	{r7, lr}
 785              	.LCFI30:
 786              		.cfi_def_cfa_offset 8
 787              		.cfi_offset 7, -8
 788              		.cfi_offset 14, -4
 789 0002 84B0     		sub	sp, sp, #16
 790              	.LCFI31:
 791              		.cfi_def_cfa_offset 24
 792 0004 00AF     		add	r7, sp, #0
 793              	.LCFI32:
 794              		.cfi_def_cfa_register 7
 795 0006 7860     		str	r0, [r7, #4]
 438:Drivers/STM32F4xx_HAL_Driver/Src/stm32f4xx_hal_exti.c ****   uint32_t regval;
 439:Drivers/STM32F4xx_HAL_Driver/Src/stm32f4xx_hal_exti.c ****   uint32_t maskline;
 440:Drivers/STM32F4xx_HAL_Driver/Src/stm32f4xx_hal_exti.c **** 
 441:Drivers/STM32F4xx_HAL_Driver/Src/stm32f4xx_hal_exti.c ****   /* Compute line mask */
 442:Drivers/STM32F4xx_HAL_Driver/Src/stm32f4xx_hal_exti.c ****   maskline = (1uL << (hexti->Line & EXTI_PIN_MASK));
 796              		.loc 1 442 28
 797 0008 7B68     		ldr	r3, [r7, #4]
 798 000a 1B68     		ldr	r3, [r3]
 799              		.loc 1 442 35
 800 000c 03F01F03 		and	r3, r3, #31
 801              		.loc 1 442 12
 802 0010 0122     		movs	r2, #1
 803 0012 02FA03F3 		lsl	r3, r2, r3
 804 0016 FB60     		str	r3, [r7, #12]
 443:Drivers/STM32F4xx_HAL_Driver/Src/stm32f4xx_hal_exti.c **** 
 444:Drivers/STM32F4xx_HAL_Driver/Src/stm32f4xx_hal_exti.c ****   /* Get pending bit  */
 445:Drivers/STM32F4xx_HAL_Driver/Src/stm32f4xx_hal_exti.c ****   regval = (EXTI->PR & maskline);
 805              		.loc 1 445 17
 806 0018 0A4B     		ldr	r3, .L44
 807 001a 5B69     		ldr	r3, [r3, #20]
 808              		.loc 1 445 10
 809 001c FA68     		ldr	r2, [r7, #12]
 810 001e 1340     		ands	r3, r3, r2
 811 0020 BB60     		str	r3, [r7, #8]
 446:Drivers/STM32F4xx_HAL_Driver/Src/stm32f4xx_hal_exti.c ****   if (regval != 0x00u)
 812              		.loc 1 446 6
 813 0022 BB68     		ldr	r3, [r7, #8]
 814 0024 002B     		cmp	r3, #0
 815 0026 09D0     		beq	.L43
 447:Drivers/STM32F4xx_HAL_Driver/Src/stm32f4xx_hal_exti.c ****   {
 448:Drivers/STM32F4xx_HAL_Driver/Src/stm32f4xx_hal_exti.c ****     /* Clear pending bit */
 449:Drivers/STM32F4xx_HAL_Driver/Src/stm32f4xx_hal_exti.c ****     EXTI->PR = maskline;
 816              		.loc 1 449 9
ARM GAS  /var/folders/06/9k7gq4t13mj84z2yhw3grvhc0000gn/T//ccIrgumz.s 			page 23


 817 0028 064A     		ldr	r2, .L44
 818              		.loc 1 449 14
 819 002a FB68     		ldr	r3, [r7, #12]
 820 002c 5361     		str	r3, [r2, #20]
 450:Drivers/STM32F4xx_HAL_Driver/Src/stm32f4xx_hal_exti.c **** 
 451:Drivers/STM32F4xx_HAL_Driver/Src/stm32f4xx_hal_exti.c ****     /* Call callback */
 452:Drivers/STM32F4xx_HAL_Driver/Src/stm32f4xx_hal_exti.c ****     if (hexti->PendingCallback != NULL)
 821              		.loc 1 452 14
 822 002e 7B68     		ldr	r3, [r7, #4]
 823 0030 5B68     		ldr	r3, [r3, #4]
 824              		.loc 1 452 8
 825 0032 002B     		cmp	r3, #0
 826 0034 02D0     		beq	.L43
 453:Drivers/STM32F4xx_HAL_Driver/Src/stm32f4xx_hal_exti.c ****     {
 454:Drivers/STM32F4xx_HAL_Driver/Src/stm32f4xx_hal_exti.c ****       hexti->PendingCallback();
 827              		.loc 1 454 12
 828 0036 7B68     		ldr	r3, [r7, #4]
 829 0038 5B68     		ldr	r3, [r3, #4]
 830              		.loc 1 454 7
 831 003a 9847     		blx	r3
 832              	.LVL0:
 833              	.L43:
 455:Drivers/STM32F4xx_HAL_Driver/Src/stm32f4xx_hal_exti.c ****     }
 456:Drivers/STM32F4xx_HAL_Driver/Src/stm32f4xx_hal_exti.c ****   }
 457:Drivers/STM32F4xx_HAL_Driver/Src/stm32f4xx_hal_exti.c **** }
 834              		.loc 1 457 1
 835 003c 00BF     		nop
 836 003e 1037     		adds	r7, r7, #16
 837              	.LCFI33:
 838              		.cfi_def_cfa_offset 8
 839 0040 BD46     		mov	sp, r7
 840              	.LCFI34:
 841              		.cfi_def_cfa_register 13
 842              		@ sp needed
 843 0042 80BD     		pop	{r7, pc}
 844              	.L45:
 845              		.align	2
 846              	.L44:
 847 0044 003C0140 		.word	1073822720
 848              		.cfi_endproc
 849              	.LFE139:
 851              		.section	.text.HAL_EXTI_GetPending,"ax",%progbits
 852              		.align	1
 853              		.global	HAL_EXTI_GetPending
 854              		.syntax unified
 855              		.thumb
 856              		.thumb_func
 858              	HAL_EXTI_GetPending:
 859              	.LFB140:
 458:Drivers/STM32F4xx_HAL_Driver/Src/stm32f4xx_hal_exti.c **** 
 459:Drivers/STM32F4xx_HAL_Driver/Src/stm32f4xx_hal_exti.c **** /**
 460:Drivers/STM32F4xx_HAL_Driver/Src/stm32f4xx_hal_exti.c ****   * @brief  Get interrupt pending bit of a dedicated line.
 461:Drivers/STM32F4xx_HAL_Driver/Src/stm32f4xx_hal_exti.c ****   * @param  hexti Exti handle.
 462:Drivers/STM32F4xx_HAL_Driver/Src/stm32f4xx_hal_exti.c ****   * @param  Edge Specify which pending edge as to be checked.
 463:Drivers/STM32F4xx_HAL_Driver/Src/stm32f4xx_hal_exti.c ****   *         This parameter can be one of the following values:
 464:Drivers/STM32F4xx_HAL_Driver/Src/stm32f4xx_hal_exti.c ****   *           @arg @ref EXTI_TRIGGER_RISING_FALLING
 465:Drivers/STM32F4xx_HAL_Driver/Src/stm32f4xx_hal_exti.c ****   *         This parameter is kept for compatibility with other series.
ARM GAS  /var/folders/06/9k7gq4t13mj84z2yhw3grvhc0000gn/T//ccIrgumz.s 			page 24


 466:Drivers/STM32F4xx_HAL_Driver/Src/stm32f4xx_hal_exti.c ****   * @retval 1 if interrupt is pending else 0.
 467:Drivers/STM32F4xx_HAL_Driver/Src/stm32f4xx_hal_exti.c ****   */
 468:Drivers/STM32F4xx_HAL_Driver/Src/stm32f4xx_hal_exti.c **** uint32_t HAL_EXTI_GetPending(EXTI_HandleTypeDef *hexti, uint32_t Edge)
 469:Drivers/STM32F4xx_HAL_Driver/Src/stm32f4xx_hal_exti.c **** {
 860              		.loc 1 469 1
 861              		.cfi_startproc
 862              		@ args = 0, pretend = 0, frame = 24
 863              		@ frame_needed = 1, uses_anonymous_args = 0
 864              		@ link register save eliminated.
 865 0000 80B4     		push	{r7}
 866              	.LCFI35:
 867              		.cfi_def_cfa_offset 4
 868              		.cfi_offset 7, -4
 869 0002 87B0     		sub	sp, sp, #28
 870              	.LCFI36:
 871              		.cfi_def_cfa_offset 32
 872 0004 00AF     		add	r7, sp, #0
 873              	.LCFI37:
 874              		.cfi_def_cfa_register 7
 875 0006 7860     		str	r0, [r7, #4]
 876 0008 3960     		str	r1, [r7]
 470:Drivers/STM32F4xx_HAL_Driver/Src/stm32f4xx_hal_exti.c ****   uint32_t regval;
 471:Drivers/STM32F4xx_HAL_Driver/Src/stm32f4xx_hal_exti.c ****   uint32_t linepos;
 472:Drivers/STM32F4xx_HAL_Driver/Src/stm32f4xx_hal_exti.c ****   uint32_t maskline;
 473:Drivers/STM32F4xx_HAL_Driver/Src/stm32f4xx_hal_exti.c **** 
 474:Drivers/STM32F4xx_HAL_Driver/Src/stm32f4xx_hal_exti.c ****   /* Check parameters */
 475:Drivers/STM32F4xx_HAL_Driver/Src/stm32f4xx_hal_exti.c ****   assert_param(IS_EXTI_LINE(hexti->Line));
 476:Drivers/STM32F4xx_HAL_Driver/Src/stm32f4xx_hal_exti.c ****   assert_param(IS_EXTI_CONFIG_LINE(hexti->Line));
 477:Drivers/STM32F4xx_HAL_Driver/Src/stm32f4xx_hal_exti.c ****   assert_param(IS_EXTI_PENDING_EDGE(Edge));
 478:Drivers/STM32F4xx_HAL_Driver/Src/stm32f4xx_hal_exti.c **** 
 479:Drivers/STM32F4xx_HAL_Driver/Src/stm32f4xx_hal_exti.c ****   /* Compute line mask */
 480:Drivers/STM32F4xx_HAL_Driver/Src/stm32f4xx_hal_exti.c ****   linepos = (hexti->Line & EXTI_PIN_MASK);
 877              		.loc 1 480 19
 878 000a 7B68     		ldr	r3, [r7, #4]
 879 000c 1B68     		ldr	r3, [r3]
 880              		.loc 1 480 11
 881 000e 03F01F03 		and	r3, r3, #31
 882 0012 7B61     		str	r3, [r7, #20]
 481:Drivers/STM32F4xx_HAL_Driver/Src/stm32f4xx_hal_exti.c ****   maskline = (1uL << linepos);
 883              		.loc 1 481 12
 884 0014 0122     		movs	r2, #1
 885 0016 7B69     		ldr	r3, [r7, #20]
 886 0018 02FA03F3 		lsl	r3, r2, r3
 887 001c 3B61     		str	r3, [r7, #16]
 482:Drivers/STM32F4xx_HAL_Driver/Src/stm32f4xx_hal_exti.c **** 
 483:Drivers/STM32F4xx_HAL_Driver/Src/stm32f4xx_hal_exti.c ****   /* return 1 if bit is set else 0 */
 484:Drivers/STM32F4xx_HAL_Driver/Src/stm32f4xx_hal_exti.c ****   regval = ((EXTI->PR & maskline) >> linepos);
 888              		.loc 1 484 18
 889 001e 074B     		ldr	r3, .L48
 890 0020 5A69     		ldr	r2, [r3, #20]
 891              		.loc 1 484 23
 892 0022 3B69     		ldr	r3, [r7, #16]
 893 0024 1A40     		ands	r2, r2, r3
 894              		.loc 1 484 10
 895 0026 7B69     		ldr	r3, [r7, #20]
 896 0028 22FA03F3 		lsr	r3, r2, r3
 897 002c FB60     		str	r3, [r7, #12]
ARM GAS  /var/folders/06/9k7gq4t13mj84z2yhw3grvhc0000gn/T//ccIrgumz.s 			page 25


 485:Drivers/STM32F4xx_HAL_Driver/Src/stm32f4xx_hal_exti.c ****   return regval;
 898              		.loc 1 485 10
 899 002e FB68     		ldr	r3, [r7, #12]
 486:Drivers/STM32F4xx_HAL_Driver/Src/stm32f4xx_hal_exti.c **** }
 900              		.loc 1 486 1
 901 0030 1846     		mov	r0, r3
 902 0032 1C37     		adds	r7, r7, #28
 903              	.LCFI38:
 904              		.cfi_def_cfa_offset 4
 905 0034 BD46     		mov	sp, r7
 906              	.LCFI39:
 907              		.cfi_def_cfa_register 13
 908              		@ sp needed
 909 0036 5DF8047B 		ldr	r7, [sp], #4
 910              	.LCFI40:
 911              		.cfi_restore 7
 912              		.cfi_def_cfa_offset 0
 913 003a 7047     		bx	lr
 914              	.L49:
 915              		.align	2
 916              	.L48:
 917 003c 003C0140 		.word	1073822720
 918              		.cfi_endproc
 919              	.LFE140:
 921              		.section	.text.HAL_EXTI_ClearPending,"ax",%progbits
 922              		.align	1
 923              		.global	HAL_EXTI_ClearPending
 924              		.syntax unified
 925              		.thumb
 926              		.thumb_func
 928              	HAL_EXTI_ClearPending:
 929              	.LFB141:
 487:Drivers/STM32F4xx_HAL_Driver/Src/stm32f4xx_hal_exti.c **** 
 488:Drivers/STM32F4xx_HAL_Driver/Src/stm32f4xx_hal_exti.c **** /**
 489:Drivers/STM32F4xx_HAL_Driver/Src/stm32f4xx_hal_exti.c ****   * @brief  Clear interrupt pending bit of a dedicated line.
 490:Drivers/STM32F4xx_HAL_Driver/Src/stm32f4xx_hal_exti.c ****   * @param  hexti Exti handle.
 491:Drivers/STM32F4xx_HAL_Driver/Src/stm32f4xx_hal_exti.c ****   * @param  Edge Specify which pending edge as to be clear.
 492:Drivers/STM32F4xx_HAL_Driver/Src/stm32f4xx_hal_exti.c ****   *         This parameter can be one of the following values:
 493:Drivers/STM32F4xx_HAL_Driver/Src/stm32f4xx_hal_exti.c ****   *           @arg @ref EXTI_TRIGGER_RISING_FALLING
 494:Drivers/STM32F4xx_HAL_Driver/Src/stm32f4xx_hal_exti.c ****   *         This parameter is kept for compatibility with other series.
 495:Drivers/STM32F4xx_HAL_Driver/Src/stm32f4xx_hal_exti.c ****   * @retval None.
 496:Drivers/STM32F4xx_HAL_Driver/Src/stm32f4xx_hal_exti.c ****   */
 497:Drivers/STM32F4xx_HAL_Driver/Src/stm32f4xx_hal_exti.c **** void HAL_EXTI_ClearPending(EXTI_HandleTypeDef *hexti, uint32_t Edge)
 498:Drivers/STM32F4xx_HAL_Driver/Src/stm32f4xx_hal_exti.c **** {
 930              		.loc 1 498 1
 931              		.cfi_startproc
 932              		@ args = 0, pretend = 0, frame = 16
 933              		@ frame_needed = 1, uses_anonymous_args = 0
 934              		@ link register save eliminated.
 935 0000 80B4     		push	{r7}
 936              	.LCFI41:
 937              		.cfi_def_cfa_offset 4
 938              		.cfi_offset 7, -4
 939 0002 85B0     		sub	sp, sp, #20
 940              	.LCFI42:
 941              		.cfi_def_cfa_offset 24
 942 0004 00AF     		add	r7, sp, #0
ARM GAS  /var/folders/06/9k7gq4t13mj84z2yhw3grvhc0000gn/T//ccIrgumz.s 			page 26


 943              	.LCFI43:
 944              		.cfi_def_cfa_register 7
 945 0006 7860     		str	r0, [r7, #4]
 946 0008 3960     		str	r1, [r7]
 499:Drivers/STM32F4xx_HAL_Driver/Src/stm32f4xx_hal_exti.c ****   uint32_t maskline;
 500:Drivers/STM32F4xx_HAL_Driver/Src/stm32f4xx_hal_exti.c **** 
 501:Drivers/STM32F4xx_HAL_Driver/Src/stm32f4xx_hal_exti.c ****   /* Check parameters */
 502:Drivers/STM32F4xx_HAL_Driver/Src/stm32f4xx_hal_exti.c ****   assert_param(IS_EXTI_LINE(hexti->Line));
 503:Drivers/STM32F4xx_HAL_Driver/Src/stm32f4xx_hal_exti.c ****   assert_param(IS_EXTI_CONFIG_LINE(hexti->Line));
 504:Drivers/STM32F4xx_HAL_Driver/Src/stm32f4xx_hal_exti.c ****   assert_param(IS_EXTI_PENDING_EDGE(Edge));
 505:Drivers/STM32F4xx_HAL_Driver/Src/stm32f4xx_hal_exti.c **** 
 506:Drivers/STM32F4xx_HAL_Driver/Src/stm32f4xx_hal_exti.c ****   /* Compute line mask */
 507:Drivers/STM32F4xx_HAL_Driver/Src/stm32f4xx_hal_exti.c ****   maskline = (1uL << (hexti->Line & EXTI_PIN_MASK));
 947              		.loc 1 507 28
 948 000a 7B68     		ldr	r3, [r7, #4]
 949 000c 1B68     		ldr	r3, [r3]
 950              		.loc 1 507 35
 951 000e 03F01F03 		and	r3, r3, #31
 952              		.loc 1 507 12
 953 0012 0122     		movs	r2, #1
 954 0014 02FA03F3 		lsl	r3, r2, r3
 955 0018 FB60     		str	r3, [r7, #12]
 508:Drivers/STM32F4xx_HAL_Driver/Src/stm32f4xx_hal_exti.c **** 
 509:Drivers/STM32F4xx_HAL_Driver/Src/stm32f4xx_hal_exti.c ****   /* Clear Pending bit */
 510:Drivers/STM32F4xx_HAL_Driver/Src/stm32f4xx_hal_exti.c ****   EXTI->PR =  maskline;
 956              		.loc 1 510 7
 957 001a 044A     		ldr	r2, .L51
 958              		.loc 1 510 12
 959 001c FB68     		ldr	r3, [r7, #12]
 960 001e 5361     		str	r3, [r2, #20]
 511:Drivers/STM32F4xx_HAL_Driver/Src/stm32f4xx_hal_exti.c **** }
 961              		.loc 1 511 1
 962 0020 00BF     		nop
 963 0022 1437     		adds	r7, r7, #20
 964              	.LCFI44:
 965              		.cfi_def_cfa_offset 4
 966 0024 BD46     		mov	sp, r7
 967              	.LCFI45:
 968              		.cfi_def_cfa_register 13
 969              		@ sp needed
 970 0026 5DF8047B 		ldr	r7, [sp], #4
 971              	.LCFI46:
 972              		.cfi_restore 7
 973              		.cfi_def_cfa_offset 0
 974 002a 7047     		bx	lr
 975              	.L52:
 976              		.align	2
 977              	.L51:
 978 002c 003C0140 		.word	1073822720
 979              		.cfi_endproc
 980              	.LFE141:
 982              		.section	.text.HAL_EXTI_GenerateSWI,"ax",%progbits
 983              		.align	1
 984              		.global	HAL_EXTI_GenerateSWI
 985              		.syntax unified
 986              		.thumb
 987              		.thumb_func
ARM GAS  /var/folders/06/9k7gq4t13mj84z2yhw3grvhc0000gn/T//ccIrgumz.s 			page 27


 989              	HAL_EXTI_GenerateSWI:
 990              	.LFB142:
 512:Drivers/STM32F4xx_HAL_Driver/Src/stm32f4xx_hal_exti.c **** 
 513:Drivers/STM32F4xx_HAL_Driver/Src/stm32f4xx_hal_exti.c **** /**
 514:Drivers/STM32F4xx_HAL_Driver/Src/stm32f4xx_hal_exti.c ****   * @brief  Generate a software interrupt for a dedicated line.
 515:Drivers/STM32F4xx_HAL_Driver/Src/stm32f4xx_hal_exti.c ****   * @param  hexti Exti handle.
 516:Drivers/STM32F4xx_HAL_Driver/Src/stm32f4xx_hal_exti.c ****   * @retval None.
 517:Drivers/STM32F4xx_HAL_Driver/Src/stm32f4xx_hal_exti.c ****   */
 518:Drivers/STM32F4xx_HAL_Driver/Src/stm32f4xx_hal_exti.c **** void HAL_EXTI_GenerateSWI(EXTI_HandleTypeDef *hexti)
 519:Drivers/STM32F4xx_HAL_Driver/Src/stm32f4xx_hal_exti.c **** {
 991              		.loc 1 519 1
 992              		.cfi_startproc
 993              		@ args = 0, pretend = 0, frame = 16
 994              		@ frame_needed = 1, uses_anonymous_args = 0
 995              		@ link register save eliminated.
 996 0000 80B4     		push	{r7}
 997              	.LCFI47:
 998              		.cfi_def_cfa_offset 4
 999              		.cfi_offset 7, -4
 1000 0002 85B0     		sub	sp, sp, #20
 1001              	.LCFI48:
 1002              		.cfi_def_cfa_offset 24
 1003 0004 00AF     		add	r7, sp, #0
 1004              	.LCFI49:
 1005              		.cfi_def_cfa_register 7
 1006 0006 7860     		str	r0, [r7, #4]
 520:Drivers/STM32F4xx_HAL_Driver/Src/stm32f4xx_hal_exti.c ****   uint32_t maskline;
 521:Drivers/STM32F4xx_HAL_Driver/Src/stm32f4xx_hal_exti.c **** 
 522:Drivers/STM32F4xx_HAL_Driver/Src/stm32f4xx_hal_exti.c ****   /* Check parameters */
 523:Drivers/STM32F4xx_HAL_Driver/Src/stm32f4xx_hal_exti.c ****   assert_param(IS_EXTI_LINE(hexti->Line));
 524:Drivers/STM32F4xx_HAL_Driver/Src/stm32f4xx_hal_exti.c ****   assert_param(IS_EXTI_CONFIG_LINE(hexti->Line));
 525:Drivers/STM32F4xx_HAL_Driver/Src/stm32f4xx_hal_exti.c **** 
 526:Drivers/STM32F4xx_HAL_Driver/Src/stm32f4xx_hal_exti.c ****   /* Compute line mask */
 527:Drivers/STM32F4xx_HAL_Driver/Src/stm32f4xx_hal_exti.c ****   maskline = (1uL << (hexti->Line & EXTI_PIN_MASK));
 1007              		.loc 1 527 28
 1008 0008 7B68     		ldr	r3, [r7, #4]
 1009 000a 1B68     		ldr	r3, [r3]
 1010              		.loc 1 527 35
 1011 000c 03F01F03 		and	r3, r3, #31
 1012              		.loc 1 527 12
 1013 0010 0122     		movs	r2, #1
 1014 0012 02FA03F3 		lsl	r3, r2, r3
 1015 0016 FB60     		str	r3, [r7, #12]
 528:Drivers/STM32F4xx_HAL_Driver/Src/stm32f4xx_hal_exti.c **** 
 529:Drivers/STM32F4xx_HAL_Driver/Src/stm32f4xx_hal_exti.c ****   /* Generate Software interrupt */
 530:Drivers/STM32F4xx_HAL_Driver/Src/stm32f4xx_hal_exti.c ****   EXTI->SWIER = maskline;
 1016              		.loc 1 530 7
 1017 0018 044A     		ldr	r2, .L54
 1018              		.loc 1 530 15
 1019 001a FB68     		ldr	r3, [r7, #12]
 1020 001c 1361     		str	r3, [r2, #16]
 531:Drivers/STM32F4xx_HAL_Driver/Src/stm32f4xx_hal_exti.c **** }
 1021              		.loc 1 531 1
 1022 001e 00BF     		nop
 1023 0020 1437     		adds	r7, r7, #20
 1024              	.LCFI50:
 1025              		.cfi_def_cfa_offset 4
ARM GAS  /var/folders/06/9k7gq4t13mj84z2yhw3grvhc0000gn/T//ccIrgumz.s 			page 28


 1026 0022 BD46     		mov	sp, r7
 1027              	.LCFI51:
 1028              		.cfi_def_cfa_register 13
 1029              		@ sp needed
 1030 0024 5DF8047B 		ldr	r7, [sp], #4
 1031              	.LCFI52:
 1032              		.cfi_restore 7
 1033              		.cfi_def_cfa_offset 0
 1034 0028 7047     		bx	lr
 1035              	.L55:
 1036 002a 00BF     		.align	2
 1037              	.L54:
 1038 002c 003C0140 		.word	1073822720
 1039              		.cfi_endproc
 1040              	.LFE142:
 1042              		.text
 1043              	.Letext0:
 1044              		.file 2 "/Applications/ArmGNUToolchain/13.2.Rel1/arm-none-eabi/arm-none-eabi/include/machine/_defa
 1045              		.file 3 "/Applications/ArmGNUToolchain/13.2.Rel1/arm-none-eabi/arm-none-eabi/include/sys/_stdint.h
 1046              		.file 4 "Drivers/CMSIS/Device/ST/STM32F4xx/Include/stm32f429xx.h"
 1047              		.file 5 "Drivers/STM32F4xx_HAL_Driver/Inc/stm32f4xx_hal_def.h"
 1048              		.file 6 "Drivers/STM32F4xx_HAL_Driver/Inc/stm32f4xx_hal_exti.h"
ARM GAS  /var/folders/06/9k7gq4t13mj84z2yhw3grvhc0000gn/T//ccIrgumz.s 			page 29

