ARM GAS  /var/folders/06/9k7gq4t13mj84z2yhw3grvhc0000gn/T//ccuiTnhW.s 			page 1


   1              		.cpu cortex-m4
   2              		.arch armv7e-m
   3              		.fpu fpv4-sp-d16
   4              		.eabi_attribute 27, 1
   5              		.eabi_attribute 28, 1
   6              		.eabi_attribute 20, 1
   7              		.eabi_attribute 21, 1
   8              		.eabi_attribute 23, 3
   9              		.eabi_attribute 24, 1
  10              		.eabi_attribute 25, 1
  11              		.eabi_attribute 26, 1
  12              		.eabi_attribute 30, 6
  13              		.eabi_attribute 34, 1
  14              		.eabi_attribute 18, 4
  15              		.file	"stm32f4xx_hal_ltdc.c"
  16              		.text
  17              	.Ltext0:
  18              		.cfi_sections	.debug_frame
  19              		.file 1 "Drivers/STM32F4xx_HAL_Driver/Src/stm32f4xx_hal_ltdc.c"
  20              		.section	.text.HAL_LTDC_Init,"ax",%progbits
  21              		.align	1
  22              		.global	HAL_LTDC_Init
  23              		.syntax unified
  24              		.thumb
  25              		.thumb_func
  27              	HAL_LTDC_Init:
  28              	.LFB134:
   1:Drivers/STM32F4xx_HAL_Driver/Src/stm32f4xx_hal_ltdc.c **** /**
   2:Drivers/STM32F4xx_HAL_Driver/Src/stm32f4xx_hal_ltdc.c ****   ******************************************************************************
   3:Drivers/STM32F4xx_HAL_Driver/Src/stm32f4xx_hal_ltdc.c ****   * @file    stm32f4xx_hal_ltdc.c
   4:Drivers/STM32F4xx_HAL_Driver/Src/stm32f4xx_hal_ltdc.c ****   * @author  MCD Application Team
   5:Drivers/STM32F4xx_HAL_Driver/Src/stm32f4xx_hal_ltdc.c ****   * @brief   LTDC HAL module driver.
   6:Drivers/STM32F4xx_HAL_Driver/Src/stm32f4xx_hal_ltdc.c ****   *          This file provides firmware functions to manage the following
   7:Drivers/STM32F4xx_HAL_Driver/Src/stm32f4xx_hal_ltdc.c ****   *          functionalities of the LTDC peripheral:
   8:Drivers/STM32F4xx_HAL_Driver/Src/stm32f4xx_hal_ltdc.c ****   *           + Initialization and de-initialization functions
   9:Drivers/STM32F4xx_HAL_Driver/Src/stm32f4xx_hal_ltdc.c ****   *           + IO operation functions
  10:Drivers/STM32F4xx_HAL_Driver/Src/stm32f4xx_hal_ltdc.c ****   *           + Peripheral Control functions
  11:Drivers/STM32F4xx_HAL_Driver/Src/stm32f4xx_hal_ltdc.c ****   *           + Peripheral State and Errors functions
  12:Drivers/STM32F4xx_HAL_Driver/Src/stm32f4xx_hal_ltdc.c ****   *
  13:Drivers/STM32F4xx_HAL_Driver/Src/stm32f4xx_hal_ltdc.c ****   ******************************************************************************
  14:Drivers/STM32F4xx_HAL_Driver/Src/stm32f4xx_hal_ltdc.c ****   * @attention
  15:Drivers/STM32F4xx_HAL_Driver/Src/stm32f4xx_hal_ltdc.c ****   *
  16:Drivers/STM32F4xx_HAL_Driver/Src/stm32f4xx_hal_ltdc.c ****   * Copyright (c) 2016 STMicroelectronics.
  17:Drivers/STM32F4xx_HAL_Driver/Src/stm32f4xx_hal_ltdc.c ****   * All rights reserved.
  18:Drivers/STM32F4xx_HAL_Driver/Src/stm32f4xx_hal_ltdc.c ****   *
  19:Drivers/STM32F4xx_HAL_Driver/Src/stm32f4xx_hal_ltdc.c ****   * This software is licensed under terms that can be found in the LICENSE file
  20:Drivers/STM32F4xx_HAL_Driver/Src/stm32f4xx_hal_ltdc.c ****   * in the root directory of this software component.
  21:Drivers/STM32F4xx_HAL_Driver/Src/stm32f4xx_hal_ltdc.c ****   * If no LICENSE file comes with this software, it is provided AS-IS.
  22:Drivers/STM32F4xx_HAL_Driver/Src/stm32f4xx_hal_ltdc.c ****   *
  23:Drivers/STM32F4xx_HAL_Driver/Src/stm32f4xx_hal_ltdc.c ****   ******************************************************************************
  24:Drivers/STM32F4xx_HAL_Driver/Src/stm32f4xx_hal_ltdc.c ****   @verbatim
  25:Drivers/STM32F4xx_HAL_Driver/Src/stm32f4xx_hal_ltdc.c ****   ==============================================================================
  26:Drivers/STM32F4xx_HAL_Driver/Src/stm32f4xx_hal_ltdc.c ****                         ##### How to use this driver #####
  27:Drivers/STM32F4xx_HAL_Driver/Src/stm32f4xx_hal_ltdc.c ****   ==============================================================================
  28:Drivers/STM32F4xx_HAL_Driver/Src/stm32f4xx_hal_ltdc.c ****      [..]
  29:Drivers/STM32F4xx_HAL_Driver/Src/stm32f4xx_hal_ltdc.c ****      The LTDC HAL driver can be used as follows:
  30:Drivers/STM32F4xx_HAL_Driver/Src/stm32f4xx_hal_ltdc.c **** 
ARM GAS  /var/folders/06/9k7gq4t13mj84z2yhw3grvhc0000gn/T//ccuiTnhW.s 			page 2


  31:Drivers/STM32F4xx_HAL_Driver/Src/stm32f4xx_hal_ltdc.c ****      (#) Declare a LTDC_HandleTypeDef handle structure, for example: LTDC_HandleTypeDef  hltdc;
  32:Drivers/STM32F4xx_HAL_Driver/Src/stm32f4xx_hal_ltdc.c **** 
  33:Drivers/STM32F4xx_HAL_Driver/Src/stm32f4xx_hal_ltdc.c ****      (#) Initialize the LTDC low level resources by implementing the HAL_LTDC_MspInit() API:
  34:Drivers/STM32F4xx_HAL_Driver/Src/stm32f4xx_hal_ltdc.c ****          (##) Enable the LTDC interface clock
  35:Drivers/STM32F4xx_HAL_Driver/Src/stm32f4xx_hal_ltdc.c ****          (##) NVIC configuration if you need to use interrupt process
  36:Drivers/STM32F4xx_HAL_Driver/Src/stm32f4xx_hal_ltdc.c ****              (+++) Configure the LTDC interrupt priority
  37:Drivers/STM32F4xx_HAL_Driver/Src/stm32f4xx_hal_ltdc.c ****              (+++) Enable the NVIC LTDC IRQ Channel
  38:Drivers/STM32F4xx_HAL_Driver/Src/stm32f4xx_hal_ltdc.c **** 
  39:Drivers/STM32F4xx_HAL_Driver/Src/stm32f4xx_hal_ltdc.c ****      (#) Initialize the required configuration through the following parameters:
  40:Drivers/STM32F4xx_HAL_Driver/Src/stm32f4xx_hal_ltdc.c ****          the LTDC timing, the horizontal and vertical polarity, the pixel clock polarity,
  41:Drivers/STM32F4xx_HAL_Driver/Src/stm32f4xx_hal_ltdc.c ****          Data Enable polarity and the LTDC background color value using HAL_LTDC_Init() function
  42:Drivers/STM32F4xx_HAL_Driver/Src/stm32f4xx_hal_ltdc.c **** 
  43:Drivers/STM32F4xx_HAL_Driver/Src/stm32f4xx_hal_ltdc.c ****      *** Configuration ***
  44:Drivers/STM32F4xx_HAL_Driver/Src/stm32f4xx_hal_ltdc.c ****      =========================
  45:Drivers/STM32F4xx_HAL_Driver/Src/stm32f4xx_hal_ltdc.c ****      [..]
  46:Drivers/STM32F4xx_HAL_Driver/Src/stm32f4xx_hal_ltdc.c ****      (#) Program the required configuration through the following parameters:
  47:Drivers/STM32F4xx_HAL_Driver/Src/stm32f4xx_hal_ltdc.c ****          the pixel format, the blending factors, input alpha value, the window size
  48:Drivers/STM32F4xx_HAL_Driver/Src/stm32f4xx_hal_ltdc.c ****          and the image size using HAL_LTDC_ConfigLayer() function for foreground
  49:Drivers/STM32F4xx_HAL_Driver/Src/stm32f4xx_hal_ltdc.c ****          or/and background layer.
  50:Drivers/STM32F4xx_HAL_Driver/Src/stm32f4xx_hal_ltdc.c **** 
  51:Drivers/STM32F4xx_HAL_Driver/Src/stm32f4xx_hal_ltdc.c ****      (#) Optionally, configure and enable the CLUT using HAL_LTDC_ConfigCLUT() and
  52:Drivers/STM32F4xx_HAL_Driver/Src/stm32f4xx_hal_ltdc.c ****          HAL_LTDC_EnableCLUT functions.
  53:Drivers/STM32F4xx_HAL_Driver/Src/stm32f4xx_hal_ltdc.c **** 
  54:Drivers/STM32F4xx_HAL_Driver/Src/stm32f4xx_hal_ltdc.c ****      (#) Optionally, enable the Dither using HAL_LTDC_EnableDither().
  55:Drivers/STM32F4xx_HAL_Driver/Src/stm32f4xx_hal_ltdc.c **** 
  56:Drivers/STM32F4xx_HAL_Driver/Src/stm32f4xx_hal_ltdc.c ****      (#) Optionally, configure and enable the Color keying using HAL_LTDC_ConfigColorKeying()
  57:Drivers/STM32F4xx_HAL_Driver/Src/stm32f4xx_hal_ltdc.c ****          and HAL_LTDC_EnableColorKeying functions.
  58:Drivers/STM32F4xx_HAL_Driver/Src/stm32f4xx_hal_ltdc.c **** 
  59:Drivers/STM32F4xx_HAL_Driver/Src/stm32f4xx_hal_ltdc.c ****      (#) Optionally, configure LineInterrupt using HAL_LTDC_ProgramLineEvent()
  60:Drivers/STM32F4xx_HAL_Driver/Src/stm32f4xx_hal_ltdc.c ****          function
  61:Drivers/STM32F4xx_HAL_Driver/Src/stm32f4xx_hal_ltdc.c **** 
  62:Drivers/STM32F4xx_HAL_Driver/Src/stm32f4xx_hal_ltdc.c ****      (#) If needed, reconfigure and change the pixel format value, the alpha value
  63:Drivers/STM32F4xx_HAL_Driver/Src/stm32f4xx_hal_ltdc.c ****          value, the window size, the window position and the layer start address
  64:Drivers/STM32F4xx_HAL_Driver/Src/stm32f4xx_hal_ltdc.c ****          for foreground or/and background layer using respectively the following
  65:Drivers/STM32F4xx_HAL_Driver/Src/stm32f4xx_hal_ltdc.c ****          functions: HAL_LTDC_SetPixelFormat(), HAL_LTDC_SetAlpha(), HAL_LTDC_SetWindowSize(),
  66:Drivers/STM32F4xx_HAL_Driver/Src/stm32f4xx_hal_ltdc.c ****          HAL_LTDC_SetWindowPosition() and HAL_LTDC_SetAddress().
  67:Drivers/STM32F4xx_HAL_Driver/Src/stm32f4xx_hal_ltdc.c **** 
  68:Drivers/STM32F4xx_HAL_Driver/Src/stm32f4xx_hal_ltdc.c ****      (#) Variant functions with _NoReload suffix allows to set the LTDC configuration/settings with
  69:Drivers/STM32F4xx_HAL_Driver/Src/stm32f4xx_hal_ltdc.c ****          This is useful in case when the program requires to modify serval LTDC settings (on one or
  70:Drivers/STM32F4xx_HAL_Driver/Src/stm32f4xx_hal_ltdc.c ****          then applying(reload) these settings in one shot by calling the function HAL_LTDC_Reload()
  71:Drivers/STM32F4xx_HAL_Driver/Src/stm32f4xx_hal_ltdc.c **** 
  72:Drivers/STM32F4xx_HAL_Driver/Src/stm32f4xx_hal_ltdc.c ****          After calling the _NoReload functions to set different color/format/layer settings,
  73:Drivers/STM32F4xx_HAL_Driver/Src/stm32f4xx_hal_ltdc.c ****          the program shall call the function HAL_LTDC_Reload() to apply(reload) these settings.
  74:Drivers/STM32F4xx_HAL_Driver/Src/stm32f4xx_hal_ltdc.c ****          Function HAL_LTDC_Reload() can be called with the parameter ReloadType set to LTDC_RELOAD_
  75:Drivers/STM32F4xx_HAL_Driver/Src/stm32f4xx_hal_ltdc.c ****          an immediate reload is required.
  76:Drivers/STM32F4xx_HAL_Driver/Src/stm32f4xx_hal_ltdc.c ****          Function HAL_LTDC_Reload() can be called with the parameter ReloadType set to LTDC_RELOAD_
  77:Drivers/STM32F4xx_HAL_Driver/Src/stm32f4xx_hal_ltdc.c ****          the reload should be done in the next vertical blanking period,
  78:Drivers/STM32F4xx_HAL_Driver/Src/stm32f4xx_hal_ltdc.c ****          this option allows to avoid display flicker by applying the new settings during the vertic
  79:Drivers/STM32F4xx_HAL_Driver/Src/stm32f4xx_hal_ltdc.c **** 
  80:Drivers/STM32F4xx_HAL_Driver/Src/stm32f4xx_hal_ltdc.c **** 
  81:Drivers/STM32F4xx_HAL_Driver/Src/stm32f4xx_hal_ltdc.c ****      (#) To control LTDC state you can use the following function: HAL_LTDC_GetState()
  82:Drivers/STM32F4xx_HAL_Driver/Src/stm32f4xx_hal_ltdc.c **** 
  83:Drivers/STM32F4xx_HAL_Driver/Src/stm32f4xx_hal_ltdc.c ****      *** LTDC HAL driver macros list ***
  84:Drivers/STM32F4xx_HAL_Driver/Src/stm32f4xx_hal_ltdc.c ****      =============================================
  85:Drivers/STM32F4xx_HAL_Driver/Src/stm32f4xx_hal_ltdc.c ****      [..]
  86:Drivers/STM32F4xx_HAL_Driver/Src/stm32f4xx_hal_ltdc.c ****        Below the list of most used macros in LTDC HAL driver.
  87:Drivers/STM32F4xx_HAL_Driver/Src/stm32f4xx_hal_ltdc.c **** 
ARM GAS  /var/folders/06/9k7gq4t13mj84z2yhw3grvhc0000gn/T//ccuiTnhW.s 			page 3


  88:Drivers/STM32F4xx_HAL_Driver/Src/stm32f4xx_hal_ltdc.c ****       (+) __HAL_LTDC_ENABLE: Enable the LTDC.
  89:Drivers/STM32F4xx_HAL_Driver/Src/stm32f4xx_hal_ltdc.c ****       (+) __HAL_LTDC_DISABLE: Disable the LTDC.
  90:Drivers/STM32F4xx_HAL_Driver/Src/stm32f4xx_hal_ltdc.c ****       (+) __HAL_LTDC_LAYER_ENABLE: Enable an LTDC Layer.
  91:Drivers/STM32F4xx_HAL_Driver/Src/stm32f4xx_hal_ltdc.c ****       (+) __HAL_LTDC_LAYER_DISABLE: Disable an LTDC Layer.
  92:Drivers/STM32F4xx_HAL_Driver/Src/stm32f4xx_hal_ltdc.c ****       (+) __HAL_LTDC_RELOAD_IMMEDIATE_CONFIG: Reload  Layer Configuration.
  93:Drivers/STM32F4xx_HAL_Driver/Src/stm32f4xx_hal_ltdc.c ****       (+) __HAL_LTDC_GET_FLAG: Get the LTDC pending flags.
  94:Drivers/STM32F4xx_HAL_Driver/Src/stm32f4xx_hal_ltdc.c ****       (+) __HAL_LTDC_CLEAR_FLAG: Clear the LTDC pending flags.
  95:Drivers/STM32F4xx_HAL_Driver/Src/stm32f4xx_hal_ltdc.c ****       (+) __HAL_LTDC_ENABLE_IT: Enable the specified LTDC interrupts.
  96:Drivers/STM32F4xx_HAL_Driver/Src/stm32f4xx_hal_ltdc.c ****       (+) __HAL_LTDC_DISABLE_IT: Disable the specified LTDC interrupts.
  97:Drivers/STM32F4xx_HAL_Driver/Src/stm32f4xx_hal_ltdc.c ****       (+) __HAL_LTDC_GET_IT_SOURCE: Check whether the specified LTDC interrupt has occurred or not.
  98:Drivers/STM32F4xx_HAL_Driver/Src/stm32f4xx_hal_ltdc.c **** 
  99:Drivers/STM32F4xx_HAL_Driver/Src/stm32f4xx_hal_ltdc.c ****      [..]
 100:Drivers/STM32F4xx_HAL_Driver/Src/stm32f4xx_hal_ltdc.c ****        (@) You can refer to the LTDC HAL driver header file for more useful macros
 101:Drivers/STM32F4xx_HAL_Driver/Src/stm32f4xx_hal_ltdc.c **** 
 102:Drivers/STM32F4xx_HAL_Driver/Src/stm32f4xx_hal_ltdc.c **** 
 103:Drivers/STM32F4xx_HAL_Driver/Src/stm32f4xx_hal_ltdc.c ****      *** Callback registration ***
 104:Drivers/STM32F4xx_HAL_Driver/Src/stm32f4xx_hal_ltdc.c ****      =============================================
 105:Drivers/STM32F4xx_HAL_Driver/Src/stm32f4xx_hal_ltdc.c ****      [..]
 106:Drivers/STM32F4xx_HAL_Driver/Src/stm32f4xx_hal_ltdc.c ****      The compilation define  USE_HAL_LTDC_REGISTER_CALLBACKS when set to 1
 107:Drivers/STM32F4xx_HAL_Driver/Src/stm32f4xx_hal_ltdc.c ****      allows the user to configure dynamically the driver callbacks.
 108:Drivers/STM32F4xx_HAL_Driver/Src/stm32f4xx_hal_ltdc.c ****      Use function HAL_LTDC_RegisterCallback() to register a callback.
 109:Drivers/STM32F4xx_HAL_Driver/Src/stm32f4xx_hal_ltdc.c **** 
 110:Drivers/STM32F4xx_HAL_Driver/Src/stm32f4xx_hal_ltdc.c ****     [..]
 111:Drivers/STM32F4xx_HAL_Driver/Src/stm32f4xx_hal_ltdc.c ****     Function HAL_LTDC_RegisterCallback() allows to register following callbacks:
 112:Drivers/STM32F4xx_HAL_Driver/Src/stm32f4xx_hal_ltdc.c ****       (+) LineEventCallback   : LTDC Line Event Callback.
 113:Drivers/STM32F4xx_HAL_Driver/Src/stm32f4xx_hal_ltdc.c ****       (+) ReloadEventCallback : LTDC Reload Event Callback.
 114:Drivers/STM32F4xx_HAL_Driver/Src/stm32f4xx_hal_ltdc.c ****       (+) ErrorCallback       : LTDC Error Callback
 115:Drivers/STM32F4xx_HAL_Driver/Src/stm32f4xx_hal_ltdc.c ****       (+) MspInitCallback     : LTDC MspInit.
 116:Drivers/STM32F4xx_HAL_Driver/Src/stm32f4xx_hal_ltdc.c ****       (+) MspDeInitCallback   : LTDC MspDeInit.
 117:Drivers/STM32F4xx_HAL_Driver/Src/stm32f4xx_hal_ltdc.c ****     [..]
 118:Drivers/STM32F4xx_HAL_Driver/Src/stm32f4xx_hal_ltdc.c ****     This function takes as parameters the HAL peripheral handle, the callback ID
 119:Drivers/STM32F4xx_HAL_Driver/Src/stm32f4xx_hal_ltdc.c ****     and a pointer to the user callback function.
 120:Drivers/STM32F4xx_HAL_Driver/Src/stm32f4xx_hal_ltdc.c **** 
 121:Drivers/STM32F4xx_HAL_Driver/Src/stm32f4xx_hal_ltdc.c ****     [..]
 122:Drivers/STM32F4xx_HAL_Driver/Src/stm32f4xx_hal_ltdc.c ****     Use function HAL_LTDC_UnRegisterCallback() to reset a callback to the default
 123:Drivers/STM32F4xx_HAL_Driver/Src/stm32f4xx_hal_ltdc.c ****     weak function.
 124:Drivers/STM32F4xx_HAL_Driver/Src/stm32f4xx_hal_ltdc.c ****     HAL_LTDC_UnRegisterCallback() takes as parameters the HAL peripheral handle
 125:Drivers/STM32F4xx_HAL_Driver/Src/stm32f4xx_hal_ltdc.c ****     and the callback ID.
 126:Drivers/STM32F4xx_HAL_Driver/Src/stm32f4xx_hal_ltdc.c ****     [..]
 127:Drivers/STM32F4xx_HAL_Driver/Src/stm32f4xx_hal_ltdc.c ****     This function allows to reset following callbacks:
 128:Drivers/STM32F4xx_HAL_Driver/Src/stm32f4xx_hal_ltdc.c ****       (+) LineEventCallback   : LTDC Line Event Callback
 129:Drivers/STM32F4xx_HAL_Driver/Src/stm32f4xx_hal_ltdc.c ****       (+) ReloadEventCallback : LTDC Reload Event Callback
 130:Drivers/STM32F4xx_HAL_Driver/Src/stm32f4xx_hal_ltdc.c ****       (+) ErrorCallback       : LTDC Error Callback
 131:Drivers/STM32F4xx_HAL_Driver/Src/stm32f4xx_hal_ltdc.c ****       (+) MspInitCallback     : LTDC MspInit
 132:Drivers/STM32F4xx_HAL_Driver/Src/stm32f4xx_hal_ltdc.c ****       (+) MspDeInitCallback   : LTDC MspDeInit.
 133:Drivers/STM32F4xx_HAL_Driver/Src/stm32f4xx_hal_ltdc.c **** 
 134:Drivers/STM32F4xx_HAL_Driver/Src/stm32f4xx_hal_ltdc.c ****     [..]
 135:Drivers/STM32F4xx_HAL_Driver/Src/stm32f4xx_hal_ltdc.c ****     By default, after the HAL_LTDC_Init and when the state is HAL_LTDC_STATE_RESET
 136:Drivers/STM32F4xx_HAL_Driver/Src/stm32f4xx_hal_ltdc.c ****     all callbacks are set to the corresponding weak functions:
 137:Drivers/STM32F4xx_HAL_Driver/Src/stm32f4xx_hal_ltdc.c ****     examples HAL_LTDC_LineEventCallback(), HAL_LTDC_ErrorCallback().
 138:Drivers/STM32F4xx_HAL_Driver/Src/stm32f4xx_hal_ltdc.c ****     Exception done for MspInit and MspDeInit functions that are
 139:Drivers/STM32F4xx_HAL_Driver/Src/stm32f4xx_hal_ltdc.c ****     reset to the legacy weak (surcharged) functions in the HAL_LTDC_Init() and HAL_LTDC_DeInit()
 140:Drivers/STM32F4xx_HAL_Driver/Src/stm32f4xx_hal_ltdc.c ****     only when these callbacks are null (not registered beforehand).
 141:Drivers/STM32F4xx_HAL_Driver/Src/stm32f4xx_hal_ltdc.c ****     If not, MspInit or MspDeInit are not null, the HAL_LTDC_Init() and HAL_LTDC_DeInit()
 142:Drivers/STM32F4xx_HAL_Driver/Src/stm32f4xx_hal_ltdc.c ****     keep and use the user MspInit/MspDeInit callbacks (registered beforehand).
 143:Drivers/STM32F4xx_HAL_Driver/Src/stm32f4xx_hal_ltdc.c **** 
 144:Drivers/STM32F4xx_HAL_Driver/Src/stm32f4xx_hal_ltdc.c ****     [..]
ARM GAS  /var/folders/06/9k7gq4t13mj84z2yhw3grvhc0000gn/T//ccuiTnhW.s 			page 4


 145:Drivers/STM32F4xx_HAL_Driver/Src/stm32f4xx_hal_ltdc.c ****     Callbacks can be registered/unregistered in HAL_LTDC_STATE_READY state only.
 146:Drivers/STM32F4xx_HAL_Driver/Src/stm32f4xx_hal_ltdc.c ****     Exception done MspInit/MspDeInit that can be registered/unregistered
 147:Drivers/STM32F4xx_HAL_Driver/Src/stm32f4xx_hal_ltdc.c ****     in HAL_LTDC_STATE_READY or HAL_LTDC_STATE_RESET state,
 148:Drivers/STM32F4xx_HAL_Driver/Src/stm32f4xx_hal_ltdc.c ****     thus registered (user) MspInit/DeInit callbacks can be used during the Init/DeInit.
 149:Drivers/STM32F4xx_HAL_Driver/Src/stm32f4xx_hal_ltdc.c ****     In that case first register the MspInit/MspDeInit user callbacks
 150:Drivers/STM32F4xx_HAL_Driver/Src/stm32f4xx_hal_ltdc.c ****     using HAL_LTDC_RegisterCallback() before calling HAL_LTDC_DeInit()
 151:Drivers/STM32F4xx_HAL_Driver/Src/stm32f4xx_hal_ltdc.c ****     or HAL_LTDC_Init() function.
 152:Drivers/STM32F4xx_HAL_Driver/Src/stm32f4xx_hal_ltdc.c **** 
 153:Drivers/STM32F4xx_HAL_Driver/Src/stm32f4xx_hal_ltdc.c ****     [..]
 154:Drivers/STM32F4xx_HAL_Driver/Src/stm32f4xx_hal_ltdc.c ****     When the compilation define USE_HAL_LTDC_REGISTER_CALLBACKS is set to 0 or
 155:Drivers/STM32F4xx_HAL_Driver/Src/stm32f4xx_hal_ltdc.c ****     not defined, the callback registration feature is not available and all callbacks
 156:Drivers/STM32F4xx_HAL_Driver/Src/stm32f4xx_hal_ltdc.c ****     are set to the corresponding weak functions.
 157:Drivers/STM32F4xx_HAL_Driver/Src/stm32f4xx_hal_ltdc.c **** 
 158:Drivers/STM32F4xx_HAL_Driver/Src/stm32f4xx_hal_ltdc.c ****   @endverbatim
 159:Drivers/STM32F4xx_HAL_Driver/Src/stm32f4xx_hal_ltdc.c ****   ******************************************************************************
 160:Drivers/STM32F4xx_HAL_Driver/Src/stm32f4xx_hal_ltdc.c ****   */
 161:Drivers/STM32F4xx_HAL_Driver/Src/stm32f4xx_hal_ltdc.c **** 
 162:Drivers/STM32F4xx_HAL_Driver/Src/stm32f4xx_hal_ltdc.c **** /* Includes ------------------------------------------------------------------*/
 163:Drivers/STM32F4xx_HAL_Driver/Src/stm32f4xx_hal_ltdc.c **** #include "stm32f4xx_hal.h"
 164:Drivers/STM32F4xx_HAL_Driver/Src/stm32f4xx_hal_ltdc.c **** 
 165:Drivers/STM32F4xx_HAL_Driver/Src/stm32f4xx_hal_ltdc.c **** /** @addtogroup STM32F4xx_HAL_Driver
 166:Drivers/STM32F4xx_HAL_Driver/Src/stm32f4xx_hal_ltdc.c ****   * @{
 167:Drivers/STM32F4xx_HAL_Driver/Src/stm32f4xx_hal_ltdc.c ****   */
 168:Drivers/STM32F4xx_HAL_Driver/Src/stm32f4xx_hal_ltdc.c **** 
 169:Drivers/STM32F4xx_HAL_Driver/Src/stm32f4xx_hal_ltdc.c **** #ifdef HAL_LTDC_MODULE_ENABLED
 170:Drivers/STM32F4xx_HAL_Driver/Src/stm32f4xx_hal_ltdc.c **** 
 171:Drivers/STM32F4xx_HAL_Driver/Src/stm32f4xx_hal_ltdc.c **** #if defined (LTDC)
 172:Drivers/STM32F4xx_HAL_Driver/Src/stm32f4xx_hal_ltdc.c **** 
 173:Drivers/STM32F4xx_HAL_Driver/Src/stm32f4xx_hal_ltdc.c **** /** @defgroup LTDC LTDC
 174:Drivers/STM32F4xx_HAL_Driver/Src/stm32f4xx_hal_ltdc.c ****   * @brief LTDC HAL module driver
 175:Drivers/STM32F4xx_HAL_Driver/Src/stm32f4xx_hal_ltdc.c ****   * @{
 176:Drivers/STM32F4xx_HAL_Driver/Src/stm32f4xx_hal_ltdc.c ****   */
 177:Drivers/STM32F4xx_HAL_Driver/Src/stm32f4xx_hal_ltdc.c **** 
 178:Drivers/STM32F4xx_HAL_Driver/Src/stm32f4xx_hal_ltdc.c **** 
 179:Drivers/STM32F4xx_HAL_Driver/Src/stm32f4xx_hal_ltdc.c **** /* Private typedef -----------------------------------------------------------*/
 180:Drivers/STM32F4xx_HAL_Driver/Src/stm32f4xx_hal_ltdc.c **** /* Private define ------------------------------------------------------------*/
 181:Drivers/STM32F4xx_HAL_Driver/Src/stm32f4xx_hal_ltdc.c **** /** @defgroup LTDC_Private_Define LTDC Private Define
 182:Drivers/STM32F4xx_HAL_Driver/Src/stm32f4xx_hal_ltdc.c ****   * @{
 183:Drivers/STM32F4xx_HAL_Driver/Src/stm32f4xx_hal_ltdc.c ****   */
 184:Drivers/STM32F4xx_HAL_Driver/Src/stm32f4xx_hal_ltdc.c **** #define LTDC_TIMEOUT_VALUE ((uint32_t)100U)  /* 100ms */
 185:Drivers/STM32F4xx_HAL_Driver/Src/stm32f4xx_hal_ltdc.c **** /**
 186:Drivers/STM32F4xx_HAL_Driver/Src/stm32f4xx_hal_ltdc.c ****   * @}
 187:Drivers/STM32F4xx_HAL_Driver/Src/stm32f4xx_hal_ltdc.c ****   */
 188:Drivers/STM32F4xx_HAL_Driver/Src/stm32f4xx_hal_ltdc.c **** /* Private macro -------------------------------------------------------------*/
 189:Drivers/STM32F4xx_HAL_Driver/Src/stm32f4xx_hal_ltdc.c **** /* Private variables ---------------------------------------------------------*/
 190:Drivers/STM32F4xx_HAL_Driver/Src/stm32f4xx_hal_ltdc.c **** /* Private function prototypes -----------------------------------------------*/
 191:Drivers/STM32F4xx_HAL_Driver/Src/stm32f4xx_hal_ltdc.c **** static void LTDC_SetConfig(LTDC_HandleTypeDef *hltdc, LTDC_LayerCfgTypeDef *pLayerCfg, uint32_t Lay
 192:Drivers/STM32F4xx_HAL_Driver/Src/stm32f4xx_hal_ltdc.c **** /* Private functions ---------------------------------------------------------*/
 193:Drivers/STM32F4xx_HAL_Driver/Src/stm32f4xx_hal_ltdc.c **** 
 194:Drivers/STM32F4xx_HAL_Driver/Src/stm32f4xx_hal_ltdc.c **** /** @defgroup LTDC_Exported_Functions LTDC Exported Functions
 195:Drivers/STM32F4xx_HAL_Driver/Src/stm32f4xx_hal_ltdc.c ****   * @{
 196:Drivers/STM32F4xx_HAL_Driver/Src/stm32f4xx_hal_ltdc.c ****   */
 197:Drivers/STM32F4xx_HAL_Driver/Src/stm32f4xx_hal_ltdc.c **** 
 198:Drivers/STM32F4xx_HAL_Driver/Src/stm32f4xx_hal_ltdc.c **** /** @defgroup LTDC_Exported_Functions_Group1 Initialization and Configuration functions
 199:Drivers/STM32F4xx_HAL_Driver/Src/stm32f4xx_hal_ltdc.c ****   *  @brief   Initialization and Configuration functions
 200:Drivers/STM32F4xx_HAL_Driver/Src/stm32f4xx_hal_ltdc.c ****   *
 201:Drivers/STM32F4xx_HAL_Driver/Src/stm32f4xx_hal_ltdc.c **** @verbatim
ARM GAS  /var/folders/06/9k7gq4t13mj84z2yhw3grvhc0000gn/T//ccuiTnhW.s 			page 5


 202:Drivers/STM32F4xx_HAL_Driver/Src/stm32f4xx_hal_ltdc.c ****  ===============================================================================
 203:Drivers/STM32F4xx_HAL_Driver/Src/stm32f4xx_hal_ltdc.c ****                 ##### Initialization and Configuration functions #####
 204:Drivers/STM32F4xx_HAL_Driver/Src/stm32f4xx_hal_ltdc.c ****  ===============================================================================
 205:Drivers/STM32F4xx_HAL_Driver/Src/stm32f4xx_hal_ltdc.c ****     [..]  This section provides functions allowing to:
 206:Drivers/STM32F4xx_HAL_Driver/Src/stm32f4xx_hal_ltdc.c ****       (+) Initialize and configure the LTDC
 207:Drivers/STM32F4xx_HAL_Driver/Src/stm32f4xx_hal_ltdc.c ****       (+) De-initialize the LTDC
 208:Drivers/STM32F4xx_HAL_Driver/Src/stm32f4xx_hal_ltdc.c **** 
 209:Drivers/STM32F4xx_HAL_Driver/Src/stm32f4xx_hal_ltdc.c **** @endverbatim
 210:Drivers/STM32F4xx_HAL_Driver/Src/stm32f4xx_hal_ltdc.c ****   * @{
 211:Drivers/STM32F4xx_HAL_Driver/Src/stm32f4xx_hal_ltdc.c ****   */
 212:Drivers/STM32F4xx_HAL_Driver/Src/stm32f4xx_hal_ltdc.c **** 
 213:Drivers/STM32F4xx_HAL_Driver/Src/stm32f4xx_hal_ltdc.c **** /**
 214:Drivers/STM32F4xx_HAL_Driver/Src/stm32f4xx_hal_ltdc.c ****   * @brief  Initialize the LTDC according to the specified parameters in the LTDC_InitTypeDef.
 215:Drivers/STM32F4xx_HAL_Driver/Src/stm32f4xx_hal_ltdc.c ****   * @param  hltdc  pointer to a LTDC_HandleTypeDef structure that contains
 216:Drivers/STM32F4xx_HAL_Driver/Src/stm32f4xx_hal_ltdc.c ****   *                the configuration information for the LTDC.
 217:Drivers/STM32F4xx_HAL_Driver/Src/stm32f4xx_hal_ltdc.c ****   * @retval HAL status
 218:Drivers/STM32F4xx_HAL_Driver/Src/stm32f4xx_hal_ltdc.c ****   */
 219:Drivers/STM32F4xx_HAL_Driver/Src/stm32f4xx_hal_ltdc.c **** HAL_StatusTypeDef HAL_LTDC_Init(LTDC_HandleTypeDef *hltdc)
 220:Drivers/STM32F4xx_HAL_Driver/Src/stm32f4xx_hal_ltdc.c **** {
  29              		.loc 1 220 1
  30              		.cfi_startproc
  31              		@ args = 0, pretend = 0, frame = 16
  32              		@ frame_needed = 1, uses_anonymous_args = 0
  33 0000 80B5     		push	{r7, lr}
  34              	.LCFI0:
  35              		.cfi_def_cfa_offset 8
  36              		.cfi_offset 7, -8
  37              		.cfi_offset 14, -4
  38 0002 84B0     		sub	sp, sp, #16
  39              	.LCFI1:
  40              		.cfi_def_cfa_offset 24
  41 0004 00AF     		add	r7, sp, #0
  42              	.LCFI2:
  43              		.cfi_def_cfa_register 7
  44 0006 7860     		str	r0, [r7, #4]
 221:Drivers/STM32F4xx_HAL_Driver/Src/stm32f4xx_hal_ltdc.c ****   uint32_t tmp;
 222:Drivers/STM32F4xx_HAL_Driver/Src/stm32f4xx_hal_ltdc.c ****   uint32_t tmp1;
 223:Drivers/STM32F4xx_HAL_Driver/Src/stm32f4xx_hal_ltdc.c **** 
 224:Drivers/STM32F4xx_HAL_Driver/Src/stm32f4xx_hal_ltdc.c ****   /* Check the LTDC peripheral state */
 225:Drivers/STM32F4xx_HAL_Driver/Src/stm32f4xx_hal_ltdc.c ****   if (hltdc == NULL)
  45              		.loc 1 225 6
  46 0008 7B68     		ldr	r3, [r7, #4]
  47 000a 002B     		cmp	r3, #0
  48 000c 01D1     		bne	.L2
 226:Drivers/STM32F4xx_HAL_Driver/Src/stm32f4xx_hal_ltdc.c ****   {
 227:Drivers/STM32F4xx_HAL_Driver/Src/stm32f4xx_hal_ltdc.c ****     return HAL_ERROR;
  49              		.loc 1 227 12
  50 000e 0123     		movs	r3, #1
  51 0010 BFE0     		b	.L3
  52              	.L2:
 228:Drivers/STM32F4xx_HAL_Driver/Src/stm32f4xx_hal_ltdc.c ****   }
 229:Drivers/STM32F4xx_HAL_Driver/Src/stm32f4xx_hal_ltdc.c **** 
 230:Drivers/STM32F4xx_HAL_Driver/Src/stm32f4xx_hal_ltdc.c ****   /* Check function parameters */
 231:Drivers/STM32F4xx_HAL_Driver/Src/stm32f4xx_hal_ltdc.c ****   assert_param(IS_LTDC_ALL_INSTANCE(hltdc->Instance));
 232:Drivers/STM32F4xx_HAL_Driver/Src/stm32f4xx_hal_ltdc.c ****   assert_param(IS_LTDC_HSYNC(hltdc->Init.HorizontalSync));
 233:Drivers/STM32F4xx_HAL_Driver/Src/stm32f4xx_hal_ltdc.c ****   assert_param(IS_LTDC_VSYNC(hltdc->Init.VerticalSync));
 234:Drivers/STM32F4xx_HAL_Driver/Src/stm32f4xx_hal_ltdc.c ****   assert_param(IS_LTDC_AHBP(hltdc->Init.AccumulatedHBP));
ARM GAS  /var/folders/06/9k7gq4t13mj84z2yhw3grvhc0000gn/T//ccuiTnhW.s 			page 6


 235:Drivers/STM32F4xx_HAL_Driver/Src/stm32f4xx_hal_ltdc.c ****   assert_param(IS_LTDC_AVBP(hltdc->Init.AccumulatedVBP));
 236:Drivers/STM32F4xx_HAL_Driver/Src/stm32f4xx_hal_ltdc.c ****   assert_param(IS_LTDC_AAH(hltdc->Init.AccumulatedActiveH));
 237:Drivers/STM32F4xx_HAL_Driver/Src/stm32f4xx_hal_ltdc.c ****   assert_param(IS_LTDC_AAW(hltdc->Init.AccumulatedActiveW));
 238:Drivers/STM32F4xx_HAL_Driver/Src/stm32f4xx_hal_ltdc.c ****   assert_param(IS_LTDC_TOTALH(hltdc->Init.TotalHeigh));
 239:Drivers/STM32F4xx_HAL_Driver/Src/stm32f4xx_hal_ltdc.c ****   assert_param(IS_LTDC_TOTALW(hltdc->Init.TotalWidth));
 240:Drivers/STM32F4xx_HAL_Driver/Src/stm32f4xx_hal_ltdc.c ****   assert_param(IS_LTDC_HSPOL(hltdc->Init.HSPolarity));
 241:Drivers/STM32F4xx_HAL_Driver/Src/stm32f4xx_hal_ltdc.c ****   assert_param(IS_LTDC_VSPOL(hltdc->Init.VSPolarity));
 242:Drivers/STM32F4xx_HAL_Driver/Src/stm32f4xx_hal_ltdc.c ****   assert_param(IS_LTDC_DEPOL(hltdc->Init.DEPolarity));
 243:Drivers/STM32F4xx_HAL_Driver/Src/stm32f4xx_hal_ltdc.c ****   assert_param(IS_LTDC_PCPOL(hltdc->Init.PCPolarity));
 244:Drivers/STM32F4xx_HAL_Driver/Src/stm32f4xx_hal_ltdc.c **** 
 245:Drivers/STM32F4xx_HAL_Driver/Src/stm32f4xx_hal_ltdc.c **** #if (USE_HAL_LTDC_REGISTER_CALLBACKS == 1)
 246:Drivers/STM32F4xx_HAL_Driver/Src/stm32f4xx_hal_ltdc.c ****   if (hltdc->State == HAL_LTDC_STATE_RESET)
 247:Drivers/STM32F4xx_HAL_Driver/Src/stm32f4xx_hal_ltdc.c ****   {
 248:Drivers/STM32F4xx_HAL_Driver/Src/stm32f4xx_hal_ltdc.c ****     /* Allocate lock resource and initialize it */
 249:Drivers/STM32F4xx_HAL_Driver/Src/stm32f4xx_hal_ltdc.c ****     hltdc->Lock = HAL_UNLOCKED;
 250:Drivers/STM32F4xx_HAL_Driver/Src/stm32f4xx_hal_ltdc.c **** 
 251:Drivers/STM32F4xx_HAL_Driver/Src/stm32f4xx_hal_ltdc.c ****     /* Reset the LTDC callback to the legacy weak callbacks */
 252:Drivers/STM32F4xx_HAL_Driver/Src/stm32f4xx_hal_ltdc.c ****     hltdc->LineEventCallback   = HAL_LTDC_LineEventCallback;    /* Legacy weak LineEventCallback   
 253:Drivers/STM32F4xx_HAL_Driver/Src/stm32f4xx_hal_ltdc.c ****     hltdc->ReloadEventCallback = HAL_LTDC_ReloadEventCallback;  /* Legacy weak ReloadEventCallback 
 254:Drivers/STM32F4xx_HAL_Driver/Src/stm32f4xx_hal_ltdc.c ****     hltdc->ErrorCallback       = HAL_LTDC_ErrorCallback;        /* Legacy weak ErrorCallback       
 255:Drivers/STM32F4xx_HAL_Driver/Src/stm32f4xx_hal_ltdc.c **** 
 256:Drivers/STM32F4xx_HAL_Driver/Src/stm32f4xx_hal_ltdc.c ****     if (hltdc->MspInitCallback == NULL)
 257:Drivers/STM32F4xx_HAL_Driver/Src/stm32f4xx_hal_ltdc.c ****     {
 258:Drivers/STM32F4xx_HAL_Driver/Src/stm32f4xx_hal_ltdc.c ****       hltdc->MspInitCallback = HAL_LTDC_MspInit;
 259:Drivers/STM32F4xx_HAL_Driver/Src/stm32f4xx_hal_ltdc.c ****     }
 260:Drivers/STM32F4xx_HAL_Driver/Src/stm32f4xx_hal_ltdc.c ****     /* Init the low level hardware */
 261:Drivers/STM32F4xx_HAL_Driver/Src/stm32f4xx_hal_ltdc.c ****     hltdc->MspInitCallback(hltdc);
 262:Drivers/STM32F4xx_HAL_Driver/Src/stm32f4xx_hal_ltdc.c ****   }
 263:Drivers/STM32F4xx_HAL_Driver/Src/stm32f4xx_hal_ltdc.c **** #else
 264:Drivers/STM32F4xx_HAL_Driver/Src/stm32f4xx_hal_ltdc.c ****   if (hltdc->State == HAL_LTDC_STATE_RESET)
  53              		.loc 1 264 12
  54 0012 7B68     		ldr	r3, [r7, #4]
  55 0014 93F8A130 		ldrb	r3, [r3, #161]
  56 0018 DBB2     		uxtb	r3, r3
  57              		.loc 1 264 6
  58 001a 002B     		cmp	r3, #0
  59 001c 06D1     		bne	.L4
 265:Drivers/STM32F4xx_HAL_Driver/Src/stm32f4xx_hal_ltdc.c ****   {
 266:Drivers/STM32F4xx_HAL_Driver/Src/stm32f4xx_hal_ltdc.c ****     /* Allocate lock resource and initialize it */
 267:Drivers/STM32F4xx_HAL_Driver/Src/stm32f4xx_hal_ltdc.c ****     hltdc->Lock = HAL_UNLOCKED;
  60              		.loc 1 267 17
  61 001e 7B68     		ldr	r3, [r7, #4]
  62 0020 0022     		movs	r2, #0
  63 0022 83F8A020 		strb	r2, [r3, #160]
 268:Drivers/STM32F4xx_HAL_Driver/Src/stm32f4xx_hal_ltdc.c ****     /* Init the low level hardware */
 269:Drivers/STM32F4xx_HAL_Driver/Src/stm32f4xx_hal_ltdc.c ****     HAL_LTDC_MspInit(hltdc);
  64              		.loc 1 269 5
  65 0026 7868     		ldr	r0, [r7, #4]
  66 0028 FFF7FEFF 		bl	HAL_LTDC_MspInit
  67              	.L4:
 270:Drivers/STM32F4xx_HAL_Driver/Src/stm32f4xx_hal_ltdc.c ****   }
 271:Drivers/STM32F4xx_HAL_Driver/Src/stm32f4xx_hal_ltdc.c **** #endif /* USE_HAL_LTDC_REGISTER_CALLBACKS */
 272:Drivers/STM32F4xx_HAL_Driver/Src/stm32f4xx_hal_ltdc.c **** 
 273:Drivers/STM32F4xx_HAL_Driver/Src/stm32f4xx_hal_ltdc.c ****   /* Change LTDC peripheral state */
 274:Drivers/STM32F4xx_HAL_Driver/Src/stm32f4xx_hal_ltdc.c ****   hltdc->State = HAL_LTDC_STATE_BUSY;
  68              		.loc 1 274 16
  69 002c 7B68     		ldr	r3, [r7, #4]
ARM GAS  /var/folders/06/9k7gq4t13mj84z2yhw3grvhc0000gn/T//ccuiTnhW.s 			page 7


  70 002e 0222     		movs	r2, #2
  71 0030 83F8A120 		strb	r2, [r3, #161]
 275:Drivers/STM32F4xx_HAL_Driver/Src/stm32f4xx_hal_ltdc.c **** 
 276:Drivers/STM32F4xx_HAL_Driver/Src/stm32f4xx_hal_ltdc.c ****   /* Configure the HS, VS, DE and PC polarity */
 277:Drivers/STM32F4xx_HAL_Driver/Src/stm32f4xx_hal_ltdc.c ****   hltdc->Instance->GCR &= ~(LTDC_GCR_HSPOL | LTDC_GCR_VSPOL | LTDC_GCR_DEPOL | LTDC_GCR_PCPOL);
  72              		.loc 1 277 8
  73 0034 7B68     		ldr	r3, [r7, #4]
  74 0036 1B68     		ldr	r3, [r3]
  75              		.loc 1 277 18
  76 0038 9A69     		ldr	r2, [r3, #24]
  77              		.loc 1 277 8
  78 003a 7B68     		ldr	r3, [r7, #4]
  79 003c 1B68     		ldr	r3, [r3]
  80              		.loc 1 277 24
  81 003e 22F07042 		bic	r2, r2, #-268435456
  82 0042 9A61     		str	r2, [r3, #24]
 278:Drivers/STM32F4xx_HAL_Driver/Src/stm32f4xx_hal_ltdc.c ****   hltdc->Instance->GCR |= (uint32_t)(hltdc->Init.HSPolarity | hltdc->Init.VSPolarity | \
  83              		.loc 1 278 8
  84 0044 7B68     		ldr	r3, [r7, #4]
  85 0046 1B68     		ldr	r3, [r3]
  86              		.loc 1 278 18
  87 0048 9969     		ldr	r1, [r3, #24]
  88              		.loc 1 278 49
  89 004a 7B68     		ldr	r3, [r7, #4]
  90 004c 5A68     		ldr	r2, [r3, #4]
  91              		.loc 1 278 74
  92 004e 7B68     		ldr	r3, [r7, #4]
  93 0050 9B68     		ldr	r3, [r3, #8]
  94              		.loc 1 278 61
  95 0052 1A43     		orrs	r2, r2, r3
 279:Drivers/STM32F4xx_HAL_Driver/Src/stm32f4xx_hal_ltdc.c ****                                      hltdc->Init.DEPolarity | hltdc->Init.PCPolarity);
  96              		.loc 1 279 49
  97 0054 7B68     		ldr	r3, [r7, #4]
  98 0056 DB68     		ldr	r3, [r3, #12]
 278:Drivers/STM32F4xx_HAL_Driver/Src/stm32f4xx_hal_ltdc.c ****   hltdc->Instance->GCR |= (uint32_t)(hltdc->Init.HSPolarity | hltdc->Init.VSPolarity | \
  99              		.loc 1 278 86
 100 0058 1A43     		orrs	r2, r2, r3
 101              		.loc 1 279 74
 102 005a 7B68     		ldr	r3, [r7, #4]
 103 005c 1B69     		ldr	r3, [r3, #16]
 104              		.loc 1 279 61
 105 005e 1A43     		orrs	r2, r2, r3
 278:Drivers/STM32F4xx_HAL_Driver/Src/stm32f4xx_hal_ltdc.c ****   hltdc->Instance->GCR |= (uint32_t)(hltdc->Init.HSPolarity | hltdc->Init.VSPolarity | \
 106              		.loc 1 278 8
 107 0060 7B68     		ldr	r3, [r7, #4]
 108 0062 1B68     		ldr	r3, [r3]
 278:Drivers/STM32F4xx_HAL_Driver/Src/stm32f4xx_hal_ltdc.c ****   hltdc->Instance->GCR |= (uint32_t)(hltdc->Init.HSPolarity | hltdc->Init.VSPolarity | \
 109              		.loc 1 278 24
 110 0064 0A43     		orrs	r2, r2, r1
 111 0066 9A61     		str	r2, [r3, #24]
 280:Drivers/STM32F4xx_HAL_Driver/Src/stm32f4xx_hal_ltdc.c **** 
 281:Drivers/STM32F4xx_HAL_Driver/Src/stm32f4xx_hal_ltdc.c ****   /* Set Synchronization size */
 282:Drivers/STM32F4xx_HAL_Driver/Src/stm32f4xx_hal_ltdc.c ****   hltdc->Instance->SSCR &= ~(LTDC_SSCR_VSH | LTDC_SSCR_HSW);
 112              		.loc 1 282 8
 113 0068 7B68     		ldr	r3, [r7, #4]
 114 006a 1B68     		ldr	r3, [r3]
 115              		.loc 1 282 18
ARM GAS  /var/folders/06/9k7gq4t13mj84z2yhw3grvhc0000gn/T//ccuiTnhW.s 			page 8


 116 006c 9968     		ldr	r1, [r3, #8]
 117              		.loc 1 282 8
 118 006e 7B68     		ldr	r3, [r7, #4]
 119 0070 1A68     		ldr	r2, [r3]
 120              		.loc 1 282 25
 121 0072 4A4B     		ldr	r3, .L5
 122 0074 0B40     		ands	r3, r3, r1
 123 0076 9360     		str	r3, [r2, #8]
 283:Drivers/STM32F4xx_HAL_Driver/Src/stm32f4xx_hal_ltdc.c ****   tmp = (hltdc->Init.HorizontalSync << 16U);
 124              		.loc 1 283 21
 125 0078 7B68     		ldr	r3, [r7, #4]
 126 007a 5B69     		ldr	r3, [r3, #20]
 127              		.loc 1 283 7
 128 007c 1B04     		lsls	r3, r3, #16
 129 007e FB60     		str	r3, [r7, #12]
 284:Drivers/STM32F4xx_HAL_Driver/Src/stm32f4xx_hal_ltdc.c ****   hltdc->Instance->SSCR |= (tmp | hltdc->Init.VerticalSync);
 130              		.loc 1 284 8
 131 0080 7B68     		ldr	r3, [r7, #4]
 132 0082 1B68     		ldr	r3, [r3]
 133              		.loc 1 284 18
 134 0084 9968     		ldr	r1, [r3, #8]
 135              		.loc 1 284 46
 136 0086 7B68     		ldr	r3, [r7, #4]
 137 0088 9A69     		ldr	r2, [r3, #24]
 138              		.loc 1 284 33
 139 008a FB68     		ldr	r3, [r7, #12]
 140 008c 1A43     		orrs	r2, r2, r3
 141              		.loc 1 284 8
 142 008e 7B68     		ldr	r3, [r7, #4]
 143 0090 1B68     		ldr	r3, [r3]
 144              		.loc 1 284 25
 145 0092 0A43     		orrs	r2, r2, r1
 146 0094 9A60     		str	r2, [r3, #8]
 285:Drivers/STM32F4xx_HAL_Driver/Src/stm32f4xx_hal_ltdc.c **** 
 286:Drivers/STM32F4xx_HAL_Driver/Src/stm32f4xx_hal_ltdc.c ****   /* Set Accumulated Back porch */
 287:Drivers/STM32F4xx_HAL_Driver/Src/stm32f4xx_hal_ltdc.c ****   hltdc->Instance->BPCR &= ~(LTDC_BPCR_AVBP | LTDC_BPCR_AHBP);
 147              		.loc 1 287 8
 148 0096 7B68     		ldr	r3, [r7, #4]
 149 0098 1B68     		ldr	r3, [r3]
 150              		.loc 1 287 18
 151 009a D968     		ldr	r1, [r3, #12]
 152              		.loc 1 287 8
 153 009c 7B68     		ldr	r3, [r7, #4]
 154 009e 1A68     		ldr	r2, [r3]
 155              		.loc 1 287 25
 156 00a0 3E4B     		ldr	r3, .L5
 157 00a2 0B40     		ands	r3, r3, r1
 158 00a4 D360     		str	r3, [r2, #12]
 288:Drivers/STM32F4xx_HAL_Driver/Src/stm32f4xx_hal_ltdc.c ****   tmp = (hltdc->Init.AccumulatedHBP << 16U);
 159              		.loc 1 288 21
 160 00a6 7B68     		ldr	r3, [r7, #4]
 161 00a8 DB69     		ldr	r3, [r3, #28]
 162              		.loc 1 288 7
 163 00aa 1B04     		lsls	r3, r3, #16
 164 00ac FB60     		str	r3, [r7, #12]
 289:Drivers/STM32F4xx_HAL_Driver/Src/stm32f4xx_hal_ltdc.c ****   hltdc->Instance->BPCR |= (tmp | hltdc->Init.AccumulatedVBP);
 165              		.loc 1 289 8
ARM GAS  /var/folders/06/9k7gq4t13mj84z2yhw3grvhc0000gn/T//ccuiTnhW.s 			page 9


 166 00ae 7B68     		ldr	r3, [r7, #4]
 167 00b0 1B68     		ldr	r3, [r3]
 168              		.loc 1 289 18
 169 00b2 D968     		ldr	r1, [r3, #12]
 170              		.loc 1 289 46
 171 00b4 7B68     		ldr	r3, [r7, #4]
 172 00b6 1A6A     		ldr	r2, [r3, #32]
 173              		.loc 1 289 33
 174 00b8 FB68     		ldr	r3, [r7, #12]
 175 00ba 1A43     		orrs	r2, r2, r3
 176              		.loc 1 289 8
 177 00bc 7B68     		ldr	r3, [r7, #4]
 178 00be 1B68     		ldr	r3, [r3]
 179              		.loc 1 289 25
 180 00c0 0A43     		orrs	r2, r2, r1
 181 00c2 DA60     		str	r2, [r3, #12]
 290:Drivers/STM32F4xx_HAL_Driver/Src/stm32f4xx_hal_ltdc.c **** 
 291:Drivers/STM32F4xx_HAL_Driver/Src/stm32f4xx_hal_ltdc.c ****   /* Set Accumulated Active Width */
 292:Drivers/STM32F4xx_HAL_Driver/Src/stm32f4xx_hal_ltdc.c ****   hltdc->Instance->AWCR &= ~(LTDC_AWCR_AAH | LTDC_AWCR_AAW);
 182              		.loc 1 292 8
 183 00c4 7B68     		ldr	r3, [r7, #4]
 184 00c6 1B68     		ldr	r3, [r3]
 185              		.loc 1 292 18
 186 00c8 1969     		ldr	r1, [r3, #16]
 187              		.loc 1 292 8
 188 00ca 7B68     		ldr	r3, [r7, #4]
 189 00cc 1A68     		ldr	r2, [r3]
 190              		.loc 1 292 25
 191 00ce 334B     		ldr	r3, .L5
 192 00d0 0B40     		ands	r3, r3, r1
 193 00d2 1361     		str	r3, [r2, #16]
 293:Drivers/STM32F4xx_HAL_Driver/Src/stm32f4xx_hal_ltdc.c ****   tmp = (hltdc->Init.AccumulatedActiveW << 16U);
 194              		.loc 1 293 21
 195 00d4 7B68     		ldr	r3, [r7, #4]
 196 00d6 5B6A     		ldr	r3, [r3, #36]
 197              		.loc 1 293 7
 198 00d8 1B04     		lsls	r3, r3, #16
 199 00da FB60     		str	r3, [r7, #12]
 294:Drivers/STM32F4xx_HAL_Driver/Src/stm32f4xx_hal_ltdc.c ****   hltdc->Instance->AWCR |= (tmp | hltdc->Init.AccumulatedActiveH);
 200              		.loc 1 294 8
 201 00dc 7B68     		ldr	r3, [r7, #4]
 202 00de 1B68     		ldr	r3, [r3]
 203              		.loc 1 294 18
 204 00e0 1969     		ldr	r1, [r3, #16]
 205              		.loc 1 294 46
 206 00e2 7B68     		ldr	r3, [r7, #4]
 207 00e4 9A6A     		ldr	r2, [r3, #40]
 208              		.loc 1 294 33
 209 00e6 FB68     		ldr	r3, [r7, #12]
 210 00e8 1A43     		orrs	r2, r2, r3
 211              		.loc 1 294 8
 212 00ea 7B68     		ldr	r3, [r7, #4]
 213 00ec 1B68     		ldr	r3, [r3]
 214              		.loc 1 294 25
 215 00ee 0A43     		orrs	r2, r2, r1
 216 00f0 1A61     		str	r2, [r3, #16]
 295:Drivers/STM32F4xx_HAL_Driver/Src/stm32f4xx_hal_ltdc.c **** 
ARM GAS  /var/folders/06/9k7gq4t13mj84z2yhw3grvhc0000gn/T//ccuiTnhW.s 			page 10


 296:Drivers/STM32F4xx_HAL_Driver/Src/stm32f4xx_hal_ltdc.c ****   /* Set Total Width */
 297:Drivers/STM32F4xx_HAL_Driver/Src/stm32f4xx_hal_ltdc.c ****   hltdc->Instance->TWCR &= ~(LTDC_TWCR_TOTALH | LTDC_TWCR_TOTALW);
 217              		.loc 1 297 8
 218 00f2 7B68     		ldr	r3, [r7, #4]
 219 00f4 1B68     		ldr	r3, [r3]
 220              		.loc 1 297 18
 221 00f6 5969     		ldr	r1, [r3, #20]
 222              		.loc 1 297 8
 223 00f8 7B68     		ldr	r3, [r7, #4]
 224 00fa 1A68     		ldr	r2, [r3]
 225              		.loc 1 297 25
 226 00fc 274B     		ldr	r3, .L5
 227 00fe 0B40     		ands	r3, r3, r1
 228 0100 5361     		str	r3, [r2, #20]
 298:Drivers/STM32F4xx_HAL_Driver/Src/stm32f4xx_hal_ltdc.c ****   tmp = (hltdc->Init.TotalWidth << 16U);
 229              		.loc 1 298 21
 230 0102 7B68     		ldr	r3, [r7, #4]
 231 0104 DB6A     		ldr	r3, [r3, #44]
 232              		.loc 1 298 7
 233 0106 1B04     		lsls	r3, r3, #16
 234 0108 FB60     		str	r3, [r7, #12]
 299:Drivers/STM32F4xx_HAL_Driver/Src/stm32f4xx_hal_ltdc.c ****   hltdc->Instance->TWCR |= (tmp | hltdc->Init.TotalHeigh);
 235              		.loc 1 299 8
 236 010a 7B68     		ldr	r3, [r7, #4]
 237 010c 1B68     		ldr	r3, [r3]
 238              		.loc 1 299 18
 239 010e 5969     		ldr	r1, [r3, #20]
 240              		.loc 1 299 46
 241 0110 7B68     		ldr	r3, [r7, #4]
 242 0112 1A6B     		ldr	r2, [r3, #48]
 243              		.loc 1 299 33
 244 0114 FB68     		ldr	r3, [r7, #12]
 245 0116 1A43     		orrs	r2, r2, r3
 246              		.loc 1 299 8
 247 0118 7B68     		ldr	r3, [r7, #4]
 248 011a 1B68     		ldr	r3, [r3]
 249              		.loc 1 299 25
 250 011c 0A43     		orrs	r2, r2, r1
 251 011e 5A61     		str	r2, [r3, #20]
 300:Drivers/STM32F4xx_HAL_Driver/Src/stm32f4xx_hal_ltdc.c **** 
 301:Drivers/STM32F4xx_HAL_Driver/Src/stm32f4xx_hal_ltdc.c ****   /* Set the background color value */
 302:Drivers/STM32F4xx_HAL_Driver/Src/stm32f4xx_hal_ltdc.c ****   tmp = ((uint32_t)(hltdc->Init.Backcolor.Green) << 8U);
 252              		.loc 1 302 42
 253 0120 7B68     		ldr	r3, [r7, #4]
 254 0122 93F83530 		ldrb	r3, [r3, #53]	@ zero_extendqisi2
 255              		.loc 1 302 7
 256 0126 1B02     		lsls	r3, r3, #8
 257 0128 FB60     		str	r3, [r7, #12]
 303:Drivers/STM32F4xx_HAL_Driver/Src/stm32f4xx_hal_ltdc.c ****   tmp1 = ((uint32_t)(hltdc->Init.Backcolor.Red) << 16U);
 258              		.loc 1 303 43
 259 012a 7B68     		ldr	r3, [r7, #4]
 260 012c 93F83630 		ldrb	r3, [r3, #54]	@ zero_extendqisi2
 261              		.loc 1 303 8
 262 0130 1B04     		lsls	r3, r3, #16
 263 0132 BB60     		str	r3, [r7, #8]
 304:Drivers/STM32F4xx_HAL_Driver/Src/stm32f4xx_hal_ltdc.c ****   hltdc->Instance->BCCR &= ~(LTDC_BCCR_BCBLUE | LTDC_BCCR_BCGREEN | LTDC_BCCR_BCRED);
 264              		.loc 1 304 8
ARM GAS  /var/folders/06/9k7gq4t13mj84z2yhw3grvhc0000gn/T//ccuiTnhW.s 			page 11


 265 0134 7B68     		ldr	r3, [r7, #4]
 266 0136 1B68     		ldr	r3, [r3]
 267              		.loc 1 304 18
 268 0138 DA6A     		ldr	r2, [r3, #44]
 269              		.loc 1 304 8
 270 013a 7B68     		ldr	r3, [r7, #4]
 271 013c 1B68     		ldr	r3, [r3]
 272              		.loc 1 304 25
 273 013e 02F07F42 		and	r2, r2, #-16777216
 274 0142 DA62     		str	r2, [r3, #44]
 305:Drivers/STM32F4xx_HAL_Driver/Src/stm32f4xx_hal_ltdc.c ****   hltdc->Instance->BCCR |= (tmp1 | tmp | hltdc->Init.Backcolor.Blue);
 275              		.loc 1 305 8
 276 0144 7B68     		ldr	r3, [r7, #4]
 277 0146 1B68     		ldr	r3, [r3]
 278              		.loc 1 305 18
 279 0148 D96A     		ldr	r1, [r3, #44]
 280              		.loc 1 305 34
 281 014a BA68     		ldr	r2, [r7, #8]
 282 014c FB68     		ldr	r3, [r7, #12]
 283 014e 1343     		orrs	r3, r3, r2
 284              		.loc 1 305 63
 285 0150 7A68     		ldr	r2, [r7, #4]
 286 0152 92F83420 		ldrb	r2, [r2, #52]	@ zero_extendqisi2
 287              		.loc 1 305 40
 288 0156 1A43     		orrs	r2, r2, r3
 289              		.loc 1 305 8
 290 0158 7B68     		ldr	r3, [r7, #4]
 291 015a 1B68     		ldr	r3, [r3]
 292              		.loc 1 305 25
 293 015c 0A43     		orrs	r2, r2, r1
 294 015e DA62     		str	r2, [r3, #44]
 306:Drivers/STM32F4xx_HAL_Driver/Src/stm32f4xx_hal_ltdc.c **** 
 307:Drivers/STM32F4xx_HAL_Driver/Src/stm32f4xx_hal_ltdc.c ****   /* Enable the Transfer Error and FIFO underrun interrupts */
 308:Drivers/STM32F4xx_HAL_Driver/Src/stm32f4xx_hal_ltdc.c ****   __HAL_LTDC_ENABLE_IT(hltdc, LTDC_IT_TE | LTDC_IT_FU);
 295              		.loc 1 308 3
 296 0160 7B68     		ldr	r3, [r7, #4]
 297 0162 1B68     		ldr	r3, [r3]
 298 0164 5A6B     		ldr	r2, [r3, #52]
 299 0166 7B68     		ldr	r3, [r7, #4]
 300 0168 1B68     		ldr	r3, [r3]
 301 016a 42F00602 		orr	r2, r2, #6
 302 016e 5A63     		str	r2, [r3, #52]
 309:Drivers/STM32F4xx_HAL_Driver/Src/stm32f4xx_hal_ltdc.c **** 
 310:Drivers/STM32F4xx_HAL_Driver/Src/stm32f4xx_hal_ltdc.c ****   /* Enable LTDC by setting LTDCEN bit */
 311:Drivers/STM32F4xx_HAL_Driver/Src/stm32f4xx_hal_ltdc.c ****   __HAL_LTDC_ENABLE(hltdc);
 303              		.loc 1 311 3
 304 0170 7B68     		ldr	r3, [r7, #4]
 305 0172 1B68     		ldr	r3, [r3]
 306 0174 9A69     		ldr	r2, [r3, #24]
 307 0176 7B68     		ldr	r3, [r7, #4]
 308 0178 1B68     		ldr	r3, [r3]
 309 017a 42F00102 		orr	r2, r2, #1
 310 017e 9A61     		str	r2, [r3, #24]
 312:Drivers/STM32F4xx_HAL_Driver/Src/stm32f4xx_hal_ltdc.c **** 
 313:Drivers/STM32F4xx_HAL_Driver/Src/stm32f4xx_hal_ltdc.c ****   /* Initialize the error code */
 314:Drivers/STM32F4xx_HAL_Driver/Src/stm32f4xx_hal_ltdc.c ****   hltdc->ErrorCode = HAL_LTDC_ERROR_NONE;
 311              		.loc 1 314 20
ARM GAS  /var/folders/06/9k7gq4t13mj84z2yhw3grvhc0000gn/T//ccuiTnhW.s 			page 12


 312 0180 7B68     		ldr	r3, [r7, #4]
 313 0182 0022     		movs	r2, #0
 314 0184 C3F8A420 		str	r2, [r3, #164]
 315:Drivers/STM32F4xx_HAL_Driver/Src/stm32f4xx_hal_ltdc.c **** 
 316:Drivers/STM32F4xx_HAL_Driver/Src/stm32f4xx_hal_ltdc.c ****   /* Initialize the LTDC state*/
 317:Drivers/STM32F4xx_HAL_Driver/Src/stm32f4xx_hal_ltdc.c ****   hltdc->State = HAL_LTDC_STATE_READY;
 315              		.loc 1 317 16
 316 0188 7B68     		ldr	r3, [r7, #4]
 317 018a 0122     		movs	r2, #1
 318 018c 83F8A120 		strb	r2, [r3, #161]
 318:Drivers/STM32F4xx_HAL_Driver/Src/stm32f4xx_hal_ltdc.c **** 
 319:Drivers/STM32F4xx_HAL_Driver/Src/stm32f4xx_hal_ltdc.c ****   return HAL_OK;
 319              		.loc 1 319 10
 320 0190 0023     		movs	r3, #0
 321              	.L3:
 320:Drivers/STM32F4xx_HAL_Driver/Src/stm32f4xx_hal_ltdc.c **** }
 322              		.loc 1 320 1
 323 0192 1846     		mov	r0, r3
 324 0194 1037     		adds	r7, r7, #16
 325              	.LCFI3:
 326              		.cfi_def_cfa_offset 8
 327 0196 BD46     		mov	sp, r7
 328              	.LCFI4:
 329              		.cfi_def_cfa_register 13
 330              		@ sp needed
 331 0198 80BD     		pop	{r7, pc}
 332              	.L6:
 333 019a 00BF     		.align	2
 334              	.L5:
 335 019c 00F800F0 		.word	-268371968
 336              		.cfi_endproc
 337              	.LFE134:
 339              		.section	.text.HAL_LTDC_DeInit,"ax",%progbits
 340              		.align	1
 341              		.global	HAL_LTDC_DeInit
 342              		.syntax unified
 343              		.thumb
 344              		.thumb_func
 346              	HAL_LTDC_DeInit:
 347              	.LFB135:
 321:Drivers/STM32F4xx_HAL_Driver/Src/stm32f4xx_hal_ltdc.c **** 
 322:Drivers/STM32F4xx_HAL_Driver/Src/stm32f4xx_hal_ltdc.c **** /**
 323:Drivers/STM32F4xx_HAL_Driver/Src/stm32f4xx_hal_ltdc.c ****   * @brief  De-initialize the LTDC peripheral.
 324:Drivers/STM32F4xx_HAL_Driver/Src/stm32f4xx_hal_ltdc.c ****   * @param  hltdc  pointer to a LTDC_HandleTypeDef structure that contains
 325:Drivers/STM32F4xx_HAL_Driver/Src/stm32f4xx_hal_ltdc.c ****   *                the configuration information for the LTDC.
 326:Drivers/STM32F4xx_HAL_Driver/Src/stm32f4xx_hal_ltdc.c ****   * @retval None
 327:Drivers/STM32F4xx_HAL_Driver/Src/stm32f4xx_hal_ltdc.c ****   */
 328:Drivers/STM32F4xx_HAL_Driver/Src/stm32f4xx_hal_ltdc.c **** 
 329:Drivers/STM32F4xx_HAL_Driver/Src/stm32f4xx_hal_ltdc.c **** HAL_StatusTypeDef HAL_LTDC_DeInit(LTDC_HandleTypeDef *hltdc)
 330:Drivers/STM32F4xx_HAL_Driver/Src/stm32f4xx_hal_ltdc.c **** {
 348              		.loc 1 330 1
 349              		.cfi_startproc
 350              		@ args = 0, pretend = 0, frame = 16
 351              		@ frame_needed = 1, uses_anonymous_args = 0
 352 0000 80B5     		push	{r7, lr}
 353              	.LCFI5:
 354              		.cfi_def_cfa_offset 8
ARM GAS  /var/folders/06/9k7gq4t13mj84z2yhw3grvhc0000gn/T//ccuiTnhW.s 			page 13


 355              		.cfi_offset 7, -8
 356              		.cfi_offset 14, -4
 357 0002 84B0     		sub	sp, sp, #16
 358              	.LCFI6:
 359              		.cfi_def_cfa_offset 24
 360 0004 00AF     		add	r7, sp, #0
 361              	.LCFI7:
 362              		.cfi_def_cfa_register 7
 363 0006 7860     		str	r0, [r7, #4]
 331:Drivers/STM32F4xx_HAL_Driver/Src/stm32f4xx_hal_ltdc.c ****   uint32_t tickstart;
 332:Drivers/STM32F4xx_HAL_Driver/Src/stm32f4xx_hal_ltdc.c **** 
 333:Drivers/STM32F4xx_HAL_Driver/Src/stm32f4xx_hal_ltdc.c ****   /* Check the LTDC peripheral state */
 334:Drivers/STM32F4xx_HAL_Driver/Src/stm32f4xx_hal_ltdc.c ****   if (hltdc == NULL)
 364              		.loc 1 334 6
 365 0008 7B68     		ldr	r3, [r7, #4]
 366 000a 002B     		cmp	r3, #0
 367 000c 01D1     		bne	.L8
 335:Drivers/STM32F4xx_HAL_Driver/Src/stm32f4xx_hal_ltdc.c ****   {
 336:Drivers/STM32F4xx_HAL_Driver/Src/stm32f4xx_hal_ltdc.c ****     return HAL_ERROR;
 368              		.loc 1 336 12
 369 000e 0123     		movs	r3, #1
 370 0010 49E0     		b	.L9
 371              	.L8:
 337:Drivers/STM32F4xx_HAL_Driver/Src/stm32f4xx_hal_ltdc.c ****   }
 338:Drivers/STM32F4xx_HAL_Driver/Src/stm32f4xx_hal_ltdc.c **** 
 339:Drivers/STM32F4xx_HAL_Driver/Src/stm32f4xx_hal_ltdc.c ****   /* Check function parameters */
 340:Drivers/STM32F4xx_HAL_Driver/Src/stm32f4xx_hal_ltdc.c ****   assert_param(IS_LTDC_ALL_INSTANCE(hltdc->Instance));
 341:Drivers/STM32F4xx_HAL_Driver/Src/stm32f4xx_hal_ltdc.c **** 
 342:Drivers/STM32F4xx_HAL_Driver/Src/stm32f4xx_hal_ltdc.c ****   /* Disable LTDC Layer 1 */
 343:Drivers/STM32F4xx_HAL_Driver/Src/stm32f4xx_hal_ltdc.c ****   __HAL_LTDC_LAYER_DISABLE(hltdc, LTDC_LAYER_1);
 372              		.loc 1 343 3
 373 0012 7B68     		ldr	r3, [r7, #4]
 374 0014 1B68     		ldr	r3, [r3]
 375 0016 8433     		adds	r3, r3, #132
 376 0018 1B68     		ldr	r3, [r3]
 377 001a 7A68     		ldr	r2, [r7, #4]
 378 001c 1268     		ldr	r2, [r2]
 379 001e 8432     		adds	r2, r2, #132
 380 0020 23F00103 		bic	r3, r3, #1
 381 0024 1360     		str	r3, [r2]
 344:Drivers/STM32F4xx_HAL_Driver/Src/stm32f4xx_hal_ltdc.c **** 
 345:Drivers/STM32F4xx_HAL_Driver/Src/stm32f4xx_hal_ltdc.c **** #if defined(LTDC_Layer2_BASE)
 346:Drivers/STM32F4xx_HAL_Driver/Src/stm32f4xx_hal_ltdc.c ****   /* Disable LTDC Layer 2 */
 347:Drivers/STM32F4xx_HAL_Driver/Src/stm32f4xx_hal_ltdc.c ****   __HAL_LTDC_LAYER_DISABLE(hltdc, LTDC_LAYER_2);
 382              		.loc 1 347 3
 383 0026 7B68     		ldr	r3, [r7, #4]
 384 0028 1B68     		ldr	r3, [r3]
 385 002a 03F58273 		add	r3, r3, #260
 386 002e 1B68     		ldr	r3, [r3]
 387 0030 7A68     		ldr	r2, [r7, #4]
 388 0032 1268     		ldr	r2, [r2]
 389 0034 02F58272 		add	r2, r2, #260
 390 0038 23F00103 		bic	r3, r3, #1
 391 003c 1360     		str	r3, [r2]
 348:Drivers/STM32F4xx_HAL_Driver/Src/stm32f4xx_hal_ltdc.c **** #endif /* LTDC_Layer2_BASE */
 349:Drivers/STM32F4xx_HAL_Driver/Src/stm32f4xx_hal_ltdc.c **** 
 350:Drivers/STM32F4xx_HAL_Driver/Src/stm32f4xx_hal_ltdc.c ****   /* Reload during vertical blanking period */
ARM GAS  /var/folders/06/9k7gq4t13mj84z2yhw3grvhc0000gn/T//ccuiTnhW.s 			page 14


 351:Drivers/STM32F4xx_HAL_Driver/Src/stm32f4xx_hal_ltdc.c ****   __HAL_LTDC_VERTICAL_BLANKING_RELOAD_CONFIG(hltdc);
 392              		.loc 1 351 3
 393 003e 7B68     		ldr	r3, [r7, #4]
 394 0040 1B68     		ldr	r3, [r3]
 395 0042 5A6A     		ldr	r2, [r3, #36]
 396 0044 7B68     		ldr	r3, [r7, #4]
 397 0046 1B68     		ldr	r3, [r3]
 398 0048 42F00202 		orr	r2, r2, #2
 399 004c 5A62     		str	r2, [r3, #36]
 352:Drivers/STM32F4xx_HAL_Driver/Src/stm32f4xx_hal_ltdc.c **** 
 353:Drivers/STM32F4xx_HAL_Driver/Src/stm32f4xx_hal_ltdc.c ****   /* Get tick */
 354:Drivers/STM32F4xx_HAL_Driver/Src/stm32f4xx_hal_ltdc.c ****   tickstart = HAL_GetTick();
 400              		.loc 1 354 15
 401 004e FFF7FEFF 		bl	HAL_GetTick
 402 0052 F860     		str	r0, [r7, #12]
 355:Drivers/STM32F4xx_HAL_Driver/Src/stm32f4xx_hal_ltdc.c **** 
 356:Drivers/STM32F4xx_HAL_Driver/Src/stm32f4xx_hal_ltdc.c ****   /* Wait for VSYNC Interrupt */
 357:Drivers/STM32F4xx_HAL_Driver/Src/stm32f4xx_hal_ltdc.c ****   while (READ_BIT(hltdc->Instance->CDSR, LTDC_CDSR_VSYNCS) == 0U)
 403              		.loc 1 357 9
 404 0054 06E0     		b	.L10
 405              	.L12:
 358:Drivers/STM32F4xx_HAL_Driver/Src/stm32f4xx_hal_ltdc.c ****   {
 359:Drivers/STM32F4xx_HAL_Driver/Src/stm32f4xx_hal_ltdc.c ****     /* Check for the Timeout */
 360:Drivers/STM32F4xx_HAL_Driver/Src/stm32f4xx_hal_ltdc.c ****     if ((HAL_GetTick() - tickstart) > LTDC_TIMEOUT_VALUE)
 406              		.loc 1 360 10
 407 0056 FFF7FEFF 		bl	HAL_GetTick
 408 005a 0246     		mov	r2, r0
 409              		.loc 1 360 24 discriminator 1
 410 005c FB68     		ldr	r3, [r7, #12]
 411 005e D31A     		subs	r3, r2, r3
 412              		.loc 1 360 8 discriminator 1
 413 0060 642B     		cmp	r3, #100
 414 0062 07D8     		bhi	.L13
 415              	.L10:
 357:Drivers/STM32F4xx_HAL_Driver/Src/stm32f4xx_hal_ltdc.c ****   {
 416              		.loc 1 357 10
 417 0064 7B68     		ldr	r3, [r7, #4]
 418 0066 1B68     		ldr	r3, [r3]
 419 0068 9B6C     		ldr	r3, [r3, #72]
 420 006a 03F00403 		and	r3, r3, #4
 357:Drivers/STM32F4xx_HAL_Driver/Src/stm32f4xx_hal_ltdc.c ****   {
 421              		.loc 1 357 60
 422 006e 002B     		cmp	r3, #0
 423 0070 F1D0     		beq	.L12
 424 0072 00E0     		b	.L11
 425              	.L13:
 361:Drivers/STM32F4xx_HAL_Driver/Src/stm32f4xx_hal_ltdc.c ****     {
 362:Drivers/STM32F4xx_HAL_Driver/Src/stm32f4xx_hal_ltdc.c ****       break;
 426              		.loc 1 362 7
 427 0074 00BF     		nop
 428              	.L11:
 363:Drivers/STM32F4xx_HAL_Driver/Src/stm32f4xx_hal_ltdc.c ****     }
 364:Drivers/STM32F4xx_HAL_Driver/Src/stm32f4xx_hal_ltdc.c ****   }
 365:Drivers/STM32F4xx_HAL_Driver/Src/stm32f4xx_hal_ltdc.c **** 
 366:Drivers/STM32F4xx_HAL_Driver/Src/stm32f4xx_hal_ltdc.c ****   /* Disable LTDC  */
 367:Drivers/STM32F4xx_HAL_Driver/Src/stm32f4xx_hal_ltdc.c ****   __HAL_LTDC_DISABLE(hltdc);
 429              		.loc 1 367 3
ARM GAS  /var/folders/06/9k7gq4t13mj84z2yhw3grvhc0000gn/T//ccuiTnhW.s 			page 15


 430 0076 7B68     		ldr	r3, [r7, #4]
 431 0078 1B68     		ldr	r3, [r3]
 432 007a 9A69     		ldr	r2, [r3, #24]
 433 007c 7B68     		ldr	r3, [r7, #4]
 434 007e 1B68     		ldr	r3, [r3]
 435 0080 22F00102 		bic	r2, r2, #1
 436 0084 9A61     		str	r2, [r3, #24]
 368:Drivers/STM32F4xx_HAL_Driver/Src/stm32f4xx_hal_ltdc.c **** 
 369:Drivers/STM32F4xx_HAL_Driver/Src/stm32f4xx_hal_ltdc.c **** #if (USE_HAL_LTDC_REGISTER_CALLBACKS == 1)
 370:Drivers/STM32F4xx_HAL_Driver/Src/stm32f4xx_hal_ltdc.c ****   if (hltdc->MspDeInitCallback == NULL)
 371:Drivers/STM32F4xx_HAL_Driver/Src/stm32f4xx_hal_ltdc.c ****   {
 372:Drivers/STM32F4xx_HAL_Driver/Src/stm32f4xx_hal_ltdc.c ****     hltdc->MspDeInitCallback = HAL_LTDC_MspDeInit;
 373:Drivers/STM32F4xx_HAL_Driver/Src/stm32f4xx_hal_ltdc.c ****   }
 374:Drivers/STM32F4xx_HAL_Driver/Src/stm32f4xx_hal_ltdc.c ****   /* DeInit the low level hardware */
 375:Drivers/STM32F4xx_HAL_Driver/Src/stm32f4xx_hal_ltdc.c ****   hltdc->MspDeInitCallback(hltdc);
 376:Drivers/STM32F4xx_HAL_Driver/Src/stm32f4xx_hal_ltdc.c **** #else
 377:Drivers/STM32F4xx_HAL_Driver/Src/stm32f4xx_hal_ltdc.c ****   /* DeInit the low level hardware */
 378:Drivers/STM32F4xx_HAL_Driver/Src/stm32f4xx_hal_ltdc.c ****   HAL_LTDC_MspDeInit(hltdc);
 437              		.loc 1 378 3
 438 0086 7868     		ldr	r0, [r7, #4]
 439 0088 FFF7FEFF 		bl	HAL_LTDC_MspDeInit
 379:Drivers/STM32F4xx_HAL_Driver/Src/stm32f4xx_hal_ltdc.c **** #endif /* USE_HAL_LTDC_REGISTER_CALLBACKS */
 380:Drivers/STM32F4xx_HAL_Driver/Src/stm32f4xx_hal_ltdc.c **** 
 381:Drivers/STM32F4xx_HAL_Driver/Src/stm32f4xx_hal_ltdc.c ****   /* Initialize the error code */
 382:Drivers/STM32F4xx_HAL_Driver/Src/stm32f4xx_hal_ltdc.c ****   hltdc->ErrorCode = HAL_LTDC_ERROR_NONE;
 440              		.loc 1 382 20
 441 008c 7B68     		ldr	r3, [r7, #4]
 442 008e 0022     		movs	r2, #0
 443 0090 C3F8A420 		str	r2, [r3, #164]
 383:Drivers/STM32F4xx_HAL_Driver/Src/stm32f4xx_hal_ltdc.c **** 
 384:Drivers/STM32F4xx_HAL_Driver/Src/stm32f4xx_hal_ltdc.c ****   /* Initialize the LTDC state*/
 385:Drivers/STM32F4xx_HAL_Driver/Src/stm32f4xx_hal_ltdc.c ****   hltdc->State = HAL_LTDC_STATE_RESET;
 444              		.loc 1 385 16
 445 0094 7B68     		ldr	r3, [r7, #4]
 446 0096 0022     		movs	r2, #0
 447 0098 83F8A120 		strb	r2, [r3, #161]
 386:Drivers/STM32F4xx_HAL_Driver/Src/stm32f4xx_hal_ltdc.c **** 
 387:Drivers/STM32F4xx_HAL_Driver/Src/stm32f4xx_hal_ltdc.c ****   /* Release Lock */
 388:Drivers/STM32F4xx_HAL_Driver/Src/stm32f4xx_hal_ltdc.c ****   __HAL_UNLOCK(hltdc);
 448              		.loc 1 388 3
 449 009c 7B68     		ldr	r3, [r7, #4]
 450 009e 0022     		movs	r2, #0
 451 00a0 83F8A020 		strb	r2, [r3, #160]
 389:Drivers/STM32F4xx_HAL_Driver/Src/stm32f4xx_hal_ltdc.c **** 
 390:Drivers/STM32F4xx_HAL_Driver/Src/stm32f4xx_hal_ltdc.c ****   return HAL_OK;
 452              		.loc 1 390 10
 453 00a4 0023     		movs	r3, #0
 454              	.L9:
 391:Drivers/STM32F4xx_HAL_Driver/Src/stm32f4xx_hal_ltdc.c **** }
 455              		.loc 1 391 1
 456 00a6 1846     		mov	r0, r3
 457 00a8 1037     		adds	r7, r7, #16
 458              	.LCFI8:
 459              		.cfi_def_cfa_offset 8
 460 00aa BD46     		mov	sp, r7
 461              	.LCFI9:
 462              		.cfi_def_cfa_register 13
ARM GAS  /var/folders/06/9k7gq4t13mj84z2yhw3grvhc0000gn/T//ccuiTnhW.s 			page 16


 463              		@ sp needed
 464 00ac 80BD     		pop	{r7, pc}
 465              		.cfi_endproc
 466              	.LFE135:
 468              		.section	.text.HAL_LTDC_MspInit,"ax",%progbits
 469              		.align	1
 470              		.weak	HAL_LTDC_MspInit
 471              		.syntax unified
 472              		.thumb
 473              		.thumb_func
 475              	HAL_LTDC_MspInit:
 476              	.LFB136:
 392:Drivers/STM32F4xx_HAL_Driver/Src/stm32f4xx_hal_ltdc.c **** 
 393:Drivers/STM32F4xx_HAL_Driver/Src/stm32f4xx_hal_ltdc.c **** /**
 394:Drivers/STM32F4xx_HAL_Driver/Src/stm32f4xx_hal_ltdc.c ****   * @brief  Initialize the LTDC MSP.
 395:Drivers/STM32F4xx_HAL_Driver/Src/stm32f4xx_hal_ltdc.c ****   * @param  hltdc  pointer to a LTDC_HandleTypeDef structure that contains
 396:Drivers/STM32F4xx_HAL_Driver/Src/stm32f4xx_hal_ltdc.c ****   *                the configuration information for the LTDC.
 397:Drivers/STM32F4xx_HAL_Driver/Src/stm32f4xx_hal_ltdc.c ****   * @retval None
 398:Drivers/STM32F4xx_HAL_Driver/Src/stm32f4xx_hal_ltdc.c ****   */
 399:Drivers/STM32F4xx_HAL_Driver/Src/stm32f4xx_hal_ltdc.c **** __weak void HAL_LTDC_MspInit(LTDC_HandleTypeDef *hltdc)
 400:Drivers/STM32F4xx_HAL_Driver/Src/stm32f4xx_hal_ltdc.c **** {
 477              		.loc 1 400 1
 478              		.cfi_startproc
 479              		@ args = 0, pretend = 0, frame = 8
 480              		@ frame_needed = 1, uses_anonymous_args = 0
 481              		@ link register save eliminated.
 482 0000 80B4     		push	{r7}
 483              	.LCFI10:
 484              		.cfi_def_cfa_offset 4
 485              		.cfi_offset 7, -4
 486 0002 83B0     		sub	sp, sp, #12
 487              	.LCFI11:
 488              		.cfi_def_cfa_offset 16
 489 0004 00AF     		add	r7, sp, #0
 490              	.LCFI12:
 491              		.cfi_def_cfa_register 7
 492 0006 7860     		str	r0, [r7, #4]
 401:Drivers/STM32F4xx_HAL_Driver/Src/stm32f4xx_hal_ltdc.c ****   /* Prevent unused argument(s) compilation warning */
 402:Drivers/STM32F4xx_HAL_Driver/Src/stm32f4xx_hal_ltdc.c ****   UNUSED(hltdc);
 403:Drivers/STM32F4xx_HAL_Driver/Src/stm32f4xx_hal_ltdc.c **** 
 404:Drivers/STM32F4xx_HAL_Driver/Src/stm32f4xx_hal_ltdc.c ****   /* NOTE : This function should not be modified, when the callback is needed,
 405:Drivers/STM32F4xx_HAL_Driver/Src/stm32f4xx_hal_ltdc.c ****             the HAL_LTDC_MspInit could be implemented in the user file
 406:Drivers/STM32F4xx_HAL_Driver/Src/stm32f4xx_hal_ltdc.c ****    */
 407:Drivers/STM32F4xx_HAL_Driver/Src/stm32f4xx_hal_ltdc.c **** }
 493              		.loc 1 407 1
 494 0008 00BF     		nop
 495 000a 0C37     		adds	r7, r7, #12
 496              	.LCFI13:
 497              		.cfi_def_cfa_offset 4
 498 000c BD46     		mov	sp, r7
 499              	.LCFI14:
 500              		.cfi_def_cfa_register 13
 501              		@ sp needed
 502 000e 5DF8047B 		ldr	r7, [sp], #4
 503              	.LCFI15:
 504              		.cfi_restore 7
 505              		.cfi_def_cfa_offset 0
ARM GAS  /var/folders/06/9k7gq4t13mj84z2yhw3grvhc0000gn/T//ccuiTnhW.s 			page 17


 506 0012 7047     		bx	lr
 507              		.cfi_endproc
 508              	.LFE136:
 510              		.section	.text.HAL_LTDC_MspDeInit,"ax",%progbits
 511              		.align	1
 512              		.weak	HAL_LTDC_MspDeInit
 513              		.syntax unified
 514              		.thumb
 515              		.thumb_func
 517              	HAL_LTDC_MspDeInit:
 518              	.LFB137:
 408:Drivers/STM32F4xx_HAL_Driver/Src/stm32f4xx_hal_ltdc.c **** 
 409:Drivers/STM32F4xx_HAL_Driver/Src/stm32f4xx_hal_ltdc.c **** /**
 410:Drivers/STM32F4xx_HAL_Driver/Src/stm32f4xx_hal_ltdc.c ****   * @brief  De-initialize the LTDC MSP.
 411:Drivers/STM32F4xx_HAL_Driver/Src/stm32f4xx_hal_ltdc.c ****   * @param  hltdc  pointer to a LTDC_HandleTypeDef structure that contains
 412:Drivers/STM32F4xx_HAL_Driver/Src/stm32f4xx_hal_ltdc.c ****   *                the configuration information for the LTDC.
 413:Drivers/STM32F4xx_HAL_Driver/Src/stm32f4xx_hal_ltdc.c ****   * @retval None
 414:Drivers/STM32F4xx_HAL_Driver/Src/stm32f4xx_hal_ltdc.c ****   */
 415:Drivers/STM32F4xx_HAL_Driver/Src/stm32f4xx_hal_ltdc.c **** __weak void HAL_LTDC_MspDeInit(LTDC_HandleTypeDef *hltdc)
 416:Drivers/STM32F4xx_HAL_Driver/Src/stm32f4xx_hal_ltdc.c **** {
 519              		.loc 1 416 1
 520              		.cfi_startproc
 521              		@ args = 0, pretend = 0, frame = 8
 522              		@ frame_needed = 1, uses_anonymous_args = 0
 523              		@ link register save eliminated.
 524 0000 80B4     		push	{r7}
 525              	.LCFI16:
 526              		.cfi_def_cfa_offset 4
 527              		.cfi_offset 7, -4
 528 0002 83B0     		sub	sp, sp, #12
 529              	.LCFI17:
 530              		.cfi_def_cfa_offset 16
 531 0004 00AF     		add	r7, sp, #0
 532              	.LCFI18:
 533              		.cfi_def_cfa_register 7
 534 0006 7860     		str	r0, [r7, #4]
 417:Drivers/STM32F4xx_HAL_Driver/Src/stm32f4xx_hal_ltdc.c ****   /* Prevent unused argument(s) compilation warning */
 418:Drivers/STM32F4xx_HAL_Driver/Src/stm32f4xx_hal_ltdc.c ****   UNUSED(hltdc);
 419:Drivers/STM32F4xx_HAL_Driver/Src/stm32f4xx_hal_ltdc.c **** 
 420:Drivers/STM32F4xx_HAL_Driver/Src/stm32f4xx_hal_ltdc.c ****   /* NOTE : This function should not be modified, when the callback is needed,
 421:Drivers/STM32F4xx_HAL_Driver/Src/stm32f4xx_hal_ltdc.c ****             the HAL_LTDC_MspDeInit could be implemented in the user file
 422:Drivers/STM32F4xx_HAL_Driver/Src/stm32f4xx_hal_ltdc.c ****    */
 423:Drivers/STM32F4xx_HAL_Driver/Src/stm32f4xx_hal_ltdc.c **** }
 535              		.loc 1 423 1
 536 0008 00BF     		nop
 537 000a 0C37     		adds	r7, r7, #12
 538              	.LCFI19:
 539              		.cfi_def_cfa_offset 4
 540 000c BD46     		mov	sp, r7
 541              	.LCFI20:
 542              		.cfi_def_cfa_register 13
 543              		@ sp needed
 544 000e 5DF8047B 		ldr	r7, [sp], #4
 545              	.LCFI21:
 546              		.cfi_restore 7
 547              		.cfi_def_cfa_offset 0
 548 0012 7047     		bx	lr
ARM GAS  /var/folders/06/9k7gq4t13mj84z2yhw3grvhc0000gn/T//ccuiTnhW.s 			page 18


 549              		.cfi_endproc
 550              	.LFE137:
 552              		.section	.text.HAL_LTDC_IRQHandler,"ax",%progbits
 553              		.align	1
 554              		.global	HAL_LTDC_IRQHandler
 555              		.syntax unified
 556              		.thumb
 557              		.thumb_func
 559              	HAL_LTDC_IRQHandler:
 560              	.LFB138:
 424:Drivers/STM32F4xx_HAL_Driver/Src/stm32f4xx_hal_ltdc.c **** 
 425:Drivers/STM32F4xx_HAL_Driver/Src/stm32f4xx_hal_ltdc.c **** #if (USE_HAL_LTDC_REGISTER_CALLBACKS == 1)
 426:Drivers/STM32F4xx_HAL_Driver/Src/stm32f4xx_hal_ltdc.c **** /**
 427:Drivers/STM32F4xx_HAL_Driver/Src/stm32f4xx_hal_ltdc.c ****   * @brief  Register a User LTDC Callback
 428:Drivers/STM32F4xx_HAL_Driver/Src/stm32f4xx_hal_ltdc.c ****   *         To be used instead of the weak predefined callback
 429:Drivers/STM32F4xx_HAL_Driver/Src/stm32f4xx_hal_ltdc.c ****   * @param hltdc ltdc handle
 430:Drivers/STM32F4xx_HAL_Driver/Src/stm32f4xx_hal_ltdc.c ****   * @param CallbackID ID of the callback to be registered
 431:Drivers/STM32F4xx_HAL_Driver/Src/stm32f4xx_hal_ltdc.c ****   *        This parameter can be one of the following values:
 432:Drivers/STM32F4xx_HAL_Driver/Src/stm32f4xx_hal_ltdc.c ****   *          @arg @ref HAL_LTDC_LINE_EVENT_CB_ID Line Event Callback ID
 433:Drivers/STM32F4xx_HAL_Driver/Src/stm32f4xx_hal_ltdc.c ****   *          @arg @ref HAL_LTDC_RELOAD_EVENT_CB_ID Reload Event Callback ID
 434:Drivers/STM32F4xx_HAL_Driver/Src/stm32f4xx_hal_ltdc.c ****   *          @arg @ref HAL_LTDC_ERROR_CB_ID Error Callback ID
 435:Drivers/STM32F4xx_HAL_Driver/Src/stm32f4xx_hal_ltdc.c ****   *          @arg @ref HAL_LTDC_MSPINIT_CB_ID MspInit callback ID
 436:Drivers/STM32F4xx_HAL_Driver/Src/stm32f4xx_hal_ltdc.c ****   *          @arg @ref HAL_LTDC_MSPDEINIT_CB_ID MspDeInit callback ID
 437:Drivers/STM32F4xx_HAL_Driver/Src/stm32f4xx_hal_ltdc.c ****   * @param pCallback pointer to the Callback function
 438:Drivers/STM32F4xx_HAL_Driver/Src/stm32f4xx_hal_ltdc.c ****   * @retval status
 439:Drivers/STM32F4xx_HAL_Driver/Src/stm32f4xx_hal_ltdc.c ****   */
 440:Drivers/STM32F4xx_HAL_Driver/Src/stm32f4xx_hal_ltdc.c **** HAL_StatusTypeDef HAL_LTDC_RegisterCallback(LTDC_HandleTypeDef *hltdc, HAL_LTDC_CallbackIDTypeDef C
 441:Drivers/STM32F4xx_HAL_Driver/Src/stm32f4xx_hal_ltdc.c ****                                             pLTDC_CallbackTypeDef pCallback)
 442:Drivers/STM32F4xx_HAL_Driver/Src/stm32f4xx_hal_ltdc.c **** {
 443:Drivers/STM32F4xx_HAL_Driver/Src/stm32f4xx_hal_ltdc.c ****   HAL_StatusTypeDef status = HAL_OK;
 444:Drivers/STM32F4xx_HAL_Driver/Src/stm32f4xx_hal_ltdc.c **** 
 445:Drivers/STM32F4xx_HAL_Driver/Src/stm32f4xx_hal_ltdc.c ****   if (pCallback == NULL)
 446:Drivers/STM32F4xx_HAL_Driver/Src/stm32f4xx_hal_ltdc.c ****   {
 447:Drivers/STM32F4xx_HAL_Driver/Src/stm32f4xx_hal_ltdc.c ****     /* Update the error code */
 448:Drivers/STM32F4xx_HAL_Driver/Src/stm32f4xx_hal_ltdc.c ****     hltdc->ErrorCode |= HAL_LTDC_ERROR_INVALID_CALLBACK;
 449:Drivers/STM32F4xx_HAL_Driver/Src/stm32f4xx_hal_ltdc.c **** 
 450:Drivers/STM32F4xx_HAL_Driver/Src/stm32f4xx_hal_ltdc.c ****     return HAL_ERROR;
 451:Drivers/STM32F4xx_HAL_Driver/Src/stm32f4xx_hal_ltdc.c ****   }
 452:Drivers/STM32F4xx_HAL_Driver/Src/stm32f4xx_hal_ltdc.c ****   /* Process locked */
 453:Drivers/STM32F4xx_HAL_Driver/Src/stm32f4xx_hal_ltdc.c ****   __HAL_LOCK(hltdc);
 454:Drivers/STM32F4xx_HAL_Driver/Src/stm32f4xx_hal_ltdc.c **** 
 455:Drivers/STM32F4xx_HAL_Driver/Src/stm32f4xx_hal_ltdc.c ****   if (hltdc->State == HAL_LTDC_STATE_READY)
 456:Drivers/STM32F4xx_HAL_Driver/Src/stm32f4xx_hal_ltdc.c ****   {
 457:Drivers/STM32F4xx_HAL_Driver/Src/stm32f4xx_hal_ltdc.c ****     switch (CallbackID)
 458:Drivers/STM32F4xx_HAL_Driver/Src/stm32f4xx_hal_ltdc.c ****     {
 459:Drivers/STM32F4xx_HAL_Driver/Src/stm32f4xx_hal_ltdc.c ****       case HAL_LTDC_LINE_EVENT_CB_ID :
 460:Drivers/STM32F4xx_HAL_Driver/Src/stm32f4xx_hal_ltdc.c ****         hltdc->LineEventCallback = pCallback;
 461:Drivers/STM32F4xx_HAL_Driver/Src/stm32f4xx_hal_ltdc.c ****         break;
 462:Drivers/STM32F4xx_HAL_Driver/Src/stm32f4xx_hal_ltdc.c **** 
 463:Drivers/STM32F4xx_HAL_Driver/Src/stm32f4xx_hal_ltdc.c ****       case HAL_LTDC_RELOAD_EVENT_CB_ID :
 464:Drivers/STM32F4xx_HAL_Driver/Src/stm32f4xx_hal_ltdc.c ****         hltdc->ReloadEventCallback = pCallback;
 465:Drivers/STM32F4xx_HAL_Driver/Src/stm32f4xx_hal_ltdc.c ****         break;
 466:Drivers/STM32F4xx_HAL_Driver/Src/stm32f4xx_hal_ltdc.c **** 
 467:Drivers/STM32F4xx_HAL_Driver/Src/stm32f4xx_hal_ltdc.c ****       case HAL_LTDC_ERROR_CB_ID :
 468:Drivers/STM32F4xx_HAL_Driver/Src/stm32f4xx_hal_ltdc.c ****         hltdc->ErrorCallback = pCallback;
 469:Drivers/STM32F4xx_HAL_Driver/Src/stm32f4xx_hal_ltdc.c ****         break;
 470:Drivers/STM32F4xx_HAL_Driver/Src/stm32f4xx_hal_ltdc.c **** 
ARM GAS  /var/folders/06/9k7gq4t13mj84z2yhw3grvhc0000gn/T//ccuiTnhW.s 			page 19


 471:Drivers/STM32F4xx_HAL_Driver/Src/stm32f4xx_hal_ltdc.c ****       case HAL_LTDC_MSPINIT_CB_ID :
 472:Drivers/STM32F4xx_HAL_Driver/Src/stm32f4xx_hal_ltdc.c ****         hltdc->MspInitCallback = pCallback;
 473:Drivers/STM32F4xx_HAL_Driver/Src/stm32f4xx_hal_ltdc.c ****         break;
 474:Drivers/STM32F4xx_HAL_Driver/Src/stm32f4xx_hal_ltdc.c **** 
 475:Drivers/STM32F4xx_HAL_Driver/Src/stm32f4xx_hal_ltdc.c ****       case HAL_LTDC_MSPDEINIT_CB_ID :
 476:Drivers/STM32F4xx_HAL_Driver/Src/stm32f4xx_hal_ltdc.c ****         hltdc->MspDeInitCallback = pCallback;
 477:Drivers/STM32F4xx_HAL_Driver/Src/stm32f4xx_hal_ltdc.c ****         break;
 478:Drivers/STM32F4xx_HAL_Driver/Src/stm32f4xx_hal_ltdc.c **** 
 479:Drivers/STM32F4xx_HAL_Driver/Src/stm32f4xx_hal_ltdc.c ****       default :
 480:Drivers/STM32F4xx_HAL_Driver/Src/stm32f4xx_hal_ltdc.c ****         /* Update the error code */
 481:Drivers/STM32F4xx_HAL_Driver/Src/stm32f4xx_hal_ltdc.c ****         hltdc->ErrorCode |= HAL_LTDC_ERROR_INVALID_CALLBACK;
 482:Drivers/STM32F4xx_HAL_Driver/Src/stm32f4xx_hal_ltdc.c ****         /* Return error status */
 483:Drivers/STM32F4xx_HAL_Driver/Src/stm32f4xx_hal_ltdc.c ****         status =  HAL_ERROR;
 484:Drivers/STM32F4xx_HAL_Driver/Src/stm32f4xx_hal_ltdc.c ****         break;
 485:Drivers/STM32F4xx_HAL_Driver/Src/stm32f4xx_hal_ltdc.c ****     }
 486:Drivers/STM32F4xx_HAL_Driver/Src/stm32f4xx_hal_ltdc.c ****   }
 487:Drivers/STM32F4xx_HAL_Driver/Src/stm32f4xx_hal_ltdc.c ****   else if (hltdc->State == HAL_LTDC_STATE_RESET)
 488:Drivers/STM32F4xx_HAL_Driver/Src/stm32f4xx_hal_ltdc.c ****   {
 489:Drivers/STM32F4xx_HAL_Driver/Src/stm32f4xx_hal_ltdc.c ****     switch (CallbackID)
 490:Drivers/STM32F4xx_HAL_Driver/Src/stm32f4xx_hal_ltdc.c ****     {
 491:Drivers/STM32F4xx_HAL_Driver/Src/stm32f4xx_hal_ltdc.c ****       case HAL_LTDC_MSPINIT_CB_ID :
 492:Drivers/STM32F4xx_HAL_Driver/Src/stm32f4xx_hal_ltdc.c ****         hltdc->MspInitCallback = pCallback;
 493:Drivers/STM32F4xx_HAL_Driver/Src/stm32f4xx_hal_ltdc.c ****         break;
 494:Drivers/STM32F4xx_HAL_Driver/Src/stm32f4xx_hal_ltdc.c **** 
 495:Drivers/STM32F4xx_HAL_Driver/Src/stm32f4xx_hal_ltdc.c ****       case HAL_LTDC_MSPDEINIT_CB_ID :
 496:Drivers/STM32F4xx_HAL_Driver/Src/stm32f4xx_hal_ltdc.c ****         hltdc->MspDeInitCallback = pCallback;
 497:Drivers/STM32F4xx_HAL_Driver/Src/stm32f4xx_hal_ltdc.c ****         break;
 498:Drivers/STM32F4xx_HAL_Driver/Src/stm32f4xx_hal_ltdc.c **** 
 499:Drivers/STM32F4xx_HAL_Driver/Src/stm32f4xx_hal_ltdc.c ****       default :
 500:Drivers/STM32F4xx_HAL_Driver/Src/stm32f4xx_hal_ltdc.c ****         /* Update the error code */
 501:Drivers/STM32F4xx_HAL_Driver/Src/stm32f4xx_hal_ltdc.c ****         hltdc->ErrorCode |= HAL_LTDC_ERROR_INVALID_CALLBACK;
 502:Drivers/STM32F4xx_HAL_Driver/Src/stm32f4xx_hal_ltdc.c ****         /* Return error status */
 503:Drivers/STM32F4xx_HAL_Driver/Src/stm32f4xx_hal_ltdc.c ****         status =  HAL_ERROR;
 504:Drivers/STM32F4xx_HAL_Driver/Src/stm32f4xx_hal_ltdc.c ****         break;
 505:Drivers/STM32F4xx_HAL_Driver/Src/stm32f4xx_hal_ltdc.c ****     }
 506:Drivers/STM32F4xx_HAL_Driver/Src/stm32f4xx_hal_ltdc.c ****   }
 507:Drivers/STM32F4xx_HAL_Driver/Src/stm32f4xx_hal_ltdc.c ****   else
 508:Drivers/STM32F4xx_HAL_Driver/Src/stm32f4xx_hal_ltdc.c ****   {
 509:Drivers/STM32F4xx_HAL_Driver/Src/stm32f4xx_hal_ltdc.c ****     /* Update the error code */
 510:Drivers/STM32F4xx_HAL_Driver/Src/stm32f4xx_hal_ltdc.c ****     hltdc->ErrorCode |= HAL_LTDC_ERROR_INVALID_CALLBACK;
 511:Drivers/STM32F4xx_HAL_Driver/Src/stm32f4xx_hal_ltdc.c ****     /* Return error status */
 512:Drivers/STM32F4xx_HAL_Driver/Src/stm32f4xx_hal_ltdc.c ****     status =  HAL_ERROR;
 513:Drivers/STM32F4xx_HAL_Driver/Src/stm32f4xx_hal_ltdc.c ****   }
 514:Drivers/STM32F4xx_HAL_Driver/Src/stm32f4xx_hal_ltdc.c **** 
 515:Drivers/STM32F4xx_HAL_Driver/Src/stm32f4xx_hal_ltdc.c ****   /* Release Lock */
 516:Drivers/STM32F4xx_HAL_Driver/Src/stm32f4xx_hal_ltdc.c ****   __HAL_UNLOCK(hltdc);
 517:Drivers/STM32F4xx_HAL_Driver/Src/stm32f4xx_hal_ltdc.c **** 
 518:Drivers/STM32F4xx_HAL_Driver/Src/stm32f4xx_hal_ltdc.c ****   return status;
 519:Drivers/STM32F4xx_HAL_Driver/Src/stm32f4xx_hal_ltdc.c **** }
 520:Drivers/STM32F4xx_HAL_Driver/Src/stm32f4xx_hal_ltdc.c **** 
 521:Drivers/STM32F4xx_HAL_Driver/Src/stm32f4xx_hal_ltdc.c **** /**
 522:Drivers/STM32F4xx_HAL_Driver/Src/stm32f4xx_hal_ltdc.c ****   * @brief  Unregister an LTDC Callback
 523:Drivers/STM32F4xx_HAL_Driver/Src/stm32f4xx_hal_ltdc.c ****   *         LTDC callback is redirected to the weak predefined callback
 524:Drivers/STM32F4xx_HAL_Driver/Src/stm32f4xx_hal_ltdc.c ****   * @param hltdc ltdc handle
 525:Drivers/STM32F4xx_HAL_Driver/Src/stm32f4xx_hal_ltdc.c ****   * @param CallbackID ID of the callback to be unregistered
 526:Drivers/STM32F4xx_HAL_Driver/Src/stm32f4xx_hal_ltdc.c ****   *        This parameter can be one of the following values:
 527:Drivers/STM32F4xx_HAL_Driver/Src/stm32f4xx_hal_ltdc.c ****   *          @arg @ref HAL_LTDC_LINE_EVENT_CB_ID Line Event Callback ID
ARM GAS  /var/folders/06/9k7gq4t13mj84z2yhw3grvhc0000gn/T//ccuiTnhW.s 			page 20


 528:Drivers/STM32F4xx_HAL_Driver/Src/stm32f4xx_hal_ltdc.c ****   *          @arg @ref HAL_LTDC_RELOAD_EVENT_CB_ID Reload Event Callback ID
 529:Drivers/STM32F4xx_HAL_Driver/Src/stm32f4xx_hal_ltdc.c ****   *          @arg @ref HAL_LTDC_ERROR_CB_ID Error Callback ID
 530:Drivers/STM32F4xx_HAL_Driver/Src/stm32f4xx_hal_ltdc.c ****   *          @arg @ref HAL_LTDC_MSPINIT_CB_ID MspInit callback ID
 531:Drivers/STM32F4xx_HAL_Driver/Src/stm32f4xx_hal_ltdc.c ****   *          @arg @ref HAL_LTDC_MSPDEINIT_CB_ID MspDeInit callback ID
 532:Drivers/STM32F4xx_HAL_Driver/Src/stm32f4xx_hal_ltdc.c ****   * @retval status
 533:Drivers/STM32F4xx_HAL_Driver/Src/stm32f4xx_hal_ltdc.c ****   */
 534:Drivers/STM32F4xx_HAL_Driver/Src/stm32f4xx_hal_ltdc.c **** HAL_StatusTypeDef HAL_LTDC_UnRegisterCallback(LTDC_HandleTypeDef *hltdc, HAL_LTDC_CallbackIDTypeDef
 535:Drivers/STM32F4xx_HAL_Driver/Src/stm32f4xx_hal_ltdc.c **** {
 536:Drivers/STM32F4xx_HAL_Driver/Src/stm32f4xx_hal_ltdc.c ****   HAL_StatusTypeDef status = HAL_OK;
 537:Drivers/STM32F4xx_HAL_Driver/Src/stm32f4xx_hal_ltdc.c **** 
 538:Drivers/STM32F4xx_HAL_Driver/Src/stm32f4xx_hal_ltdc.c ****   /* Process locked */
 539:Drivers/STM32F4xx_HAL_Driver/Src/stm32f4xx_hal_ltdc.c ****   __HAL_LOCK(hltdc);
 540:Drivers/STM32F4xx_HAL_Driver/Src/stm32f4xx_hal_ltdc.c **** 
 541:Drivers/STM32F4xx_HAL_Driver/Src/stm32f4xx_hal_ltdc.c ****   if (hltdc->State == HAL_LTDC_STATE_READY)
 542:Drivers/STM32F4xx_HAL_Driver/Src/stm32f4xx_hal_ltdc.c ****   {
 543:Drivers/STM32F4xx_HAL_Driver/Src/stm32f4xx_hal_ltdc.c ****     switch (CallbackID)
 544:Drivers/STM32F4xx_HAL_Driver/Src/stm32f4xx_hal_ltdc.c ****     {
 545:Drivers/STM32F4xx_HAL_Driver/Src/stm32f4xx_hal_ltdc.c ****       case HAL_LTDC_LINE_EVENT_CB_ID :
 546:Drivers/STM32F4xx_HAL_Driver/Src/stm32f4xx_hal_ltdc.c ****         hltdc->LineEventCallback = HAL_LTDC_LineEventCallback;      /* Legacy weak LineEventCallbac
 547:Drivers/STM32F4xx_HAL_Driver/Src/stm32f4xx_hal_ltdc.c ****         break;
 548:Drivers/STM32F4xx_HAL_Driver/Src/stm32f4xx_hal_ltdc.c **** 
 549:Drivers/STM32F4xx_HAL_Driver/Src/stm32f4xx_hal_ltdc.c ****       case HAL_LTDC_RELOAD_EVENT_CB_ID :
 550:Drivers/STM32F4xx_HAL_Driver/Src/stm32f4xx_hal_ltdc.c ****         hltdc->ReloadEventCallback = HAL_LTDC_ReloadEventCallback;  /* Legacy weak ReloadEventCallb
 551:Drivers/STM32F4xx_HAL_Driver/Src/stm32f4xx_hal_ltdc.c ****         break;
 552:Drivers/STM32F4xx_HAL_Driver/Src/stm32f4xx_hal_ltdc.c **** 
 553:Drivers/STM32F4xx_HAL_Driver/Src/stm32f4xx_hal_ltdc.c ****       case HAL_LTDC_ERROR_CB_ID :
 554:Drivers/STM32F4xx_HAL_Driver/Src/stm32f4xx_hal_ltdc.c ****         hltdc->ErrorCallback       = HAL_LTDC_ErrorCallback;        /* Legacy weak ErrorCallback   
 555:Drivers/STM32F4xx_HAL_Driver/Src/stm32f4xx_hal_ltdc.c ****         break;
 556:Drivers/STM32F4xx_HAL_Driver/Src/stm32f4xx_hal_ltdc.c **** 
 557:Drivers/STM32F4xx_HAL_Driver/Src/stm32f4xx_hal_ltdc.c ****       case HAL_LTDC_MSPINIT_CB_ID :
 558:Drivers/STM32F4xx_HAL_Driver/Src/stm32f4xx_hal_ltdc.c ****         hltdc->MspInitCallback = HAL_LTDC_MspInit;                  /* Legcay weak MspInit Callback
 559:Drivers/STM32F4xx_HAL_Driver/Src/stm32f4xx_hal_ltdc.c ****         break;
 560:Drivers/STM32F4xx_HAL_Driver/Src/stm32f4xx_hal_ltdc.c **** 
 561:Drivers/STM32F4xx_HAL_Driver/Src/stm32f4xx_hal_ltdc.c ****       case HAL_LTDC_MSPDEINIT_CB_ID :
 562:Drivers/STM32F4xx_HAL_Driver/Src/stm32f4xx_hal_ltdc.c ****         hltdc->MspDeInitCallback = HAL_LTDC_MspDeInit;              /* Legcay weak MspDeInit Callba
 563:Drivers/STM32F4xx_HAL_Driver/Src/stm32f4xx_hal_ltdc.c ****         break;
 564:Drivers/STM32F4xx_HAL_Driver/Src/stm32f4xx_hal_ltdc.c **** 
 565:Drivers/STM32F4xx_HAL_Driver/Src/stm32f4xx_hal_ltdc.c ****       default :
 566:Drivers/STM32F4xx_HAL_Driver/Src/stm32f4xx_hal_ltdc.c ****         /* Update the error code */
 567:Drivers/STM32F4xx_HAL_Driver/Src/stm32f4xx_hal_ltdc.c ****         hltdc->ErrorCode |= HAL_LTDC_ERROR_INVALID_CALLBACK;
 568:Drivers/STM32F4xx_HAL_Driver/Src/stm32f4xx_hal_ltdc.c ****         /* Return error status */
 569:Drivers/STM32F4xx_HAL_Driver/Src/stm32f4xx_hal_ltdc.c ****         status =  HAL_ERROR;
 570:Drivers/STM32F4xx_HAL_Driver/Src/stm32f4xx_hal_ltdc.c ****         break;
 571:Drivers/STM32F4xx_HAL_Driver/Src/stm32f4xx_hal_ltdc.c ****     }
 572:Drivers/STM32F4xx_HAL_Driver/Src/stm32f4xx_hal_ltdc.c ****   }
 573:Drivers/STM32F4xx_HAL_Driver/Src/stm32f4xx_hal_ltdc.c ****   else if (hltdc->State == HAL_LTDC_STATE_RESET)
 574:Drivers/STM32F4xx_HAL_Driver/Src/stm32f4xx_hal_ltdc.c ****   {
 575:Drivers/STM32F4xx_HAL_Driver/Src/stm32f4xx_hal_ltdc.c ****     switch (CallbackID)
 576:Drivers/STM32F4xx_HAL_Driver/Src/stm32f4xx_hal_ltdc.c ****     {
 577:Drivers/STM32F4xx_HAL_Driver/Src/stm32f4xx_hal_ltdc.c ****       case HAL_LTDC_MSPINIT_CB_ID :
 578:Drivers/STM32F4xx_HAL_Driver/Src/stm32f4xx_hal_ltdc.c ****         hltdc->MspInitCallback = HAL_LTDC_MspInit;                  /* Legcay weak MspInit Callback
 579:Drivers/STM32F4xx_HAL_Driver/Src/stm32f4xx_hal_ltdc.c ****         break;
 580:Drivers/STM32F4xx_HAL_Driver/Src/stm32f4xx_hal_ltdc.c **** 
 581:Drivers/STM32F4xx_HAL_Driver/Src/stm32f4xx_hal_ltdc.c ****       case HAL_LTDC_MSPDEINIT_CB_ID :
 582:Drivers/STM32F4xx_HAL_Driver/Src/stm32f4xx_hal_ltdc.c ****         hltdc->MspDeInitCallback = HAL_LTDC_MspDeInit;              /* Legcay weak MspDeInit Callba
 583:Drivers/STM32F4xx_HAL_Driver/Src/stm32f4xx_hal_ltdc.c ****         break;
 584:Drivers/STM32F4xx_HAL_Driver/Src/stm32f4xx_hal_ltdc.c **** 
ARM GAS  /var/folders/06/9k7gq4t13mj84z2yhw3grvhc0000gn/T//ccuiTnhW.s 			page 21


 585:Drivers/STM32F4xx_HAL_Driver/Src/stm32f4xx_hal_ltdc.c ****       default :
 586:Drivers/STM32F4xx_HAL_Driver/Src/stm32f4xx_hal_ltdc.c ****         /* Update the error code */
 587:Drivers/STM32F4xx_HAL_Driver/Src/stm32f4xx_hal_ltdc.c ****         hltdc->ErrorCode |= HAL_LTDC_ERROR_INVALID_CALLBACK;
 588:Drivers/STM32F4xx_HAL_Driver/Src/stm32f4xx_hal_ltdc.c ****         /* Return error status */
 589:Drivers/STM32F4xx_HAL_Driver/Src/stm32f4xx_hal_ltdc.c ****         status =  HAL_ERROR;
 590:Drivers/STM32F4xx_HAL_Driver/Src/stm32f4xx_hal_ltdc.c ****         break;
 591:Drivers/STM32F4xx_HAL_Driver/Src/stm32f4xx_hal_ltdc.c ****     }
 592:Drivers/STM32F4xx_HAL_Driver/Src/stm32f4xx_hal_ltdc.c ****   }
 593:Drivers/STM32F4xx_HAL_Driver/Src/stm32f4xx_hal_ltdc.c ****   else
 594:Drivers/STM32F4xx_HAL_Driver/Src/stm32f4xx_hal_ltdc.c ****   {
 595:Drivers/STM32F4xx_HAL_Driver/Src/stm32f4xx_hal_ltdc.c ****     /* Update the error code */
 596:Drivers/STM32F4xx_HAL_Driver/Src/stm32f4xx_hal_ltdc.c ****     hltdc->ErrorCode |= HAL_LTDC_ERROR_INVALID_CALLBACK;
 597:Drivers/STM32F4xx_HAL_Driver/Src/stm32f4xx_hal_ltdc.c ****     /* Return error status */
 598:Drivers/STM32F4xx_HAL_Driver/Src/stm32f4xx_hal_ltdc.c ****     status =  HAL_ERROR;
 599:Drivers/STM32F4xx_HAL_Driver/Src/stm32f4xx_hal_ltdc.c ****   }
 600:Drivers/STM32F4xx_HAL_Driver/Src/stm32f4xx_hal_ltdc.c **** 
 601:Drivers/STM32F4xx_HAL_Driver/Src/stm32f4xx_hal_ltdc.c ****   /* Release Lock */
 602:Drivers/STM32F4xx_HAL_Driver/Src/stm32f4xx_hal_ltdc.c ****   __HAL_UNLOCK(hltdc);
 603:Drivers/STM32F4xx_HAL_Driver/Src/stm32f4xx_hal_ltdc.c **** 
 604:Drivers/STM32F4xx_HAL_Driver/Src/stm32f4xx_hal_ltdc.c ****   return status;
 605:Drivers/STM32F4xx_HAL_Driver/Src/stm32f4xx_hal_ltdc.c **** }
 606:Drivers/STM32F4xx_HAL_Driver/Src/stm32f4xx_hal_ltdc.c **** #endif /* USE_HAL_LTDC_REGISTER_CALLBACKS */
 607:Drivers/STM32F4xx_HAL_Driver/Src/stm32f4xx_hal_ltdc.c **** 
 608:Drivers/STM32F4xx_HAL_Driver/Src/stm32f4xx_hal_ltdc.c **** /**
 609:Drivers/STM32F4xx_HAL_Driver/Src/stm32f4xx_hal_ltdc.c ****   * @}
 610:Drivers/STM32F4xx_HAL_Driver/Src/stm32f4xx_hal_ltdc.c ****   */
 611:Drivers/STM32F4xx_HAL_Driver/Src/stm32f4xx_hal_ltdc.c **** 
 612:Drivers/STM32F4xx_HAL_Driver/Src/stm32f4xx_hal_ltdc.c **** /** @defgroup LTDC_Exported_Functions_Group2 IO operation functions
 613:Drivers/STM32F4xx_HAL_Driver/Src/stm32f4xx_hal_ltdc.c ****   *  @brief   IO operation functions
 614:Drivers/STM32F4xx_HAL_Driver/Src/stm32f4xx_hal_ltdc.c ****   *
 615:Drivers/STM32F4xx_HAL_Driver/Src/stm32f4xx_hal_ltdc.c **** @verbatim
 616:Drivers/STM32F4xx_HAL_Driver/Src/stm32f4xx_hal_ltdc.c ****  ===============================================================================
 617:Drivers/STM32F4xx_HAL_Driver/Src/stm32f4xx_hal_ltdc.c ****                       #####  IO operation functions  #####
 618:Drivers/STM32F4xx_HAL_Driver/Src/stm32f4xx_hal_ltdc.c ****  ===============================================================================
 619:Drivers/STM32F4xx_HAL_Driver/Src/stm32f4xx_hal_ltdc.c ****     [..]  This section provides function allowing to:
 620:Drivers/STM32F4xx_HAL_Driver/Src/stm32f4xx_hal_ltdc.c ****       (+) Handle LTDC interrupt request
 621:Drivers/STM32F4xx_HAL_Driver/Src/stm32f4xx_hal_ltdc.c **** 
 622:Drivers/STM32F4xx_HAL_Driver/Src/stm32f4xx_hal_ltdc.c **** @endverbatim
 623:Drivers/STM32F4xx_HAL_Driver/Src/stm32f4xx_hal_ltdc.c ****   * @{
 624:Drivers/STM32F4xx_HAL_Driver/Src/stm32f4xx_hal_ltdc.c ****   */
 625:Drivers/STM32F4xx_HAL_Driver/Src/stm32f4xx_hal_ltdc.c **** /**
 626:Drivers/STM32F4xx_HAL_Driver/Src/stm32f4xx_hal_ltdc.c ****   * @brief  Handle LTDC interrupt request.
 627:Drivers/STM32F4xx_HAL_Driver/Src/stm32f4xx_hal_ltdc.c ****   * @param  hltdc  pointer to a LTDC_HandleTypeDef structure that contains
 628:Drivers/STM32F4xx_HAL_Driver/Src/stm32f4xx_hal_ltdc.c ****   *                the configuration information for the LTDC.
 629:Drivers/STM32F4xx_HAL_Driver/Src/stm32f4xx_hal_ltdc.c ****   * @retval HAL status
 630:Drivers/STM32F4xx_HAL_Driver/Src/stm32f4xx_hal_ltdc.c ****   */
 631:Drivers/STM32F4xx_HAL_Driver/Src/stm32f4xx_hal_ltdc.c **** void HAL_LTDC_IRQHandler(LTDC_HandleTypeDef *hltdc)
 632:Drivers/STM32F4xx_HAL_Driver/Src/stm32f4xx_hal_ltdc.c **** {
 561              		.loc 1 632 1
 562              		.cfi_startproc
 563              		@ args = 0, pretend = 0, frame = 16
 564              		@ frame_needed = 1, uses_anonymous_args = 0
 565 0000 80B5     		push	{r7, lr}
 566              	.LCFI22:
 567              		.cfi_def_cfa_offset 8
 568              		.cfi_offset 7, -8
 569              		.cfi_offset 14, -4
ARM GAS  /var/folders/06/9k7gq4t13mj84z2yhw3grvhc0000gn/T//ccuiTnhW.s 			page 22


 570 0002 84B0     		sub	sp, sp, #16
 571              	.LCFI23:
 572              		.cfi_def_cfa_offset 24
 573 0004 00AF     		add	r7, sp, #0
 574              	.LCFI24:
 575              		.cfi_def_cfa_register 7
 576 0006 7860     		str	r0, [r7, #4]
 633:Drivers/STM32F4xx_HAL_Driver/Src/stm32f4xx_hal_ltdc.c ****   uint32_t isrflags  = READ_REG(hltdc->Instance->ISR);
 577              		.loc 1 633 24
 578 0008 7B68     		ldr	r3, [r7, #4]
 579 000a 1B68     		ldr	r3, [r3]
 580              		.loc 1 633 12
 581 000c 9B6B     		ldr	r3, [r3, #56]
 582 000e FB60     		str	r3, [r7, #12]
 634:Drivers/STM32F4xx_HAL_Driver/Src/stm32f4xx_hal_ltdc.c ****   uint32_t itsources = READ_REG(hltdc->Instance->IER);
 583              		.loc 1 634 24
 584 0010 7B68     		ldr	r3, [r7, #4]
 585 0012 1B68     		ldr	r3, [r3]
 586              		.loc 1 634 12
 587 0014 5B6B     		ldr	r3, [r3, #52]
 588 0016 BB60     		str	r3, [r7, #8]
 635:Drivers/STM32F4xx_HAL_Driver/Src/stm32f4xx_hal_ltdc.c **** 
 636:Drivers/STM32F4xx_HAL_Driver/Src/stm32f4xx_hal_ltdc.c ****   /* Transfer Error Interrupt management ***************************************/
 637:Drivers/STM32F4xx_HAL_Driver/Src/stm32f4xx_hal_ltdc.c ****   if (((isrflags & LTDC_ISR_TERRIF) != 0U) && ((itsources & LTDC_IER_TERRIE) != 0U))
 589              		.loc 1 637 18
 590 0018 FB68     		ldr	r3, [r7, #12]
 591 001a 03F00403 		and	r3, r3, #4
 592              		.loc 1 637 6
 593 001e 002B     		cmp	r3, #0
 594 0020 23D0     		beq	.L17
 595              		.loc 1 637 59 discriminator 1
 596 0022 BB68     		ldr	r3, [r7, #8]
 597 0024 03F00403 		and	r3, r3, #4
 598              		.loc 1 637 44 discriminator 1
 599 0028 002B     		cmp	r3, #0
 600 002a 1ED0     		beq	.L17
 638:Drivers/STM32F4xx_HAL_Driver/Src/stm32f4xx_hal_ltdc.c ****   {
 639:Drivers/STM32F4xx_HAL_Driver/Src/stm32f4xx_hal_ltdc.c ****     /* Disable the transfer Error interrupt */
 640:Drivers/STM32F4xx_HAL_Driver/Src/stm32f4xx_hal_ltdc.c ****     __HAL_LTDC_DISABLE_IT(hltdc, LTDC_IT_TE);
 601              		.loc 1 640 5
 602 002c 7B68     		ldr	r3, [r7, #4]
 603 002e 1B68     		ldr	r3, [r3]
 604 0030 5A6B     		ldr	r2, [r3, #52]
 605 0032 7B68     		ldr	r3, [r7, #4]
 606 0034 1B68     		ldr	r3, [r3]
 607 0036 22F00402 		bic	r2, r2, #4
 608 003a 5A63     		str	r2, [r3, #52]
 641:Drivers/STM32F4xx_HAL_Driver/Src/stm32f4xx_hal_ltdc.c **** 
 642:Drivers/STM32F4xx_HAL_Driver/Src/stm32f4xx_hal_ltdc.c ****     /* Clear the transfer error flag */
 643:Drivers/STM32F4xx_HAL_Driver/Src/stm32f4xx_hal_ltdc.c ****     __HAL_LTDC_CLEAR_FLAG(hltdc, LTDC_FLAG_TE);
 609              		.loc 1 643 5
 610 003c 7B68     		ldr	r3, [r7, #4]
 611 003e 1B68     		ldr	r3, [r3]
 612 0040 0422     		movs	r2, #4
 613 0042 DA63     		str	r2, [r3, #60]
 644:Drivers/STM32F4xx_HAL_Driver/Src/stm32f4xx_hal_ltdc.c **** 
 645:Drivers/STM32F4xx_HAL_Driver/Src/stm32f4xx_hal_ltdc.c ****     /* Update error code */
ARM GAS  /var/folders/06/9k7gq4t13mj84z2yhw3grvhc0000gn/T//ccuiTnhW.s 			page 23


 646:Drivers/STM32F4xx_HAL_Driver/Src/stm32f4xx_hal_ltdc.c ****     hltdc->ErrorCode |= HAL_LTDC_ERROR_TE;
 614              		.loc 1 646 10
 615 0044 7B68     		ldr	r3, [r7, #4]
 616 0046 D3F8A430 		ldr	r3, [r3, #164]
 617              		.loc 1 646 22
 618 004a 43F00102 		orr	r2, r3, #1
 619 004e 7B68     		ldr	r3, [r7, #4]
 620 0050 C3F8A420 		str	r2, [r3, #164]
 647:Drivers/STM32F4xx_HAL_Driver/Src/stm32f4xx_hal_ltdc.c **** 
 648:Drivers/STM32F4xx_HAL_Driver/Src/stm32f4xx_hal_ltdc.c ****     /* Change LTDC state */
 649:Drivers/STM32F4xx_HAL_Driver/Src/stm32f4xx_hal_ltdc.c ****     hltdc->State = HAL_LTDC_STATE_ERROR;
 621              		.loc 1 649 18
 622 0054 7B68     		ldr	r3, [r7, #4]
 623 0056 0422     		movs	r2, #4
 624 0058 83F8A120 		strb	r2, [r3, #161]
 650:Drivers/STM32F4xx_HAL_Driver/Src/stm32f4xx_hal_ltdc.c **** 
 651:Drivers/STM32F4xx_HAL_Driver/Src/stm32f4xx_hal_ltdc.c ****     /* Process unlocked */
 652:Drivers/STM32F4xx_HAL_Driver/Src/stm32f4xx_hal_ltdc.c ****     __HAL_UNLOCK(hltdc);
 625              		.loc 1 652 5
 626 005c 7B68     		ldr	r3, [r7, #4]
 627 005e 0022     		movs	r2, #0
 628 0060 83F8A020 		strb	r2, [r3, #160]
 653:Drivers/STM32F4xx_HAL_Driver/Src/stm32f4xx_hal_ltdc.c **** 
 654:Drivers/STM32F4xx_HAL_Driver/Src/stm32f4xx_hal_ltdc.c ****     /* Transfer error Callback */
 655:Drivers/STM32F4xx_HAL_Driver/Src/stm32f4xx_hal_ltdc.c **** #if (USE_HAL_LTDC_REGISTER_CALLBACKS == 1)
 656:Drivers/STM32F4xx_HAL_Driver/Src/stm32f4xx_hal_ltdc.c ****     /*Call registered error callback*/
 657:Drivers/STM32F4xx_HAL_Driver/Src/stm32f4xx_hal_ltdc.c ****     hltdc->ErrorCallback(hltdc);
 658:Drivers/STM32F4xx_HAL_Driver/Src/stm32f4xx_hal_ltdc.c **** #else
 659:Drivers/STM32F4xx_HAL_Driver/Src/stm32f4xx_hal_ltdc.c ****     /* Call legacy error callback*/
 660:Drivers/STM32F4xx_HAL_Driver/Src/stm32f4xx_hal_ltdc.c ****     HAL_LTDC_ErrorCallback(hltdc);
 629              		.loc 1 660 5
 630 0064 7868     		ldr	r0, [r7, #4]
 631 0066 FFF7FEFF 		bl	HAL_LTDC_ErrorCallback
 632              	.L17:
 661:Drivers/STM32F4xx_HAL_Driver/Src/stm32f4xx_hal_ltdc.c **** #endif /* USE_HAL_LTDC_REGISTER_CALLBACKS */
 662:Drivers/STM32F4xx_HAL_Driver/Src/stm32f4xx_hal_ltdc.c ****   }
 663:Drivers/STM32F4xx_HAL_Driver/Src/stm32f4xx_hal_ltdc.c **** 
 664:Drivers/STM32F4xx_HAL_Driver/Src/stm32f4xx_hal_ltdc.c ****   /* FIFO underrun Interrupt management ***************************************/
 665:Drivers/STM32F4xx_HAL_Driver/Src/stm32f4xx_hal_ltdc.c ****   if (((isrflags & LTDC_ISR_FUIF) != 0U) && ((itsources & LTDC_IER_FUIE) != 0U))
 633              		.loc 1 665 18
 634 006a FB68     		ldr	r3, [r7, #12]
 635 006c 03F00203 		and	r3, r3, #2
 636              		.loc 1 665 6
 637 0070 002B     		cmp	r3, #0
 638 0072 23D0     		beq	.L18
 639              		.loc 1 665 57 discriminator 1
 640 0074 BB68     		ldr	r3, [r7, #8]
 641 0076 03F00203 		and	r3, r3, #2
 642              		.loc 1 665 42 discriminator 1
 643 007a 002B     		cmp	r3, #0
 644 007c 1ED0     		beq	.L18
 666:Drivers/STM32F4xx_HAL_Driver/Src/stm32f4xx_hal_ltdc.c ****   {
 667:Drivers/STM32F4xx_HAL_Driver/Src/stm32f4xx_hal_ltdc.c ****     /* Disable the FIFO underrun interrupt */
 668:Drivers/STM32F4xx_HAL_Driver/Src/stm32f4xx_hal_ltdc.c ****     __HAL_LTDC_DISABLE_IT(hltdc, LTDC_IT_FU);
 645              		.loc 1 668 5
 646 007e 7B68     		ldr	r3, [r7, #4]
 647 0080 1B68     		ldr	r3, [r3]
ARM GAS  /var/folders/06/9k7gq4t13mj84z2yhw3grvhc0000gn/T//ccuiTnhW.s 			page 24


 648 0082 5A6B     		ldr	r2, [r3, #52]
 649 0084 7B68     		ldr	r3, [r7, #4]
 650 0086 1B68     		ldr	r3, [r3]
 651 0088 22F00202 		bic	r2, r2, #2
 652 008c 5A63     		str	r2, [r3, #52]
 669:Drivers/STM32F4xx_HAL_Driver/Src/stm32f4xx_hal_ltdc.c **** 
 670:Drivers/STM32F4xx_HAL_Driver/Src/stm32f4xx_hal_ltdc.c ****     /* Clear the FIFO underrun flag */
 671:Drivers/STM32F4xx_HAL_Driver/Src/stm32f4xx_hal_ltdc.c ****     __HAL_LTDC_CLEAR_FLAG(hltdc, LTDC_FLAG_FU);
 653              		.loc 1 671 5
 654 008e 7B68     		ldr	r3, [r7, #4]
 655 0090 1B68     		ldr	r3, [r3]
 656 0092 0222     		movs	r2, #2
 657 0094 DA63     		str	r2, [r3, #60]
 672:Drivers/STM32F4xx_HAL_Driver/Src/stm32f4xx_hal_ltdc.c **** 
 673:Drivers/STM32F4xx_HAL_Driver/Src/stm32f4xx_hal_ltdc.c ****     /* Update error code */
 674:Drivers/STM32F4xx_HAL_Driver/Src/stm32f4xx_hal_ltdc.c ****     hltdc->ErrorCode |= HAL_LTDC_ERROR_FU;
 658              		.loc 1 674 10
 659 0096 7B68     		ldr	r3, [r7, #4]
 660 0098 D3F8A430 		ldr	r3, [r3, #164]
 661              		.loc 1 674 22
 662 009c 43F00202 		orr	r2, r3, #2
 663 00a0 7B68     		ldr	r3, [r7, #4]
 664 00a2 C3F8A420 		str	r2, [r3, #164]
 675:Drivers/STM32F4xx_HAL_Driver/Src/stm32f4xx_hal_ltdc.c **** 
 676:Drivers/STM32F4xx_HAL_Driver/Src/stm32f4xx_hal_ltdc.c ****     /* Change LTDC state */
 677:Drivers/STM32F4xx_HAL_Driver/Src/stm32f4xx_hal_ltdc.c ****     hltdc->State = HAL_LTDC_STATE_ERROR;
 665              		.loc 1 677 18
 666 00a6 7B68     		ldr	r3, [r7, #4]
 667 00a8 0422     		movs	r2, #4
 668 00aa 83F8A120 		strb	r2, [r3, #161]
 678:Drivers/STM32F4xx_HAL_Driver/Src/stm32f4xx_hal_ltdc.c **** 
 679:Drivers/STM32F4xx_HAL_Driver/Src/stm32f4xx_hal_ltdc.c ****     /* Process unlocked */
 680:Drivers/STM32F4xx_HAL_Driver/Src/stm32f4xx_hal_ltdc.c ****     __HAL_UNLOCK(hltdc);
 669              		.loc 1 680 5
 670 00ae 7B68     		ldr	r3, [r7, #4]
 671 00b0 0022     		movs	r2, #0
 672 00b2 83F8A020 		strb	r2, [r3, #160]
 681:Drivers/STM32F4xx_HAL_Driver/Src/stm32f4xx_hal_ltdc.c **** 
 682:Drivers/STM32F4xx_HAL_Driver/Src/stm32f4xx_hal_ltdc.c ****     /* Transfer error Callback */
 683:Drivers/STM32F4xx_HAL_Driver/Src/stm32f4xx_hal_ltdc.c **** #if (USE_HAL_LTDC_REGISTER_CALLBACKS == 1)
 684:Drivers/STM32F4xx_HAL_Driver/Src/stm32f4xx_hal_ltdc.c ****     /*Call registered error callback*/
 685:Drivers/STM32F4xx_HAL_Driver/Src/stm32f4xx_hal_ltdc.c ****     hltdc->ErrorCallback(hltdc);
 686:Drivers/STM32F4xx_HAL_Driver/Src/stm32f4xx_hal_ltdc.c **** #else
 687:Drivers/STM32F4xx_HAL_Driver/Src/stm32f4xx_hal_ltdc.c ****     /* Call legacy error callback*/
 688:Drivers/STM32F4xx_HAL_Driver/Src/stm32f4xx_hal_ltdc.c ****     HAL_LTDC_ErrorCallback(hltdc);
 673              		.loc 1 688 5
 674 00b6 7868     		ldr	r0, [r7, #4]
 675 00b8 FFF7FEFF 		bl	HAL_LTDC_ErrorCallback
 676              	.L18:
 689:Drivers/STM32F4xx_HAL_Driver/Src/stm32f4xx_hal_ltdc.c **** #endif /* USE_HAL_LTDC_REGISTER_CALLBACKS */
 690:Drivers/STM32F4xx_HAL_Driver/Src/stm32f4xx_hal_ltdc.c ****   }
 691:Drivers/STM32F4xx_HAL_Driver/Src/stm32f4xx_hal_ltdc.c **** 
 692:Drivers/STM32F4xx_HAL_Driver/Src/stm32f4xx_hal_ltdc.c ****   /* Line Interrupt management ************************************************/
 693:Drivers/STM32F4xx_HAL_Driver/Src/stm32f4xx_hal_ltdc.c ****   if (((isrflags & LTDC_ISR_LIF) != 0U) && ((itsources & LTDC_IER_LIE) != 0U))
 677              		.loc 1 693 18
 678 00bc FB68     		ldr	r3, [r7, #12]
 679 00be 03F00103 		and	r3, r3, #1
ARM GAS  /var/folders/06/9k7gq4t13mj84z2yhw3grvhc0000gn/T//ccuiTnhW.s 			page 25


 680              		.loc 1 693 6
 681 00c2 002B     		cmp	r3, #0
 682 00c4 1BD0     		beq	.L19
 683              		.loc 1 693 56 discriminator 1
 684 00c6 BB68     		ldr	r3, [r7, #8]
 685 00c8 03F00103 		and	r3, r3, #1
 686              		.loc 1 693 41 discriminator 1
 687 00cc 002B     		cmp	r3, #0
 688 00ce 16D0     		beq	.L19
 694:Drivers/STM32F4xx_HAL_Driver/Src/stm32f4xx_hal_ltdc.c ****   {
 695:Drivers/STM32F4xx_HAL_Driver/Src/stm32f4xx_hal_ltdc.c ****     /* Disable the Line interrupt */
 696:Drivers/STM32F4xx_HAL_Driver/Src/stm32f4xx_hal_ltdc.c ****     __HAL_LTDC_DISABLE_IT(hltdc, LTDC_IT_LI);
 689              		.loc 1 696 5
 690 00d0 7B68     		ldr	r3, [r7, #4]
 691 00d2 1B68     		ldr	r3, [r3]
 692 00d4 5A6B     		ldr	r2, [r3, #52]
 693 00d6 7B68     		ldr	r3, [r7, #4]
 694 00d8 1B68     		ldr	r3, [r3]
 695 00da 22F00102 		bic	r2, r2, #1
 696 00de 5A63     		str	r2, [r3, #52]
 697:Drivers/STM32F4xx_HAL_Driver/Src/stm32f4xx_hal_ltdc.c **** 
 698:Drivers/STM32F4xx_HAL_Driver/Src/stm32f4xx_hal_ltdc.c ****     /* Clear the Line interrupt flag */
 699:Drivers/STM32F4xx_HAL_Driver/Src/stm32f4xx_hal_ltdc.c ****     __HAL_LTDC_CLEAR_FLAG(hltdc, LTDC_FLAG_LI);
 697              		.loc 1 699 5
 698 00e0 7B68     		ldr	r3, [r7, #4]
 699 00e2 1B68     		ldr	r3, [r3]
 700 00e4 0122     		movs	r2, #1
 701 00e6 DA63     		str	r2, [r3, #60]
 700:Drivers/STM32F4xx_HAL_Driver/Src/stm32f4xx_hal_ltdc.c **** 
 701:Drivers/STM32F4xx_HAL_Driver/Src/stm32f4xx_hal_ltdc.c ****     /* Change LTDC state */
 702:Drivers/STM32F4xx_HAL_Driver/Src/stm32f4xx_hal_ltdc.c ****     hltdc->State = HAL_LTDC_STATE_READY;
 702              		.loc 1 702 18
 703 00e8 7B68     		ldr	r3, [r7, #4]
 704 00ea 0122     		movs	r2, #1
 705 00ec 83F8A120 		strb	r2, [r3, #161]
 703:Drivers/STM32F4xx_HAL_Driver/Src/stm32f4xx_hal_ltdc.c **** 
 704:Drivers/STM32F4xx_HAL_Driver/Src/stm32f4xx_hal_ltdc.c ****     /* Process unlocked */
 705:Drivers/STM32F4xx_HAL_Driver/Src/stm32f4xx_hal_ltdc.c ****     __HAL_UNLOCK(hltdc);
 706              		.loc 1 705 5
 707 00f0 7B68     		ldr	r3, [r7, #4]
 708 00f2 0022     		movs	r2, #0
 709 00f4 83F8A020 		strb	r2, [r3, #160]
 706:Drivers/STM32F4xx_HAL_Driver/Src/stm32f4xx_hal_ltdc.c **** 
 707:Drivers/STM32F4xx_HAL_Driver/Src/stm32f4xx_hal_ltdc.c ****     /* Line interrupt Callback */
 708:Drivers/STM32F4xx_HAL_Driver/Src/stm32f4xx_hal_ltdc.c **** #if (USE_HAL_LTDC_REGISTER_CALLBACKS == 1)
 709:Drivers/STM32F4xx_HAL_Driver/Src/stm32f4xx_hal_ltdc.c ****     /*Call registered Line Event callback */
 710:Drivers/STM32F4xx_HAL_Driver/Src/stm32f4xx_hal_ltdc.c ****     hltdc->LineEventCallback(hltdc);
 711:Drivers/STM32F4xx_HAL_Driver/Src/stm32f4xx_hal_ltdc.c **** #else
 712:Drivers/STM32F4xx_HAL_Driver/Src/stm32f4xx_hal_ltdc.c ****     /*Call Legacy Line Event callback */
 713:Drivers/STM32F4xx_HAL_Driver/Src/stm32f4xx_hal_ltdc.c ****     HAL_LTDC_LineEventCallback(hltdc);
 710              		.loc 1 713 5
 711 00f8 7868     		ldr	r0, [r7, #4]
 712 00fa FFF7FEFF 		bl	HAL_LTDC_LineEventCallback
 713              	.L19:
 714:Drivers/STM32F4xx_HAL_Driver/Src/stm32f4xx_hal_ltdc.c **** #endif /* USE_HAL_LTDC_REGISTER_CALLBACKS */
 715:Drivers/STM32F4xx_HAL_Driver/Src/stm32f4xx_hal_ltdc.c ****   }
 716:Drivers/STM32F4xx_HAL_Driver/Src/stm32f4xx_hal_ltdc.c **** 
ARM GAS  /var/folders/06/9k7gq4t13mj84z2yhw3grvhc0000gn/T//ccuiTnhW.s 			page 26


 717:Drivers/STM32F4xx_HAL_Driver/Src/stm32f4xx_hal_ltdc.c ****   /* Register reload Interrupt management ***************************************/
 718:Drivers/STM32F4xx_HAL_Driver/Src/stm32f4xx_hal_ltdc.c ****   if (((isrflags & LTDC_ISR_RRIF) != 0U) && ((itsources & LTDC_IER_RRIE) != 0U))
 714              		.loc 1 718 18
 715 00fe FB68     		ldr	r3, [r7, #12]
 716 0100 03F00803 		and	r3, r3, #8
 717              		.loc 1 718 6
 718 0104 002B     		cmp	r3, #0
 719 0106 1BD0     		beq	.L21
 720              		.loc 1 718 57 discriminator 1
 721 0108 BB68     		ldr	r3, [r7, #8]
 722 010a 03F00803 		and	r3, r3, #8
 723              		.loc 1 718 42 discriminator 1
 724 010e 002B     		cmp	r3, #0
 725 0110 16D0     		beq	.L21
 719:Drivers/STM32F4xx_HAL_Driver/Src/stm32f4xx_hal_ltdc.c ****   {
 720:Drivers/STM32F4xx_HAL_Driver/Src/stm32f4xx_hal_ltdc.c ****     /* Disable the register reload interrupt */
 721:Drivers/STM32F4xx_HAL_Driver/Src/stm32f4xx_hal_ltdc.c ****     __HAL_LTDC_DISABLE_IT(hltdc, LTDC_IT_RR);
 726              		.loc 1 721 5
 727 0112 7B68     		ldr	r3, [r7, #4]
 728 0114 1B68     		ldr	r3, [r3]
 729 0116 5A6B     		ldr	r2, [r3, #52]
 730 0118 7B68     		ldr	r3, [r7, #4]
 731 011a 1B68     		ldr	r3, [r3]
 732 011c 22F00802 		bic	r2, r2, #8
 733 0120 5A63     		str	r2, [r3, #52]
 722:Drivers/STM32F4xx_HAL_Driver/Src/stm32f4xx_hal_ltdc.c **** 
 723:Drivers/STM32F4xx_HAL_Driver/Src/stm32f4xx_hal_ltdc.c ****     /* Clear the register reload flag */
 724:Drivers/STM32F4xx_HAL_Driver/Src/stm32f4xx_hal_ltdc.c ****     __HAL_LTDC_CLEAR_FLAG(hltdc, LTDC_FLAG_RR);
 734              		.loc 1 724 5
 735 0122 7B68     		ldr	r3, [r7, #4]
 736 0124 1B68     		ldr	r3, [r3]
 737 0126 0822     		movs	r2, #8
 738 0128 DA63     		str	r2, [r3, #60]
 725:Drivers/STM32F4xx_HAL_Driver/Src/stm32f4xx_hal_ltdc.c **** 
 726:Drivers/STM32F4xx_HAL_Driver/Src/stm32f4xx_hal_ltdc.c ****     /* Change LTDC state */
 727:Drivers/STM32F4xx_HAL_Driver/Src/stm32f4xx_hal_ltdc.c ****     hltdc->State = HAL_LTDC_STATE_READY;
 739              		.loc 1 727 18
 740 012a 7B68     		ldr	r3, [r7, #4]
 741 012c 0122     		movs	r2, #1
 742 012e 83F8A120 		strb	r2, [r3, #161]
 728:Drivers/STM32F4xx_HAL_Driver/Src/stm32f4xx_hal_ltdc.c **** 
 729:Drivers/STM32F4xx_HAL_Driver/Src/stm32f4xx_hal_ltdc.c ****     /* Process unlocked */
 730:Drivers/STM32F4xx_HAL_Driver/Src/stm32f4xx_hal_ltdc.c ****     __HAL_UNLOCK(hltdc);
 743              		.loc 1 730 5
 744 0132 7B68     		ldr	r3, [r7, #4]
 745 0134 0022     		movs	r2, #0
 746 0136 83F8A020 		strb	r2, [r3, #160]
 731:Drivers/STM32F4xx_HAL_Driver/Src/stm32f4xx_hal_ltdc.c **** 
 732:Drivers/STM32F4xx_HAL_Driver/Src/stm32f4xx_hal_ltdc.c ****     /* Reload interrupt Callback */
 733:Drivers/STM32F4xx_HAL_Driver/Src/stm32f4xx_hal_ltdc.c **** #if (USE_HAL_LTDC_REGISTER_CALLBACKS == 1)
 734:Drivers/STM32F4xx_HAL_Driver/Src/stm32f4xx_hal_ltdc.c ****     /*Call registered reload Event callback */
 735:Drivers/STM32F4xx_HAL_Driver/Src/stm32f4xx_hal_ltdc.c ****     hltdc->ReloadEventCallback(hltdc);
 736:Drivers/STM32F4xx_HAL_Driver/Src/stm32f4xx_hal_ltdc.c **** #else
 737:Drivers/STM32F4xx_HAL_Driver/Src/stm32f4xx_hal_ltdc.c ****     /*Call Legacy Reload Event callback */
 738:Drivers/STM32F4xx_HAL_Driver/Src/stm32f4xx_hal_ltdc.c ****     HAL_LTDC_ReloadEventCallback(hltdc);
 747              		.loc 1 738 5
 748 013a 7868     		ldr	r0, [r7, #4]
ARM GAS  /var/folders/06/9k7gq4t13mj84z2yhw3grvhc0000gn/T//ccuiTnhW.s 			page 27


 749 013c FFF7FEFF 		bl	HAL_LTDC_ReloadEventCallback
 750              	.L21:
 739:Drivers/STM32F4xx_HAL_Driver/Src/stm32f4xx_hal_ltdc.c **** #endif /* USE_HAL_LTDC_REGISTER_CALLBACKS */
 740:Drivers/STM32F4xx_HAL_Driver/Src/stm32f4xx_hal_ltdc.c ****   }
 741:Drivers/STM32F4xx_HAL_Driver/Src/stm32f4xx_hal_ltdc.c **** }
 751              		.loc 1 741 1
 752 0140 00BF     		nop
 753 0142 1037     		adds	r7, r7, #16
 754              	.LCFI25:
 755              		.cfi_def_cfa_offset 8
 756 0144 BD46     		mov	sp, r7
 757              	.LCFI26:
 758              		.cfi_def_cfa_register 13
 759              		@ sp needed
 760 0146 80BD     		pop	{r7, pc}
 761              		.cfi_endproc
 762              	.LFE138:
 764              		.section	.text.HAL_LTDC_ErrorCallback,"ax",%progbits
 765              		.align	1
 766              		.weak	HAL_LTDC_ErrorCallback
 767              		.syntax unified
 768              		.thumb
 769              		.thumb_func
 771              	HAL_LTDC_ErrorCallback:
 772              	.LFB139:
 742:Drivers/STM32F4xx_HAL_Driver/Src/stm32f4xx_hal_ltdc.c **** 
 743:Drivers/STM32F4xx_HAL_Driver/Src/stm32f4xx_hal_ltdc.c **** /**
 744:Drivers/STM32F4xx_HAL_Driver/Src/stm32f4xx_hal_ltdc.c ****   * @brief  Error LTDC callback.
 745:Drivers/STM32F4xx_HAL_Driver/Src/stm32f4xx_hal_ltdc.c ****   * @param  hltdc  pointer to a LTDC_HandleTypeDef structure that contains
 746:Drivers/STM32F4xx_HAL_Driver/Src/stm32f4xx_hal_ltdc.c ****   *                the configuration information for the LTDC.
 747:Drivers/STM32F4xx_HAL_Driver/Src/stm32f4xx_hal_ltdc.c ****   * @retval None
 748:Drivers/STM32F4xx_HAL_Driver/Src/stm32f4xx_hal_ltdc.c ****   */
 749:Drivers/STM32F4xx_HAL_Driver/Src/stm32f4xx_hal_ltdc.c **** __weak void HAL_LTDC_ErrorCallback(LTDC_HandleTypeDef *hltdc)
 750:Drivers/STM32F4xx_HAL_Driver/Src/stm32f4xx_hal_ltdc.c **** {
 773              		.loc 1 750 1
 774              		.cfi_startproc
 775              		@ args = 0, pretend = 0, frame = 8
 776              		@ frame_needed = 1, uses_anonymous_args = 0
 777              		@ link register save eliminated.
 778 0000 80B4     		push	{r7}
 779              	.LCFI27:
 780              		.cfi_def_cfa_offset 4
 781              		.cfi_offset 7, -4
 782 0002 83B0     		sub	sp, sp, #12
 783              	.LCFI28:
 784              		.cfi_def_cfa_offset 16
 785 0004 00AF     		add	r7, sp, #0
 786              	.LCFI29:
 787              		.cfi_def_cfa_register 7
 788 0006 7860     		str	r0, [r7, #4]
 751:Drivers/STM32F4xx_HAL_Driver/Src/stm32f4xx_hal_ltdc.c ****   /* Prevent unused argument(s) compilation warning */
 752:Drivers/STM32F4xx_HAL_Driver/Src/stm32f4xx_hal_ltdc.c ****   UNUSED(hltdc);
 753:Drivers/STM32F4xx_HAL_Driver/Src/stm32f4xx_hal_ltdc.c **** 
 754:Drivers/STM32F4xx_HAL_Driver/Src/stm32f4xx_hal_ltdc.c ****   /* NOTE : This function should not be modified, when the callback is needed,
 755:Drivers/STM32F4xx_HAL_Driver/Src/stm32f4xx_hal_ltdc.c ****             the HAL_LTDC_ErrorCallback could be implemented in the user file
 756:Drivers/STM32F4xx_HAL_Driver/Src/stm32f4xx_hal_ltdc.c ****    */
 757:Drivers/STM32F4xx_HAL_Driver/Src/stm32f4xx_hal_ltdc.c **** }
ARM GAS  /var/folders/06/9k7gq4t13mj84z2yhw3grvhc0000gn/T//ccuiTnhW.s 			page 28


 789              		.loc 1 757 1
 790 0008 00BF     		nop
 791 000a 0C37     		adds	r7, r7, #12
 792              	.LCFI30:
 793              		.cfi_def_cfa_offset 4
 794 000c BD46     		mov	sp, r7
 795              	.LCFI31:
 796              		.cfi_def_cfa_register 13
 797              		@ sp needed
 798 000e 5DF8047B 		ldr	r7, [sp], #4
 799              	.LCFI32:
 800              		.cfi_restore 7
 801              		.cfi_def_cfa_offset 0
 802 0012 7047     		bx	lr
 803              		.cfi_endproc
 804              	.LFE139:
 806              		.section	.text.HAL_LTDC_LineEventCallback,"ax",%progbits
 807              		.align	1
 808              		.weak	HAL_LTDC_LineEventCallback
 809              		.syntax unified
 810              		.thumb
 811              		.thumb_func
 813              	HAL_LTDC_LineEventCallback:
 814              	.LFB140:
 758:Drivers/STM32F4xx_HAL_Driver/Src/stm32f4xx_hal_ltdc.c **** 
 759:Drivers/STM32F4xx_HAL_Driver/Src/stm32f4xx_hal_ltdc.c **** /**
 760:Drivers/STM32F4xx_HAL_Driver/Src/stm32f4xx_hal_ltdc.c ****   * @brief  Line Event callback.
 761:Drivers/STM32F4xx_HAL_Driver/Src/stm32f4xx_hal_ltdc.c ****   * @param  hltdc  pointer to a LTDC_HandleTypeDef structure that contains
 762:Drivers/STM32F4xx_HAL_Driver/Src/stm32f4xx_hal_ltdc.c ****   *                the configuration information for the LTDC.
 763:Drivers/STM32F4xx_HAL_Driver/Src/stm32f4xx_hal_ltdc.c ****   * @retval None
 764:Drivers/STM32F4xx_HAL_Driver/Src/stm32f4xx_hal_ltdc.c ****   */
 765:Drivers/STM32F4xx_HAL_Driver/Src/stm32f4xx_hal_ltdc.c **** __weak void HAL_LTDC_LineEventCallback(LTDC_HandleTypeDef *hltdc)
 766:Drivers/STM32F4xx_HAL_Driver/Src/stm32f4xx_hal_ltdc.c **** {
 815              		.loc 1 766 1
 816              		.cfi_startproc
 817              		@ args = 0, pretend = 0, frame = 8
 818              		@ frame_needed = 1, uses_anonymous_args = 0
 819              		@ link register save eliminated.
 820 0000 80B4     		push	{r7}
 821              	.LCFI33:
 822              		.cfi_def_cfa_offset 4
 823              		.cfi_offset 7, -4
 824 0002 83B0     		sub	sp, sp, #12
 825              	.LCFI34:
 826              		.cfi_def_cfa_offset 16
 827 0004 00AF     		add	r7, sp, #0
 828              	.LCFI35:
 829              		.cfi_def_cfa_register 7
 830 0006 7860     		str	r0, [r7, #4]
 767:Drivers/STM32F4xx_HAL_Driver/Src/stm32f4xx_hal_ltdc.c ****   /* Prevent unused argument(s) compilation warning */
 768:Drivers/STM32F4xx_HAL_Driver/Src/stm32f4xx_hal_ltdc.c ****   UNUSED(hltdc);
 769:Drivers/STM32F4xx_HAL_Driver/Src/stm32f4xx_hal_ltdc.c **** 
 770:Drivers/STM32F4xx_HAL_Driver/Src/stm32f4xx_hal_ltdc.c ****   /* NOTE : This function should not be modified, when the callback is needed,
 771:Drivers/STM32F4xx_HAL_Driver/Src/stm32f4xx_hal_ltdc.c ****             the HAL_LTDC_LineEventCallback could be implemented in the user file
 772:Drivers/STM32F4xx_HAL_Driver/Src/stm32f4xx_hal_ltdc.c ****    */
 773:Drivers/STM32F4xx_HAL_Driver/Src/stm32f4xx_hal_ltdc.c **** }
 831              		.loc 1 773 1
ARM GAS  /var/folders/06/9k7gq4t13mj84z2yhw3grvhc0000gn/T//ccuiTnhW.s 			page 29


 832 0008 00BF     		nop
 833 000a 0C37     		adds	r7, r7, #12
 834              	.LCFI36:
 835              		.cfi_def_cfa_offset 4
 836 000c BD46     		mov	sp, r7
 837              	.LCFI37:
 838              		.cfi_def_cfa_register 13
 839              		@ sp needed
 840 000e 5DF8047B 		ldr	r7, [sp], #4
 841              	.LCFI38:
 842              		.cfi_restore 7
 843              		.cfi_def_cfa_offset 0
 844 0012 7047     		bx	lr
 845              		.cfi_endproc
 846              	.LFE140:
 848              		.section	.text.HAL_LTDC_ReloadEventCallback,"ax",%progbits
 849              		.align	1
 850              		.weak	HAL_LTDC_ReloadEventCallback
 851              		.syntax unified
 852              		.thumb
 853              		.thumb_func
 855              	HAL_LTDC_ReloadEventCallback:
 856              	.LFB141:
 774:Drivers/STM32F4xx_HAL_Driver/Src/stm32f4xx_hal_ltdc.c **** 
 775:Drivers/STM32F4xx_HAL_Driver/Src/stm32f4xx_hal_ltdc.c **** /**
 776:Drivers/STM32F4xx_HAL_Driver/Src/stm32f4xx_hal_ltdc.c ****   * @brief  Reload Event callback.
 777:Drivers/STM32F4xx_HAL_Driver/Src/stm32f4xx_hal_ltdc.c ****   * @param  hltdc  pointer to a LTDC_HandleTypeDef structure that contains
 778:Drivers/STM32F4xx_HAL_Driver/Src/stm32f4xx_hal_ltdc.c ****   *                the configuration information for the LTDC.
 779:Drivers/STM32F4xx_HAL_Driver/Src/stm32f4xx_hal_ltdc.c ****   * @retval None
 780:Drivers/STM32F4xx_HAL_Driver/Src/stm32f4xx_hal_ltdc.c ****   */
 781:Drivers/STM32F4xx_HAL_Driver/Src/stm32f4xx_hal_ltdc.c **** __weak void HAL_LTDC_ReloadEventCallback(LTDC_HandleTypeDef *hltdc)
 782:Drivers/STM32F4xx_HAL_Driver/Src/stm32f4xx_hal_ltdc.c **** {
 857              		.loc 1 782 1
 858              		.cfi_startproc
 859              		@ args = 0, pretend = 0, frame = 8
 860              		@ frame_needed = 1, uses_anonymous_args = 0
 861              		@ link register save eliminated.
 862 0000 80B4     		push	{r7}
 863              	.LCFI39:
 864              		.cfi_def_cfa_offset 4
 865              		.cfi_offset 7, -4
 866 0002 83B0     		sub	sp, sp, #12
 867              	.LCFI40:
 868              		.cfi_def_cfa_offset 16
 869 0004 00AF     		add	r7, sp, #0
 870              	.LCFI41:
 871              		.cfi_def_cfa_register 7
 872 0006 7860     		str	r0, [r7, #4]
 783:Drivers/STM32F4xx_HAL_Driver/Src/stm32f4xx_hal_ltdc.c ****   /* Prevent unused argument(s) compilation warning */
 784:Drivers/STM32F4xx_HAL_Driver/Src/stm32f4xx_hal_ltdc.c ****   UNUSED(hltdc);
 785:Drivers/STM32F4xx_HAL_Driver/Src/stm32f4xx_hal_ltdc.c **** 
 786:Drivers/STM32F4xx_HAL_Driver/Src/stm32f4xx_hal_ltdc.c ****   /* NOTE : This function should not be modified, when the callback is needed,
 787:Drivers/STM32F4xx_HAL_Driver/Src/stm32f4xx_hal_ltdc.c ****             the HAL_LTDC_ReloadEvenCallback could be implemented in the user file
 788:Drivers/STM32F4xx_HAL_Driver/Src/stm32f4xx_hal_ltdc.c ****    */
 789:Drivers/STM32F4xx_HAL_Driver/Src/stm32f4xx_hal_ltdc.c **** }
 873              		.loc 1 789 1
 874 0008 00BF     		nop
ARM GAS  /var/folders/06/9k7gq4t13mj84z2yhw3grvhc0000gn/T//ccuiTnhW.s 			page 30


 875 000a 0C37     		adds	r7, r7, #12
 876              	.LCFI42:
 877              		.cfi_def_cfa_offset 4
 878 000c BD46     		mov	sp, r7
 879              	.LCFI43:
 880              		.cfi_def_cfa_register 13
 881              		@ sp needed
 882 000e 5DF8047B 		ldr	r7, [sp], #4
 883              	.LCFI44:
 884              		.cfi_restore 7
 885              		.cfi_def_cfa_offset 0
 886 0012 7047     		bx	lr
 887              		.cfi_endproc
 888              	.LFE141:
 890              		.section	.text.HAL_LTDC_ConfigLayer,"ax",%progbits
 891              		.align	1
 892              		.global	HAL_LTDC_ConfigLayer
 893              		.syntax unified
 894              		.thumb
 895              		.thumb_func
 897              	HAL_LTDC_ConfigLayer:
 898              	.LFB142:
 790:Drivers/STM32F4xx_HAL_Driver/Src/stm32f4xx_hal_ltdc.c **** 
 791:Drivers/STM32F4xx_HAL_Driver/Src/stm32f4xx_hal_ltdc.c **** /**
 792:Drivers/STM32F4xx_HAL_Driver/Src/stm32f4xx_hal_ltdc.c ****   * @}
 793:Drivers/STM32F4xx_HAL_Driver/Src/stm32f4xx_hal_ltdc.c ****   */
 794:Drivers/STM32F4xx_HAL_Driver/Src/stm32f4xx_hal_ltdc.c **** 
 795:Drivers/STM32F4xx_HAL_Driver/Src/stm32f4xx_hal_ltdc.c **** /** @defgroup LTDC_Exported_Functions_Group3 Peripheral Control functions
 796:Drivers/STM32F4xx_HAL_Driver/Src/stm32f4xx_hal_ltdc.c ****   *  @brief    Peripheral Control functions
 797:Drivers/STM32F4xx_HAL_Driver/Src/stm32f4xx_hal_ltdc.c ****   *
 798:Drivers/STM32F4xx_HAL_Driver/Src/stm32f4xx_hal_ltdc.c **** @verbatim
 799:Drivers/STM32F4xx_HAL_Driver/Src/stm32f4xx_hal_ltdc.c ****  ===============================================================================
 800:Drivers/STM32F4xx_HAL_Driver/Src/stm32f4xx_hal_ltdc.c ****                     ##### Peripheral Control functions #####
 801:Drivers/STM32F4xx_HAL_Driver/Src/stm32f4xx_hal_ltdc.c ****  ===============================================================================
 802:Drivers/STM32F4xx_HAL_Driver/Src/stm32f4xx_hal_ltdc.c ****     [..]  This section provides functions allowing to:
 803:Drivers/STM32F4xx_HAL_Driver/Src/stm32f4xx_hal_ltdc.c ****       (+) Configure the LTDC foreground or/and background parameters.
 804:Drivers/STM32F4xx_HAL_Driver/Src/stm32f4xx_hal_ltdc.c ****       (+) Set the active layer.
 805:Drivers/STM32F4xx_HAL_Driver/Src/stm32f4xx_hal_ltdc.c ****       (+) Configure the color keying.
 806:Drivers/STM32F4xx_HAL_Driver/Src/stm32f4xx_hal_ltdc.c ****       (+) Configure the C-LUT.
 807:Drivers/STM32F4xx_HAL_Driver/Src/stm32f4xx_hal_ltdc.c ****       (+) Enable / Disable the color keying.
 808:Drivers/STM32F4xx_HAL_Driver/Src/stm32f4xx_hal_ltdc.c ****       (+) Enable / Disable the C-LUT.
 809:Drivers/STM32F4xx_HAL_Driver/Src/stm32f4xx_hal_ltdc.c ****       (+) Update the layer position.
 810:Drivers/STM32F4xx_HAL_Driver/Src/stm32f4xx_hal_ltdc.c ****       (+) Update the layer size.
 811:Drivers/STM32F4xx_HAL_Driver/Src/stm32f4xx_hal_ltdc.c ****       (+) Update pixel format on the fly.
 812:Drivers/STM32F4xx_HAL_Driver/Src/stm32f4xx_hal_ltdc.c ****       (+) Update transparency on the fly.
 813:Drivers/STM32F4xx_HAL_Driver/Src/stm32f4xx_hal_ltdc.c ****       (+) Update address on the fly.
 814:Drivers/STM32F4xx_HAL_Driver/Src/stm32f4xx_hal_ltdc.c **** 
 815:Drivers/STM32F4xx_HAL_Driver/Src/stm32f4xx_hal_ltdc.c **** @endverbatim
 816:Drivers/STM32F4xx_HAL_Driver/Src/stm32f4xx_hal_ltdc.c ****   * @{
 817:Drivers/STM32F4xx_HAL_Driver/Src/stm32f4xx_hal_ltdc.c ****   */
 818:Drivers/STM32F4xx_HAL_Driver/Src/stm32f4xx_hal_ltdc.c **** 
 819:Drivers/STM32F4xx_HAL_Driver/Src/stm32f4xx_hal_ltdc.c **** /**
 820:Drivers/STM32F4xx_HAL_Driver/Src/stm32f4xx_hal_ltdc.c ****   * @brief  Configure the LTDC Layer according to the specified
 821:Drivers/STM32F4xx_HAL_Driver/Src/stm32f4xx_hal_ltdc.c ****   *         parameters in the LTDC_InitTypeDef and create the associated handle.
 822:Drivers/STM32F4xx_HAL_Driver/Src/stm32f4xx_hal_ltdc.c ****   * @param  hltdc      pointer to a LTDC_HandleTypeDef structure that contains
 823:Drivers/STM32F4xx_HAL_Driver/Src/stm32f4xx_hal_ltdc.c ****   *                    the configuration information for the LTDC.
 824:Drivers/STM32F4xx_HAL_Driver/Src/stm32f4xx_hal_ltdc.c ****   * @param  pLayerCfg  pointer to a LTDC_LayerCfgTypeDef structure that contains
ARM GAS  /var/folders/06/9k7gq4t13mj84z2yhw3grvhc0000gn/T//ccuiTnhW.s 			page 31


 825:Drivers/STM32F4xx_HAL_Driver/Src/stm32f4xx_hal_ltdc.c ****   *                    the configuration information for the Layer.
 826:Drivers/STM32F4xx_HAL_Driver/Src/stm32f4xx_hal_ltdc.c ****   * @param  LayerIdx  LTDC Layer index.
 827:Drivers/STM32F4xx_HAL_Driver/Src/stm32f4xx_hal_ltdc.c ****   *                    This parameter can be one of the following values:
 828:Drivers/STM32F4xx_HAL_Driver/Src/stm32f4xx_hal_ltdc.c ****   *                    LTDC_LAYER_1 (0) or LTDC_LAYER_2 (1)
 829:Drivers/STM32F4xx_HAL_Driver/Src/stm32f4xx_hal_ltdc.c ****   * @retval HAL status
 830:Drivers/STM32F4xx_HAL_Driver/Src/stm32f4xx_hal_ltdc.c ****   */
 831:Drivers/STM32F4xx_HAL_Driver/Src/stm32f4xx_hal_ltdc.c **** HAL_StatusTypeDef HAL_LTDC_ConfigLayer(LTDC_HandleTypeDef *hltdc, LTDC_LayerCfgTypeDef *pLayerCfg, 
 832:Drivers/STM32F4xx_HAL_Driver/Src/stm32f4xx_hal_ltdc.c **** {
 899              		.loc 1 832 1
 900              		.cfi_startproc
 901              		@ args = 0, pretend = 0, frame = 16
 902              		@ frame_needed = 1, uses_anonymous_args = 0
 903 0000 B0B5     		push	{r4, r5, r7, lr}
 904              	.LCFI45:
 905              		.cfi_def_cfa_offset 16
 906              		.cfi_offset 4, -16
 907              		.cfi_offset 5, -12
 908              		.cfi_offset 7, -8
 909              		.cfi_offset 14, -4
 910 0002 84B0     		sub	sp, sp, #16
 911              	.LCFI46:
 912              		.cfi_def_cfa_offset 32
 913 0004 00AF     		add	r7, sp, #0
 914              	.LCFI47:
 915              		.cfi_def_cfa_register 7
 916 0006 F860     		str	r0, [r7, #12]
 917 0008 B960     		str	r1, [r7, #8]
 918 000a 7A60     		str	r2, [r7, #4]
 833:Drivers/STM32F4xx_HAL_Driver/Src/stm32f4xx_hal_ltdc.c ****   /* Check the parameters */
 834:Drivers/STM32F4xx_HAL_Driver/Src/stm32f4xx_hal_ltdc.c ****   assert_param(IS_LTDC_LAYER(LayerIdx));
 835:Drivers/STM32F4xx_HAL_Driver/Src/stm32f4xx_hal_ltdc.c ****   assert_param(IS_LTDC_HCONFIGST(pLayerCfg->WindowX0));
 836:Drivers/STM32F4xx_HAL_Driver/Src/stm32f4xx_hal_ltdc.c ****   assert_param(IS_LTDC_HCONFIGSP(pLayerCfg->WindowX1));
 837:Drivers/STM32F4xx_HAL_Driver/Src/stm32f4xx_hal_ltdc.c ****   assert_param(IS_LTDC_VCONFIGST(pLayerCfg->WindowY0));
 838:Drivers/STM32F4xx_HAL_Driver/Src/stm32f4xx_hal_ltdc.c ****   assert_param(IS_LTDC_VCONFIGSP(pLayerCfg->WindowY1));
 839:Drivers/STM32F4xx_HAL_Driver/Src/stm32f4xx_hal_ltdc.c ****   assert_param(IS_LTDC_PIXEL_FORMAT(pLayerCfg->PixelFormat));
 840:Drivers/STM32F4xx_HAL_Driver/Src/stm32f4xx_hal_ltdc.c ****   assert_param(IS_LTDC_ALPHA(pLayerCfg->Alpha));
 841:Drivers/STM32F4xx_HAL_Driver/Src/stm32f4xx_hal_ltdc.c ****   assert_param(IS_LTDC_ALPHA(pLayerCfg->Alpha0));
 842:Drivers/STM32F4xx_HAL_Driver/Src/stm32f4xx_hal_ltdc.c ****   assert_param(IS_LTDC_BLENDING_FACTOR1(pLayerCfg->BlendingFactor1));
 843:Drivers/STM32F4xx_HAL_Driver/Src/stm32f4xx_hal_ltdc.c ****   assert_param(IS_LTDC_BLENDING_FACTOR2(pLayerCfg->BlendingFactor2));
 844:Drivers/STM32F4xx_HAL_Driver/Src/stm32f4xx_hal_ltdc.c ****   assert_param(IS_LTDC_CFBLL(pLayerCfg->ImageWidth));
 845:Drivers/STM32F4xx_HAL_Driver/Src/stm32f4xx_hal_ltdc.c ****   assert_param(IS_LTDC_CFBLNBR(pLayerCfg->ImageHeight));
 846:Drivers/STM32F4xx_HAL_Driver/Src/stm32f4xx_hal_ltdc.c **** 
 847:Drivers/STM32F4xx_HAL_Driver/Src/stm32f4xx_hal_ltdc.c ****   /* Process locked */
 848:Drivers/STM32F4xx_HAL_Driver/Src/stm32f4xx_hal_ltdc.c ****   __HAL_LOCK(hltdc);
 919              		.loc 1 848 3
 920 000c FB68     		ldr	r3, [r7, #12]
 921 000e 93F8A030 		ldrb	r3, [r3, #160]	@ zero_extendqisi2
 922 0012 012B     		cmp	r3, #1
 923 0014 01D1     		bne	.L26
 924              		.loc 1 848 3 is_stmt 0 discriminator 1
 925 0016 0223     		movs	r3, #2
 926              		.loc 1 848 3
 927 0018 2CE0     		b	.L27
 928              	.L26:
 929              		.loc 1 848 3 discriminator 2
 930 001a FB68     		ldr	r3, [r7, #12]
 931 001c 0122     		movs	r2, #1
ARM GAS  /var/folders/06/9k7gq4t13mj84z2yhw3grvhc0000gn/T//ccuiTnhW.s 			page 32


 932 001e 83F8A020 		strb	r2, [r3, #160]
 849:Drivers/STM32F4xx_HAL_Driver/Src/stm32f4xx_hal_ltdc.c **** 
 850:Drivers/STM32F4xx_HAL_Driver/Src/stm32f4xx_hal_ltdc.c ****   /* Change LTDC peripheral state */
 851:Drivers/STM32F4xx_HAL_Driver/Src/stm32f4xx_hal_ltdc.c ****   hltdc->State = HAL_LTDC_STATE_BUSY;
 933              		.loc 1 851 16 is_stmt 1
 934 0022 FB68     		ldr	r3, [r7, #12]
 935 0024 0222     		movs	r2, #2
 936 0026 83F8A120 		strb	r2, [r3, #161]
 852:Drivers/STM32F4xx_HAL_Driver/Src/stm32f4xx_hal_ltdc.c **** 
 853:Drivers/STM32F4xx_HAL_Driver/Src/stm32f4xx_hal_ltdc.c ****   /* Copy new layer configuration into handle structure */
 854:Drivers/STM32F4xx_HAL_Driver/Src/stm32f4xx_hal_ltdc.c ****   hltdc->LayerCfg[LayerIdx] = *pLayerCfg;
 937              		.loc 1 854 29
 938 002a FA68     		ldr	r2, [r7, #12]
 939 002c 7B68     		ldr	r3, [r7, #4]
 940 002e 3421     		movs	r1, #52
 941 0030 01FB03F3 		mul	r3, r1, r3
 942 0034 1344     		add	r3, r3, r2
 943 0036 03F13802 		add	r2, r3, #56
 944 003a BB68     		ldr	r3, [r7, #8]
 945 003c 1446     		mov	r4, r2
 946 003e 1D46     		mov	r5, r3
 947 0040 0FCD     		ldmia	r5!, {r0, r1, r2, r3}
 948 0042 0FC4     		stmia	r4!, {r0, r1, r2, r3}
 949 0044 0FCD     		ldmia	r5!, {r0, r1, r2, r3}
 950 0046 0FC4     		stmia	r4!, {r0, r1, r2, r3}
 951 0048 0FCD     		ldmia	r5!, {r0, r1, r2, r3}
 952 004a 0FC4     		stmia	r4!, {r0, r1, r2, r3}
 953 004c 2B68     		ldr	r3, [r5]
 954 004e 2360     		str	r3, [r4]
 855:Drivers/STM32F4xx_HAL_Driver/Src/stm32f4xx_hal_ltdc.c **** 
 856:Drivers/STM32F4xx_HAL_Driver/Src/stm32f4xx_hal_ltdc.c ****   /* Configure the LTDC Layer */
 857:Drivers/STM32F4xx_HAL_Driver/Src/stm32f4xx_hal_ltdc.c ****   LTDC_SetConfig(hltdc, pLayerCfg, LayerIdx);
 955              		.loc 1 857 3
 956 0050 7A68     		ldr	r2, [r7, #4]
 957 0052 B968     		ldr	r1, [r7, #8]
 958 0054 F868     		ldr	r0, [r7, #12]
 959 0056 FFF7FEFF 		bl	LTDC_SetConfig
 858:Drivers/STM32F4xx_HAL_Driver/Src/stm32f4xx_hal_ltdc.c **** 
 859:Drivers/STM32F4xx_HAL_Driver/Src/stm32f4xx_hal_ltdc.c ****   /* Set the Immediate Reload type */
 860:Drivers/STM32F4xx_HAL_Driver/Src/stm32f4xx_hal_ltdc.c ****   hltdc->Instance->SRCR = LTDC_SRCR_IMR;
 960              		.loc 1 860 8
 961 005a FB68     		ldr	r3, [r7, #12]
 962 005c 1B68     		ldr	r3, [r3]
 963              		.loc 1 860 25
 964 005e 0122     		movs	r2, #1
 965 0060 5A62     		str	r2, [r3, #36]
 861:Drivers/STM32F4xx_HAL_Driver/Src/stm32f4xx_hal_ltdc.c **** 
 862:Drivers/STM32F4xx_HAL_Driver/Src/stm32f4xx_hal_ltdc.c ****   /* Initialize the LTDC state*/
 863:Drivers/STM32F4xx_HAL_Driver/Src/stm32f4xx_hal_ltdc.c ****   hltdc->State  = HAL_LTDC_STATE_READY;
 966              		.loc 1 863 17
 967 0062 FB68     		ldr	r3, [r7, #12]
 968 0064 0122     		movs	r2, #1
 969 0066 83F8A120 		strb	r2, [r3, #161]
 864:Drivers/STM32F4xx_HAL_Driver/Src/stm32f4xx_hal_ltdc.c **** 
 865:Drivers/STM32F4xx_HAL_Driver/Src/stm32f4xx_hal_ltdc.c ****   /* Process unlocked */
 866:Drivers/STM32F4xx_HAL_Driver/Src/stm32f4xx_hal_ltdc.c ****   __HAL_UNLOCK(hltdc);
 970              		.loc 1 866 3
ARM GAS  /var/folders/06/9k7gq4t13mj84z2yhw3grvhc0000gn/T//ccuiTnhW.s 			page 33


 971 006a FB68     		ldr	r3, [r7, #12]
 972 006c 0022     		movs	r2, #0
 973 006e 83F8A020 		strb	r2, [r3, #160]
 867:Drivers/STM32F4xx_HAL_Driver/Src/stm32f4xx_hal_ltdc.c **** 
 868:Drivers/STM32F4xx_HAL_Driver/Src/stm32f4xx_hal_ltdc.c ****   return HAL_OK;
 974              		.loc 1 868 10
 975 0072 0023     		movs	r3, #0
 976              	.L27:
 869:Drivers/STM32F4xx_HAL_Driver/Src/stm32f4xx_hal_ltdc.c **** }
 977              		.loc 1 869 1
 978 0074 1846     		mov	r0, r3
 979 0076 1037     		adds	r7, r7, #16
 980              	.LCFI48:
 981              		.cfi_def_cfa_offset 16
 982 0078 BD46     		mov	sp, r7
 983              	.LCFI49:
 984              		.cfi_def_cfa_register 13
 985              		@ sp needed
 986 007a B0BD     		pop	{r4, r5, r7, pc}
 987              		.cfi_endproc
 988              	.LFE142:
 990              		.section	.text.HAL_LTDC_ConfigColorKeying,"ax",%progbits
 991              		.align	1
 992              		.global	HAL_LTDC_ConfigColorKeying
 993              		.syntax unified
 994              		.thumb
 995              		.thumb_func
 997              	HAL_LTDC_ConfigColorKeying:
 998              	.LFB143:
 870:Drivers/STM32F4xx_HAL_Driver/Src/stm32f4xx_hal_ltdc.c **** 
 871:Drivers/STM32F4xx_HAL_Driver/Src/stm32f4xx_hal_ltdc.c **** /**
 872:Drivers/STM32F4xx_HAL_Driver/Src/stm32f4xx_hal_ltdc.c ****   * @brief  Configure the color keying.
 873:Drivers/STM32F4xx_HAL_Driver/Src/stm32f4xx_hal_ltdc.c ****   * @param  hltdc     pointer to a LTDC_HandleTypeDef structure that contains
 874:Drivers/STM32F4xx_HAL_Driver/Src/stm32f4xx_hal_ltdc.c ****   *                   the configuration information for the LTDC.
 875:Drivers/STM32F4xx_HAL_Driver/Src/stm32f4xx_hal_ltdc.c ****   * @param  RGBValue  the color key value
 876:Drivers/STM32F4xx_HAL_Driver/Src/stm32f4xx_hal_ltdc.c ****   * @param  LayerIdx  LTDC Layer index.
 877:Drivers/STM32F4xx_HAL_Driver/Src/stm32f4xx_hal_ltdc.c ****   *                   This parameter can be one of the following values:
 878:Drivers/STM32F4xx_HAL_Driver/Src/stm32f4xx_hal_ltdc.c ****   *                   LTDC_LAYER_1 (0) or LTDC_LAYER_2 (1)
 879:Drivers/STM32F4xx_HAL_Driver/Src/stm32f4xx_hal_ltdc.c ****   * @retval HAL status
 880:Drivers/STM32F4xx_HAL_Driver/Src/stm32f4xx_hal_ltdc.c ****   */
 881:Drivers/STM32F4xx_HAL_Driver/Src/stm32f4xx_hal_ltdc.c **** HAL_StatusTypeDef HAL_LTDC_ConfigColorKeying(LTDC_HandleTypeDef *hltdc, uint32_t RGBValue, uint32_t
 882:Drivers/STM32F4xx_HAL_Driver/Src/stm32f4xx_hal_ltdc.c **** {
 999              		.loc 1 882 1
 1000              		.cfi_startproc
 1001              		@ args = 0, pretend = 0, frame = 16
 1002              		@ frame_needed = 1, uses_anonymous_args = 0
 1003              		@ link register save eliminated.
 1004 0000 80B4     		push	{r7}
 1005              	.LCFI50:
 1006              		.cfi_def_cfa_offset 4
 1007              		.cfi_offset 7, -4
 1008 0002 85B0     		sub	sp, sp, #20
 1009              	.LCFI51:
 1010              		.cfi_def_cfa_offset 24
 1011 0004 00AF     		add	r7, sp, #0
 1012              	.LCFI52:
 1013              		.cfi_def_cfa_register 7
ARM GAS  /var/folders/06/9k7gq4t13mj84z2yhw3grvhc0000gn/T//ccuiTnhW.s 			page 34


 1014 0006 F860     		str	r0, [r7, #12]
 1015 0008 B960     		str	r1, [r7, #8]
 1016 000a 7A60     		str	r2, [r7, #4]
 883:Drivers/STM32F4xx_HAL_Driver/Src/stm32f4xx_hal_ltdc.c ****   /* Check the parameters */
 884:Drivers/STM32F4xx_HAL_Driver/Src/stm32f4xx_hal_ltdc.c ****   assert_param(IS_LTDC_LAYER(LayerIdx));
 885:Drivers/STM32F4xx_HAL_Driver/Src/stm32f4xx_hal_ltdc.c **** 
 886:Drivers/STM32F4xx_HAL_Driver/Src/stm32f4xx_hal_ltdc.c ****   /* Process locked */
 887:Drivers/STM32F4xx_HAL_Driver/Src/stm32f4xx_hal_ltdc.c ****   __HAL_LOCK(hltdc);
 1017              		.loc 1 887 3
 1018 000c FB68     		ldr	r3, [r7, #12]
 1019 000e 93F8A030 		ldrb	r3, [r3, #160]	@ zero_extendqisi2
 1020 0012 012B     		cmp	r3, #1
 1021 0014 01D1     		bne	.L29
 1022              		.loc 1 887 3 is_stmt 0 discriminator 1
 1023 0016 0223     		movs	r3, #2
 1024              		.loc 1 887 3
 1025 0018 30E0     		b	.L30
 1026              	.L29:
 1027              		.loc 1 887 3 discriminator 2
 1028 001a FB68     		ldr	r3, [r7, #12]
 1029 001c 0122     		movs	r2, #1
 1030 001e 83F8A020 		strb	r2, [r3, #160]
 888:Drivers/STM32F4xx_HAL_Driver/Src/stm32f4xx_hal_ltdc.c **** 
 889:Drivers/STM32F4xx_HAL_Driver/Src/stm32f4xx_hal_ltdc.c ****   /* Change LTDC peripheral state */
 890:Drivers/STM32F4xx_HAL_Driver/Src/stm32f4xx_hal_ltdc.c ****   hltdc->State = HAL_LTDC_STATE_BUSY;
 1031              		.loc 1 890 16 is_stmt 1
 1032 0022 FB68     		ldr	r3, [r7, #12]
 1033 0024 0222     		movs	r2, #2
 1034 0026 83F8A120 		strb	r2, [r3, #161]
 891:Drivers/STM32F4xx_HAL_Driver/Src/stm32f4xx_hal_ltdc.c **** 
 892:Drivers/STM32F4xx_HAL_Driver/Src/stm32f4xx_hal_ltdc.c ****   /* Configure the default color values */
 893:Drivers/STM32F4xx_HAL_Driver/Src/stm32f4xx_hal_ltdc.c ****   LTDC_LAYER(hltdc, LayerIdx)->CKCR &=  ~(LTDC_LxCKCR_CKBLUE | LTDC_LxCKCR_CKGREEN | LTDC_LxCKCR_CK
 1035              		.loc 1 893 3
 1036 002a FB68     		ldr	r3, [r7, #12]
 1037 002c 1B68     		ldr	r3, [r3]
 1038              		.loc 1 893 30
 1039 002e 1A46     		mov	r2, r3
 1040 0030 7B68     		ldr	r3, [r7, #4]
 1041 0032 DB01     		lsls	r3, r3, #7
 1042 0034 1344     		add	r3, r3, r2
 1043 0036 8433     		adds	r3, r3, #132
 1044 0038 DB68     		ldr	r3, [r3, #12]
 1045              		.loc 1 893 3
 1046 003a FA68     		ldr	r2, [r7, #12]
 1047 003c 1268     		ldr	r2, [r2]
 1048              		.loc 1 893 30
 1049 003e 1146     		mov	r1, r2
 1050 0040 7A68     		ldr	r2, [r7, #4]
 1051 0042 D201     		lsls	r2, r2, #7
 1052 0044 0A44     		add	r2, r2, r1
 1053 0046 8432     		adds	r2, r2, #132
 1054              		.loc 1 893 37
 1055 0048 03F07F43 		and	r3, r3, #-16777216
 1056 004c D360     		str	r3, [r2, #12]
 894:Drivers/STM32F4xx_HAL_Driver/Src/stm32f4xx_hal_ltdc.c ****   LTDC_LAYER(hltdc, LayerIdx)->CKCR  = RGBValue;
 1057              		.loc 1 894 3
 1058 004e FB68     		ldr	r3, [r7, #12]
ARM GAS  /var/folders/06/9k7gq4t13mj84z2yhw3grvhc0000gn/T//ccuiTnhW.s 			page 35


 1059 0050 1B68     		ldr	r3, [r3]
 1060 0052 1A46     		mov	r2, r3
 1061 0054 7B68     		ldr	r3, [r7, #4]
 1062 0056 DB01     		lsls	r3, r3, #7
 1063 0058 1344     		add	r3, r3, r2
 1064 005a 8433     		adds	r3, r3, #132
 1065 005c 1A46     		mov	r2, r3
 1066              		.loc 1 894 38
 1067 005e BB68     		ldr	r3, [r7, #8]
 1068 0060 D360     		str	r3, [r2, #12]
 895:Drivers/STM32F4xx_HAL_Driver/Src/stm32f4xx_hal_ltdc.c **** 
 896:Drivers/STM32F4xx_HAL_Driver/Src/stm32f4xx_hal_ltdc.c ****   /* Set the Immediate Reload type */
 897:Drivers/STM32F4xx_HAL_Driver/Src/stm32f4xx_hal_ltdc.c ****   hltdc->Instance->SRCR = LTDC_SRCR_IMR;
 1069              		.loc 1 897 8
 1070 0062 FB68     		ldr	r3, [r7, #12]
 1071 0064 1B68     		ldr	r3, [r3]
 1072              		.loc 1 897 25
 1073 0066 0122     		movs	r2, #1
 1074 0068 5A62     		str	r2, [r3, #36]
 898:Drivers/STM32F4xx_HAL_Driver/Src/stm32f4xx_hal_ltdc.c **** 
 899:Drivers/STM32F4xx_HAL_Driver/Src/stm32f4xx_hal_ltdc.c ****   /* Change the LTDC state*/
 900:Drivers/STM32F4xx_HAL_Driver/Src/stm32f4xx_hal_ltdc.c ****   hltdc->State = HAL_LTDC_STATE_READY;
 1075              		.loc 1 900 16
 1076 006a FB68     		ldr	r3, [r7, #12]
 1077 006c 0122     		movs	r2, #1
 1078 006e 83F8A120 		strb	r2, [r3, #161]
 901:Drivers/STM32F4xx_HAL_Driver/Src/stm32f4xx_hal_ltdc.c **** 
 902:Drivers/STM32F4xx_HAL_Driver/Src/stm32f4xx_hal_ltdc.c ****   /* Process unlocked */
 903:Drivers/STM32F4xx_HAL_Driver/Src/stm32f4xx_hal_ltdc.c ****   __HAL_UNLOCK(hltdc);
 1079              		.loc 1 903 3
 1080 0072 FB68     		ldr	r3, [r7, #12]
 1081 0074 0022     		movs	r2, #0
 1082 0076 83F8A020 		strb	r2, [r3, #160]
 904:Drivers/STM32F4xx_HAL_Driver/Src/stm32f4xx_hal_ltdc.c **** 
 905:Drivers/STM32F4xx_HAL_Driver/Src/stm32f4xx_hal_ltdc.c ****   return HAL_OK;
 1083              		.loc 1 905 10
 1084 007a 0023     		movs	r3, #0
 1085              	.L30:
 906:Drivers/STM32F4xx_HAL_Driver/Src/stm32f4xx_hal_ltdc.c **** }
 1086              		.loc 1 906 1
 1087 007c 1846     		mov	r0, r3
 1088 007e 1437     		adds	r7, r7, #20
 1089              	.LCFI53:
 1090              		.cfi_def_cfa_offset 4
 1091 0080 BD46     		mov	sp, r7
 1092              	.LCFI54:
 1093              		.cfi_def_cfa_register 13
 1094              		@ sp needed
 1095 0082 5DF8047B 		ldr	r7, [sp], #4
 1096              	.LCFI55:
 1097              		.cfi_restore 7
 1098              		.cfi_def_cfa_offset 0
 1099 0086 7047     		bx	lr
 1100              		.cfi_endproc
 1101              	.LFE143:
 1103              		.section	.text.HAL_LTDC_ConfigCLUT,"ax",%progbits
 1104              		.align	1
ARM GAS  /var/folders/06/9k7gq4t13mj84z2yhw3grvhc0000gn/T//ccuiTnhW.s 			page 36


 1105              		.global	HAL_LTDC_ConfigCLUT
 1106              		.syntax unified
 1107              		.thumb
 1108              		.thumb_func
 1110              	HAL_LTDC_ConfigCLUT:
 1111              	.LFB144:
 907:Drivers/STM32F4xx_HAL_Driver/Src/stm32f4xx_hal_ltdc.c **** 
 908:Drivers/STM32F4xx_HAL_Driver/Src/stm32f4xx_hal_ltdc.c **** /**
 909:Drivers/STM32F4xx_HAL_Driver/Src/stm32f4xx_hal_ltdc.c ****   * @brief  Load the color lookup table.
 910:Drivers/STM32F4xx_HAL_Driver/Src/stm32f4xx_hal_ltdc.c ****   * @param  hltdc     pointer to a LTDC_HandleTypeDef structure that contains
 911:Drivers/STM32F4xx_HAL_Driver/Src/stm32f4xx_hal_ltdc.c ****   *                   the configuration information for the LTDC.
 912:Drivers/STM32F4xx_HAL_Driver/Src/stm32f4xx_hal_ltdc.c ****   * @param  pCLUT     pointer to the color lookup table address.
 913:Drivers/STM32F4xx_HAL_Driver/Src/stm32f4xx_hal_ltdc.c ****   * @param  CLUTSize  the color lookup table size.
 914:Drivers/STM32F4xx_HAL_Driver/Src/stm32f4xx_hal_ltdc.c ****   * @param  LayerIdx  LTDC Layer index.
 915:Drivers/STM32F4xx_HAL_Driver/Src/stm32f4xx_hal_ltdc.c ****   *                   This parameter can be one of the following values:
 916:Drivers/STM32F4xx_HAL_Driver/Src/stm32f4xx_hal_ltdc.c ****   *                   LTDC_LAYER_1 (0) or LTDC_LAYER_2 (1)
 917:Drivers/STM32F4xx_HAL_Driver/Src/stm32f4xx_hal_ltdc.c ****   * @retval HAL status
 918:Drivers/STM32F4xx_HAL_Driver/Src/stm32f4xx_hal_ltdc.c ****   */
 919:Drivers/STM32F4xx_HAL_Driver/Src/stm32f4xx_hal_ltdc.c **** HAL_StatusTypeDef HAL_LTDC_ConfigCLUT(LTDC_HandleTypeDef *hltdc, uint32_t *pCLUT, uint32_t CLUTSize
 920:Drivers/STM32F4xx_HAL_Driver/Src/stm32f4xx_hal_ltdc.c **** {
 1112              		.loc 1 920 1
 1113              		.cfi_startproc
 1114              		@ args = 0, pretend = 0, frame = 32
 1115              		@ frame_needed = 1, uses_anonymous_args = 0
 1116              		@ link register save eliminated.
 1117 0000 80B4     		push	{r7}
 1118              	.LCFI56:
 1119              		.cfi_def_cfa_offset 4
 1120              		.cfi_offset 7, -4
 1121 0002 89B0     		sub	sp, sp, #36
 1122              	.LCFI57:
 1123              		.cfi_def_cfa_offset 40
 1124 0004 00AF     		add	r7, sp, #0
 1125              	.LCFI58:
 1126              		.cfi_def_cfa_register 7
 1127 0006 F860     		str	r0, [r7, #12]
 1128 0008 B960     		str	r1, [r7, #8]
 1129 000a 7A60     		str	r2, [r7, #4]
 1130 000c 3B60     		str	r3, [r7]
 921:Drivers/STM32F4xx_HAL_Driver/Src/stm32f4xx_hal_ltdc.c ****   uint32_t tmp;
 922:Drivers/STM32F4xx_HAL_Driver/Src/stm32f4xx_hal_ltdc.c ****   uint32_t counter;
 923:Drivers/STM32F4xx_HAL_Driver/Src/stm32f4xx_hal_ltdc.c ****   uint32_t *pcolorlut = pCLUT;
 1131              		.loc 1 923 13
 1132 000e BB68     		ldr	r3, [r7, #8]
 1133 0010 7B61     		str	r3, [r7, #20]
 924:Drivers/STM32F4xx_HAL_Driver/Src/stm32f4xx_hal_ltdc.c ****   /* Check the parameters */
 925:Drivers/STM32F4xx_HAL_Driver/Src/stm32f4xx_hal_ltdc.c ****   assert_param(IS_LTDC_LAYER(LayerIdx));
 926:Drivers/STM32F4xx_HAL_Driver/Src/stm32f4xx_hal_ltdc.c **** 
 927:Drivers/STM32F4xx_HAL_Driver/Src/stm32f4xx_hal_ltdc.c ****   /* Process locked */
 928:Drivers/STM32F4xx_HAL_Driver/Src/stm32f4xx_hal_ltdc.c ****   __HAL_LOCK(hltdc);
 1134              		.loc 1 928 3
 1135 0012 FB68     		ldr	r3, [r7, #12]
 1136 0014 93F8A030 		ldrb	r3, [r3, #160]	@ zero_extendqisi2
 1137 0018 012B     		cmp	r3, #1
 1138 001a 01D1     		bne	.L32
 1139              		.loc 1 928 3 is_stmt 0 discriminator 1
 1140 001c 0223     		movs	r3, #2
ARM GAS  /var/folders/06/9k7gq4t13mj84z2yhw3grvhc0000gn/T//ccuiTnhW.s 			page 37


 1141              		.loc 1 928 3
 1142 001e 57E0     		b	.L33
 1143              	.L32:
 1144              		.loc 1 928 3 discriminator 2
 1145 0020 FB68     		ldr	r3, [r7, #12]
 1146 0022 0122     		movs	r2, #1
 1147 0024 83F8A020 		strb	r2, [r3, #160]
 929:Drivers/STM32F4xx_HAL_Driver/Src/stm32f4xx_hal_ltdc.c **** 
 930:Drivers/STM32F4xx_HAL_Driver/Src/stm32f4xx_hal_ltdc.c ****   /* Change LTDC peripheral state */
 931:Drivers/STM32F4xx_HAL_Driver/Src/stm32f4xx_hal_ltdc.c ****   hltdc->State = HAL_LTDC_STATE_BUSY;
 1148              		.loc 1 931 16 is_stmt 1
 1149 0028 FB68     		ldr	r3, [r7, #12]
 1150 002a 0222     		movs	r2, #2
 1151 002c 83F8A120 		strb	r2, [r3, #161]
 932:Drivers/STM32F4xx_HAL_Driver/Src/stm32f4xx_hal_ltdc.c **** 
 933:Drivers/STM32F4xx_HAL_Driver/Src/stm32f4xx_hal_ltdc.c ****   for (counter = 0U; (counter < CLUTSize); counter++)
 1152              		.loc 1 933 16
 1153 0030 0023     		movs	r3, #0
 1154 0032 BB61     		str	r3, [r7, #24]
 1155              		.loc 1 933 3
 1156 0034 3FE0     		b	.L34
 1157              	.L37:
 934:Drivers/STM32F4xx_HAL_Driver/Src/stm32f4xx_hal_ltdc.c ****   {
 935:Drivers/STM32F4xx_HAL_Driver/Src/stm32f4xx_hal_ltdc.c ****     if (hltdc->LayerCfg[LayerIdx].PixelFormat == LTDC_PIXEL_FORMAT_AL44)
 1158              		.loc 1 935 34
 1159 0036 FA68     		ldr	r2, [r7, #12]
 1160 0038 3B68     		ldr	r3, [r7]
 1161 003a 3421     		movs	r1, #52
 1162 003c 01FB03F3 		mul	r3, r1, r3
 1163 0040 1344     		add	r3, r3, r2
 1164 0042 4833     		adds	r3, r3, #72
 1165 0044 1B68     		ldr	r3, [r3]
 1166              		.loc 1 935 8
 1167 0046 062B     		cmp	r3, #6
 1168 0048 14D1     		bne	.L35
 936:Drivers/STM32F4xx_HAL_Driver/Src/stm32f4xx_hal_ltdc.c ****     {
 937:Drivers/STM32F4xx_HAL_Driver/Src/stm32f4xx_hal_ltdc.c ****       tmp  = (((counter + (16U * counter)) << 24U) | ((uint32_t)(*pcolorlut) & 0xFFU) | \
 1169              		.loc 1 937 25
 1170 004a BA69     		ldr	r2, [r7, #24]
 1171 004c 1346     		mov	r3, r2
 1172 004e 1B01     		lsls	r3, r3, #4
 1173 0050 1344     		add	r3, r3, r2
 1174              		.loc 1 937 44
 1175 0052 1A06     		lsls	r2, r3, #24
 1176              		.loc 1 937 55
 1177 0054 7B69     		ldr	r3, [r7, #20]
 1178 0056 1B68     		ldr	r3, [r3]
 1179              		.loc 1 937 78
 1180 0058 DBB2     		uxtb	r3, r3
 1181              		.loc 1 937 52
 1182 005a 1A43     		orrs	r2, r2, r3
 938:Drivers/STM32F4xx_HAL_Driver/Src/stm32f4xx_hal_ltdc.c ****               ((uint32_t)(*pcolorlut) & 0xFF00U) | ((uint32_t)(*pcolorlut) & 0xFF0000U));
 1183              		.loc 1 938 16
 1184 005c 7B69     		ldr	r3, [r7, #20]
 1185 005e 1B68     		ldr	r3, [r3]
 1186              		.loc 1 938 39
 1187 0060 03F47F43 		and	r3, r3, #65280
ARM GAS  /var/folders/06/9k7gq4t13mj84z2yhw3grvhc0000gn/T//ccuiTnhW.s 			page 38


 937:Drivers/STM32F4xx_HAL_Driver/Src/stm32f4xx_hal_ltdc.c ****               ((uint32_t)(*pcolorlut) & 0xFF00U) | ((uint32_t)(*pcolorlut) & 0xFF0000U));
 1188              		.loc 1 937 87
 1189 0064 1A43     		orrs	r2, r2, r3
 1190              		.loc 1 938 53
 1191 0066 7B69     		ldr	r3, [r7, #20]
 1192 0068 1B68     		ldr	r3, [r3]
 1193              		.loc 1 938 76
 1194 006a 03F47F03 		and	r3, r3, #16711680
 937:Drivers/STM32F4xx_HAL_Driver/Src/stm32f4xx_hal_ltdc.c ****               ((uint32_t)(*pcolorlut) & 0xFF00U) | ((uint32_t)(*pcolorlut) & 0xFF0000U));
 1195              		.loc 1 937 12
 1196 006e 1343     		orrs	r3, r3, r2
 1197 0070 FB61     		str	r3, [r7, #28]
 1198 0072 10E0     		b	.L36
 1199              	.L35:
 939:Drivers/STM32F4xx_HAL_Driver/Src/stm32f4xx_hal_ltdc.c ****     }
 940:Drivers/STM32F4xx_HAL_Driver/Src/stm32f4xx_hal_ltdc.c ****     else
 941:Drivers/STM32F4xx_HAL_Driver/Src/stm32f4xx_hal_ltdc.c ****     {
 942:Drivers/STM32F4xx_HAL_Driver/Src/stm32f4xx_hal_ltdc.c ****       tmp  = ((counter << 24U) | ((uint32_t)(*pcolorlut) & 0xFFU) | \
 1200              		.loc 1 942 24
 1201 0074 BB69     		ldr	r3, [r7, #24]
 1202 0076 1A06     		lsls	r2, r3, #24
 1203              		.loc 1 942 35
 1204 0078 7B69     		ldr	r3, [r7, #20]
 1205 007a 1B68     		ldr	r3, [r3]
 1206              		.loc 1 942 58
 1207 007c DBB2     		uxtb	r3, r3
 1208              		.loc 1 942 32
 1209 007e 1A43     		orrs	r2, r2, r3
 943:Drivers/STM32F4xx_HAL_Driver/Src/stm32f4xx_hal_ltdc.c ****               ((uint32_t)(*pcolorlut) & 0xFF00U) | ((uint32_t)(*pcolorlut) & 0xFF0000U));
 1210              		.loc 1 943 16
 1211 0080 7B69     		ldr	r3, [r7, #20]
 1212 0082 1B68     		ldr	r3, [r3]
 1213              		.loc 1 943 39
 1214 0084 03F47F43 		and	r3, r3, #65280
 942:Drivers/STM32F4xx_HAL_Driver/Src/stm32f4xx_hal_ltdc.c ****               ((uint32_t)(*pcolorlut) & 0xFF00U) | ((uint32_t)(*pcolorlut) & 0xFF0000U));
 1215              		.loc 1 942 67
 1216 0088 1A43     		orrs	r2, r2, r3
 1217              		.loc 1 943 53
 1218 008a 7B69     		ldr	r3, [r7, #20]
 1219 008c 1B68     		ldr	r3, [r3]
 1220              		.loc 1 943 76
 1221 008e 03F47F03 		and	r3, r3, #16711680
 942:Drivers/STM32F4xx_HAL_Driver/Src/stm32f4xx_hal_ltdc.c ****               ((uint32_t)(*pcolorlut) & 0xFF00U) | ((uint32_t)(*pcolorlut) & 0xFF0000U));
 1222              		.loc 1 942 12
 1223 0092 1343     		orrs	r3, r3, r2
 1224 0094 FB61     		str	r3, [r7, #28]
 1225              	.L36:
 944:Drivers/STM32F4xx_HAL_Driver/Src/stm32f4xx_hal_ltdc.c ****     }
 945:Drivers/STM32F4xx_HAL_Driver/Src/stm32f4xx_hal_ltdc.c **** 
 946:Drivers/STM32F4xx_HAL_Driver/Src/stm32f4xx_hal_ltdc.c ****     pcolorlut++;
 1226              		.loc 1 946 14
 1227 0096 7B69     		ldr	r3, [r7, #20]
 1228 0098 0433     		adds	r3, r3, #4
 1229 009a 7B61     		str	r3, [r7, #20]
 947:Drivers/STM32F4xx_HAL_Driver/Src/stm32f4xx_hal_ltdc.c **** 
 948:Drivers/STM32F4xx_HAL_Driver/Src/stm32f4xx_hal_ltdc.c ****     /* Specifies the C-LUT address and RGB value */
 949:Drivers/STM32F4xx_HAL_Driver/Src/stm32f4xx_hal_ltdc.c ****     LTDC_LAYER(hltdc, LayerIdx)->CLUTWR  = tmp;
ARM GAS  /var/folders/06/9k7gq4t13mj84z2yhw3grvhc0000gn/T//ccuiTnhW.s 			page 39


 1230              		.loc 1 949 5
 1231 009c FB68     		ldr	r3, [r7, #12]
 1232 009e 1B68     		ldr	r3, [r3]
 1233 00a0 1A46     		mov	r2, r3
 1234 00a2 3B68     		ldr	r3, [r7]
 1235 00a4 DB01     		lsls	r3, r3, #7
 1236 00a6 1344     		add	r3, r3, r2
 1237 00a8 8433     		adds	r3, r3, #132
 1238 00aa 1A46     		mov	r2, r3
 1239              		.loc 1 949 42
 1240 00ac FB69     		ldr	r3, [r7, #28]
 1241 00ae 1364     		str	r3, [r2, #64]
 933:Drivers/STM32F4xx_HAL_Driver/Src/stm32f4xx_hal_ltdc.c ****   {
 1242              		.loc 1 933 51 discriminator 2
 1243 00b0 BB69     		ldr	r3, [r7, #24]
 1244 00b2 0133     		adds	r3, r3, #1
 1245 00b4 BB61     		str	r3, [r7, #24]
 1246              	.L34:
 933:Drivers/STM32F4xx_HAL_Driver/Src/stm32f4xx_hal_ltdc.c ****   {
 1247              		.loc 1 933 31 discriminator 1
 1248 00b6 BA69     		ldr	r2, [r7, #24]
 1249 00b8 7B68     		ldr	r3, [r7, #4]
 1250 00ba 9A42     		cmp	r2, r3
 1251 00bc BBD3     		bcc	.L37
 950:Drivers/STM32F4xx_HAL_Driver/Src/stm32f4xx_hal_ltdc.c ****   }
 951:Drivers/STM32F4xx_HAL_Driver/Src/stm32f4xx_hal_ltdc.c **** 
 952:Drivers/STM32F4xx_HAL_Driver/Src/stm32f4xx_hal_ltdc.c ****   /* Change the LTDC state*/
 953:Drivers/STM32F4xx_HAL_Driver/Src/stm32f4xx_hal_ltdc.c ****   hltdc->State = HAL_LTDC_STATE_READY;
 1252              		.loc 1 953 16
 1253 00be FB68     		ldr	r3, [r7, #12]
 1254 00c0 0122     		movs	r2, #1
 1255 00c2 83F8A120 		strb	r2, [r3, #161]
 954:Drivers/STM32F4xx_HAL_Driver/Src/stm32f4xx_hal_ltdc.c **** 
 955:Drivers/STM32F4xx_HAL_Driver/Src/stm32f4xx_hal_ltdc.c ****   /* Process unlocked */
 956:Drivers/STM32F4xx_HAL_Driver/Src/stm32f4xx_hal_ltdc.c ****   __HAL_UNLOCK(hltdc);
 1256              		.loc 1 956 3
 1257 00c6 FB68     		ldr	r3, [r7, #12]
 1258 00c8 0022     		movs	r2, #0
 1259 00ca 83F8A020 		strb	r2, [r3, #160]
 957:Drivers/STM32F4xx_HAL_Driver/Src/stm32f4xx_hal_ltdc.c **** 
 958:Drivers/STM32F4xx_HAL_Driver/Src/stm32f4xx_hal_ltdc.c ****   return HAL_OK;
 1260              		.loc 1 958 10
 1261 00ce 0023     		movs	r3, #0
 1262              	.L33:
 959:Drivers/STM32F4xx_HAL_Driver/Src/stm32f4xx_hal_ltdc.c **** }
 1263              		.loc 1 959 1
 1264 00d0 1846     		mov	r0, r3
 1265 00d2 2437     		adds	r7, r7, #36
 1266              	.LCFI59:
 1267              		.cfi_def_cfa_offset 4
 1268 00d4 BD46     		mov	sp, r7
 1269              	.LCFI60:
 1270              		.cfi_def_cfa_register 13
 1271              		@ sp needed
 1272 00d6 5DF8047B 		ldr	r7, [sp], #4
 1273              	.LCFI61:
 1274              		.cfi_restore 7
ARM GAS  /var/folders/06/9k7gq4t13mj84z2yhw3grvhc0000gn/T//ccuiTnhW.s 			page 40


 1275              		.cfi_def_cfa_offset 0
 1276 00da 7047     		bx	lr
 1277              		.cfi_endproc
 1278              	.LFE144:
 1280              		.section	.text.HAL_LTDC_EnableColorKeying,"ax",%progbits
 1281              		.align	1
 1282              		.global	HAL_LTDC_EnableColorKeying
 1283              		.syntax unified
 1284              		.thumb
 1285              		.thumb_func
 1287              	HAL_LTDC_EnableColorKeying:
 1288              	.LFB145:
 960:Drivers/STM32F4xx_HAL_Driver/Src/stm32f4xx_hal_ltdc.c **** 
 961:Drivers/STM32F4xx_HAL_Driver/Src/stm32f4xx_hal_ltdc.c **** /**
 962:Drivers/STM32F4xx_HAL_Driver/Src/stm32f4xx_hal_ltdc.c ****   * @brief  Enable the color keying.
 963:Drivers/STM32F4xx_HAL_Driver/Src/stm32f4xx_hal_ltdc.c ****   * @param  hltdc     pointer to a LTDC_HandleTypeDef structure that contains
 964:Drivers/STM32F4xx_HAL_Driver/Src/stm32f4xx_hal_ltdc.c ****   *                   the configuration information for the LTDC.
 965:Drivers/STM32F4xx_HAL_Driver/Src/stm32f4xx_hal_ltdc.c ****   * @param  LayerIdx  LTDC Layer index.
 966:Drivers/STM32F4xx_HAL_Driver/Src/stm32f4xx_hal_ltdc.c ****   *                   This parameter can be one of the following values:
 967:Drivers/STM32F4xx_HAL_Driver/Src/stm32f4xx_hal_ltdc.c ****   *                   LTDC_LAYER_1 (0) or LTDC_LAYER_2 (1)
 968:Drivers/STM32F4xx_HAL_Driver/Src/stm32f4xx_hal_ltdc.c ****   * @retval  HAL status
 969:Drivers/STM32F4xx_HAL_Driver/Src/stm32f4xx_hal_ltdc.c ****   */
 970:Drivers/STM32F4xx_HAL_Driver/Src/stm32f4xx_hal_ltdc.c **** HAL_StatusTypeDef HAL_LTDC_EnableColorKeying(LTDC_HandleTypeDef *hltdc, uint32_t LayerIdx)
 971:Drivers/STM32F4xx_HAL_Driver/Src/stm32f4xx_hal_ltdc.c **** {
 1289              		.loc 1 971 1
 1290              		.cfi_startproc
 1291              		@ args = 0, pretend = 0, frame = 8
 1292              		@ frame_needed = 1, uses_anonymous_args = 0
 1293              		@ link register save eliminated.
 1294 0000 80B4     		push	{r7}
 1295              	.LCFI62:
 1296              		.cfi_def_cfa_offset 4
 1297              		.cfi_offset 7, -4
 1298 0002 83B0     		sub	sp, sp, #12
 1299              	.LCFI63:
 1300              		.cfi_def_cfa_offset 16
 1301 0004 00AF     		add	r7, sp, #0
 1302              	.LCFI64:
 1303              		.cfi_def_cfa_register 7
 1304 0006 7860     		str	r0, [r7, #4]
 1305 0008 3960     		str	r1, [r7]
 972:Drivers/STM32F4xx_HAL_Driver/Src/stm32f4xx_hal_ltdc.c ****   /* Check the parameters */
 973:Drivers/STM32F4xx_HAL_Driver/Src/stm32f4xx_hal_ltdc.c ****   assert_param(IS_LTDC_LAYER(LayerIdx));
 974:Drivers/STM32F4xx_HAL_Driver/Src/stm32f4xx_hal_ltdc.c **** 
 975:Drivers/STM32F4xx_HAL_Driver/Src/stm32f4xx_hal_ltdc.c ****   /* Process locked */
 976:Drivers/STM32F4xx_HAL_Driver/Src/stm32f4xx_hal_ltdc.c ****   __HAL_LOCK(hltdc);
 1306              		.loc 1 976 3
 1307 000a 7B68     		ldr	r3, [r7, #4]
 1308 000c 93F8A030 		ldrb	r3, [r3, #160]	@ zero_extendqisi2
 1309 0010 012B     		cmp	r3, #1
 1310 0012 01D1     		bne	.L39
 1311              		.loc 1 976 3 is_stmt 0 discriminator 1
 1312 0014 0223     		movs	r3, #2
 1313              		.loc 1 976 3
 1314 0016 26E0     		b	.L40
 1315              	.L39:
 1316              		.loc 1 976 3 discriminator 2
ARM GAS  /var/folders/06/9k7gq4t13mj84z2yhw3grvhc0000gn/T//ccuiTnhW.s 			page 41


 1317 0018 7B68     		ldr	r3, [r7, #4]
 1318 001a 0122     		movs	r2, #1
 1319 001c 83F8A020 		strb	r2, [r3, #160]
 977:Drivers/STM32F4xx_HAL_Driver/Src/stm32f4xx_hal_ltdc.c **** 
 978:Drivers/STM32F4xx_HAL_Driver/Src/stm32f4xx_hal_ltdc.c ****   /* Change LTDC peripheral state */
 979:Drivers/STM32F4xx_HAL_Driver/Src/stm32f4xx_hal_ltdc.c ****   hltdc->State = HAL_LTDC_STATE_BUSY;
 1320              		.loc 1 979 16 is_stmt 1
 1321 0020 7B68     		ldr	r3, [r7, #4]
 1322 0022 0222     		movs	r2, #2
 1323 0024 83F8A120 		strb	r2, [r3, #161]
 980:Drivers/STM32F4xx_HAL_Driver/Src/stm32f4xx_hal_ltdc.c **** 
 981:Drivers/STM32F4xx_HAL_Driver/Src/stm32f4xx_hal_ltdc.c ****   /* Enable LTDC color keying by setting COLKEN bit */
 982:Drivers/STM32F4xx_HAL_Driver/Src/stm32f4xx_hal_ltdc.c ****   LTDC_LAYER(hltdc, LayerIdx)->CR |= (uint32_t)LTDC_LxCR_COLKEN;
 1324              		.loc 1 982 3
 1325 0028 7B68     		ldr	r3, [r7, #4]
 1326 002a 1B68     		ldr	r3, [r3]
 1327              		.loc 1 982 30
 1328 002c 1A46     		mov	r2, r3
 1329 002e 3B68     		ldr	r3, [r7]
 1330 0030 DB01     		lsls	r3, r3, #7
 1331 0032 1344     		add	r3, r3, r2
 1332 0034 8433     		adds	r3, r3, #132
 1333 0036 1B68     		ldr	r3, [r3]
 1334              		.loc 1 982 3
 1335 0038 7A68     		ldr	r2, [r7, #4]
 1336 003a 1268     		ldr	r2, [r2]
 1337              		.loc 1 982 30
 1338 003c 1146     		mov	r1, r2
 1339 003e 3A68     		ldr	r2, [r7]
 1340 0040 D201     		lsls	r2, r2, #7
 1341 0042 0A44     		add	r2, r2, r1
 1342 0044 8432     		adds	r2, r2, #132
 1343              		.loc 1 982 35
 1344 0046 43F00203 		orr	r3, r3, #2
 1345 004a 1360     		str	r3, [r2]
 983:Drivers/STM32F4xx_HAL_Driver/Src/stm32f4xx_hal_ltdc.c **** 
 984:Drivers/STM32F4xx_HAL_Driver/Src/stm32f4xx_hal_ltdc.c ****   /* Set the Immediate Reload type */
 985:Drivers/STM32F4xx_HAL_Driver/Src/stm32f4xx_hal_ltdc.c ****   hltdc->Instance->SRCR = LTDC_SRCR_IMR;
 1346              		.loc 1 985 8
 1347 004c 7B68     		ldr	r3, [r7, #4]
 1348 004e 1B68     		ldr	r3, [r3]
 1349              		.loc 1 985 25
 1350 0050 0122     		movs	r2, #1
 1351 0052 5A62     		str	r2, [r3, #36]
 986:Drivers/STM32F4xx_HAL_Driver/Src/stm32f4xx_hal_ltdc.c **** 
 987:Drivers/STM32F4xx_HAL_Driver/Src/stm32f4xx_hal_ltdc.c ****   /* Change the LTDC state*/
 988:Drivers/STM32F4xx_HAL_Driver/Src/stm32f4xx_hal_ltdc.c ****   hltdc->State = HAL_LTDC_STATE_READY;
 1352              		.loc 1 988 16
 1353 0054 7B68     		ldr	r3, [r7, #4]
 1354 0056 0122     		movs	r2, #1
 1355 0058 83F8A120 		strb	r2, [r3, #161]
 989:Drivers/STM32F4xx_HAL_Driver/Src/stm32f4xx_hal_ltdc.c **** 
 990:Drivers/STM32F4xx_HAL_Driver/Src/stm32f4xx_hal_ltdc.c ****   /* Process unlocked */
 991:Drivers/STM32F4xx_HAL_Driver/Src/stm32f4xx_hal_ltdc.c ****   __HAL_UNLOCK(hltdc);
 1356              		.loc 1 991 3
 1357 005c 7B68     		ldr	r3, [r7, #4]
 1358 005e 0022     		movs	r2, #0
ARM GAS  /var/folders/06/9k7gq4t13mj84z2yhw3grvhc0000gn/T//ccuiTnhW.s 			page 42


 1359 0060 83F8A020 		strb	r2, [r3, #160]
 992:Drivers/STM32F4xx_HAL_Driver/Src/stm32f4xx_hal_ltdc.c **** 
 993:Drivers/STM32F4xx_HAL_Driver/Src/stm32f4xx_hal_ltdc.c ****   return HAL_OK;
 1360              		.loc 1 993 10
 1361 0064 0023     		movs	r3, #0
 1362              	.L40:
 994:Drivers/STM32F4xx_HAL_Driver/Src/stm32f4xx_hal_ltdc.c **** }
 1363              		.loc 1 994 1
 1364 0066 1846     		mov	r0, r3
 1365 0068 0C37     		adds	r7, r7, #12
 1366              	.LCFI65:
 1367              		.cfi_def_cfa_offset 4
 1368 006a BD46     		mov	sp, r7
 1369              	.LCFI66:
 1370              		.cfi_def_cfa_register 13
 1371              		@ sp needed
 1372 006c 5DF8047B 		ldr	r7, [sp], #4
 1373              	.LCFI67:
 1374              		.cfi_restore 7
 1375              		.cfi_def_cfa_offset 0
 1376 0070 7047     		bx	lr
 1377              		.cfi_endproc
 1378              	.LFE145:
 1380              		.section	.text.HAL_LTDC_DisableColorKeying,"ax",%progbits
 1381              		.align	1
 1382              		.global	HAL_LTDC_DisableColorKeying
 1383              		.syntax unified
 1384              		.thumb
 1385              		.thumb_func
 1387              	HAL_LTDC_DisableColorKeying:
 1388              	.LFB146:
 995:Drivers/STM32F4xx_HAL_Driver/Src/stm32f4xx_hal_ltdc.c **** 
 996:Drivers/STM32F4xx_HAL_Driver/Src/stm32f4xx_hal_ltdc.c **** /**
 997:Drivers/STM32F4xx_HAL_Driver/Src/stm32f4xx_hal_ltdc.c ****   * @brief  Disable the color keying.
 998:Drivers/STM32F4xx_HAL_Driver/Src/stm32f4xx_hal_ltdc.c ****   * @param  hltdc     pointer to a LTDC_HandleTypeDef structure that contains
 999:Drivers/STM32F4xx_HAL_Driver/Src/stm32f4xx_hal_ltdc.c ****   *                   the configuration information for the LTDC.
1000:Drivers/STM32F4xx_HAL_Driver/Src/stm32f4xx_hal_ltdc.c ****   * @param  LayerIdx  LTDC Layer index.
1001:Drivers/STM32F4xx_HAL_Driver/Src/stm32f4xx_hal_ltdc.c ****   *                   This parameter can be one of the following values:
1002:Drivers/STM32F4xx_HAL_Driver/Src/stm32f4xx_hal_ltdc.c ****   *                   LTDC_LAYER_1 (0) or LTDC_LAYER_2 (1)
1003:Drivers/STM32F4xx_HAL_Driver/Src/stm32f4xx_hal_ltdc.c ****   * @retval  HAL status
1004:Drivers/STM32F4xx_HAL_Driver/Src/stm32f4xx_hal_ltdc.c ****   */
1005:Drivers/STM32F4xx_HAL_Driver/Src/stm32f4xx_hal_ltdc.c **** HAL_StatusTypeDef HAL_LTDC_DisableColorKeying(LTDC_HandleTypeDef *hltdc, uint32_t LayerIdx)
1006:Drivers/STM32F4xx_HAL_Driver/Src/stm32f4xx_hal_ltdc.c **** {
 1389              		.loc 1 1006 1
 1390              		.cfi_startproc
 1391              		@ args = 0, pretend = 0, frame = 8
 1392              		@ frame_needed = 1, uses_anonymous_args = 0
 1393              		@ link register save eliminated.
 1394 0000 80B4     		push	{r7}
 1395              	.LCFI68:
 1396              		.cfi_def_cfa_offset 4
 1397              		.cfi_offset 7, -4
 1398 0002 83B0     		sub	sp, sp, #12
 1399              	.LCFI69:
 1400              		.cfi_def_cfa_offset 16
 1401 0004 00AF     		add	r7, sp, #0
 1402              	.LCFI70:
ARM GAS  /var/folders/06/9k7gq4t13mj84z2yhw3grvhc0000gn/T//ccuiTnhW.s 			page 43


 1403              		.cfi_def_cfa_register 7
 1404 0006 7860     		str	r0, [r7, #4]
 1405 0008 3960     		str	r1, [r7]
1007:Drivers/STM32F4xx_HAL_Driver/Src/stm32f4xx_hal_ltdc.c ****   /* Check the parameters */
1008:Drivers/STM32F4xx_HAL_Driver/Src/stm32f4xx_hal_ltdc.c ****   assert_param(IS_LTDC_LAYER(LayerIdx));
1009:Drivers/STM32F4xx_HAL_Driver/Src/stm32f4xx_hal_ltdc.c **** 
1010:Drivers/STM32F4xx_HAL_Driver/Src/stm32f4xx_hal_ltdc.c ****   /* Process locked */
1011:Drivers/STM32F4xx_HAL_Driver/Src/stm32f4xx_hal_ltdc.c ****   __HAL_LOCK(hltdc);
 1406              		.loc 1 1011 3
 1407 000a 7B68     		ldr	r3, [r7, #4]
 1408 000c 93F8A030 		ldrb	r3, [r3, #160]	@ zero_extendqisi2
 1409 0010 012B     		cmp	r3, #1
 1410 0012 01D1     		bne	.L42
 1411              		.loc 1 1011 3 is_stmt 0 discriminator 1
 1412 0014 0223     		movs	r3, #2
 1413              		.loc 1 1011 3
 1414 0016 26E0     		b	.L43
 1415              	.L42:
 1416              		.loc 1 1011 3 discriminator 2
 1417 0018 7B68     		ldr	r3, [r7, #4]
 1418 001a 0122     		movs	r2, #1
 1419 001c 83F8A020 		strb	r2, [r3, #160]
1012:Drivers/STM32F4xx_HAL_Driver/Src/stm32f4xx_hal_ltdc.c **** 
1013:Drivers/STM32F4xx_HAL_Driver/Src/stm32f4xx_hal_ltdc.c ****   /* Change LTDC peripheral state */
1014:Drivers/STM32F4xx_HAL_Driver/Src/stm32f4xx_hal_ltdc.c ****   hltdc->State = HAL_LTDC_STATE_BUSY;
 1420              		.loc 1 1014 16 is_stmt 1
 1421 0020 7B68     		ldr	r3, [r7, #4]
 1422 0022 0222     		movs	r2, #2
 1423 0024 83F8A120 		strb	r2, [r3, #161]
1015:Drivers/STM32F4xx_HAL_Driver/Src/stm32f4xx_hal_ltdc.c **** 
1016:Drivers/STM32F4xx_HAL_Driver/Src/stm32f4xx_hal_ltdc.c ****   /* Disable LTDC color keying by setting COLKEN bit */
1017:Drivers/STM32F4xx_HAL_Driver/Src/stm32f4xx_hal_ltdc.c ****   LTDC_LAYER(hltdc, LayerIdx)->CR &= ~(uint32_t)LTDC_LxCR_COLKEN;
 1424              		.loc 1 1017 3
 1425 0028 7B68     		ldr	r3, [r7, #4]
 1426 002a 1B68     		ldr	r3, [r3]
 1427              		.loc 1 1017 30
 1428 002c 1A46     		mov	r2, r3
 1429 002e 3B68     		ldr	r3, [r7]
 1430 0030 DB01     		lsls	r3, r3, #7
 1431 0032 1344     		add	r3, r3, r2
 1432 0034 8433     		adds	r3, r3, #132
 1433 0036 1B68     		ldr	r3, [r3]
 1434              		.loc 1 1017 3
 1435 0038 7A68     		ldr	r2, [r7, #4]
 1436 003a 1268     		ldr	r2, [r2]
 1437              		.loc 1 1017 30
 1438 003c 1146     		mov	r1, r2
 1439 003e 3A68     		ldr	r2, [r7]
 1440 0040 D201     		lsls	r2, r2, #7
 1441 0042 0A44     		add	r2, r2, r1
 1442 0044 8432     		adds	r2, r2, #132
 1443              		.loc 1 1017 35
 1444 0046 23F00203 		bic	r3, r3, #2
 1445 004a 1360     		str	r3, [r2]
1018:Drivers/STM32F4xx_HAL_Driver/Src/stm32f4xx_hal_ltdc.c **** 
1019:Drivers/STM32F4xx_HAL_Driver/Src/stm32f4xx_hal_ltdc.c ****   /* Set the Immediate Reload type */
1020:Drivers/STM32F4xx_HAL_Driver/Src/stm32f4xx_hal_ltdc.c ****   hltdc->Instance->SRCR = LTDC_SRCR_IMR;
ARM GAS  /var/folders/06/9k7gq4t13mj84z2yhw3grvhc0000gn/T//ccuiTnhW.s 			page 44


 1446              		.loc 1 1020 8
 1447 004c 7B68     		ldr	r3, [r7, #4]
 1448 004e 1B68     		ldr	r3, [r3]
 1449              		.loc 1 1020 25
 1450 0050 0122     		movs	r2, #1
 1451 0052 5A62     		str	r2, [r3, #36]
1021:Drivers/STM32F4xx_HAL_Driver/Src/stm32f4xx_hal_ltdc.c **** 
1022:Drivers/STM32F4xx_HAL_Driver/Src/stm32f4xx_hal_ltdc.c ****   /* Change the LTDC state*/
1023:Drivers/STM32F4xx_HAL_Driver/Src/stm32f4xx_hal_ltdc.c ****   hltdc->State = HAL_LTDC_STATE_READY;
 1452              		.loc 1 1023 16
 1453 0054 7B68     		ldr	r3, [r7, #4]
 1454 0056 0122     		movs	r2, #1
 1455 0058 83F8A120 		strb	r2, [r3, #161]
1024:Drivers/STM32F4xx_HAL_Driver/Src/stm32f4xx_hal_ltdc.c **** 
1025:Drivers/STM32F4xx_HAL_Driver/Src/stm32f4xx_hal_ltdc.c ****   /* Process unlocked */
1026:Drivers/STM32F4xx_HAL_Driver/Src/stm32f4xx_hal_ltdc.c ****   __HAL_UNLOCK(hltdc);
 1456              		.loc 1 1026 3
 1457 005c 7B68     		ldr	r3, [r7, #4]
 1458 005e 0022     		movs	r2, #0
 1459 0060 83F8A020 		strb	r2, [r3, #160]
1027:Drivers/STM32F4xx_HAL_Driver/Src/stm32f4xx_hal_ltdc.c **** 
1028:Drivers/STM32F4xx_HAL_Driver/Src/stm32f4xx_hal_ltdc.c ****   return HAL_OK;
 1460              		.loc 1 1028 10
 1461 0064 0023     		movs	r3, #0
 1462              	.L43:
1029:Drivers/STM32F4xx_HAL_Driver/Src/stm32f4xx_hal_ltdc.c **** }
 1463              		.loc 1 1029 1
 1464 0066 1846     		mov	r0, r3
 1465 0068 0C37     		adds	r7, r7, #12
 1466              	.LCFI71:
 1467              		.cfi_def_cfa_offset 4
 1468 006a BD46     		mov	sp, r7
 1469              	.LCFI72:
 1470              		.cfi_def_cfa_register 13
 1471              		@ sp needed
 1472 006c 5DF8047B 		ldr	r7, [sp], #4
 1473              	.LCFI73:
 1474              		.cfi_restore 7
 1475              		.cfi_def_cfa_offset 0
 1476 0070 7047     		bx	lr
 1477              		.cfi_endproc
 1478              	.LFE146:
 1480              		.section	.text.HAL_LTDC_EnableCLUT,"ax",%progbits
 1481              		.align	1
 1482              		.global	HAL_LTDC_EnableCLUT
 1483              		.syntax unified
 1484              		.thumb
 1485              		.thumb_func
 1487              	HAL_LTDC_EnableCLUT:
 1488              	.LFB147:
1030:Drivers/STM32F4xx_HAL_Driver/Src/stm32f4xx_hal_ltdc.c **** 
1031:Drivers/STM32F4xx_HAL_Driver/Src/stm32f4xx_hal_ltdc.c **** /**
1032:Drivers/STM32F4xx_HAL_Driver/Src/stm32f4xx_hal_ltdc.c ****   * @brief  Enable the color lookup table.
1033:Drivers/STM32F4xx_HAL_Driver/Src/stm32f4xx_hal_ltdc.c ****   * @param  hltdc     pointer to a LTDC_HandleTypeDef structure that contains
1034:Drivers/STM32F4xx_HAL_Driver/Src/stm32f4xx_hal_ltdc.c ****   *                   the configuration information for the LTDC.
1035:Drivers/STM32F4xx_HAL_Driver/Src/stm32f4xx_hal_ltdc.c ****   * @param  LayerIdx  LTDC Layer index.
1036:Drivers/STM32F4xx_HAL_Driver/Src/stm32f4xx_hal_ltdc.c ****   *                   This parameter can be one of the following values:
ARM GAS  /var/folders/06/9k7gq4t13mj84z2yhw3grvhc0000gn/T//ccuiTnhW.s 			page 45


1037:Drivers/STM32F4xx_HAL_Driver/Src/stm32f4xx_hal_ltdc.c ****   *                   LTDC_LAYER_1 (0) or LTDC_LAYER_2 (1)
1038:Drivers/STM32F4xx_HAL_Driver/Src/stm32f4xx_hal_ltdc.c ****   * @retval  HAL status
1039:Drivers/STM32F4xx_HAL_Driver/Src/stm32f4xx_hal_ltdc.c ****   */
1040:Drivers/STM32F4xx_HAL_Driver/Src/stm32f4xx_hal_ltdc.c **** HAL_StatusTypeDef HAL_LTDC_EnableCLUT(LTDC_HandleTypeDef *hltdc, uint32_t LayerIdx)
1041:Drivers/STM32F4xx_HAL_Driver/Src/stm32f4xx_hal_ltdc.c **** {
 1489              		.loc 1 1041 1
 1490              		.cfi_startproc
 1491              		@ args = 0, pretend = 0, frame = 8
 1492              		@ frame_needed = 1, uses_anonymous_args = 0
 1493              		@ link register save eliminated.
 1494 0000 80B4     		push	{r7}
 1495              	.LCFI74:
 1496              		.cfi_def_cfa_offset 4
 1497              		.cfi_offset 7, -4
 1498 0002 83B0     		sub	sp, sp, #12
 1499              	.LCFI75:
 1500              		.cfi_def_cfa_offset 16
 1501 0004 00AF     		add	r7, sp, #0
 1502              	.LCFI76:
 1503              		.cfi_def_cfa_register 7
 1504 0006 7860     		str	r0, [r7, #4]
 1505 0008 3960     		str	r1, [r7]
1042:Drivers/STM32F4xx_HAL_Driver/Src/stm32f4xx_hal_ltdc.c ****   /* Check the parameters */
1043:Drivers/STM32F4xx_HAL_Driver/Src/stm32f4xx_hal_ltdc.c ****   assert_param(IS_LTDC_LAYER(LayerIdx));
1044:Drivers/STM32F4xx_HAL_Driver/Src/stm32f4xx_hal_ltdc.c **** 
1045:Drivers/STM32F4xx_HAL_Driver/Src/stm32f4xx_hal_ltdc.c ****   /* Process locked */
1046:Drivers/STM32F4xx_HAL_Driver/Src/stm32f4xx_hal_ltdc.c ****   __HAL_LOCK(hltdc);
 1506              		.loc 1 1046 3
 1507 000a 7B68     		ldr	r3, [r7, #4]
 1508 000c 93F8A030 		ldrb	r3, [r3, #160]	@ zero_extendqisi2
 1509 0010 012B     		cmp	r3, #1
 1510 0012 01D1     		bne	.L45
 1511              		.loc 1 1046 3 is_stmt 0 discriminator 1
 1512 0014 0223     		movs	r3, #2
 1513              		.loc 1 1046 3
 1514 0016 26E0     		b	.L46
 1515              	.L45:
 1516              		.loc 1 1046 3 discriminator 2
 1517 0018 7B68     		ldr	r3, [r7, #4]
 1518 001a 0122     		movs	r2, #1
 1519 001c 83F8A020 		strb	r2, [r3, #160]
1047:Drivers/STM32F4xx_HAL_Driver/Src/stm32f4xx_hal_ltdc.c **** 
1048:Drivers/STM32F4xx_HAL_Driver/Src/stm32f4xx_hal_ltdc.c ****   /* Change LTDC peripheral state */
1049:Drivers/STM32F4xx_HAL_Driver/Src/stm32f4xx_hal_ltdc.c ****   hltdc->State = HAL_LTDC_STATE_BUSY;
 1520              		.loc 1 1049 16 is_stmt 1
 1521 0020 7B68     		ldr	r3, [r7, #4]
 1522 0022 0222     		movs	r2, #2
 1523 0024 83F8A120 		strb	r2, [r3, #161]
1050:Drivers/STM32F4xx_HAL_Driver/Src/stm32f4xx_hal_ltdc.c **** 
1051:Drivers/STM32F4xx_HAL_Driver/Src/stm32f4xx_hal_ltdc.c ****   /* Enable LTDC color lookup table by setting CLUTEN bit */
1052:Drivers/STM32F4xx_HAL_Driver/Src/stm32f4xx_hal_ltdc.c ****   LTDC_LAYER(hltdc, LayerIdx)->CR |= (uint32_t)LTDC_LxCR_CLUTEN;
 1524              		.loc 1 1052 3
 1525 0028 7B68     		ldr	r3, [r7, #4]
 1526 002a 1B68     		ldr	r3, [r3]
 1527              		.loc 1 1052 30
 1528 002c 1A46     		mov	r2, r3
 1529 002e 3B68     		ldr	r3, [r7]
ARM GAS  /var/folders/06/9k7gq4t13mj84z2yhw3grvhc0000gn/T//ccuiTnhW.s 			page 46


 1530 0030 DB01     		lsls	r3, r3, #7
 1531 0032 1344     		add	r3, r3, r2
 1532 0034 8433     		adds	r3, r3, #132
 1533 0036 1B68     		ldr	r3, [r3]
 1534              		.loc 1 1052 3
 1535 0038 7A68     		ldr	r2, [r7, #4]
 1536 003a 1268     		ldr	r2, [r2]
 1537              		.loc 1 1052 30
 1538 003c 1146     		mov	r1, r2
 1539 003e 3A68     		ldr	r2, [r7]
 1540 0040 D201     		lsls	r2, r2, #7
 1541 0042 0A44     		add	r2, r2, r1
 1542 0044 8432     		adds	r2, r2, #132
 1543              		.loc 1 1052 35
 1544 0046 43F01003 		orr	r3, r3, #16
 1545 004a 1360     		str	r3, [r2]
1053:Drivers/STM32F4xx_HAL_Driver/Src/stm32f4xx_hal_ltdc.c **** 
1054:Drivers/STM32F4xx_HAL_Driver/Src/stm32f4xx_hal_ltdc.c ****   /* Set the Immediate Reload type */
1055:Drivers/STM32F4xx_HAL_Driver/Src/stm32f4xx_hal_ltdc.c ****   hltdc->Instance->SRCR = LTDC_SRCR_IMR;
 1546              		.loc 1 1055 8
 1547 004c 7B68     		ldr	r3, [r7, #4]
 1548 004e 1B68     		ldr	r3, [r3]
 1549              		.loc 1 1055 25
 1550 0050 0122     		movs	r2, #1
 1551 0052 5A62     		str	r2, [r3, #36]
1056:Drivers/STM32F4xx_HAL_Driver/Src/stm32f4xx_hal_ltdc.c **** 
1057:Drivers/STM32F4xx_HAL_Driver/Src/stm32f4xx_hal_ltdc.c ****   /* Change the LTDC state*/
1058:Drivers/STM32F4xx_HAL_Driver/Src/stm32f4xx_hal_ltdc.c ****   hltdc->State = HAL_LTDC_STATE_READY;
 1552              		.loc 1 1058 16
 1553 0054 7B68     		ldr	r3, [r7, #4]
 1554 0056 0122     		movs	r2, #1
 1555 0058 83F8A120 		strb	r2, [r3, #161]
1059:Drivers/STM32F4xx_HAL_Driver/Src/stm32f4xx_hal_ltdc.c **** 
1060:Drivers/STM32F4xx_HAL_Driver/Src/stm32f4xx_hal_ltdc.c ****   /* Process unlocked */
1061:Drivers/STM32F4xx_HAL_Driver/Src/stm32f4xx_hal_ltdc.c ****   __HAL_UNLOCK(hltdc);
 1556              		.loc 1 1061 3
 1557 005c 7B68     		ldr	r3, [r7, #4]
 1558 005e 0022     		movs	r2, #0
 1559 0060 83F8A020 		strb	r2, [r3, #160]
1062:Drivers/STM32F4xx_HAL_Driver/Src/stm32f4xx_hal_ltdc.c **** 
1063:Drivers/STM32F4xx_HAL_Driver/Src/stm32f4xx_hal_ltdc.c ****   return HAL_OK;
 1560              		.loc 1 1063 10
 1561 0064 0023     		movs	r3, #0
 1562              	.L46:
1064:Drivers/STM32F4xx_HAL_Driver/Src/stm32f4xx_hal_ltdc.c **** }
 1563              		.loc 1 1064 1
 1564 0066 1846     		mov	r0, r3
 1565 0068 0C37     		adds	r7, r7, #12
 1566              	.LCFI77:
 1567              		.cfi_def_cfa_offset 4
 1568 006a BD46     		mov	sp, r7
 1569              	.LCFI78:
 1570              		.cfi_def_cfa_register 13
 1571              		@ sp needed
 1572 006c 5DF8047B 		ldr	r7, [sp], #4
 1573              	.LCFI79:
 1574              		.cfi_restore 7
ARM GAS  /var/folders/06/9k7gq4t13mj84z2yhw3grvhc0000gn/T//ccuiTnhW.s 			page 47


 1575              		.cfi_def_cfa_offset 0
 1576 0070 7047     		bx	lr
 1577              		.cfi_endproc
 1578              	.LFE147:
 1580              		.section	.text.HAL_LTDC_DisableCLUT,"ax",%progbits
 1581              		.align	1
 1582              		.global	HAL_LTDC_DisableCLUT
 1583              		.syntax unified
 1584              		.thumb
 1585              		.thumb_func
 1587              	HAL_LTDC_DisableCLUT:
 1588              	.LFB148:
1065:Drivers/STM32F4xx_HAL_Driver/Src/stm32f4xx_hal_ltdc.c **** 
1066:Drivers/STM32F4xx_HAL_Driver/Src/stm32f4xx_hal_ltdc.c **** /**
1067:Drivers/STM32F4xx_HAL_Driver/Src/stm32f4xx_hal_ltdc.c ****   * @brief  Disable the color lookup table.
1068:Drivers/STM32F4xx_HAL_Driver/Src/stm32f4xx_hal_ltdc.c ****   * @param  hltdc     pointer to a LTDC_HandleTypeDef structure that contains
1069:Drivers/STM32F4xx_HAL_Driver/Src/stm32f4xx_hal_ltdc.c ****   *                   the configuration information for the LTDC.
1070:Drivers/STM32F4xx_HAL_Driver/Src/stm32f4xx_hal_ltdc.c ****   * @param  LayerIdx  LTDC Layer index.
1071:Drivers/STM32F4xx_HAL_Driver/Src/stm32f4xx_hal_ltdc.c ****   *                   This parameter can be one of the following values:
1072:Drivers/STM32F4xx_HAL_Driver/Src/stm32f4xx_hal_ltdc.c ****   *                   LTDC_LAYER_1 (0) or LTDC_LAYER_2 (1)
1073:Drivers/STM32F4xx_HAL_Driver/Src/stm32f4xx_hal_ltdc.c ****   * @retval  HAL status
1074:Drivers/STM32F4xx_HAL_Driver/Src/stm32f4xx_hal_ltdc.c ****   */
1075:Drivers/STM32F4xx_HAL_Driver/Src/stm32f4xx_hal_ltdc.c **** HAL_StatusTypeDef HAL_LTDC_DisableCLUT(LTDC_HandleTypeDef *hltdc, uint32_t LayerIdx)
1076:Drivers/STM32F4xx_HAL_Driver/Src/stm32f4xx_hal_ltdc.c **** {
 1589              		.loc 1 1076 1
 1590              		.cfi_startproc
 1591              		@ args = 0, pretend = 0, frame = 8
 1592              		@ frame_needed = 1, uses_anonymous_args = 0
 1593              		@ link register save eliminated.
 1594 0000 80B4     		push	{r7}
 1595              	.LCFI80:
 1596              		.cfi_def_cfa_offset 4
 1597              		.cfi_offset 7, -4
 1598 0002 83B0     		sub	sp, sp, #12
 1599              	.LCFI81:
 1600              		.cfi_def_cfa_offset 16
 1601 0004 00AF     		add	r7, sp, #0
 1602              	.LCFI82:
 1603              		.cfi_def_cfa_register 7
 1604 0006 7860     		str	r0, [r7, #4]
 1605 0008 3960     		str	r1, [r7]
1077:Drivers/STM32F4xx_HAL_Driver/Src/stm32f4xx_hal_ltdc.c ****   /* Check the parameters */
1078:Drivers/STM32F4xx_HAL_Driver/Src/stm32f4xx_hal_ltdc.c ****   assert_param(IS_LTDC_LAYER(LayerIdx));
1079:Drivers/STM32F4xx_HAL_Driver/Src/stm32f4xx_hal_ltdc.c **** 
1080:Drivers/STM32F4xx_HAL_Driver/Src/stm32f4xx_hal_ltdc.c ****   /* Process locked */
1081:Drivers/STM32F4xx_HAL_Driver/Src/stm32f4xx_hal_ltdc.c ****   __HAL_LOCK(hltdc);
 1606              		.loc 1 1081 3
 1607 000a 7B68     		ldr	r3, [r7, #4]
 1608 000c 93F8A030 		ldrb	r3, [r3, #160]	@ zero_extendqisi2
 1609 0010 012B     		cmp	r3, #1
 1610 0012 01D1     		bne	.L48
 1611              		.loc 1 1081 3 is_stmt 0 discriminator 1
 1612 0014 0223     		movs	r3, #2
 1613              		.loc 1 1081 3
 1614 0016 26E0     		b	.L49
 1615              	.L48:
 1616              		.loc 1 1081 3 discriminator 2
ARM GAS  /var/folders/06/9k7gq4t13mj84z2yhw3grvhc0000gn/T//ccuiTnhW.s 			page 48


 1617 0018 7B68     		ldr	r3, [r7, #4]
 1618 001a 0122     		movs	r2, #1
 1619 001c 83F8A020 		strb	r2, [r3, #160]
1082:Drivers/STM32F4xx_HAL_Driver/Src/stm32f4xx_hal_ltdc.c **** 
1083:Drivers/STM32F4xx_HAL_Driver/Src/stm32f4xx_hal_ltdc.c ****   /* Change LTDC peripheral state */
1084:Drivers/STM32F4xx_HAL_Driver/Src/stm32f4xx_hal_ltdc.c ****   hltdc->State = HAL_LTDC_STATE_BUSY;
 1620              		.loc 1 1084 16 is_stmt 1
 1621 0020 7B68     		ldr	r3, [r7, #4]
 1622 0022 0222     		movs	r2, #2
 1623 0024 83F8A120 		strb	r2, [r3, #161]
1085:Drivers/STM32F4xx_HAL_Driver/Src/stm32f4xx_hal_ltdc.c **** 
1086:Drivers/STM32F4xx_HAL_Driver/Src/stm32f4xx_hal_ltdc.c ****   /* Disable LTDC color lookup table by setting CLUTEN bit */
1087:Drivers/STM32F4xx_HAL_Driver/Src/stm32f4xx_hal_ltdc.c ****   LTDC_LAYER(hltdc, LayerIdx)->CR &= ~(uint32_t)LTDC_LxCR_CLUTEN;
 1624              		.loc 1 1087 3
 1625 0028 7B68     		ldr	r3, [r7, #4]
 1626 002a 1B68     		ldr	r3, [r3]
 1627              		.loc 1 1087 30
 1628 002c 1A46     		mov	r2, r3
 1629 002e 3B68     		ldr	r3, [r7]
 1630 0030 DB01     		lsls	r3, r3, #7
 1631 0032 1344     		add	r3, r3, r2
 1632 0034 8433     		adds	r3, r3, #132
 1633 0036 1B68     		ldr	r3, [r3]
 1634              		.loc 1 1087 3
 1635 0038 7A68     		ldr	r2, [r7, #4]
 1636 003a 1268     		ldr	r2, [r2]
 1637              		.loc 1 1087 30
 1638 003c 1146     		mov	r1, r2
 1639 003e 3A68     		ldr	r2, [r7]
 1640 0040 D201     		lsls	r2, r2, #7
 1641 0042 0A44     		add	r2, r2, r1
 1642 0044 8432     		adds	r2, r2, #132
 1643              		.loc 1 1087 35
 1644 0046 23F01003 		bic	r3, r3, #16
 1645 004a 1360     		str	r3, [r2]
1088:Drivers/STM32F4xx_HAL_Driver/Src/stm32f4xx_hal_ltdc.c **** 
1089:Drivers/STM32F4xx_HAL_Driver/Src/stm32f4xx_hal_ltdc.c ****   /* Set the Immediate Reload type */
1090:Drivers/STM32F4xx_HAL_Driver/Src/stm32f4xx_hal_ltdc.c ****   hltdc->Instance->SRCR = LTDC_SRCR_IMR;
 1646              		.loc 1 1090 8
 1647 004c 7B68     		ldr	r3, [r7, #4]
 1648 004e 1B68     		ldr	r3, [r3]
 1649              		.loc 1 1090 25
 1650 0050 0122     		movs	r2, #1
 1651 0052 5A62     		str	r2, [r3, #36]
1091:Drivers/STM32F4xx_HAL_Driver/Src/stm32f4xx_hal_ltdc.c **** 
1092:Drivers/STM32F4xx_HAL_Driver/Src/stm32f4xx_hal_ltdc.c ****   /* Change the LTDC state*/
1093:Drivers/STM32F4xx_HAL_Driver/Src/stm32f4xx_hal_ltdc.c ****   hltdc->State = HAL_LTDC_STATE_READY;
 1652              		.loc 1 1093 16
 1653 0054 7B68     		ldr	r3, [r7, #4]
 1654 0056 0122     		movs	r2, #1
 1655 0058 83F8A120 		strb	r2, [r3, #161]
1094:Drivers/STM32F4xx_HAL_Driver/Src/stm32f4xx_hal_ltdc.c **** 
1095:Drivers/STM32F4xx_HAL_Driver/Src/stm32f4xx_hal_ltdc.c ****   /* Process unlocked */
1096:Drivers/STM32F4xx_HAL_Driver/Src/stm32f4xx_hal_ltdc.c ****   __HAL_UNLOCK(hltdc);
 1656              		.loc 1 1096 3
 1657 005c 7B68     		ldr	r3, [r7, #4]
 1658 005e 0022     		movs	r2, #0
ARM GAS  /var/folders/06/9k7gq4t13mj84z2yhw3grvhc0000gn/T//ccuiTnhW.s 			page 49


 1659 0060 83F8A020 		strb	r2, [r3, #160]
1097:Drivers/STM32F4xx_HAL_Driver/Src/stm32f4xx_hal_ltdc.c **** 
1098:Drivers/STM32F4xx_HAL_Driver/Src/stm32f4xx_hal_ltdc.c ****   return HAL_OK;
 1660              		.loc 1 1098 10
 1661 0064 0023     		movs	r3, #0
 1662              	.L49:
1099:Drivers/STM32F4xx_HAL_Driver/Src/stm32f4xx_hal_ltdc.c **** }
 1663              		.loc 1 1099 1
 1664 0066 1846     		mov	r0, r3
 1665 0068 0C37     		adds	r7, r7, #12
 1666              	.LCFI83:
 1667              		.cfi_def_cfa_offset 4
 1668 006a BD46     		mov	sp, r7
 1669              	.LCFI84:
 1670              		.cfi_def_cfa_register 13
 1671              		@ sp needed
 1672 006c 5DF8047B 		ldr	r7, [sp], #4
 1673              	.LCFI85:
 1674              		.cfi_restore 7
 1675              		.cfi_def_cfa_offset 0
 1676 0070 7047     		bx	lr
 1677              		.cfi_endproc
 1678              	.LFE148:
 1680              		.section	.text.HAL_LTDC_EnableDither,"ax",%progbits
 1681              		.align	1
 1682              		.global	HAL_LTDC_EnableDither
 1683              		.syntax unified
 1684              		.thumb
 1685              		.thumb_func
 1687              	HAL_LTDC_EnableDither:
 1688              	.LFB149:
1100:Drivers/STM32F4xx_HAL_Driver/Src/stm32f4xx_hal_ltdc.c **** 
1101:Drivers/STM32F4xx_HAL_Driver/Src/stm32f4xx_hal_ltdc.c **** /**
1102:Drivers/STM32F4xx_HAL_Driver/Src/stm32f4xx_hal_ltdc.c ****   * @brief  Enable Dither.
1103:Drivers/STM32F4xx_HAL_Driver/Src/stm32f4xx_hal_ltdc.c ****   * @param  hltdc  pointer to a LTDC_HandleTypeDef structure that contains
1104:Drivers/STM32F4xx_HAL_Driver/Src/stm32f4xx_hal_ltdc.c ****   *                the configuration information for the LTDC.
1105:Drivers/STM32F4xx_HAL_Driver/Src/stm32f4xx_hal_ltdc.c ****   * @retval  HAL status
1106:Drivers/STM32F4xx_HAL_Driver/Src/stm32f4xx_hal_ltdc.c ****   */
1107:Drivers/STM32F4xx_HAL_Driver/Src/stm32f4xx_hal_ltdc.c **** 
1108:Drivers/STM32F4xx_HAL_Driver/Src/stm32f4xx_hal_ltdc.c **** HAL_StatusTypeDef HAL_LTDC_EnableDither(LTDC_HandleTypeDef *hltdc)
1109:Drivers/STM32F4xx_HAL_Driver/Src/stm32f4xx_hal_ltdc.c **** {
 1689              		.loc 1 1109 1
 1690              		.cfi_startproc
 1691              		@ args = 0, pretend = 0, frame = 8
 1692              		@ frame_needed = 1, uses_anonymous_args = 0
 1693              		@ link register save eliminated.
 1694 0000 80B4     		push	{r7}
 1695              	.LCFI86:
 1696              		.cfi_def_cfa_offset 4
 1697              		.cfi_offset 7, -4
 1698 0002 83B0     		sub	sp, sp, #12
 1699              	.LCFI87:
 1700              		.cfi_def_cfa_offset 16
 1701 0004 00AF     		add	r7, sp, #0
 1702              	.LCFI88:
 1703              		.cfi_def_cfa_register 7
 1704 0006 7860     		str	r0, [r7, #4]
ARM GAS  /var/folders/06/9k7gq4t13mj84z2yhw3grvhc0000gn/T//ccuiTnhW.s 			page 50


1110:Drivers/STM32F4xx_HAL_Driver/Src/stm32f4xx_hal_ltdc.c ****   /* Process locked */
1111:Drivers/STM32F4xx_HAL_Driver/Src/stm32f4xx_hal_ltdc.c ****   __HAL_LOCK(hltdc);
 1705              		.loc 1 1111 3
 1706 0008 7B68     		ldr	r3, [r7, #4]
 1707 000a 93F8A030 		ldrb	r3, [r3, #160]	@ zero_extendqisi2
 1708 000e 012B     		cmp	r3, #1
 1709 0010 01D1     		bne	.L51
 1710              		.loc 1 1111 3 is_stmt 0 discriminator 1
 1711 0012 0223     		movs	r3, #2
 1712              		.loc 1 1111 3
 1713 0014 16E0     		b	.L52
 1714              	.L51:
 1715              		.loc 1 1111 3 discriminator 2
 1716 0016 7B68     		ldr	r3, [r7, #4]
 1717 0018 0122     		movs	r2, #1
 1718 001a 83F8A020 		strb	r2, [r3, #160]
1112:Drivers/STM32F4xx_HAL_Driver/Src/stm32f4xx_hal_ltdc.c **** 
1113:Drivers/STM32F4xx_HAL_Driver/Src/stm32f4xx_hal_ltdc.c ****   /* Change LTDC peripheral state */
1114:Drivers/STM32F4xx_HAL_Driver/Src/stm32f4xx_hal_ltdc.c ****   hltdc->State = HAL_LTDC_STATE_BUSY;
 1719              		.loc 1 1114 16 is_stmt 1
 1720 001e 7B68     		ldr	r3, [r7, #4]
 1721 0020 0222     		movs	r2, #2
 1722 0022 83F8A120 		strb	r2, [r3, #161]
1115:Drivers/STM32F4xx_HAL_Driver/Src/stm32f4xx_hal_ltdc.c **** 
1116:Drivers/STM32F4xx_HAL_Driver/Src/stm32f4xx_hal_ltdc.c ****   /* Enable Dither by setting DTEN bit */
1117:Drivers/STM32F4xx_HAL_Driver/Src/stm32f4xx_hal_ltdc.c ****   LTDC->GCR |= (uint32_t)LTDC_GCR_DEN;
 1723              		.loc 1 1117 7
 1724 0026 0A4B     		ldr	r3, .L53
 1725 0028 9B69     		ldr	r3, [r3, #24]
 1726 002a 094A     		ldr	r2, .L53
 1727              		.loc 1 1117 13
 1728 002c 43F48033 		orr	r3, r3, #65536
 1729 0030 9361     		str	r3, [r2, #24]
1118:Drivers/STM32F4xx_HAL_Driver/Src/stm32f4xx_hal_ltdc.c **** 
1119:Drivers/STM32F4xx_HAL_Driver/Src/stm32f4xx_hal_ltdc.c ****   /* Change the LTDC state*/
1120:Drivers/STM32F4xx_HAL_Driver/Src/stm32f4xx_hal_ltdc.c ****   hltdc->State = HAL_LTDC_STATE_READY;
 1730              		.loc 1 1120 16
 1731 0032 7B68     		ldr	r3, [r7, #4]
 1732 0034 0122     		movs	r2, #1
 1733 0036 83F8A120 		strb	r2, [r3, #161]
1121:Drivers/STM32F4xx_HAL_Driver/Src/stm32f4xx_hal_ltdc.c **** 
1122:Drivers/STM32F4xx_HAL_Driver/Src/stm32f4xx_hal_ltdc.c ****   /* Process unlocked */
1123:Drivers/STM32F4xx_HAL_Driver/Src/stm32f4xx_hal_ltdc.c ****   __HAL_UNLOCK(hltdc);
 1734              		.loc 1 1123 3
 1735 003a 7B68     		ldr	r3, [r7, #4]
 1736 003c 0022     		movs	r2, #0
 1737 003e 83F8A020 		strb	r2, [r3, #160]
1124:Drivers/STM32F4xx_HAL_Driver/Src/stm32f4xx_hal_ltdc.c **** 
1125:Drivers/STM32F4xx_HAL_Driver/Src/stm32f4xx_hal_ltdc.c ****   return HAL_OK;
 1738              		.loc 1 1125 10
 1739 0042 0023     		movs	r3, #0
 1740              	.L52:
1126:Drivers/STM32F4xx_HAL_Driver/Src/stm32f4xx_hal_ltdc.c **** }
 1741              		.loc 1 1126 1
 1742 0044 1846     		mov	r0, r3
 1743 0046 0C37     		adds	r7, r7, #12
 1744              	.LCFI89:
ARM GAS  /var/folders/06/9k7gq4t13mj84z2yhw3grvhc0000gn/T//ccuiTnhW.s 			page 51


 1745              		.cfi_def_cfa_offset 4
 1746 0048 BD46     		mov	sp, r7
 1747              	.LCFI90:
 1748              		.cfi_def_cfa_register 13
 1749              		@ sp needed
 1750 004a 5DF8047B 		ldr	r7, [sp], #4
 1751              	.LCFI91:
 1752              		.cfi_restore 7
 1753              		.cfi_def_cfa_offset 0
 1754 004e 7047     		bx	lr
 1755              	.L54:
 1756              		.align	2
 1757              	.L53:
 1758 0050 00680140 		.word	1073833984
 1759              		.cfi_endproc
 1760              	.LFE149:
 1762              		.section	.text.HAL_LTDC_DisableDither,"ax",%progbits
 1763              		.align	1
 1764              		.global	HAL_LTDC_DisableDither
 1765              		.syntax unified
 1766              		.thumb
 1767              		.thumb_func
 1769              	HAL_LTDC_DisableDither:
 1770              	.LFB150:
1127:Drivers/STM32F4xx_HAL_Driver/Src/stm32f4xx_hal_ltdc.c **** 
1128:Drivers/STM32F4xx_HAL_Driver/Src/stm32f4xx_hal_ltdc.c **** /**
1129:Drivers/STM32F4xx_HAL_Driver/Src/stm32f4xx_hal_ltdc.c ****   * @brief  Disable Dither.
1130:Drivers/STM32F4xx_HAL_Driver/Src/stm32f4xx_hal_ltdc.c ****   * @param  hltdc  pointer to a LTDC_HandleTypeDef structure that contains
1131:Drivers/STM32F4xx_HAL_Driver/Src/stm32f4xx_hal_ltdc.c ****   *                the configuration information for the LTDC.
1132:Drivers/STM32F4xx_HAL_Driver/Src/stm32f4xx_hal_ltdc.c ****   * @retval  HAL status
1133:Drivers/STM32F4xx_HAL_Driver/Src/stm32f4xx_hal_ltdc.c ****   */
1134:Drivers/STM32F4xx_HAL_Driver/Src/stm32f4xx_hal_ltdc.c **** 
1135:Drivers/STM32F4xx_HAL_Driver/Src/stm32f4xx_hal_ltdc.c **** HAL_StatusTypeDef HAL_LTDC_DisableDither(LTDC_HandleTypeDef *hltdc)
1136:Drivers/STM32F4xx_HAL_Driver/Src/stm32f4xx_hal_ltdc.c **** {
 1771              		.loc 1 1136 1
 1772              		.cfi_startproc
 1773              		@ args = 0, pretend = 0, frame = 8
 1774              		@ frame_needed = 1, uses_anonymous_args = 0
 1775              		@ link register save eliminated.
 1776 0000 80B4     		push	{r7}
 1777              	.LCFI92:
 1778              		.cfi_def_cfa_offset 4
 1779              		.cfi_offset 7, -4
 1780 0002 83B0     		sub	sp, sp, #12
 1781              	.LCFI93:
 1782              		.cfi_def_cfa_offset 16
 1783 0004 00AF     		add	r7, sp, #0
 1784              	.LCFI94:
 1785              		.cfi_def_cfa_register 7
 1786 0006 7860     		str	r0, [r7, #4]
1137:Drivers/STM32F4xx_HAL_Driver/Src/stm32f4xx_hal_ltdc.c ****   /* Process locked */
1138:Drivers/STM32F4xx_HAL_Driver/Src/stm32f4xx_hal_ltdc.c ****   __HAL_LOCK(hltdc);
 1787              		.loc 1 1138 3
 1788 0008 7B68     		ldr	r3, [r7, #4]
 1789 000a 93F8A030 		ldrb	r3, [r3, #160]	@ zero_extendqisi2
 1790 000e 012B     		cmp	r3, #1
 1791 0010 01D1     		bne	.L56
ARM GAS  /var/folders/06/9k7gq4t13mj84z2yhw3grvhc0000gn/T//ccuiTnhW.s 			page 52


 1792              		.loc 1 1138 3 is_stmt 0 discriminator 1
 1793 0012 0223     		movs	r3, #2
 1794              		.loc 1 1138 3
 1795 0014 16E0     		b	.L57
 1796              	.L56:
 1797              		.loc 1 1138 3 discriminator 2
 1798 0016 7B68     		ldr	r3, [r7, #4]
 1799 0018 0122     		movs	r2, #1
 1800 001a 83F8A020 		strb	r2, [r3, #160]
1139:Drivers/STM32F4xx_HAL_Driver/Src/stm32f4xx_hal_ltdc.c **** 
1140:Drivers/STM32F4xx_HAL_Driver/Src/stm32f4xx_hal_ltdc.c ****   /* Change LTDC peripheral state */
1141:Drivers/STM32F4xx_HAL_Driver/Src/stm32f4xx_hal_ltdc.c ****   hltdc->State = HAL_LTDC_STATE_BUSY;
 1801              		.loc 1 1141 16 is_stmt 1
 1802 001e 7B68     		ldr	r3, [r7, #4]
 1803 0020 0222     		movs	r2, #2
 1804 0022 83F8A120 		strb	r2, [r3, #161]
1142:Drivers/STM32F4xx_HAL_Driver/Src/stm32f4xx_hal_ltdc.c **** 
1143:Drivers/STM32F4xx_HAL_Driver/Src/stm32f4xx_hal_ltdc.c ****   /* Disable Dither by setting DTEN bit */
1144:Drivers/STM32F4xx_HAL_Driver/Src/stm32f4xx_hal_ltdc.c ****   LTDC->GCR &= ~(uint32_t)LTDC_GCR_DEN;
 1805              		.loc 1 1144 7
 1806 0026 0A4B     		ldr	r3, .L58
 1807 0028 9B69     		ldr	r3, [r3, #24]
 1808 002a 094A     		ldr	r2, .L58
 1809              		.loc 1 1144 13
 1810 002c 23F48033 		bic	r3, r3, #65536
 1811 0030 9361     		str	r3, [r2, #24]
1145:Drivers/STM32F4xx_HAL_Driver/Src/stm32f4xx_hal_ltdc.c **** 
1146:Drivers/STM32F4xx_HAL_Driver/Src/stm32f4xx_hal_ltdc.c ****   /* Change the LTDC state*/
1147:Drivers/STM32F4xx_HAL_Driver/Src/stm32f4xx_hal_ltdc.c ****   hltdc->State = HAL_LTDC_STATE_READY;
 1812              		.loc 1 1147 16
 1813 0032 7B68     		ldr	r3, [r7, #4]
 1814 0034 0122     		movs	r2, #1
 1815 0036 83F8A120 		strb	r2, [r3, #161]
1148:Drivers/STM32F4xx_HAL_Driver/Src/stm32f4xx_hal_ltdc.c **** 
1149:Drivers/STM32F4xx_HAL_Driver/Src/stm32f4xx_hal_ltdc.c ****   /* Process unlocked */
1150:Drivers/STM32F4xx_HAL_Driver/Src/stm32f4xx_hal_ltdc.c ****   __HAL_UNLOCK(hltdc);
 1816              		.loc 1 1150 3
 1817 003a 7B68     		ldr	r3, [r7, #4]
 1818 003c 0022     		movs	r2, #0
 1819 003e 83F8A020 		strb	r2, [r3, #160]
1151:Drivers/STM32F4xx_HAL_Driver/Src/stm32f4xx_hal_ltdc.c **** 
1152:Drivers/STM32F4xx_HAL_Driver/Src/stm32f4xx_hal_ltdc.c ****   return HAL_OK;
 1820              		.loc 1 1152 10
 1821 0042 0023     		movs	r3, #0
 1822              	.L57:
1153:Drivers/STM32F4xx_HAL_Driver/Src/stm32f4xx_hal_ltdc.c **** }
 1823              		.loc 1 1153 1
 1824 0044 1846     		mov	r0, r3
 1825 0046 0C37     		adds	r7, r7, #12
 1826              	.LCFI95:
 1827              		.cfi_def_cfa_offset 4
 1828 0048 BD46     		mov	sp, r7
 1829              	.LCFI96:
 1830              		.cfi_def_cfa_register 13
 1831              		@ sp needed
 1832 004a 5DF8047B 		ldr	r7, [sp], #4
 1833              	.LCFI97:
ARM GAS  /var/folders/06/9k7gq4t13mj84z2yhw3grvhc0000gn/T//ccuiTnhW.s 			page 53


 1834              		.cfi_restore 7
 1835              		.cfi_def_cfa_offset 0
 1836 004e 7047     		bx	lr
 1837              	.L59:
 1838              		.align	2
 1839              	.L58:
 1840 0050 00680140 		.word	1073833984
 1841              		.cfi_endproc
 1842              	.LFE150:
 1844              		.section	.text.HAL_LTDC_SetWindowSize,"ax",%progbits
 1845              		.align	1
 1846              		.global	HAL_LTDC_SetWindowSize
 1847              		.syntax unified
 1848              		.thumb
 1849              		.thumb_func
 1851              	HAL_LTDC_SetWindowSize:
 1852              	.LFB151:
1154:Drivers/STM32F4xx_HAL_Driver/Src/stm32f4xx_hal_ltdc.c **** 
1155:Drivers/STM32F4xx_HAL_Driver/Src/stm32f4xx_hal_ltdc.c **** /**
1156:Drivers/STM32F4xx_HAL_Driver/Src/stm32f4xx_hal_ltdc.c ****   * @brief  Set the LTDC window size.
1157:Drivers/STM32F4xx_HAL_Driver/Src/stm32f4xx_hal_ltdc.c ****   * @param  hltdc     pointer to a LTDC_HandleTypeDef structure that contains
1158:Drivers/STM32F4xx_HAL_Driver/Src/stm32f4xx_hal_ltdc.c ****   *                   the configuration information for the LTDC.
1159:Drivers/STM32F4xx_HAL_Driver/Src/stm32f4xx_hal_ltdc.c ****   * @param  XSize     LTDC Pixel per line
1160:Drivers/STM32F4xx_HAL_Driver/Src/stm32f4xx_hal_ltdc.c ****   * @param  YSize     LTDC Line number
1161:Drivers/STM32F4xx_HAL_Driver/Src/stm32f4xx_hal_ltdc.c ****   * @param  LayerIdx  LTDC Layer index.
1162:Drivers/STM32F4xx_HAL_Driver/Src/stm32f4xx_hal_ltdc.c ****   *                   This parameter can be one of the following values:
1163:Drivers/STM32F4xx_HAL_Driver/Src/stm32f4xx_hal_ltdc.c ****   *                   LTDC_LAYER_1 (0) or LTDC_LAYER_2 (1)
1164:Drivers/STM32F4xx_HAL_Driver/Src/stm32f4xx_hal_ltdc.c ****   * @retval  HAL status
1165:Drivers/STM32F4xx_HAL_Driver/Src/stm32f4xx_hal_ltdc.c ****   */
1166:Drivers/STM32F4xx_HAL_Driver/Src/stm32f4xx_hal_ltdc.c **** HAL_StatusTypeDef HAL_LTDC_SetWindowSize(LTDC_HandleTypeDef *hltdc, uint32_t XSize, uint32_t YSize,
1167:Drivers/STM32F4xx_HAL_Driver/Src/stm32f4xx_hal_ltdc.c **** {
 1853              		.loc 1 1167 1
 1854              		.cfi_startproc
 1855              		@ args = 0, pretend = 0, frame = 24
 1856              		@ frame_needed = 1, uses_anonymous_args = 0
 1857 0000 80B5     		push	{r7, lr}
 1858              	.LCFI98:
 1859              		.cfi_def_cfa_offset 8
 1860              		.cfi_offset 7, -8
 1861              		.cfi_offset 14, -4
 1862 0002 86B0     		sub	sp, sp, #24
 1863              	.LCFI99:
 1864              		.cfi_def_cfa_offset 32
 1865 0004 00AF     		add	r7, sp, #0
 1866              	.LCFI100:
 1867              		.cfi_def_cfa_register 7
 1868 0006 F860     		str	r0, [r7, #12]
 1869 0008 B960     		str	r1, [r7, #8]
 1870 000a 7A60     		str	r2, [r7, #4]
 1871 000c 3B60     		str	r3, [r7]
1168:Drivers/STM32F4xx_HAL_Driver/Src/stm32f4xx_hal_ltdc.c ****   LTDC_LayerCfgTypeDef *pLayerCfg;
1169:Drivers/STM32F4xx_HAL_Driver/Src/stm32f4xx_hal_ltdc.c **** 
1170:Drivers/STM32F4xx_HAL_Driver/Src/stm32f4xx_hal_ltdc.c ****   /* Check the parameters (Layers parameters)*/
1171:Drivers/STM32F4xx_HAL_Driver/Src/stm32f4xx_hal_ltdc.c ****   assert_param(IS_LTDC_LAYER(LayerIdx));
1172:Drivers/STM32F4xx_HAL_Driver/Src/stm32f4xx_hal_ltdc.c ****   assert_param(IS_LTDC_CFBLL(XSize));
1173:Drivers/STM32F4xx_HAL_Driver/Src/stm32f4xx_hal_ltdc.c ****   assert_param(IS_LTDC_CFBLNBR(YSize));
1174:Drivers/STM32F4xx_HAL_Driver/Src/stm32f4xx_hal_ltdc.c **** 
ARM GAS  /var/folders/06/9k7gq4t13mj84z2yhw3grvhc0000gn/T//ccuiTnhW.s 			page 54


1175:Drivers/STM32F4xx_HAL_Driver/Src/stm32f4xx_hal_ltdc.c ****   /* Process locked */
1176:Drivers/STM32F4xx_HAL_Driver/Src/stm32f4xx_hal_ltdc.c ****   __HAL_LOCK(hltdc);
 1872              		.loc 1 1176 3
 1873 000e FB68     		ldr	r3, [r7, #12]
 1874 0010 93F8A030 		ldrb	r3, [r3, #160]	@ zero_extendqisi2
 1875 0014 012B     		cmp	r3, #1
 1876 0016 01D1     		bne	.L61
 1877              		.loc 1 1176 3 is_stmt 0 discriminator 1
 1878 0018 0223     		movs	r3, #2
 1879              		.loc 1 1176 3
 1880 001a 33E0     		b	.L62
 1881              	.L61:
 1882              		.loc 1 1176 3 discriminator 2
 1883 001c FB68     		ldr	r3, [r7, #12]
 1884 001e 0122     		movs	r2, #1
 1885 0020 83F8A020 		strb	r2, [r3, #160]
1177:Drivers/STM32F4xx_HAL_Driver/Src/stm32f4xx_hal_ltdc.c **** 
1178:Drivers/STM32F4xx_HAL_Driver/Src/stm32f4xx_hal_ltdc.c ****   /* Change LTDC peripheral state */
1179:Drivers/STM32F4xx_HAL_Driver/Src/stm32f4xx_hal_ltdc.c ****   hltdc->State = HAL_LTDC_STATE_BUSY;
 1886              		.loc 1 1179 16 is_stmt 1
 1887 0024 FB68     		ldr	r3, [r7, #12]
 1888 0026 0222     		movs	r2, #2
 1889 0028 83F8A120 		strb	r2, [r3, #161]
1180:Drivers/STM32F4xx_HAL_Driver/Src/stm32f4xx_hal_ltdc.c **** 
1181:Drivers/STM32F4xx_HAL_Driver/Src/stm32f4xx_hal_ltdc.c ****   /* Get layer configuration from handle structure */
1182:Drivers/STM32F4xx_HAL_Driver/Src/stm32f4xx_hal_ltdc.c ****   pLayerCfg = &hltdc->LayerCfg[LayerIdx];
 1890              		.loc 1 1182 13
 1891 002c 3B68     		ldr	r3, [r7]
 1892 002e 3422     		movs	r2, #52
 1893 0030 02FB03F3 		mul	r3, r2, r3
 1894 0034 3833     		adds	r3, r3, #56
 1895 0036 FA68     		ldr	r2, [r7, #12]
 1896 0038 1344     		add	r3, r3, r2
 1897 003a 7B61     		str	r3, [r7, #20]
1183:Drivers/STM32F4xx_HAL_Driver/Src/stm32f4xx_hal_ltdc.c **** 
1184:Drivers/STM32F4xx_HAL_Driver/Src/stm32f4xx_hal_ltdc.c ****   /* update horizontal stop */
1185:Drivers/STM32F4xx_HAL_Driver/Src/stm32f4xx_hal_ltdc.c ****   pLayerCfg->WindowX1 = XSize + pLayerCfg->WindowX0;
 1898              		.loc 1 1185 42
 1899 003c 7B69     		ldr	r3, [r7, #20]
 1900 003e 1A68     		ldr	r2, [r3]
 1901              		.loc 1 1185 31
 1902 0040 BB68     		ldr	r3, [r7, #8]
 1903 0042 1A44     		add	r2, r2, r3
 1904              		.loc 1 1185 23
 1905 0044 7B69     		ldr	r3, [r7, #20]
 1906 0046 5A60     		str	r2, [r3, #4]
1186:Drivers/STM32F4xx_HAL_Driver/Src/stm32f4xx_hal_ltdc.c **** 
1187:Drivers/STM32F4xx_HAL_Driver/Src/stm32f4xx_hal_ltdc.c ****   /* update vertical stop */
1188:Drivers/STM32F4xx_HAL_Driver/Src/stm32f4xx_hal_ltdc.c ****   pLayerCfg->WindowY1 = YSize + pLayerCfg->WindowY0;
 1907              		.loc 1 1188 42
 1908 0048 7B69     		ldr	r3, [r7, #20]
 1909 004a 9A68     		ldr	r2, [r3, #8]
 1910              		.loc 1 1188 31
 1911 004c 7B68     		ldr	r3, [r7, #4]
 1912 004e 1A44     		add	r2, r2, r3
 1913              		.loc 1 1188 23
 1914 0050 7B69     		ldr	r3, [r7, #20]
ARM GAS  /var/folders/06/9k7gq4t13mj84z2yhw3grvhc0000gn/T//ccuiTnhW.s 			page 55


 1915 0052 DA60     		str	r2, [r3, #12]
1189:Drivers/STM32F4xx_HAL_Driver/Src/stm32f4xx_hal_ltdc.c **** 
1190:Drivers/STM32F4xx_HAL_Driver/Src/stm32f4xx_hal_ltdc.c ****   /* Reconfigures the color frame buffer pitch in byte */
1191:Drivers/STM32F4xx_HAL_Driver/Src/stm32f4xx_hal_ltdc.c ****   pLayerCfg->ImageWidth = XSize;
 1916              		.loc 1 1191 25
 1917 0054 7B69     		ldr	r3, [r7, #20]
 1918 0056 BA68     		ldr	r2, [r7, #8]
 1919 0058 9A62     		str	r2, [r3, #40]
1192:Drivers/STM32F4xx_HAL_Driver/Src/stm32f4xx_hal_ltdc.c **** 
1193:Drivers/STM32F4xx_HAL_Driver/Src/stm32f4xx_hal_ltdc.c ****   /* Reconfigures the frame buffer line number */
1194:Drivers/STM32F4xx_HAL_Driver/Src/stm32f4xx_hal_ltdc.c ****   pLayerCfg->ImageHeight = YSize;
 1920              		.loc 1 1194 26
 1921 005a 7B69     		ldr	r3, [r7, #20]
 1922 005c 7A68     		ldr	r2, [r7, #4]
 1923 005e DA62     		str	r2, [r3, #44]
1195:Drivers/STM32F4xx_HAL_Driver/Src/stm32f4xx_hal_ltdc.c **** 
1196:Drivers/STM32F4xx_HAL_Driver/Src/stm32f4xx_hal_ltdc.c ****   /* Set LTDC parameters */
1197:Drivers/STM32F4xx_HAL_Driver/Src/stm32f4xx_hal_ltdc.c ****   LTDC_SetConfig(hltdc, pLayerCfg, LayerIdx);
 1924              		.loc 1 1197 3
 1925 0060 3A68     		ldr	r2, [r7]
 1926 0062 7969     		ldr	r1, [r7, #20]
 1927 0064 F868     		ldr	r0, [r7, #12]
 1928 0066 FFF7FEFF 		bl	LTDC_SetConfig
1198:Drivers/STM32F4xx_HAL_Driver/Src/stm32f4xx_hal_ltdc.c **** 
1199:Drivers/STM32F4xx_HAL_Driver/Src/stm32f4xx_hal_ltdc.c ****   /* Set the Immediate Reload type */
1200:Drivers/STM32F4xx_HAL_Driver/Src/stm32f4xx_hal_ltdc.c ****   hltdc->Instance->SRCR = LTDC_SRCR_IMR;
 1929              		.loc 1 1200 8
 1930 006a FB68     		ldr	r3, [r7, #12]
 1931 006c 1B68     		ldr	r3, [r3]
 1932              		.loc 1 1200 25
 1933 006e 0122     		movs	r2, #1
 1934 0070 5A62     		str	r2, [r3, #36]
1201:Drivers/STM32F4xx_HAL_Driver/Src/stm32f4xx_hal_ltdc.c **** 
1202:Drivers/STM32F4xx_HAL_Driver/Src/stm32f4xx_hal_ltdc.c ****   /* Change the LTDC state*/
1203:Drivers/STM32F4xx_HAL_Driver/Src/stm32f4xx_hal_ltdc.c ****   hltdc->State = HAL_LTDC_STATE_READY;
 1935              		.loc 1 1203 16
 1936 0072 FB68     		ldr	r3, [r7, #12]
 1937 0074 0122     		movs	r2, #1
 1938 0076 83F8A120 		strb	r2, [r3, #161]
1204:Drivers/STM32F4xx_HAL_Driver/Src/stm32f4xx_hal_ltdc.c **** 
1205:Drivers/STM32F4xx_HAL_Driver/Src/stm32f4xx_hal_ltdc.c ****   /* Process unlocked */
1206:Drivers/STM32F4xx_HAL_Driver/Src/stm32f4xx_hal_ltdc.c ****   __HAL_UNLOCK(hltdc);
 1939              		.loc 1 1206 3
 1940 007a FB68     		ldr	r3, [r7, #12]
 1941 007c 0022     		movs	r2, #0
 1942 007e 83F8A020 		strb	r2, [r3, #160]
1207:Drivers/STM32F4xx_HAL_Driver/Src/stm32f4xx_hal_ltdc.c **** 
1208:Drivers/STM32F4xx_HAL_Driver/Src/stm32f4xx_hal_ltdc.c ****   return HAL_OK;
 1943              		.loc 1 1208 10
 1944 0082 0023     		movs	r3, #0
 1945              	.L62:
1209:Drivers/STM32F4xx_HAL_Driver/Src/stm32f4xx_hal_ltdc.c **** }
 1946              		.loc 1 1209 1
 1947 0084 1846     		mov	r0, r3
 1948 0086 1837     		adds	r7, r7, #24
 1949              	.LCFI101:
 1950              		.cfi_def_cfa_offset 8
ARM GAS  /var/folders/06/9k7gq4t13mj84z2yhw3grvhc0000gn/T//ccuiTnhW.s 			page 56


 1951 0088 BD46     		mov	sp, r7
 1952              	.LCFI102:
 1953              		.cfi_def_cfa_register 13
 1954              		@ sp needed
 1955 008a 80BD     		pop	{r7, pc}
 1956              		.cfi_endproc
 1957              	.LFE151:
 1959              		.section	.text.HAL_LTDC_SetWindowPosition,"ax",%progbits
 1960              		.align	1
 1961              		.global	HAL_LTDC_SetWindowPosition
 1962              		.syntax unified
 1963              		.thumb
 1964              		.thumb_func
 1966              	HAL_LTDC_SetWindowPosition:
 1967              	.LFB152:
1210:Drivers/STM32F4xx_HAL_Driver/Src/stm32f4xx_hal_ltdc.c **** 
1211:Drivers/STM32F4xx_HAL_Driver/Src/stm32f4xx_hal_ltdc.c **** /**
1212:Drivers/STM32F4xx_HAL_Driver/Src/stm32f4xx_hal_ltdc.c ****   * @brief  Set the LTDC window position.
1213:Drivers/STM32F4xx_HAL_Driver/Src/stm32f4xx_hal_ltdc.c ****   * @param  hltdc     pointer to a LTDC_HandleTypeDef structure that contains
1214:Drivers/STM32F4xx_HAL_Driver/Src/stm32f4xx_hal_ltdc.c ****   *                   the configuration information for the LTDC.
1215:Drivers/STM32F4xx_HAL_Driver/Src/stm32f4xx_hal_ltdc.c ****   * @param  X0        LTDC window X offset
1216:Drivers/STM32F4xx_HAL_Driver/Src/stm32f4xx_hal_ltdc.c ****   * @param  Y0        LTDC window Y offset
1217:Drivers/STM32F4xx_HAL_Driver/Src/stm32f4xx_hal_ltdc.c ****   * @param  LayerIdx  LTDC Layer index.
1218:Drivers/STM32F4xx_HAL_Driver/Src/stm32f4xx_hal_ltdc.c ****   *                         This parameter can be one of the following values:
1219:Drivers/STM32F4xx_HAL_Driver/Src/stm32f4xx_hal_ltdc.c ****   *                         LTDC_LAYER_1 (0) or LTDC_LAYER_2 (1)
1220:Drivers/STM32F4xx_HAL_Driver/Src/stm32f4xx_hal_ltdc.c ****   * @retval  HAL status
1221:Drivers/STM32F4xx_HAL_Driver/Src/stm32f4xx_hal_ltdc.c ****   */
1222:Drivers/STM32F4xx_HAL_Driver/Src/stm32f4xx_hal_ltdc.c **** HAL_StatusTypeDef HAL_LTDC_SetWindowPosition(LTDC_HandleTypeDef *hltdc, uint32_t X0, uint32_t Y0, u
1223:Drivers/STM32F4xx_HAL_Driver/Src/stm32f4xx_hal_ltdc.c **** {
 1968              		.loc 1 1223 1
 1969              		.cfi_startproc
 1970              		@ args = 0, pretend = 0, frame = 24
 1971              		@ frame_needed = 1, uses_anonymous_args = 0
 1972 0000 80B5     		push	{r7, lr}
 1973              	.LCFI103:
 1974              		.cfi_def_cfa_offset 8
 1975              		.cfi_offset 7, -8
 1976              		.cfi_offset 14, -4
 1977 0002 86B0     		sub	sp, sp, #24
 1978              	.LCFI104:
 1979              		.cfi_def_cfa_offset 32
 1980 0004 00AF     		add	r7, sp, #0
 1981              	.LCFI105:
 1982              		.cfi_def_cfa_register 7
 1983 0006 F860     		str	r0, [r7, #12]
 1984 0008 B960     		str	r1, [r7, #8]
 1985 000a 7A60     		str	r2, [r7, #4]
 1986 000c 3B60     		str	r3, [r7]
1224:Drivers/STM32F4xx_HAL_Driver/Src/stm32f4xx_hal_ltdc.c ****   LTDC_LayerCfgTypeDef *pLayerCfg;
1225:Drivers/STM32F4xx_HAL_Driver/Src/stm32f4xx_hal_ltdc.c **** 
1226:Drivers/STM32F4xx_HAL_Driver/Src/stm32f4xx_hal_ltdc.c ****   /* Check the parameters */
1227:Drivers/STM32F4xx_HAL_Driver/Src/stm32f4xx_hal_ltdc.c ****   assert_param(IS_LTDC_LAYER(LayerIdx));
1228:Drivers/STM32F4xx_HAL_Driver/Src/stm32f4xx_hal_ltdc.c ****   assert_param(IS_LTDC_CFBLL(X0));
1229:Drivers/STM32F4xx_HAL_Driver/Src/stm32f4xx_hal_ltdc.c ****   assert_param(IS_LTDC_CFBLNBR(Y0));
1230:Drivers/STM32F4xx_HAL_Driver/Src/stm32f4xx_hal_ltdc.c **** 
1231:Drivers/STM32F4xx_HAL_Driver/Src/stm32f4xx_hal_ltdc.c ****   /* Process locked */
1232:Drivers/STM32F4xx_HAL_Driver/Src/stm32f4xx_hal_ltdc.c ****   __HAL_LOCK(hltdc);
ARM GAS  /var/folders/06/9k7gq4t13mj84z2yhw3grvhc0000gn/T//ccuiTnhW.s 			page 57


 1987              		.loc 1 1232 3
 1988 000e FB68     		ldr	r3, [r7, #12]
 1989 0010 93F8A030 		ldrb	r3, [r3, #160]	@ zero_extendqisi2
 1990 0014 012B     		cmp	r3, #1
 1991 0016 01D1     		bne	.L64
 1992              		.loc 1 1232 3 is_stmt 0 discriminator 1
 1993 0018 0223     		movs	r3, #2
 1994              		.loc 1 1232 3
 1995 001a 33E0     		b	.L65
 1996              	.L64:
 1997              		.loc 1 1232 3 discriminator 2
 1998 001c FB68     		ldr	r3, [r7, #12]
 1999 001e 0122     		movs	r2, #1
 2000 0020 83F8A020 		strb	r2, [r3, #160]
1233:Drivers/STM32F4xx_HAL_Driver/Src/stm32f4xx_hal_ltdc.c **** 
1234:Drivers/STM32F4xx_HAL_Driver/Src/stm32f4xx_hal_ltdc.c ****   /* Change LTDC peripheral state */
1235:Drivers/STM32F4xx_HAL_Driver/Src/stm32f4xx_hal_ltdc.c ****   hltdc->State = HAL_LTDC_STATE_BUSY;
 2001              		.loc 1 1235 16 is_stmt 1
 2002 0024 FB68     		ldr	r3, [r7, #12]
 2003 0026 0222     		movs	r2, #2
 2004 0028 83F8A120 		strb	r2, [r3, #161]
1236:Drivers/STM32F4xx_HAL_Driver/Src/stm32f4xx_hal_ltdc.c **** 
1237:Drivers/STM32F4xx_HAL_Driver/Src/stm32f4xx_hal_ltdc.c ****   /* Get layer configuration from handle structure */
1238:Drivers/STM32F4xx_HAL_Driver/Src/stm32f4xx_hal_ltdc.c ****   pLayerCfg = &hltdc->LayerCfg[LayerIdx];
 2005              		.loc 1 1238 13
 2006 002c 3B68     		ldr	r3, [r7]
 2007 002e 3422     		movs	r2, #52
 2008 0030 02FB03F3 		mul	r3, r2, r3
 2009 0034 3833     		adds	r3, r3, #56
 2010 0036 FA68     		ldr	r2, [r7, #12]
 2011 0038 1344     		add	r3, r3, r2
 2012 003a 7B61     		str	r3, [r7, #20]
1239:Drivers/STM32F4xx_HAL_Driver/Src/stm32f4xx_hal_ltdc.c **** 
1240:Drivers/STM32F4xx_HAL_Driver/Src/stm32f4xx_hal_ltdc.c ****   /* update horizontal start/stop */
1241:Drivers/STM32F4xx_HAL_Driver/Src/stm32f4xx_hal_ltdc.c ****   pLayerCfg->WindowX0 = X0;
 2013              		.loc 1 1241 23
 2014 003c 7B69     		ldr	r3, [r7, #20]
 2015 003e BA68     		ldr	r2, [r7, #8]
 2016 0040 1A60     		str	r2, [r3]
1242:Drivers/STM32F4xx_HAL_Driver/Src/stm32f4xx_hal_ltdc.c ****   pLayerCfg->WindowX1 = X0 + pLayerCfg->ImageWidth;
 2017              		.loc 1 1242 39
 2018 0042 7B69     		ldr	r3, [r7, #20]
 2019 0044 9A6A     		ldr	r2, [r3, #40]
 2020              		.loc 1 1242 28
 2021 0046 BB68     		ldr	r3, [r7, #8]
 2022 0048 1A44     		add	r2, r2, r3
 2023              		.loc 1 1242 23
 2024 004a 7B69     		ldr	r3, [r7, #20]
 2025 004c 5A60     		str	r2, [r3, #4]
1243:Drivers/STM32F4xx_HAL_Driver/Src/stm32f4xx_hal_ltdc.c **** 
1244:Drivers/STM32F4xx_HAL_Driver/Src/stm32f4xx_hal_ltdc.c ****   /* update vertical start/stop */
1245:Drivers/STM32F4xx_HAL_Driver/Src/stm32f4xx_hal_ltdc.c ****   pLayerCfg->WindowY0 = Y0;
 2026              		.loc 1 1245 23
 2027 004e 7B69     		ldr	r3, [r7, #20]
 2028 0050 7A68     		ldr	r2, [r7, #4]
 2029 0052 9A60     		str	r2, [r3, #8]
1246:Drivers/STM32F4xx_HAL_Driver/Src/stm32f4xx_hal_ltdc.c ****   pLayerCfg->WindowY1 = Y0 + pLayerCfg->ImageHeight;
ARM GAS  /var/folders/06/9k7gq4t13mj84z2yhw3grvhc0000gn/T//ccuiTnhW.s 			page 58


 2030              		.loc 1 1246 39
 2031 0054 7B69     		ldr	r3, [r7, #20]
 2032 0056 DA6A     		ldr	r2, [r3, #44]
 2033              		.loc 1 1246 28
 2034 0058 7B68     		ldr	r3, [r7, #4]
 2035 005a 1A44     		add	r2, r2, r3
 2036              		.loc 1 1246 23
 2037 005c 7B69     		ldr	r3, [r7, #20]
 2038 005e DA60     		str	r2, [r3, #12]
1247:Drivers/STM32F4xx_HAL_Driver/Src/stm32f4xx_hal_ltdc.c **** 
1248:Drivers/STM32F4xx_HAL_Driver/Src/stm32f4xx_hal_ltdc.c ****   /* Set LTDC parameters */
1249:Drivers/STM32F4xx_HAL_Driver/Src/stm32f4xx_hal_ltdc.c ****   LTDC_SetConfig(hltdc, pLayerCfg, LayerIdx);
 2039              		.loc 1 1249 3
 2040 0060 3A68     		ldr	r2, [r7]
 2041 0062 7969     		ldr	r1, [r7, #20]
 2042 0064 F868     		ldr	r0, [r7, #12]
 2043 0066 FFF7FEFF 		bl	LTDC_SetConfig
1250:Drivers/STM32F4xx_HAL_Driver/Src/stm32f4xx_hal_ltdc.c **** 
1251:Drivers/STM32F4xx_HAL_Driver/Src/stm32f4xx_hal_ltdc.c ****   /* Set the Immediate Reload type */
1252:Drivers/STM32F4xx_HAL_Driver/Src/stm32f4xx_hal_ltdc.c ****   hltdc->Instance->SRCR = LTDC_SRCR_IMR;
 2044              		.loc 1 1252 8
 2045 006a FB68     		ldr	r3, [r7, #12]
 2046 006c 1B68     		ldr	r3, [r3]
 2047              		.loc 1 1252 25
 2048 006e 0122     		movs	r2, #1
 2049 0070 5A62     		str	r2, [r3, #36]
1253:Drivers/STM32F4xx_HAL_Driver/Src/stm32f4xx_hal_ltdc.c **** 
1254:Drivers/STM32F4xx_HAL_Driver/Src/stm32f4xx_hal_ltdc.c ****   /* Change the LTDC state*/
1255:Drivers/STM32F4xx_HAL_Driver/Src/stm32f4xx_hal_ltdc.c ****   hltdc->State = HAL_LTDC_STATE_READY;
 2050              		.loc 1 1255 16
 2051 0072 FB68     		ldr	r3, [r7, #12]
 2052 0074 0122     		movs	r2, #1
 2053 0076 83F8A120 		strb	r2, [r3, #161]
1256:Drivers/STM32F4xx_HAL_Driver/Src/stm32f4xx_hal_ltdc.c **** 
1257:Drivers/STM32F4xx_HAL_Driver/Src/stm32f4xx_hal_ltdc.c ****   /* Process unlocked */
1258:Drivers/STM32F4xx_HAL_Driver/Src/stm32f4xx_hal_ltdc.c ****   __HAL_UNLOCK(hltdc);
 2054              		.loc 1 1258 3
 2055 007a FB68     		ldr	r3, [r7, #12]
 2056 007c 0022     		movs	r2, #0
 2057 007e 83F8A020 		strb	r2, [r3, #160]
1259:Drivers/STM32F4xx_HAL_Driver/Src/stm32f4xx_hal_ltdc.c **** 
1260:Drivers/STM32F4xx_HAL_Driver/Src/stm32f4xx_hal_ltdc.c ****   return HAL_OK;
 2058              		.loc 1 1260 10
 2059 0082 0023     		movs	r3, #0
 2060              	.L65:
1261:Drivers/STM32F4xx_HAL_Driver/Src/stm32f4xx_hal_ltdc.c **** }
 2061              		.loc 1 1261 1
 2062 0084 1846     		mov	r0, r3
 2063 0086 1837     		adds	r7, r7, #24
 2064              	.LCFI106:
 2065              		.cfi_def_cfa_offset 8
 2066 0088 BD46     		mov	sp, r7
 2067              	.LCFI107:
 2068              		.cfi_def_cfa_register 13
 2069              		@ sp needed
 2070 008a 80BD     		pop	{r7, pc}
 2071              		.cfi_endproc
ARM GAS  /var/folders/06/9k7gq4t13mj84z2yhw3grvhc0000gn/T//ccuiTnhW.s 			page 59


 2072              	.LFE152:
 2074              		.section	.text.HAL_LTDC_SetPixelFormat,"ax",%progbits
 2075              		.align	1
 2076              		.global	HAL_LTDC_SetPixelFormat
 2077              		.syntax unified
 2078              		.thumb
 2079              		.thumb_func
 2081              	HAL_LTDC_SetPixelFormat:
 2082              	.LFB153:
1262:Drivers/STM32F4xx_HAL_Driver/Src/stm32f4xx_hal_ltdc.c **** 
1263:Drivers/STM32F4xx_HAL_Driver/Src/stm32f4xx_hal_ltdc.c **** /**
1264:Drivers/STM32F4xx_HAL_Driver/Src/stm32f4xx_hal_ltdc.c ****   * @brief  Reconfigure the pixel format.
1265:Drivers/STM32F4xx_HAL_Driver/Src/stm32f4xx_hal_ltdc.c ****   * @param  hltdc        pointer to a LTDC_HandleTypeDef structure that contains
1266:Drivers/STM32F4xx_HAL_Driver/Src/stm32f4xx_hal_ltdc.c ****   *                      the configuration information for the LTDC.
1267:Drivers/STM32F4xx_HAL_Driver/Src/stm32f4xx_hal_ltdc.c ****   * @param  Pixelformat  new pixel format value.
1268:Drivers/STM32F4xx_HAL_Driver/Src/stm32f4xx_hal_ltdc.c ****   * @param  LayerIdx     LTDC Layer index.
1269:Drivers/STM32F4xx_HAL_Driver/Src/stm32f4xx_hal_ltdc.c ****   *                      This parameter can be one of the following values:
1270:Drivers/STM32F4xx_HAL_Driver/Src/stm32f4xx_hal_ltdc.c ****   *                      LTDC_LAYER_1 (0) or LTDC_LAYER_2 (1).
1271:Drivers/STM32F4xx_HAL_Driver/Src/stm32f4xx_hal_ltdc.c ****   * @retval  HAL status
1272:Drivers/STM32F4xx_HAL_Driver/Src/stm32f4xx_hal_ltdc.c ****   */
1273:Drivers/STM32F4xx_HAL_Driver/Src/stm32f4xx_hal_ltdc.c **** HAL_StatusTypeDef HAL_LTDC_SetPixelFormat(LTDC_HandleTypeDef *hltdc, uint32_t Pixelformat, uint32_t
1274:Drivers/STM32F4xx_HAL_Driver/Src/stm32f4xx_hal_ltdc.c **** {
 2083              		.loc 1 1274 1
 2084              		.cfi_startproc
 2085              		@ args = 0, pretend = 0, frame = 24
 2086              		@ frame_needed = 1, uses_anonymous_args = 0
 2087 0000 80B5     		push	{r7, lr}
 2088              	.LCFI108:
 2089              		.cfi_def_cfa_offset 8
 2090              		.cfi_offset 7, -8
 2091              		.cfi_offset 14, -4
 2092 0002 86B0     		sub	sp, sp, #24
 2093              	.LCFI109:
 2094              		.cfi_def_cfa_offset 32
 2095 0004 00AF     		add	r7, sp, #0
 2096              	.LCFI110:
 2097              		.cfi_def_cfa_register 7
 2098 0006 F860     		str	r0, [r7, #12]
 2099 0008 B960     		str	r1, [r7, #8]
 2100 000a 7A60     		str	r2, [r7, #4]
1275:Drivers/STM32F4xx_HAL_Driver/Src/stm32f4xx_hal_ltdc.c ****   LTDC_LayerCfgTypeDef *pLayerCfg;
1276:Drivers/STM32F4xx_HAL_Driver/Src/stm32f4xx_hal_ltdc.c **** 
1277:Drivers/STM32F4xx_HAL_Driver/Src/stm32f4xx_hal_ltdc.c ****   /* Check the parameters */
1278:Drivers/STM32F4xx_HAL_Driver/Src/stm32f4xx_hal_ltdc.c ****   assert_param(IS_LTDC_PIXEL_FORMAT(Pixelformat));
1279:Drivers/STM32F4xx_HAL_Driver/Src/stm32f4xx_hal_ltdc.c ****   assert_param(IS_LTDC_LAYER(LayerIdx));
1280:Drivers/STM32F4xx_HAL_Driver/Src/stm32f4xx_hal_ltdc.c **** 
1281:Drivers/STM32F4xx_HAL_Driver/Src/stm32f4xx_hal_ltdc.c ****   /* Process locked */
1282:Drivers/STM32F4xx_HAL_Driver/Src/stm32f4xx_hal_ltdc.c ****   __HAL_LOCK(hltdc);
 2101              		.loc 1 1282 3
 2102 000c FB68     		ldr	r3, [r7, #12]
 2103 000e 93F8A030 		ldrb	r3, [r3, #160]	@ zero_extendqisi2
 2104 0012 012B     		cmp	r3, #1
 2105 0014 01D1     		bne	.L67
 2106              		.loc 1 1282 3 is_stmt 0 discriminator 1
 2107 0016 0223     		movs	r3, #2
 2108              		.loc 1 1282 3
 2109 0018 24E0     		b	.L68
ARM GAS  /var/folders/06/9k7gq4t13mj84z2yhw3grvhc0000gn/T//ccuiTnhW.s 			page 60


 2110              	.L67:
 2111              		.loc 1 1282 3 discriminator 2
 2112 001a FB68     		ldr	r3, [r7, #12]
 2113 001c 0122     		movs	r2, #1
 2114 001e 83F8A020 		strb	r2, [r3, #160]
1283:Drivers/STM32F4xx_HAL_Driver/Src/stm32f4xx_hal_ltdc.c **** 
1284:Drivers/STM32F4xx_HAL_Driver/Src/stm32f4xx_hal_ltdc.c ****   /* Change LTDC peripheral state */
1285:Drivers/STM32F4xx_HAL_Driver/Src/stm32f4xx_hal_ltdc.c ****   hltdc->State = HAL_LTDC_STATE_BUSY;
 2115              		.loc 1 1285 16 is_stmt 1
 2116 0022 FB68     		ldr	r3, [r7, #12]
 2117 0024 0222     		movs	r2, #2
 2118 0026 83F8A120 		strb	r2, [r3, #161]
1286:Drivers/STM32F4xx_HAL_Driver/Src/stm32f4xx_hal_ltdc.c **** 
1287:Drivers/STM32F4xx_HAL_Driver/Src/stm32f4xx_hal_ltdc.c ****   /* Get layer configuration from handle structure */
1288:Drivers/STM32F4xx_HAL_Driver/Src/stm32f4xx_hal_ltdc.c ****   pLayerCfg = &hltdc->LayerCfg[LayerIdx];
 2119              		.loc 1 1288 13
 2120 002a 7B68     		ldr	r3, [r7, #4]
 2121 002c 3422     		movs	r2, #52
 2122 002e 02FB03F3 		mul	r3, r2, r3
 2123 0032 3833     		adds	r3, r3, #56
 2124 0034 FA68     		ldr	r2, [r7, #12]
 2125 0036 1344     		add	r3, r3, r2
 2126 0038 7B61     		str	r3, [r7, #20]
1289:Drivers/STM32F4xx_HAL_Driver/Src/stm32f4xx_hal_ltdc.c **** 
1290:Drivers/STM32F4xx_HAL_Driver/Src/stm32f4xx_hal_ltdc.c ****   /* Reconfigure the pixel format */
1291:Drivers/STM32F4xx_HAL_Driver/Src/stm32f4xx_hal_ltdc.c ****   pLayerCfg->PixelFormat = Pixelformat;
 2127              		.loc 1 1291 26
 2128 003a 7B69     		ldr	r3, [r7, #20]
 2129 003c BA68     		ldr	r2, [r7, #8]
 2130 003e 1A61     		str	r2, [r3, #16]
1292:Drivers/STM32F4xx_HAL_Driver/Src/stm32f4xx_hal_ltdc.c **** 
1293:Drivers/STM32F4xx_HAL_Driver/Src/stm32f4xx_hal_ltdc.c ****   /* Set LTDC parameters */
1294:Drivers/STM32F4xx_HAL_Driver/Src/stm32f4xx_hal_ltdc.c ****   LTDC_SetConfig(hltdc, pLayerCfg, LayerIdx);
 2131              		.loc 1 1294 3
 2132 0040 7A68     		ldr	r2, [r7, #4]
 2133 0042 7969     		ldr	r1, [r7, #20]
 2134 0044 F868     		ldr	r0, [r7, #12]
 2135 0046 FFF7FEFF 		bl	LTDC_SetConfig
1295:Drivers/STM32F4xx_HAL_Driver/Src/stm32f4xx_hal_ltdc.c **** 
1296:Drivers/STM32F4xx_HAL_Driver/Src/stm32f4xx_hal_ltdc.c ****   /* Set the Immediate Reload type */
1297:Drivers/STM32F4xx_HAL_Driver/Src/stm32f4xx_hal_ltdc.c ****   hltdc->Instance->SRCR = LTDC_SRCR_IMR;
 2136              		.loc 1 1297 8
 2137 004a FB68     		ldr	r3, [r7, #12]
 2138 004c 1B68     		ldr	r3, [r3]
 2139              		.loc 1 1297 25
 2140 004e 0122     		movs	r2, #1
 2141 0050 5A62     		str	r2, [r3, #36]
1298:Drivers/STM32F4xx_HAL_Driver/Src/stm32f4xx_hal_ltdc.c **** 
1299:Drivers/STM32F4xx_HAL_Driver/Src/stm32f4xx_hal_ltdc.c ****   /* Change the LTDC state*/
1300:Drivers/STM32F4xx_HAL_Driver/Src/stm32f4xx_hal_ltdc.c ****   hltdc->State = HAL_LTDC_STATE_READY;
 2142              		.loc 1 1300 16
 2143 0052 FB68     		ldr	r3, [r7, #12]
 2144 0054 0122     		movs	r2, #1
 2145 0056 83F8A120 		strb	r2, [r3, #161]
1301:Drivers/STM32F4xx_HAL_Driver/Src/stm32f4xx_hal_ltdc.c **** 
1302:Drivers/STM32F4xx_HAL_Driver/Src/stm32f4xx_hal_ltdc.c ****   /* Process unlocked */
1303:Drivers/STM32F4xx_HAL_Driver/Src/stm32f4xx_hal_ltdc.c ****   __HAL_UNLOCK(hltdc);
ARM GAS  /var/folders/06/9k7gq4t13mj84z2yhw3grvhc0000gn/T//ccuiTnhW.s 			page 61


 2146              		.loc 1 1303 3
 2147 005a FB68     		ldr	r3, [r7, #12]
 2148 005c 0022     		movs	r2, #0
 2149 005e 83F8A020 		strb	r2, [r3, #160]
1304:Drivers/STM32F4xx_HAL_Driver/Src/stm32f4xx_hal_ltdc.c **** 
1305:Drivers/STM32F4xx_HAL_Driver/Src/stm32f4xx_hal_ltdc.c ****   return HAL_OK;
 2150              		.loc 1 1305 10
 2151 0062 0023     		movs	r3, #0
 2152              	.L68:
1306:Drivers/STM32F4xx_HAL_Driver/Src/stm32f4xx_hal_ltdc.c **** }
 2153              		.loc 1 1306 1
 2154 0064 1846     		mov	r0, r3
 2155 0066 1837     		adds	r7, r7, #24
 2156              	.LCFI111:
 2157              		.cfi_def_cfa_offset 8
 2158 0068 BD46     		mov	sp, r7
 2159              	.LCFI112:
 2160              		.cfi_def_cfa_register 13
 2161              		@ sp needed
 2162 006a 80BD     		pop	{r7, pc}
 2163              		.cfi_endproc
 2164              	.LFE153:
 2166              		.section	.text.HAL_LTDC_SetAlpha,"ax",%progbits
 2167              		.align	1
 2168              		.global	HAL_LTDC_SetAlpha
 2169              		.syntax unified
 2170              		.thumb
 2171              		.thumb_func
 2173              	HAL_LTDC_SetAlpha:
 2174              	.LFB154:
1307:Drivers/STM32F4xx_HAL_Driver/Src/stm32f4xx_hal_ltdc.c **** 
1308:Drivers/STM32F4xx_HAL_Driver/Src/stm32f4xx_hal_ltdc.c **** /**
1309:Drivers/STM32F4xx_HAL_Driver/Src/stm32f4xx_hal_ltdc.c ****   * @brief  Reconfigure the layer alpha value.
1310:Drivers/STM32F4xx_HAL_Driver/Src/stm32f4xx_hal_ltdc.c ****   * @param  hltdc     pointer to a LTDC_HandleTypeDef structure that contains
1311:Drivers/STM32F4xx_HAL_Driver/Src/stm32f4xx_hal_ltdc.c ****   *                   the configuration information for the LTDC.
1312:Drivers/STM32F4xx_HAL_Driver/Src/stm32f4xx_hal_ltdc.c ****   * @param  Alpha     new alpha value.
1313:Drivers/STM32F4xx_HAL_Driver/Src/stm32f4xx_hal_ltdc.c ****   * @param  LayerIdx  LTDC Layer index.
1314:Drivers/STM32F4xx_HAL_Driver/Src/stm32f4xx_hal_ltdc.c ****   *                   This parameter can be one of the following values:
1315:Drivers/STM32F4xx_HAL_Driver/Src/stm32f4xx_hal_ltdc.c ****   *                   LTDC_LAYER_1 (0) or LTDC_LAYER_2 (1)
1316:Drivers/STM32F4xx_HAL_Driver/Src/stm32f4xx_hal_ltdc.c ****   * @retval  HAL status
1317:Drivers/STM32F4xx_HAL_Driver/Src/stm32f4xx_hal_ltdc.c ****   */
1318:Drivers/STM32F4xx_HAL_Driver/Src/stm32f4xx_hal_ltdc.c **** HAL_StatusTypeDef HAL_LTDC_SetAlpha(LTDC_HandleTypeDef *hltdc, uint32_t Alpha, uint32_t LayerIdx)
1319:Drivers/STM32F4xx_HAL_Driver/Src/stm32f4xx_hal_ltdc.c **** {
 2175              		.loc 1 1319 1
 2176              		.cfi_startproc
 2177              		@ args = 0, pretend = 0, frame = 24
 2178              		@ frame_needed = 1, uses_anonymous_args = 0
 2179 0000 80B5     		push	{r7, lr}
 2180              	.LCFI113:
 2181              		.cfi_def_cfa_offset 8
 2182              		.cfi_offset 7, -8
 2183              		.cfi_offset 14, -4
 2184 0002 86B0     		sub	sp, sp, #24
 2185              	.LCFI114:
 2186              		.cfi_def_cfa_offset 32
 2187 0004 00AF     		add	r7, sp, #0
 2188              	.LCFI115:
ARM GAS  /var/folders/06/9k7gq4t13mj84z2yhw3grvhc0000gn/T//ccuiTnhW.s 			page 62


 2189              		.cfi_def_cfa_register 7
 2190 0006 F860     		str	r0, [r7, #12]
 2191 0008 B960     		str	r1, [r7, #8]
 2192 000a 7A60     		str	r2, [r7, #4]
1320:Drivers/STM32F4xx_HAL_Driver/Src/stm32f4xx_hal_ltdc.c ****   LTDC_LayerCfgTypeDef *pLayerCfg;
1321:Drivers/STM32F4xx_HAL_Driver/Src/stm32f4xx_hal_ltdc.c **** 
1322:Drivers/STM32F4xx_HAL_Driver/Src/stm32f4xx_hal_ltdc.c ****   /* Check the parameters */
1323:Drivers/STM32F4xx_HAL_Driver/Src/stm32f4xx_hal_ltdc.c ****   assert_param(IS_LTDC_ALPHA(Alpha));
1324:Drivers/STM32F4xx_HAL_Driver/Src/stm32f4xx_hal_ltdc.c ****   assert_param(IS_LTDC_LAYER(LayerIdx));
1325:Drivers/STM32F4xx_HAL_Driver/Src/stm32f4xx_hal_ltdc.c **** 
1326:Drivers/STM32F4xx_HAL_Driver/Src/stm32f4xx_hal_ltdc.c ****   /* Process locked */
1327:Drivers/STM32F4xx_HAL_Driver/Src/stm32f4xx_hal_ltdc.c ****   __HAL_LOCK(hltdc);
 2193              		.loc 1 1327 3
 2194 000c FB68     		ldr	r3, [r7, #12]
 2195 000e 93F8A030 		ldrb	r3, [r3, #160]	@ zero_extendqisi2
 2196 0012 012B     		cmp	r3, #1
 2197 0014 01D1     		bne	.L70
 2198              		.loc 1 1327 3 is_stmt 0 discriminator 1
 2199 0016 0223     		movs	r3, #2
 2200              		.loc 1 1327 3
 2201 0018 24E0     		b	.L71
 2202              	.L70:
 2203              		.loc 1 1327 3 discriminator 2
 2204 001a FB68     		ldr	r3, [r7, #12]
 2205 001c 0122     		movs	r2, #1
 2206 001e 83F8A020 		strb	r2, [r3, #160]
1328:Drivers/STM32F4xx_HAL_Driver/Src/stm32f4xx_hal_ltdc.c **** 
1329:Drivers/STM32F4xx_HAL_Driver/Src/stm32f4xx_hal_ltdc.c ****   /* Change LTDC peripheral state */
1330:Drivers/STM32F4xx_HAL_Driver/Src/stm32f4xx_hal_ltdc.c ****   hltdc->State = HAL_LTDC_STATE_BUSY;
 2207              		.loc 1 1330 16 is_stmt 1
 2208 0022 FB68     		ldr	r3, [r7, #12]
 2209 0024 0222     		movs	r2, #2
 2210 0026 83F8A120 		strb	r2, [r3, #161]
1331:Drivers/STM32F4xx_HAL_Driver/Src/stm32f4xx_hal_ltdc.c **** 
1332:Drivers/STM32F4xx_HAL_Driver/Src/stm32f4xx_hal_ltdc.c ****   /* Get layer configuration from handle structure */
1333:Drivers/STM32F4xx_HAL_Driver/Src/stm32f4xx_hal_ltdc.c ****   pLayerCfg = &hltdc->LayerCfg[LayerIdx];
 2211              		.loc 1 1333 13
 2212 002a 7B68     		ldr	r3, [r7, #4]
 2213 002c 3422     		movs	r2, #52
 2214 002e 02FB03F3 		mul	r3, r2, r3
 2215 0032 3833     		adds	r3, r3, #56
 2216 0034 FA68     		ldr	r2, [r7, #12]
 2217 0036 1344     		add	r3, r3, r2
 2218 0038 7B61     		str	r3, [r7, #20]
1334:Drivers/STM32F4xx_HAL_Driver/Src/stm32f4xx_hal_ltdc.c **** 
1335:Drivers/STM32F4xx_HAL_Driver/Src/stm32f4xx_hal_ltdc.c ****   /* Reconfigure the Alpha value */
1336:Drivers/STM32F4xx_HAL_Driver/Src/stm32f4xx_hal_ltdc.c ****   pLayerCfg->Alpha = Alpha;
 2219              		.loc 1 1336 20
 2220 003a 7B69     		ldr	r3, [r7, #20]
 2221 003c BA68     		ldr	r2, [r7, #8]
 2222 003e 5A61     		str	r2, [r3, #20]
1337:Drivers/STM32F4xx_HAL_Driver/Src/stm32f4xx_hal_ltdc.c **** 
1338:Drivers/STM32F4xx_HAL_Driver/Src/stm32f4xx_hal_ltdc.c ****   /* Set LTDC parameters */
1339:Drivers/STM32F4xx_HAL_Driver/Src/stm32f4xx_hal_ltdc.c ****   LTDC_SetConfig(hltdc, pLayerCfg, LayerIdx);
 2223              		.loc 1 1339 3
 2224 0040 7A68     		ldr	r2, [r7, #4]
 2225 0042 7969     		ldr	r1, [r7, #20]
ARM GAS  /var/folders/06/9k7gq4t13mj84z2yhw3grvhc0000gn/T//ccuiTnhW.s 			page 63


 2226 0044 F868     		ldr	r0, [r7, #12]
 2227 0046 FFF7FEFF 		bl	LTDC_SetConfig
1340:Drivers/STM32F4xx_HAL_Driver/Src/stm32f4xx_hal_ltdc.c **** 
1341:Drivers/STM32F4xx_HAL_Driver/Src/stm32f4xx_hal_ltdc.c ****   /* Set the Immediate Reload type */
1342:Drivers/STM32F4xx_HAL_Driver/Src/stm32f4xx_hal_ltdc.c ****   hltdc->Instance->SRCR = LTDC_SRCR_IMR;
 2228              		.loc 1 1342 8
 2229 004a FB68     		ldr	r3, [r7, #12]
 2230 004c 1B68     		ldr	r3, [r3]
 2231              		.loc 1 1342 25
 2232 004e 0122     		movs	r2, #1
 2233 0050 5A62     		str	r2, [r3, #36]
1343:Drivers/STM32F4xx_HAL_Driver/Src/stm32f4xx_hal_ltdc.c **** 
1344:Drivers/STM32F4xx_HAL_Driver/Src/stm32f4xx_hal_ltdc.c ****   /* Change the LTDC state*/
1345:Drivers/STM32F4xx_HAL_Driver/Src/stm32f4xx_hal_ltdc.c ****   hltdc->State = HAL_LTDC_STATE_READY;
 2234              		.loc 1 1345 16
 2235 0052 FB68     		ldr	r3, [r7, #12]
 2236 0054 0122     		movs	r2, #1
 2237 0056 83F8A120 		strb	r2, [r3, #161]
1346:Drivers/STM32F4xx_HAL_Driver/Src/stm32f4xx_hal_ltdc.c **** 
1347:Drivers/STM32F4xx_HAL_Driver/Src/stm32f4xx_hal_ltdc.c ****   /* Process unlocked */
1348:Drivers/STM32F4xx_HAL_Driver/Src/stm32f4xx_hal_ltdc.c ****   __HAL_UNLOCK(hltdc);
 2238              		.loc 1 1348 3
 2239 005a FB68     		ldr	r3, [r7, #12]
 2240 005c 0022     		movs	r2, #0
 2241 005e 83F8A020 		strb	r2, [r3, #160]
1349:Drivers/STM32F4xx_HAL_Driver/Src/stm32f4xx_hal_ltdc.c **** 
1350:Drivers/STM32F4xx_HAL_Driver/Src/stm32f4xx_hal_ltdc.c ****   return HAL_OK;
 2242              		.loc 1 1350 10
 2243 0062 0023     		movs	r3, #0
 2244              	.L71:
1351:Drivers/STM32F4xx_HAL_Driver/Src/stm32f4xx_hal_ltdc.c **** }
 2245              		.loc 1 1351 1
 2246 0064 1846     		mov	r0, r3
 2247 0066 1837     		adds	r7, r7, #24
 2248              	.LCFI116:
 2249              		.cfi_def_cfa_offset 8
 2250 0068 BD46     		mov	sp, r7
 2251              	.LCFI117:
 2252              		.cfi_def_cfa_register 13
 2253              		@ sp needed
 2254 006a 80BD     		pop	{r7, pc}
 2255              		.cfi_endproc
 2256              	.LFE154:
 2258              		.section	.text.HAL_LTDC_SetAddress,"ax",%progbits
 2259              		.align	1
 2260              		.global	HAL_LTDC_SetAddress
 2261              		.syntax unified
 2262              		.thumb
 2263              		.thumb_func
 2265              	HAL_LTDC_SetAddress:
 2266              	.LFB155:
1352:Drivers/STM32F4xx_HAL_Driver/Src/stm32f4xx_hal_ltdc.c **** /**
1353:Drivers/STM32F4xx_HAL_Driver/Src/stm32f4xx_hal_ltdc.c ****   * @brief  Reconfigure the frame buffer Address.
1354:Drivers/STM32F4xx_HAL_Driver/Src/stm32f4xx_hal_ltdc.c ****   * @param  hltdc     pointer to a LTDC_HandleTypeDef structure that contains
1355:Drivers/STM32F4xx_HAL_Driver/Src/stm32f4xx_hal_ltdc.c ****   *                   the configuration information for the LTDC.
1356:Drivers/STM32F4xx_HAL_Driver/Src/stm32f4xx_hal_ltdc.c ****   * @param  Address   new address value.
1357:Drivers/STM32F4xx_HAL_Driver/Src/stm32f4xx_hal_ltdc.c ****   * @param  LayerIdx  LTDC Layer index.
ARM GAS  /var/folders/06/9k7gq4t13mj84z2yhw3grvhc0000gn/T//ccuiTnhW.s 			page 64


1358:Drivers/STM32F4xx_HAL_Driver/Src/stm32f4xx_hal_ltdc.c ****   *                   This parameter can be one of the following values:
1359:Drivers/STM32F4xx_HAL_Driver/Src/stm32f4xx_hal_ltdc.c ****   *                   LTDC_LAYER_1 (0) or LTDC_LAYER_2 (1).
1360:Drivers/STM32F4xx_HAL_Driver/Src/stm32f4xx_hal_ltdc.c ****   * @retval  HAL status
1361:Drivers/STM32F4xx_HAL_Driver/Src/stm32f4xx_hal_ltdc.c ****   */
1362:Drivers/STM32F4xx_HAL_Driver/Src/stm32f4xx_hal_ltdc.c **** HAL_StatusTypeDef HAL_LTDC_SetAddress(LTDC_HandleTypeDef *hltdc, uint32_t Address, uint32_t LayerId
1363:Drivers/STM32F4xx_HAL_Driver/Src/stm32f4xx_hal_ltdc.c **** {
 2267              		.loc 1 1363 1
 2268              		.cfi_startproc
 2269              		@ args = 0, pretend = 0, frame = 24
 2270              		@ frame_needed = 1, uses_anonymous_args = 0
 2271 0000 80B5     		push	{r7, lr}
 2272              	.LCFI118:
 2273              		.cfi_def_cfa_offset 8
 2274              		.cfi_offset 7, -8
 2275              		.cfi_offset 14, -4
 2276 0002 86B0     		sub	sp, sp, #24
 2277              	.LCFI119:
 2278              		.cfi_def_cfa_offset 32
 2279 0004 00AF     		add	r7, sp, #0
 2280              	.LCFI120:
 2281              		.cfi_def_cfa_register 7
 2282 0006 F860     		str	r0, [r7, #12]
 2283 0008 B960     		str	r1, [r7, #8]
 2284 000a 7A60     		str	r2, [r7, #4]
1364:Drivers/STM32F4xx_HAL_Driver/Src/stm32f4xx_hal_ltdc.c ****   LTDC_LayerCfgTypeDef *pLayerCfg;
1365:Drivers/STM32F4xx_HAL_Driver/Src/stm32f4xx_hal_ltdc.c **** 
1366:Drivers/STM32F4xx_HAL_Driver/Src/stm32f4xx_hal_ltdc.c ****   /* Check the parameters */
1367:Drivers/STM32F4xx_HAL_Driver/Src/stm32f4xx_hal_ltdc.c ****   assert_param(IS_LTDC_LAYER(LayerIdx));
1368:Drivers/STM32F4xx_HAL_Driver/Src/stm32f4xx_hal_ltdc.c **** 
1369:Drivers/STM32F4xx_HAL_Driver/Src/stm32f4xx_hal_ltdc.c ****   /* Process locked */
1370:Drivers/STM32F4xx_HAL_Driver/Src/stm32f4xx_hal_ltdc.c ****   __HAL_LOCK(hltdc);
 2285              		.loc 1 1370 3
 2286 000c FB68     		ldr	r3, [r7, #12]
 2287 000e 93F8A030 		ldrb	r3, [r3, #160]	@ zero_extendqisi2
 2288 0012 012B     		cmp	r3, #1
 2289 0014 01D1     		bne	.L73
 2290              		.loc 1 1370 3 is_stmt 0 discriminator 1
 2291 0016 0223     		movs	r3, #2
 2292              		.loc 1 1370 3
 2293 0018 24E0     		b	.L74
 2294              	.L73:
 2295              		.loc 1 1370 3 discriminator 2
 2296 001a FB68     		ldr	r3, [r7, #12]
 2297 001c 0122     		movs	r2, #1
 2298 001e 83F8A020 		strb	r2, [r3, #160]
1371:Drivers/STM32F4xx_HAL_Driver/Src/stm32f4xx_hal_ltdc.c **** 
1372:Drivers/STM32F4xx_HAL_Driver/Src/stm32f4xx_hal_ltdc.c ****   /* Change LTDC peripheral state */
1373:Drivers/STM32F4xx_HAL_Driver/Src/stm32f4xx_hal_ltdc.c ****   hltdc->State = HAL_LTDC_STATE_BUSY;
 2299              		.loc 1 1373 16 is_stmt 1
 2300 0022 FB68     		ldr	r3, [r7, #12]
 2301 0024 0222     		movs	r2, #2
 2302 0026 83F8A120 		strb	r2, [r3, #161]
1374:Drivers/STM32F4xx_HAL_Driver/Src/stm32f4xx_hal_ltdc.c **** 
1375:Drivers/STM32F4xx_HAL_Driver/Src/stm32f4xx_hal_ltdc.c ****   /* Get layer configuration from handle structure */
1376:Drivers/STM32F4xx_HAL_Driver/Src/stm32f4xx_hal_ltdc.c ****   pLayerCfg = &hltdc->LayerCfg[LayerIdx];
 2303              		.loc 1 1376 13
 2304 002a 7B68     		ldr	r3, [r7, #4]
ARM GAS  /var/folders/06/9k7gq4t13mj84z2yhw3grvhc0000gn/T//ccuiTnhW.s 			page 65


 2305 002c 3422     		movs	r2, #52
 2306 002e 02FB03F3 		mul	r3, r2, r3
 2307 0032 3833     		adds	r3, r3, #56
 2308 0034 FA68     		ldr	r2, [r7, #12]
 2309 0036 1344     		add	r3, r3, r2
 2310 0038 7B61     		str	r3, [r7, #20]
1377:Drivers/STM32F4xx_HAL_Driver/Src/stm32f4xx_hal_ltdc.c **** 
1378:Drivers/STM32F4xx_HAL_Driver/Src/stm32f4xx_hal_ltdc.c ****   /* Reconfigure the Address */
1379:Drivers/STM32F4xx_HAL_Driver/Src/stm32f4xx_hal_ltdc.c ****   pLayerCfg->FBStartAdress = Address;
 2311              		.loc 1 1379 28
 2312 003a 7B69     		ldr	r3, [r7, #20]
 2313 003c BA68     		ldr	r2, [r7, #8]
 2314 003e 5A62     		str	r2, [r3, #36]
1380:Drivers/STM32F4xx_HAL_Driver/Src/stm32f4xx_hal_ltdc.c **** 
1381:Drivers/STM32F4xx_HAL_Driver/Src/stm32f4xx_hal_ltdc.c ****   /* Set LTDC parameters */
1382:Drivers/STM32F4xx_HAL_Driver/Src/stm32f4xx_hal_ltdc.c ****   LTDC_SetConfig(hltdc, pLayerCfg, LayerIdx);
 2315              		.loc 1 1382 3
 2316 0040 7A68     		ldr	r2, [r7, #4]
 2317 0042 7969     		ldr	r1, [r7, #20]
 2318 0044 F868     		ldr	r0, [r7, #12]
 2319 0046 FFF7FEFF 		bl	LTDC_SetConfig
1383:Drivers/STM32F4xx_HAL_Driver/Src/stm32f4xx_hal_ltdc.c **** 
1384:Drivers/STM32F4xx_HAL_Driver/Src/stm32f4xx_hal_ltdc.c ****   /* Set the Immediate Reload type */
1385:Drivers/STM32F4xx_HAL_Driver/Src/stm32f4xx_hal_ltdc.c ****   hltdc->Instance->SRCR = LTDC_SRCR_IMR;
 2320              		.loc 1 1385 8
 2321 004a FB68     		ldr	r3, [r7, #12]
 2322 004c 1B68     		ldr	r3, [r3]
 2323              		.loc 1 1385 25
 2324 004e 0122     		movs	r2, #1
 2325 0050 5A62     		str	r2, [r3, #36]
1386:Drivers/STM32F4xx_HAL_Driver/Src/stm32f4xx_hal_ltdc.c **** 
1387:Drivers/STM32F4xx_HAL_Driver/Src/stm32f4xx_hal_ltdc.c ****   /* Change the LTDC state*/
1388:Drivers/STM32F4xx_HAL_Driver/Src/stm32f4xx_hal_ltdc.c ****   hltdc->State = HAL_LTDC_STATE_READY;
 2326              		.loc 1 1388 16
 2327 0052 FB68     		ldr	r3, [r7, #12]
 2328 0054 0122     		movs	r2, #1
 2329 0056 83F8A120 		strb	r2, [r3, #161]
1389:Drivers/STM32F4xx_HAL_Driver/Src/stm32f4xx_hal_ltdc.c **** 
1390:Drivers/STM32F4xx_HAL_Driver/Src/stm32f4xx_hal_ltdc.c ****   /* Process unlocked */
1391:Drivers/STM32F4xx_HAL_Driver/Src/stm32f4xx_hal_ltdc.c ****   __HAL_UNLOCK(hltdc);
 2330              		.loc 1 1391 3
 2331 005a FB68     		ldr	r3, [r7, #12]
 2332 005c 0022     		movs	r2, #0
 2333 005e 83F8A020 		strb	r2, [r3, #160]
1392:Drivers/STM32F4xx_HAL_Driver/Src/stm32f4xx_hal_ltdc.c **** 
1393:Drivers/STM32F4xx_HAL_Driver/Src/stm32f4xx_hal_ltdc.c ****   return HAL_OK;
 2334              		.loc 1 1393 10
 2335 0062 0023     		movs	r3, #0
 2336              	.L74:
1394:Drivers/STM32F4xx_HAL_Driver/Src/stm32f4xx_hal_ltdc.c **** }
 2337              		.loc 1 1394 1
 2338 0064 1846     		mov	r0, r3
 2339 0066 1837     		adds	r7, r7, #24
 2340              	.LCFI121:
 2341              		.cfi_def_cfa_offset 8
 2342 0068 BD46     		mov	sp, r7
 2343              	.LCFI122:
ARM GAS  /var/folders/06/9k7gq4t13mj84z2yhw3grvhc0000gn/T//ccuiTnhW.s 			page 66


 2344              		.cfi_def_cfa_register 13
 2345              		@ sp needed
 2346 006a 80BD     		pop	{r7, pc}
 2347              		.cfi_endproc
 2348              	.LFE155:
 2350              		.section	.text.HAL_LTDC_SetPitch,"ax",%progbits
 2351              		.align	1
 2352              		.global	HAL_LTDC_SetPitch
 2353              		.syntax unified
 2354              		.thumb
 2355              		.thumb_func
 2357              	HAL_LTDC_SetPitch:
 2358              	.LFB156:
1395:Drivers/STM32F4xx_HAL_Driver/Src/stm32f4xx_hal_ltdc.c **** 
1396:Drivers/STM32F4xx_HAL_Driver/Src/stm32f4xx_hal_ltdc.c **** /**
1397:Drivers/STM32F4xx_HAL_Driver/Src/stm32f4xx_hal_ltdc.c ****   * @brief  Function used to reconfigure the pitch for specific cases where the attached LayerIdx b
1398:Drivers/STM32F4xx_HAL_Driver/Src/stm32f4xx_hal_ltdc.c ****   *         that is larger than the one intended to be displayed on screen. Example of a buffer 800
1399:Drivers/STM32F4xx_HAL_Driver/Src/stm32f4xx_hal_ltdc.c ****   *         layer for which we want to read and display on screen only a portion 320x240 taken in t
1400:Drivers/STM32F4xx_HAL_Driver/Src/stm32f4xx_hal_ltdc.c ****   *         of the buffer.
1401:Drivers/STM32F4xx_HAL_Driver/Src/stm32f4xx_hal_ltdc.c ****   *         The pitch in pixels will be in that case 800 pixels and not 320 pixels as initially con
1402:Drivers/STM32F4xx_HAL_Driver/Src/stm32f4xx_hal_ltdc.c ****   *         call to HAL_LTDC_ConfigLayer().
1403:Drivers/STM32F4xx_HAL_Driver/Src/stm32f4xx_hal_ltdc.c ****   * @note   This function should be called only after a previous call to HAL_LTDC_ConfigLayer() to 
1404:Drivers/STM32F4xx_HAL_Driver/Src/stm32f4xx_hal_ltdc.c ****   *         pitch configured by HAL_LTDC_ConfigLayer() when required (refer to example described ju
1405:Drivers/STM32F4xx_HAL_Driver/Src/stm32f4xx_hal_ltdc.c ****   * @param  hltdc              pointer to a LTDC_HandleTypeDef structure that contains
1406:Drivers/STM32F4xx_HAL_Driver/Src/stm32f4xx_hal_ltdc.c ****   *                            the configuration information for the LTDC.
1407:Drivers/STM32F4xx_HAL_Driver/Src/stm32f4xx_hal_ltdc.c ****   * @param  LinePitchInPixels  New line pitch in pixels to configure for LTDC layer 'LayerIdx'.
1408:Drivers/STM32F4xx_HAL_Driver/Src/stm32f4xx_hal_ltdc.c ****   * @param  LayerIdx           LTDC layer index concerned by the modification of line pitch.
1409:Drivers/STM32F4xx_HAL_Driver/Src/stm32f4xx_hal_ltdc.c ****   * @retval HAL status
1410:Drivers/STM32F4xx_HAL_Driver/Src/stm32f4xx_hal_ltdc.c ****   */
1411:Drivers/STM32F4xx_HAL_Driver/Src/stm32f4xx_hal_ltdc.c **** HAL_StatusTypeDef HAL_LTDC_SetPitch(LTDC_HandleTypeDef *hltdc, uint32_t LinePitchInPixels, uint32_t
1412:Drivers/STM32F4xx_HAL_Driver/Src/stm32f4xx_hal_ltdc.c **** {
 2359              		.loc 1 1412 1
 2360              		.cfi_startproc
 2361              		@ args = 0, pretend = 0, frame = 32
 2362              		@ frame_needed = 1, uses_anonymous_args = 0
 2363              		@ link register save eliminated.
 2364 0000 80B4     		push	{r7}
 2365              	.LCFI123:
 2366              		.cfi_def_cfa_offset 4
 2367              		.cfi_offset 7, -4
 2368 0002 89B0     		sub	sp, sp, #36
 2369              	.LCFI124:
 2370              		.cfi_def_cfa_offset 40
 2371 0004 00AF     		add	r7, sp, #0
 2372              	.LCFI125:
 2373              		.cfi_def_cfa_register 7
 2374 0006 F860     		str	r0, [r7, #12]
 2375 0008 B960     		str	r1, [r7, #8]
 2376 000a 7A60     		str	r2, [r7, #4]
1413:Drivers/STM32F4xx_HAL_Driver/Src/stm32f4xx_hal_ltdc.c ****   uint32_t tmp;
1414:Drivers/STM32F4xx_HAL_Driver/Src/stm32f4xx_hal_ltdc.c ****   uint32_t pitchUpdate;
1415:Drivers/STM32F4xx_HAL_Driver/Src/stm32f4xx_hal_ltdc.c ****   uint32_t pixelFormat;
1416:Drivers/STM32F4xx_HAL_Driver/Src/stm32f4xx_hal_ltdc.c **** 
1417:Drivers/STM32F4xx_HAL_Driver/Src/stm32f4xx_hal_ltdc.c ****   /* Check the parameters */
1418:Drivers/STM32F4xx_HAL_Driver/Src/stm32f4xx_hal_ltdc.c ****   assert_param(IS_LTDC_LAYER(LayerIdx));
1419:Drivers/STM32F4xx_HAL_Driver/Src/stm32f4xx_hal_ltdc.c **** 
1420:Drivers/STM32F4xx_HAL_Driver/Src/stm32f4xx_hal_ltdc.c ****   /* Process locked */
ARM GAS  /var/folders/06/9k7gq4t13mj84z2yhw3grvhc0000gn/T//ccuiTnhW.s 			page 67


1421:Drivers/STM32F4xx_HAL_Driver/Src/stm32f4xx_hal_ltdc.c ****   __HAL_LOCK(hltdc);
 2377              		.loc 1 1421 3
 2378 000c FB68     		ldr	r3, [r7, #12]
 2379 000e 93F8A030 		ldrb	r3, [r3, #160]	@ zero_extendqisi2
 2380 0012 012B     		cmp	r3, #1
 2381 0014 01D1     		bne	.L76
 2382              		.loc 1 1421 3 is_stmt 0 discriminator 1
 2383 0016 0223     		movs	r3, #2
 2384              		.loc 1 1421 3
 2385 0018 6FE0     		b	.L77
 2386              	.L76:
 2387              		.loc 1 1421 3 discriminator 2
 2388 001a FB68     		ldr	r3, [r7, #12]
 2389 001c 0122     		movs	r2, #1
 2390 001e 83F8A020 		strb	r2, [r3, #160]
1422:Drivers/STM32F4xx_HAL_Driver/Src/stm32f4xx_hal_ltdc.c **** 
1423:Drivers/STM32F4xx_HAL_Driver/Src/stm32f4xx_hal_ltdc.c ****   /* Change LTDC peripheral state */
1424:Drivers/STM32F4xx_HAL_Driver/Src/stm32f4xx_hal_ltdc.c ****   hltdc->State = HAL_LTDC_STATE_BUSY;
 2391              		.loc 1 1424 16 is_stmt 1
 2392 0022 FB68     		ldr	r3, [r7, #12]
 2393 0024 0222     		movs	r2, #2
 2394 0026 83F8A120 		strb	r2, [r3, #161]
1425:Drivers/STM32F4xx_HAL_Driver/Src/stm32f4xx_hal_ltdc.c **** 
1426:Drivers/STM32F4xx_HAL_Driver/Src/stm32f4xx_hal_ltdc.c ****   /* get LayerIdx used pixel format */
1427:Drivers/STM32F4xx_HAL_Driver/Src/stm32f4xx_hal_ltdc.c ****   pixelFormat = hltdc->LayerCfg[LayerIdx].PixelFormat;
 2395              		.loc 1 1427 15
 2396 002a FA68     		ldr	r2, [r7, #12]
 2397 002c 7B68     		ldr	r3, [r7, #4]
 2398 002e 3421     		movs	r1, #52
 2399 0030 01FB03F3 		mul	r3, r1, r3
 2400 0034 1344     		add	r3, r3, r2
 2401 0036 4833     		adds	r3, r3, #72
 2402 0038 1B68     		ldr	r3, [r3]
 2403 003a BB61     		str	r3, [r7, #24]
1428:Drivers/STM32F4xx_HAL_Driver/Src/stm32f4xx_hal_ltdc.c **** 
1429:Drivers/STM32F4xx_HAL_Driver/Src/stm32f4xx_hal_ltdc.c ****   if (pixelFormat == LTDC_PIXEL_FORMAT_ARGB8888)
 2404              		.loc 1 1429 6
 2405 003c BB69     		ldr	r3, [r7, #24]
 2406 003e 002B     		cmp	r3, #0
 2407 0040 02D1     		bne	.L78
1430:Drivers/STM32F4xx_HAL_Driver/Src/stm32f4xx_hal_ltdc.c ****   {
1431:Drivers/STM32F4xx_HAL_Driver/Src/stm32f4xx_hal_ltdc.c ****     tmp = 4U;
 2408              		.loc 1 1431 9
 2409 0042 0423     		movs	r3, #4
 2410 0044 FB61     		str	r3, [r7, #28]
 2411 0046 16E0     		b	.L79
 2412              	.L78:
1432:Drivers/STM32F4xx_HAL_Driver/Src/stm32f4xx_hal_ltdc.c ****   }
1433:Drivers/STM32F4xx_HAL_Driver/Src/stm32f4xx_hal_ltdc.c ****   else if (pixelFormat == LTDC_PIXEL_FORMAT_RGB888)
 2413              		.loc 1 1433 11
 2414 0048 BB69     		ldr	r3, [r7, #24]
 2415 004a 012B     		cmp	r3, #1
 2416 004c 02D1     		bne	.L80
1434:Drivers/STM32F4xx_HAL_Driver/Src/stm32f4xx_hal_ltdc.c ****   {
1435:Drivers/STM32F4xx_HAL_Driver/Src/stm32f4xx_hal_ltdc.c ****     tmp = 3U;
 2417              		.loc 1 1435 9
 2418 004e 0323     		movs	r3, #3
ARM GAS  /var/folders/06/9k7gq4t13mj84z2yhw3grvhc0000gn/T//ccuiTnhW.s 			page 68


 2419 0050 FB61     		str	r3, [r7, #28]
 2420 0052 10E0     		b	.L79
 2421              	.L80:
1436:Drivers/STM32F4xx_HAL_Driver/Src/stm32f4xx_hal_ltdc.c ****   }
1437:Drivers/STM32F4xx_HAL_Driver/Src/stm32f4xx_hal_ltdc.c ****   else if ((pixelFormat == LTDC_PIXEL_FORMAT_ARGB4444) || \
 2422              		.loc 1 1437 11
 2423 0054 BB69     		ldr	r3, [r7, #24]
 2424 0056 042B     		cmp	r3, #4
 2425 0058 08D0     		beq	.L81
 2426              		.loc 1 1437 56 discriminator 1
 2427 005a BB69     		ldr	r3, [r7, #24]
 2428 005c 022B     		cmp	r3, #2
 2429 005e 05D0     		beq	.L81
1438:Drivers/STM32F4xx_HAL_Driver/Src/stm32f4xx_hal_ltdc.c ****            (pixelFormat == LTDC_PIXEL_FORMAT_RGB565)   || \
 2430              		.loc 1 1438 56
 2431 0060 BB69     		ldr	r3, [r7, #24]
 2432 0062 032B     		cmp	r3, #3
 2433 0064 02D0     		beq	.L81
1439:Drivers/STM32F4xx_HAL_Driver/Src/stm32f4xx_hal_ltdc.c ****            (pixelFormat == LTDC_PIXEL_FORMAT_ARGB1555) || \
 2434              		.loc 1 1439 56
 2435 0066 BB69     		ldr	r3, [r7, #24]
 2436 0068 072B     		cmp	r3, #7
 2437 006a 02D1     		bne	.L82
 2438              	.L81:
1440:Drivers/STM32F4xx_HAL_Driver/Src/stm32f4xx_hal_ltdc.c ****            (pixelFormat == LTDC_PIXEL_FORMAT_AL88))
1441:Drivers/STM32F4xx_HAL_Driver/Src/stm32f4xx_hal_ltdc.c ****   {
1442:Drivers/STM32F4xx_HAL_Driver/Src/stm32f4xx_hal_ltdc.c ****     tmp = 2U;
 2439              		.loc 1 1442 9
 2440 006c 0223     		movs	r3, #2
 2441 006e FB61     		str	r3, [r7, #28]
 2442 0070 01E0     		b	.L79
 2443              	.L82:
1443:Drivers/STM32F4xx_HAL_Driver/Src/stm32f4xx_hal_ltdc.c ****   }
1444:Drivers/STM32F4xx_HAL_Driver/Src/stm32f4xx_hal_ltdc.c ****   else
1445:Drivers/STM32F4xx_HAL_Driver/Src/stm32f4xx_hal_ltdc.c ****   {
1446:Drivers/STM32F4xx_HAL_Driver/Src/stm32f4xx_hal_ltdc.c ****     tmp = 1U;
 2444              		.loc 1 1446 9
 2445 0072 0123     		movs	r3, #1
 2446 0074 FB61     		str	r3, [r7, #28]
 2447              	.L79:
1447:Drivers/STM32F4xx_HAL_Driver/Src/stm32f4xx_hal_ltdc.c ****   }
1448:Drivers/STM32F4xx_HAL_Driver/Src/stm32f4xx_hal_ltdc.c **** 
1449:Drivers/STM32F4xx_HAL_Driver/Src/stm32f4xx_hal_ltdc.c ****   pitchUpdate = ((LinePitchInPixels * tmp) << 16U);
 2448              		.loc 1 1449 37
 2449 0076 BB68     		ldr	r3, [r7, #8]
 2450 0078 FA69     		ldr	r2, [r7, #28]
 2451 007a 02FB03F3 		mul	r3, r2, r3
 2452              		.loc 1 1449 15
 2453 007e 1B04     		lsls	r3, r3, #16
 2454 0080 7B61     		str	r3, [r7, #20]
1450:Drivers/STM32F4xx_HAL_Driver/Src/stm32f4xx_hal_ltdc.c **** 
1451:Drivers/STM32F4xx_HAL_Driver/Src/stm32f4xx_hal_ltdc.c ****   /* Clear previously set standard pitch */
1452:Drivers/STM32F4xx_HAL_Driver/Src/stm32f4xx_hal_ltdc.c ****   LTDC_LAYER(hltdc, LayerIdx)->CFBLR &= ~LTDC_LxCFBLR_CFBP;
 2455              		.loc 1 1452 3
 2456 0082 FB68     		ldr	r3, [r7, #12]
 2457 0084 1B68     		ldr	r3, [r3]
 2458              		.loc 1 1452 30
ARM GAS  /var/folders/06/9k7gq4t13mj84z2yhw3grvhc0000gn/T//ccuiTnhW.s 			page 69


 2459 0086 1A46     		mov	r2, r3
 2460 0088 7B68     		ldr	r3, [r7, #4]
 2461 008a DB01     		lsls	r3, r3, #7
 2462 008c 1344     		add	r3, r3, r2
 2463 008e 8433     		adds	r3, r3, #132
 2464 0090 DB6A     		ldr	r3, [r3, #44]
 2465              		.loc 1 1452 3
 2466 0092 FA68     		ldr	r2, [r7, #12]
 2467 0094 1268     		ldr	r2, [r2]
 2468              		.loc 1 1452 30
 2469 0096 1146     		mov	r1, r2
 2470 0098 7A68     		ldr	r2, [r7, #4]
 2471 009a D201     		lsls	r2, r2, #7
 2472 009c 0A44     		add	r2, r2, r1
 2473 009e 8432     		adds	r2, r2, #132
 2474              		.loc 1 1452 38
 2475 00a0 23F0FF53 		bic	r3, r3, #534773760
 2476 00a4 23F4F813 		bic	r3, r3, #2031616
 2477 00a8 D362     		str	r3, [r2, #44]
1453:Drivers/STM32F4xx_HAL_Driver/Src/stm32f4xx_hal_ltdc.c **** 
1454:Drivers/STM32F4xx_HAL_Driver/Src/stm32f4xx_hal_ltdc.c ****   /* Set the Reload type as immediate update of LTDC pitch configured above */
1455:Drivers/STM32F4xx_HAL_Driver/Src/stm32f4xx_hal_ltdc.c ****   LTDC->SRCR |= LTDC_SRCR_IMR;
 2478              		.loc 1 1455 7
 2479 00aa 174B     		ldr	r3, .L83
 2480 00ac 5B6A     		ldr	r3, [r3, #36]
 2481 00ae 164A     		ldr	r2, .L83
 2482              		.loc 1 1455 14
 2483 00b0 43F00103 		orr	r3, r3, #1
 2484 00b4 5362     		str	r3, [r2, #36]
1456:Drivers/STM32F4xx_HAL_Driver/Src/stm32f4xx_hal_ltdc.c **** 
1457:Drivers/STM32F4xx_HAL_Driver/Src/stm32f4xx_hal_ltdc.c ****   /* Set new line pitch value */
1458:Drivers/STM32F4xx_HAL_Driver/Src/stm32f4xx_hal_ltdc.c ****   LTDC_LAYER(hltdc, LayerIdx)->CFBLR |= pitchUpdate;
 2485              		.loc 1 1458 3
 2486 00b6 FB68     		ldr	r3, [r7, #12]
 2487 00b8 1B68     		ldr	r3, [r3]
 2488              		.loc 1 1458 30
 2489 00ba 1A46     		mov	r2, r3
 2490 00bc 7B68     		ldr	r3, [r7, #4]
 2491 00be DB01     		lsls	r3, r3, #7
 2492 00c0 1344     		add	r3, r3, r2
 2493 00c2 8433     		adds	r3, r3, #132
 2494 00c4 DA6A     		ldr	r2, [r3, #44]
 2495              		.loc 1 1458 3
 2496 00c6 FB68     		ldr	r3, [r7, #12]
 2497 00c8 1B68     		ldr	r3, [r3]
 2498              		.loc 1 1458 30
 2499 00ca 1946     		mov	r1, r3
 2500 00cc 7B68     		ldr	r3, [r7, #4]
 2501 00ce DB01     		lsls	r3, r3, #7
 2502 00d0 0B44     		add	r3, r3, r1
 2503 00d2 8433     		adds	r3, r3, #132
 2504 00d4 1946     		mov	r1, r3
 2505              		.loc 1 1458 38
 2506 00d6 7B69     		ldr	r3, [r7, #20]
 2507 00d8 1343     		orrs	r3, r3, r2
 2508 00da CB62     		str	r3, [r1, #44]
1459:Drivers/STM32F4xx_HAL_Driver/Src/stm32f4xx_hal_ltdc.c **** 
ARM GAS  /var/folders/06/9k7gq4t13mj84z2yhw3grvhc0000gn/T//ccuiTnhW.s 			page 70


1460:Drivers/STM32F4xx_HAL_Driver/Src/stm32f4xx_hal_ltdc.c ****   /* Set the Reload type as immediate update of LTDC pitch configured above */
1461:Drivers/STM32F4xx_HAL_Driver/Src/stm32f4xx_hal_ltdc.c ****   LTDC->SRCR |= LTDC_SRCR_IMR;
 2509              		.loc 1 1461 7
 2510 00dc 0A4B     		ldr	r3, .L83
 2511 00de 5B6A     		ldr	r3, [r3, #36]
 2512 00e0 094A     		ldr	r2, .L83
 2513              		.loc 1 1461 14
 2514 00e2 43F00103 		orr	r3, r3, #1
 2515 00e6 5362     		str	r3, [r2, #36]
1462:Drivers/STM32F4xx_HAL_Driver/Src/stm32f4xx_hal_ltdc.c **** 
1463:Drivers/STM32F4xx_HAL_Driver/Src/stm32f4xx_hal_ltdc.c ****   /* Change the LTDC state*/
1464:Drivers/STM32F4xx_HAL_Driver/Src/stm32f4xx_hal_ltdc.c ****   hltdc->State = HAL_LTDC_STATE_READY;
 2516              		.loc 1 1464 16
 2517 00e8 FB68     		ldr	r3, [r7, #12]
 2518 00ea 0122     		movs	r2, #1
 2519 00ec 83F8A120 		strb	r2, [r3, #161]
1465:Drivers/STM32F4xx_HAL_Driver/Src/stm32f4xx_hal_ltdc.c **** 
1466:Drivers/STM32F4xx_HAL_Driver/Src/stm32f4xx_hal_ltdc.c ****   /* Process unlocked */
1467:Drivers/STM32F4xx_HAL_Driver/Src/stm32f4xx_hal_ltdc.c ****   __HAL_UNLOCK(hltdc);
 2520              		.loc 1 1467 3
 2521 00f0 FB68     		ldr	r3, [r7, #12]
 2522 00f2 0022     		movs	r2, #0
 2523 00f4 83F8A020 		strb	r2, [r3, #160]
1468:Drivers/STM32F4xx_HAL_Driver/Src/stm32f4xx_hal_ltdc.c **** 
1469:Drivers/STM32F4xx_HAL_Driver/Src/stm32f4xx_hal_ltdc.c ****   return HAL_OK;
 2524              		.loc 1 1469 10
 2525 00f8 0023     		movs	r3, #0
 2526              	.L77:
1470:Drivers/STM32F4xx_HAL_Driver/Src/stm32f4xx_hal_ltdc.c **** }
 2527              		.loc 1 1470 1
 2528 00fa 1846     		mov	r0, r3
 2529 00fc 2437     		adds	r7, r7, #36
 2530              	.LCFI126:
 2531              		.cfi_def_cfa_offset 4
 2532 00fe BD46     		mov	sp, r7
 2533              	.LCFI127:
 2534              		.cfi_def_cfa_register 13
 2535              		@ sp needed
 2536 0100 5DF8047B 		ldr	r7, [sp], #4
 2537              	.LCFI128:
 2538              		.cfi_restore 7
 2539              		.cfi_def_cfa_offset 0
 2540 0104 7047     		bx	lr
 2541              	.L84:
 2542 0106 00BF     		.align	2
 2543              	.L83:
 2544 0108 00680140 		.word	1073833984
 2545              		.cfi_endproc
 2546              	.LFE156:
 2548              		.section	.text.HAL_LTDC_ProgramLineEvent,"ax",%progbits
 2549              		.align	1
 2550              		.global	HAL_LTDC_ProgramLineEvent
 2551              		.syntax unified
 2552              		.thumb
 2553              		.thumb_func
 2555              	HAL_LTDC_ProgramLineEvent:
 2556              	.LFB157:
ARM GAS  /var/folders/06/9k7gq4t13mj84z2yhw3grvhc0000gn/T//ccuiTnhW.s 			page 71


1471:Drivers/STM32F4xx_HAL_Driver/Src/stm32f4xx_hal_ltdc.c **** 
1472:Drivers/STM32F4xx_HAL_Driver/Src/stm32f4xx_hal_ltdc.c **** /**
1473:Drivers/STM32F4xx_HAL_Driver/Src/stm32f4xx_hal_ltdc.c ****   * @brief  Define the position of the line interrupt.
1474:Drivers/STM32F4xx_HAL_Driver/Src/stm32f4xx_hal_ltdc.c ****   * @param  hltdc   pointer to a LTDC_HandleTypeDef structure that contains
1475:Drivers/STM32F4xx_HAL_Driver/Src/stm32f4xx_hal_ltdc.c ****   *                 the configuration information for the LTDC.
1476:Drivers/STM32F4xx_HAL_Driver/Src/stm32f4xx_hal_ltdc.c ****   * @param  Line    Line Interrupt Position.
1477:Drivers/STM32F4xx_HAL_Driver/Src/stm32f4xx_hal_ltdc.c ****   * @note   User application may resort to HAL_LTDC_LineEventCallback() at line interrupt generatio
1478:Drivers/STM32F4xx_HAL_Driver/Src/stm32f4xx_hal_ltdc.c ****   * @retval  HAL status
1479:Drivers/STM32F4xx_HAL_Driver/Src/stm32f4xx_hal_ltdc.c ****   */
1480:Drivers/STM32F4xx_HAL_Driver/Src/stm32f4xx_hal_ltdc.c **** HAL_StatusTypeDef HAL_LTDC_ProgramLineEvent(LTDC_HandleTypeDef *hltdc, uint32_t Line)
1481:Drivers/STM32F4xx_HAL_Driver/Src/stm32f4xx_hal_ltdc.c **** {
 2557              		.loc 1 1481 1
 2558              		.cfi_startproc
 2559              		@ args = 0, pretend = 0, frame = 8
 2560              		@ frame_needed = 1, uses_anonymous_args = 0
 2561              		@ link register save eliminated.
 2562 0000 80B4     		push	{r7}
 2563              	.LCFI129:
 2564              		.cfi_def_cfa_offset 4
 2565              		.cfi_offset 7, -4
 2566 0002 83B0     		sub	sp, sp, #12
 2567              	.LCFI130:
 2568              		.cfi_def_cfa_offset 16
 2569 0004 00AF     		add	r7, sp, #0
 2570              	.LCFI131:
 2571              		.cfi_def_cfa_register 7
 2572 0006 7860     		str	r0, [r7, #4]
 2573 0008 3960     		str	r1, [r7]
1482:Drivers/STM32F4xx_HAL_Driver/Src/stm32f4xx_hal_ltdc.c ****   /* Check the parameters */
1483:Drivers/STM32F4xx_HAL_Driver/Src/stm32f4xx_hal_ltdc.c ****   assert_param(IS_LTDC_LIPOS(Line));
1484:Drivers/STM32F4xx_HAL_Driver/Src/stm32f4xx_hal_ltdc.c **** 
1485:Drivers/STM32F4xx_HAL_Driver/Src/stm32f4xx_hal_ltdc.c ****   /* Process locked */
1486:Drivers/STM32F4xx_HAL_Driver/Src/stm32f4xx_hal_ltdc.c ****   __HAL_LOCK(hltdc);
 2574              		.loc 1 1486 3
 2575 000a 7B68     		ldr	r3, [r7, #4]
 2576 000c 93F8A030 		ldrb	r3, [r3, #160]	@ zero_extendqisi2
 2577 0010 012B     		cmp	r3, #1
 2578 0012 01D1     		bne	.L86
 2579              		.loc 1 1486 3 is_stmt 0 discriminator 1
 2580 0014 0223     		movs	r3, #2
 2581              		.loc 1 1486 3
 2582 0016 23E0     		b	.L87
 2583              	.L86:
 2584              		.loc 1 1486 3 discriminator 2
 2585 0018 7B68     		ldr	r3, [r7, #4]
 2586 001a 0122     		movs	r2, #1
 2587 001c 83F8A020 		strb	r2, [r3, #160]
1487:Drivers/STM32F4xx_HAL_Driver/Src/stm32f4xx_hal_ltdc.c **** 
1488:Drivers/STM32F4xx_HAL_Driver/Src/stm32f4xx_hal_ltdc.c ****   /* Change LTDC peripheral state */
1489:Drivers/STM32F4xx_HAL_Driver/Src/stm32f4xx_hal_ltdc.c ****   hltdc->State = HAL_LTDC_STATE_BUSY;
 2588              		.loc 1 1489 16 is_stmt 1
 2589 0020 7B68     		ldr	r3, [r7, #4]
 2590 0022 0222     		movs	r2, #2
 2591 0024 83F8A120 		strb	r2, [r3, #161]
1490:Drivers/STM32F4xx_HAL_Driver/Src/stm32f4xx_hal_ltdc.c **** 
1491:Drivers/STM32F4xx_HAL_Driver/Src/stm32f4xx_hal_ltdc.c ****   /* Disable the Line interrupt */
1492:Drivers/STM32F4xx_HAL_Driver/Src/stm32f4xx_hal_ltdc.c ****   __HAL_LTDC_DISABLE_IT(hltdc, LTDC_IT_LI);
ARM GAS  /var/folders/06/9k7gq4t13mj84z2yhw3grvhc0000gn/T//ccuiTnhW.s 			page 72


 2592              		.loc 1 1492 3
 2593 0028 7B68     		ldr	r3, [r7, #4]
 2594 002a 1B68     		ldr	r3, [r3]
 2595 002c 5A6B     		ldr	r2, [r3, #52]
 2596 002e 7B68     		ldr	r3, [r7, #4]
 2597 0030 1B68     		ldr	r3, [r3]
 2598 0032 22F00102 		bic	r2, r2, #1
 2599 0036 5A63     		str	r2, [r3, #52]
1493:Drivers/STM32F4xx_HAL_Driver/Src/stm32f4xx_hal_ltdc.c **** 
1494:Drivers/STM32F4xx_HAL_Driver/Src/stm32f4xx_hal_ltdc.c ****   /* Set the Line Interrupt position */
1495:Drivers/STM32F4xx_HAL_Driver/Src/stm32f4xx_hal_ltdc.c ****   LTDC->LIPCR = (uint32_t)Line;
 2600              		.loc 1 1495 7
 2601 0038 0C4A     		ldr	r2, .L88
 2602              		.loc 1 1495 15
 2603 003a 3B68     		ldr	r3, [r7]
 2604 003c 1364     		str	r3, [r2, #64]
1496:Drivers/STM32F4xx_HAL_Driver/Src/stm32f4xx_hal_ltdc.c **** 
1497:Drivers/STM32F4xx_HAL_Driver/Src/stm32f4xx_hal_ltdc.c ****   /* Enable the Line interrupt */
1498:Drivers/STM32F4xx_HAL_Driver/Src/stm32f4xx_hal_ltdc.c ****   __HAL_LTDC_ENABLE_IT(hltdc, LTDC_IT_LI);
 2605              		.loc 1 1498 3
 2606 003e 7B68     		ldr	r3, [r7, #4]
 2607 0040 1B68     		ldr	r3, [r3]
 2608 0042 5A6B     		ldr	r2, [r3, #52]
 2609 0044 7B68     		ldr	r3, [r7, #4]
 2610 0046 1B68     		ldr	r3, [r3]
 2611 0048 42F00102 		orr	r2, r2, #1
 2612 004c 5A63     		str	r2, [r3, #52]
1499:Drivers/STM32F4xx_HAL_Driver/Src/stm32f4xx_hal_ltdc.c **** 
1500:Drivers/STM32F4xx_HAL_Driver/Src/stm32f4xx_hal_ltdc.c ****   /* Change the LTDC state*/
1501:Drivers/STM32F4xx_HAL_Driver/Src/stm32f4xx_hal_ltdc.c ****   hltdc->State = HAL_LTDC_STATE_READY;
 2613              		.loc 1 1501 16
 2614 004e 7B68     		ldr	r3, [r7, #4]
 2615 0050 0122     		movs	r2, #1
 2616 0052 83F8A120 		strb	r2, [r3, #161]
1502:Drivers/STM32F4xx_HAL_Driver/Src/stm32f4xx_hal_ltdc.c **** 
1503:Drivers/STM32F4xx_HAL_Driver/Src/stm32f4xx_hal_ltdc.c ****   /* Process unlocked */
1504:Drivers/STM32F4xx_HAL_Driver/Src/stm32f4xx_hal_ltdc.c ****   __HAL_UNLOCK(hltdc);
 2617              		.loc 1 1504 3
 2618 0056 7B68     		ldr	r3, [r7, #4]
 2619 0058 0022     		movs	r2, #0
 2620 005a 83F8A020 		strb	r2, [r3, #160]
1505:Drivers/STM32F4xx_HAL_Driver/Src/stm32f4xx_hal_ltdc.c **** 
1506:Drivers/STM32F4xx_HAL_Driver/Src/stm32f4xx_hal_ltdc.c ****   return HAL_OK;
 2621              		.loc 1 1506 10
 2622 005e 0023     		movs	r3, #0
 2623              	.L87:
1507:Drivers/STM32F4xx_HAL_Driver/Src/stm32f4xx_hal_ltdc.c **** }
 2624              		.loc 1 1507 1
 2625 0060 1846     		mov	r0, r3
 2626 0062 0C37     		adds	r7, r7, #12
 2627              	.LCFI132:
 2628              		.cfi_def_cfa_offset 4
 2629 0064 BD46     		mov	sp, r7
 2630              	.LCFI133:
 2631              		.cfi_def_cfa_register 13
 2632              		@ sp needed
 2633 0066 5DF8047B 		ldr	r7, [sp], #4
ARM GAS  /var/folders/06/9k7gq4t13mj84z2yhw3grvhc0000gn/T//ccuiTnhW.s 			page 73


 2634              	.LCFI134:
 2635              		.cfi_restore 7
 2636              		.cfi_def_cfa_offset 0
 2637 006a 7047     		bx	lr
 2638              	.L89:
 2639              		.align	2
 2640              	.L88:
 2641 006c 00680140 		.word	1073833984
 2642              		.cfi_endproc
 2643              	.LFE157:
 2645              		.section	.text.HAL_LTDC_Reload,"ax",%progbits
 2646              		.align	1
 2647              		.global	HAL_LTDC_Reload
 2648              		.syntax unified
 2649              		.thumb
 2650              		.thumb_func
 2652              	HAL_LTDC_Reload:
 2653              	.LFB158:
1508:Drivers/STM32F4xx_HAL_Driver/Src/stm32f4xx_hal_ltdc.c **** 
1509:Drivers/STM32F4xx_HAL_Driver/Src/stm32f4xx_hal_ltdc.c **** /**
1510:Drivers/STM32F4xx_HAL_Driver/Src/stm32f4xx_hal_ltdc.c ****   * @brief  Reload LTDC Layers configuration.
