ARM GAS  /var/folders/06/9k7gq4t13mj84z2yhw3grvhc0000gn/T//ccCNHW7p.s 			page 1


   1              		.cpu cortex-m4
   2              		.arch armv7e-m
   3              		.fpu fpv4-sp-d16
   4              		.eabi_attribute 27, 1
   5              		.eabi_attribute 28, 1
   6              		.eabi_attribute 20, 1
   7              		.eabi_attribute 21, 1
   8              		.eabi_attribute 23, 3
   9              		.eabi_attribute 24, 1
  10              		.eabi_attribute 25, 1
  11              		.eabi_attribute 26, 1
  12              		.eabi_attribute 30, 6
  13              		.eabi_attribute 34, 1
  14              		.eabi_attribute 18, 4
  15              		.file	"stm32f429i_discovery_sdram.c"
  16              		.text
  17              	.Ltext0:
  18              		.cfi_sections	.debug_frame
  19              		.file 1 "Drivers/BSP/STM32F429I-Discovery/stm32f429i_discovery_sdram.c"
  20              		.section	.bss.SdramHandle,"aw",%nobits
  21              		.align	2
  24              	SdramHandle:
  25 0000 00000000 		.space	52
  25      00000000 
  25      00000000 
  25      00000000 
  25      00000000 
  26              		.section	.bss.Timing,"aw",%nobits
  27              		.align	2
  30              	Timing:
  31 0000 00000000 		.space	28
  31      00000000 
  31      00000000 
  31      00000000 
  31      00000000 
  32              		.section	.bss.Command,"aw",%nobits
  33              		.align	2
  36              	Command:
  37 0000 00000000 		.space	16
  37      00000000 
  37      00000000 
  37      00000000 
  38              		.section	.text.BSP_SDRAM_Init,"ax",%progbits
  39              		.align	1
  40              		.global	BSP_SDRAM_Init
  41              		.syntax unified
  42              		.thumb
  43              		.thumb_func
  45              	BSP_SDRAM_Init:
  46              	.LFB134:
   1:Drivers/BSP/STM32F429I-Discovery/stm32f429i_discovery_sdram.c **** /**
   2:Drivers/BSP/STM32F429I-Discovery/stm32f429i_discovery_sdram.c ****   ******************************************************************************
   3:Drivers/BSP/STM32F429I-Discovery/stm32f429i_discovery_sdram.c ****   * @file    stm32f429i_discovery_sdram.c
   4:Drivers/BSP/STM32F429I-Discovery/stm32f429i_discovery_sdram.c ****   * @author  MCD Application Team
   5:Drivers/BSP/STM32F429I-Discovery/stm32f429i_discovery_sdram.c ****   * @brief   This file provides a set of functions needed to drive the
   6:Drivers/BSP/STM32F429I-Discovery/stm32f429i_discovery_sdram.c ****   *          IS42S16400J SDRAM memory mounted on STM32F429I-Discovery Kit.
   7:Drivers/BSP/STM32F429I-Discovery/stm32f429i_discovery_sdram.c ****   ******************************************************************************
ARM GAS  /var/folders/06/9k7gq4t13mj84z2yhw3grvhc0000gn/T//ccCNHW7p.s 			page 2


   8:Drivers/BSP/STM32F429I-Discovery/stm32f429i_discovery_sdram.c ****   * @attention
   9:Drivers/BSP/STM32F429I-Discovery/stm32f429i_discovery_sdram.c ****   *
  10:Drivers/BSP/STM32F429I-Discovery/stm32f429i_discovery_sdram.c ****   * Copyright (c) 2017 STMicroelectronics.
  11:Drivers/BSP/STM32F429I-Discovery/stm32f429i_discovery_sdram.c ****   * All rights reserved.
  12:Drivers/BSP/STM32F429I-Discovery/stm32f429i_discovery_sdram.c ****   *
  13:Drivers/BSP/STM32F429I-Discovery/stm32f429i_discovery_sdram.c ****   * This software is licensed under terms that can be found in the LICENSE file
  14:Drivers/BSP/STM32F429I-Discovery/stm32f429i_discovery_sdram.c ****   * in the root directory of this software component.
  15:Drivers/BSP/STM32F429I-Discovery/stm32f429i_discovery_sdram.c ****   * If no LICENSE file comes with this software, it is provided AS-IS.
  16:Drivers/BSP/STM32F429I-Discovery/stm32f429i_discovery_sdram.c ****   *
  17:Drivers/BSP/STM32F429I-Discovery/stm32f429i_discovery_sdram.c ****   ******************************************************************************
  18:Drivers/BSP/STM32F429I-Discovery/stm32f429i_discovery_sdram.c ****   */
  19:Drivers/BSP/STM32F429I-Discovery/stm32f429i_discovery_sdram.c **** 
  20:Drivers/BSP/STM32F429I-Discovery/stm32f429i_discovery_sdram.c **** #pragma GCC diagnostic ignored "-Wunused-parameter"
  21:Drivers/BSP/STM32F429I-Discovery/stm32f429i_discovery_sdram.c **** 
  22:Drivers/BSP/STM32F429I-Discovery/stm32f429i_discovery_sdram.c **** /* Includes ------------------------------------------------------------------*/
  23:Drivers/BSP/STM32F429I-Discovery/stm32f429i_discovery_sdram.c **** #include "stm32f429i_discovery_sdram.h"
  24:Drivers/BSP/STM32F429I-Discovery/stm32f429i_discovery_sdram.c **** 
  25:Drivers/BSP/STM32F429I-Discovery/stm32f429i_discovery_sdram.c **** /** @addtogroup BSP
  26:Drivers/BSP/STM32F429I-Discovery/stm32f429i_discovery_sdram.c ****   * @{
  27:Drivers/BSP/STM32F429I-Discovery/stm32f429i_discovery_sdram.c ****   */
  28:Drivers/BSP/STM32F429I-Discovery/stm32f429i_discovery_sdram.c **** 
  29:Drivers/BSP/STM32F429I-Discovery/stm32f429i_discovery_sdram.c **** /** @addtogroup STM32F429I_DISCOVERY
  30:Drivers/BSP/STM32F429I-Discovery/stm32f429i_discovery_sdram.c ****   * @{
  31:Drivers/BSP/STM32F429I-Discovery/stm32f429i_discovery_sdram.c ****   */
  32:Drivers/BSP/STM32F429I-Discovery/stm32f429i_discovery_sdram.c **** 
  33:Drivers/BSP/STM32F429I-Discovery/stm32f429i_discovery_sdram.c **** /** @defgroup STM32F429I_DISCOVERY_SDRAM STM32F429I DISCOVERY SDRAM
  34:Drivers/BSP/STM32F429I-Discovery/stm32f429i_discovery_sdram.c ****   * @{
  35:Drivers/BSP/STM32F429I-Discovery/stm32f429i_discovery_sdram.c ****   */
  36:Drivers/BSP/STM32F429I-Discovery/stm32f429i_discovery_sdram.c **** 
  37:Drivers/BSP/STM32F429I-Discovery/stm32f429i_discovery_sdram.c **** /** @defgroup STM32F429I_DISCOVERY_SDRAM_Private_Types_Definitions STM32F429I DISCOVERY SDRAM Priva
  38:Drivers/BSP/STM32F429I-Discovery/stm32f429i_discovery_sdram.c ****   * @{
  39:Drivers/BSP/STM32F429I-Discovery/stm32f429i_discovery_sdram.c ****   */
  40:Drivers/BSP/STM32F429I-Discovery/stm32f429i_discovery_sdram.c **** /**
  41:Drivers/BSP/STM32F429I-Discovery/stm32f429i_discovery_sdram.c ****   * @}
  42:Drivers/BSP/STM32F429I-Discovery/stm32f429i_discovery_sdram.c ****   */
  43:Drivers/BSP/STM32F429I-Discovery/stm32f429i_discovery_sdram.c **** 
  44:Drivers/BSP/STM32F429I-Discovery/stm32f429i_discovery_sdram.c **** /** @defgroup STM32F429I_DISCOVERY_SDRAM_Private_Defines STM32F429I DISCOVERY SDRAM Private Defines
  45:Drivers/BSP/STM32F429I-Discovery/stm32f429i_discovery_sdram.c ****   * @{
  46:Drivers/BSP/STM32F429I-Discovery/stm32f429i_discovery_sdram.c ****   */
  47:Drivers/BSP/STM32F429I-Discovery/stm32f429i_discovery_sdram.c **** /**
  48:Drivers/BSP/STM32F429I-Discovery/stm32f429i_discovery_sdram.c ****   * @}
  49:Drivers/BSP/STM32F429I-Discovery/stm32f429i_discovery_sdram.c ****   */
  50:Drivers/BSP/STM32F429I-Discovery/stm32f429i_discovery_sdram.c **** 
  51:Drivers/BSP/STM32F429I-Discovery/stm32f429i_discovery_sdram.c **** /** @defgroup STM32F429I_DISCOVERY_SDRAM_Private_Macros STM32F429I DISCOVERY SDRAM Private Macros
  52:Drivers/BSP/STM32F429I-Discovery/stm32f429i_discovery_sdram.c ****   * @{
  53:Drivers/BSP/STM32F429I-Discovery/stm32f429i_discovery_sdram.c ****   */
  54:Drivers/BSP/STM32F429I-Discovery/stm32f429i_discovery_sdram.c **** /**
  55:Drivers/BSP/STM32F429I-Discovery/stm32f429i_discovery_sdram.c ****   * @}
  56:Drivers/BSP/STM32F429I-Discovery/stm32f429i_discovery_sdram.c ****   */
  57:Drivers/BSP/STM32F429I-Discovery/stm32f429i_discovery_sdram.c **** 
  58:Drivers/BSP/STM32F429I-Discovery/stm32f429i_discovery_sdram.c **** /** @defgroup STM32F429I_DISCOVERY_SDRAM_Private_Variables STM32F429I DISCOVERY SDRAM Private Varia
  59:Drivers/BSP/STM32F429I-Discovery/stm32f429i_discovery_sdram.c ****   * @{
  60:Drivers/BSP/STM32F429I-Discovery/stm32f429i_discovery_sdram.c ****   */
  61:Drivers/BSP/STM32F429I-Discovery/stm32f429i_discovery_sdram.c **** static SDRAM_HandleTypeDef SdramHandle;
  62:Drivers/BSP/STM32F429I-Discovery/stm32f429i_discovery_sdram.c **** static FMC_SDRAM_TimingTypeDef Timing;
  63:Drivers/BSP/STM32F429I-Discovery/stm32f429i_discovery_sdram.c **** static FMC_SDRAM_CommandTypeDef Command;
  64:Drivers/BSP/STM32F429I-Discovery/stm32f429i_discovery_sdram.c **** /**
ARM GAS  /var/folders/06/9k7gq4t13mj84z2yhw3grvhc0000gn/T//ccCNHW7p.s 			page 3


  65:Drivers/BSP/STM32F429I-Discovery/stm32f429i_discovery_sdram.c ****   * @}
  66:Drivers/BSP/STM32F429I-Discovery/stm32f429i_discovery_sdram.c ****   */
  67:Drivers/BSP/STM32F429I-Discovery/stm32f429i_discovery_sdram.c **** 
  68:Drivers/BSP/STM32F429I-Discovery/stm32f429i_discovery_sdram.c **** /** @defgroup STM32F429I_DISCOVERY_SDRAM_Private_Function_Prototypes STM32F429I DISCOVERY SDRAM Pri
  69:Drivers/BSP/STM32F429I-Discovery/stm32f429i_discovery_sdram.c ****   * @{
  70:Drivers/BSP/STM32F429I-Discovery/stm32f429i_discovery_sdram.c ****   */
  71:Drivers/BSP/STM32F429I-Discovery/stm32f429i_discovery_sdram.c **** /**
  72:Drivers/BSP/STM32F429I-Discovery/stm32f429i_discovery_sdram.c ****   * @}
  73:Drivers/BSP/STM32F429I-Discovery/stm32f429i_discovery_sdram.c ****   */
  74:Drivers/BSP/STM32F429I-Discovery/stm32f429i_discovery_sdram.c **** 
  75:Drivers/BSP/STM32F429I-Discovery/stm32f429i_discovery_sdram.c **** /** @defgroup STM32F429I_DISCOVERY_SDRAM_Private_Functions STM32F429I DISCOVERY SDRAM Private Funct
  76:Drivers/BSP/STM32F429I-Discovery/stm32f429i_discovery_sdram.c ****   * @{
  77:Drivers/BSP/STM32F429I-Discovery/stm32f429i_discovery_sdram.c ****   */
  78:Drivers/BSP/STM32F429I-Discovery/stm32f429i_discovery_sdram.c **** 
  79:Drivers/BSP/STM32F429I-Discovery/stm32f429i_discovery_sdram.c **** /**
  80:Drivers/BSP/STM32F429I-Discovery/stm32f429i_discovery_sdram.c ****   * @brief  Initializes the SDRAM device.
  81:Drivers/BSP/STM32F429I-Discovery/stm32f429i_discovery_sdram.c ****   */
  82:Drivers/BSP/STM32F429I-Discovery/stm32f429i_discovery_sdram.c **** uint8_t BSP_SDRAM_Init(void)
  83:Drivers/BSP/STM32F429I-Discovery/stm32f429i_discovery_sdram.c **** {
  47              		.loc 1 83 1
  48              		.cfi_startproc
  49              		@ args = 0, pretend = 0, frame = 0
  50              		@ frame_needed = 1, uses_anonymous_args = 0
  51 0000 80B5     		push	{r7, lr}
  52              	.LCFI0:
  53              		.cfi_def_cfa_offset 8
  54              		.cfi_offset 7, -8
  55              		.cfi_offset 14, -4
  56 0002 00AF     		add	r7, sp, #0
  57              	.LCFI1:
  58              		.cfi_def_cfa_register 7
  84:Drivers/BSP/STM32F429I-Discovery/stm32f429i_discovery_sdram.c ****   static uint8_t sdramstatus = SDRAM_ERROR;
  85:Drivers/BSP/STM32F429I-Discovery/stm32f429i_discovery_sdram.c **** 
  86:Drivers/BSP/STM32F429I-Discovery/stm32f429i_discovery_sdram.c ****   /* SDRAM device configuration */
  87:Drivers/BSP/STM32F429I-Discovery/stm32f429i_discovery_sdram.c ****   SdramHandle.Instance = FMC_SDRAM_DEVICE;
  59              		.loc 1 87 24
  60 0004 294B     		ldr	r3, .L5
  61 0006 2A4A     		ldr	r2, .L5+4
  62 0008 1A60     		str	r2, [r3]
  88:Drivers/BSP/STM32F429I-Discovery/stm32f429i_discovery_sdram.c **** 
  89:Drivers/BSP/STM32F429I-Discovery/stm32f429i_discovery_sdram.c ****   /* FMC Configuration -------------------------------------------------------*/
  90:Drivers/BSP/STM32F429I-Discovery/stm32f429i_discovery_sdram.c ****   /* FMC SDRAM Bank configuration */
  91:Drivers/BSP/STM32F429I-Discovery/stm32f429i_discovery_sdram.c ****   /* Timing configuration for 90 Mhz of SD clock frequency (180Mhz/2) */
  92:Drivers/BSP/STM32F429I-Discovery/stm32f429i_discovery_sdram.c ****   /* TMRD: 2 Clock cycles */
  93:Drivers/BSP/STM32F429I-Discovery/stm32f429i_discovery_sdram.c ****   Timing.LoadToActiveDelay    = 2;
  63              		.loc 1 93 31
  64 000a 2A4B     		ldr	r3, .L5+8
  65 000c 0222     		movs	r2, #2
  66 000e 1A60     		str	r2, [r3]
  94:Drivers/BSP/STM32F429I-Discovery/stm32f429i_discovery_sdram.c ****   /* TXSR: min=70ns (7x11.11ns) */
  95:Drivers/BSP/STM32F429I-Discovery/stm32f429i_discovery_sdram.c ****   Timing.ExitSelfRefreshDelay = 7;
  67              		.loc 1 95 31
  68 0010 284B     		ldr	r3, .L5+8
  69 0012 0722     		movs	r2, #7
  70 0014 5A60     		str	r2, [r3, #4]
  96:Drivers/BSP/STM32F429I-Discovery/stm32f429i_discovery_sdram.c ****   /* TRAS: min=42ns (4x11.11ns) max=120k (ns) */
  97:Drivers/BSP/STM32F429I-Discovery/stm32f429i_discovery_sdram.c ****   Timing.SelfRefreshTime      = 4;
ARM GAS  /var/folders/06/9k7gq4t13mj84z2yhw3grvhc0000gn/T//ccCNHW7p.s 			page 4


  71              		.loc 1 97 31
  72 0016 274B     		ldr	r3, .L5+8
  73 0018 0422     		movs	r2, #4
  74 001a 9A60     		str	r2, [r3, #8]
  98:Drivers/BSP/STM32F429I-Discovery/stm32f429i_discovery_sdram.c ****   /* TRC:  min=70 (7x11.11ns) */
  99:Drivers/BSP/STM32F429I-Discovery/stm32f429i_discovery_sdram.c ****   Timing.RowCycleDelay        = 7;
  75              		.loc 1 99 31
  76 001c 254B     		ldr	r3, .L5+8
  77 001e 0722     		movs	r2, #7
  78 0020 DA60     		str	r2, [r3, #12]
 100:Drivers/BSP/STM32F429I-Discovery/stm32f429i_discovery_sdram.c ****   /* TWR:  min=1+ 7ns (1+1x11.11ns) */
 101:Drivers/BSP/STM32F429I-Discovery/stm32f429i_discovery_sdram.c ****   Timing.WriteRecoveryTime    = 2;
  79              		.loc 1 101 31
  80 0022 244B     		ldr	r3, .L5+8
  81 0024 0222     		movs	r2, #2
  82 0026 1A61     		str	r2, [r3, #16]
 102:Drivers/BSP/STM32F429I-Discovery/stm32f429i_discovery_sdram.c ****   /* TRP:  20ns => 2x11.11ns*/
 103:Drivers/BSP/STM32F429I-Discovery/stm32f429i_discovery_sdram.c ****   Timing.RPDelay              = 2;
  83              		.loc 1 103 31
  84 0028 224B     		ldr	r3, .L5+8
  85 002a 0222     		movs	r2, #2
  86 002c 5A61     		str	r2, [r3, #20]
 104:Drivers/BSP/STM32F429I-Discovery/stm32f429i_discovery_sdram.c ****   /* TRCD: 20ns => 2x11.11ns */
 105:Drivers/BSP/STM32F429I-Discovery/stm32f429i_discovery_sdram.c ****   Timing.RCDDelay             = 2;
  87              		.loc 1 105 31
  88 002e 214B     		ldr	r3, .L5+8
  89 0030 0222     		movs	r2, #2
  90 0032 9A61     		str	r2, [r3, #24]
 106:Drivers/BSP/STM32F429I-Discovery/stm32f429i_discovery_sdram.c **** 
 107:Drivers/BSP/STM32F429I-Discovery/stm32f429i_discovery_sdram.c ****   /* FMC SDRAM control configuration */
 108:Drivers/BSP/STM32F429I-Discovery/stm32f429i_discovery_sdram.c ****   SdramHandle.Init.SDBank             = FMC_SDRAM_BANK2;
  91              		.loc 1 108 39
  92 0034 1D4B     		ldr	r3, .L5
  93 0036 0122     		movs	r2, #1
  94 0038 5A60     		str	r2, [r3, #4]
 109:Drivers/BSP/STM32F429I-Discovery/stm32f429i_discovery_sdram.c ****   /* Row addressing: [7:0] */
 110:Drivers/BSP/STM32F429I-Discovery/stm32f429i_discovery_sdram.c ****   SdramHandle.Init.ColumnBitsNumber   = FMC_SDRAM_COLUMN_BITS_NUM_8;
  95              		.loc 1 110 39
  96 003a 1C4B     		ldr	r3, .L5
  97 003c 0022     		movs	r2, #0
  98 003e 9A60     		str	r2, [r3, #8]
 111:Drivers/BSP/STM32F429I-Discovery/stm32f429i_discovery_sdram.c ****   /* Column addressing: [11:0] */
 112:Drivers/BSP/STM32F429I-Discovery/stm32f429i_discovery_sdram.c ****   SdramHandle.Init.RowBitsNumber      = FMC_SDRAM_ROW_BITS_NUM_12;
  99              		.loc 1 112 39
 100 0040 1A4B     		ldr	r3, .L5
 101 0042 0422     		movs	r2, #4
 102 0044 DA60     		str	r2, [r3, #12]
 113:Drivers/BSP/STM32F429I-Discovery/stm32f429i_discovery_sdram.c ****   SdramHandle.Init.MemoryDataWidth    = SDRAM_MEMORY_WIDTH;
 103              		.loc 1 113 39
 104 0046 194B     		ldr	r3, .L5
 105 0048 1022     		movs	r2, #16
 106 004a 1A61     		str	r2, [r3, #16]
 114:Drivers/BSP/STM32F429I-Discovery/stm32f429i_discovery_sdram.c ****   SdramHandle.Init.InternalBankNumber = FMC_SDRAM_INTERN_BANKS_NUM_4;
 107              		.loc 1 114 39
 108 004c 174B     		ldr	r3, .L5
 109 004e 4022     		movs	r2, #64
 110 0050 5A61     		str	r2, [r3, #20]
ARM GAS  /var/folders/06/9k7gq4t13mj84z2yhw3grvhc0000gn/T//ccCNHW7p.s 			page 5


 115:Drivers/BSP/STM32F429I-Discovery/stm32f429i_discovery_sdram.c ****   SdramHandle.Init.CASLatency         = SDRAM_CAS_LATENCY;
 111              		.loc 1 115 39
 112 0052 164B     		ldr	r3, .L5
 113 0054 4FF4C072 		mov	r2, #384
 114 0058 9A61     		str	r2, [r3, #24]
 116:Drivers/BSP/STM32F429I-Discovery/stm32f429i_discovery_sdram.c ****   SdramHandle.Init.WriteProtection    = FMC_SDRAM_WRITE_PROTECTION_DISABLE;
 115              		.loc 1 116 39
 116 005a 144B     		ldr	r3, .L5
 117 005c 0022     		movs	r2, #0
 118 005e DA61     		str	r2, [r3, #28]
 117:Drivers/BSP/STM32F429I-Discovery/stm32f429i_discovery_sdram.c ****   SdramHandle.Init.SDClockPeriod      = SDCLOCK_PERIOD;
 119              		.loc 1 117 39
 120 0060 124B     		ldr	r3, .L5
 121 0062 4FF40062 		mov	r2, #2048
 122 0066 1A62     		str	r2, [r3, #32]
 118:Drivers/BSP/STM32F429I-Discovery/stm32f429i_discovery_sdram.c ****   SdramHandle.Init.ReadBurst          = SDRAM_READBURST;
 123              		.loc 1 118 39
 124 0068 104B     		ldr	r3, .L5
 125 006a 0022     		movs	r2, #0
 126 006c 5A62     		str	r2, [r3, #36]
 119:Drivers/BSP/STM32F429I-Discovery/stm32f429i_discovery_sdram.c ****   SdramHandle.Init.ReadPipeDelay      = FMC_SDRAM_RPIPE_DELAY_1;
 127              		.loc 1 119 39
 128 006e 0F4B     		ldr	r3, .L5
 129 0070 4FF40052 		mov	r2, #8192
 130 0074 9A62     		str	r2, [r3, #40]
 120:Drivers/BSP/STM32F429I-Discovery/stm32f429i_discovery_sdram.c **** 
 121:Drivers/BSP/STM32F429I-Discovery/stm32f429i_discovery_sdram.c ****   /* SDRAM controller initialization */
 122:Drivers/BSP/STM32F429I-Discovery/stm32f429i_discovery_sdram.c ****   /* __weak function can be surcharged by the application code */
 123:Drivers/BSP/STM32F429I-Discovery/stm32f429i_discovery_sdram.c ****   BSP_SDRAM_MspInit(&SdramHandle, (void *)NULL);
 131              		.loc 1 123 3
 132 0076 0021     		movs	r1, #0
 133 0078 0C48     		ldr	r0, .L5
 134 007a FFF7FEFF 		bl	BSP_SDRAM_MspInit
 124:Drivers/BSP/STM32F429I-Discovery/stm32f429i_discovery_sdram.c ****   if (HAL_SDRAM_Init(&SdramHandle, &Timing) != HAL_OK)
 135              		.loc 1 124 7
 136 007e 0D49     		ldr	r1, .L5+8
 137 0080 0A48     		ldr	r0, .L5
 138 0082 FFF7FEFF 		bl	HAL_SDRAM_Init
 139 0086 0346     		mov	r3, r0
 140              		.loc 1 124 6 discriminator 1
 141 0088 002B     		cmp	r3, #0
 142 008a 03D0     		beq	.L2
 125:Drivers/BSP/STM32F429I-Discovery/stm32f429i_discovery_sdram.c ****   {
 126:Drivers/BSP/STM32F429I-Discovery/stm32f429i_discovery_sdram.c ****     sdramstatus = SDRAM_ERROR;
 143              		.loc 1 126 17
 144 008c 0A4B     		ldr	r3, .L5+12
 145 008e 0122     		movs	r2, #1
 146 0090 1A70     		strb	r2, [r3]
 147 0092 02E0     		b	.L3
 148              	.L2:
 127:Drivers/BSP/STM32F429I-Discovery/stm32f429i_discovery_sdram.c ****   }
 128:Drivers/BSP/STM32F429I-Discovery/stm32f429i_discovery_sdram.c ****   else
 129:Drivers/BSP/STM32F429I-Discovery/stm32f429i_discovery_sdram.c ****   {
 130:Drivers/BSP/STM32F429I-Discovery/stm32f429i_discovery_sdram.c ****     sdramstatus = SDRAM_OK;
 149              		.loc 1 130 17
 150 0094 084B     		ldr	r3, .L5+12
 151 0096 0022     		movs	r2, #0
ARM GAS  /var/folders/06/9k7gq4t13mj84z2yhw3grvhc0000gn/T//ccCNHW7p.s 			page 6


 152 0098 1A70     		strb	r2, [r3]
 153              	.L3:
 131:Drivers/BSP/STM32F429I-Discovery/stm32f429i_discovery_sdram.c ****   }
 132:Drivers/BSP/STM32F429I-Discovery/stm32f429i_discovery_sdram.c **** 
 133:Drivers/BSP/STM32F429I-Discovery/stm32f429i_discovery_sdram.c ****   /* SDRAM initialization sequence */
 134:Drivers/BSP/STM32F429I-Discovery/stm32f429i_discovery_sdram.c ****   BSP_SDRAM_Initialization_sequence(REFRESH_COUNT);
 154              		.loc 1 134 3
 155 009a 40F26A50 		movw	r0, #1386
 156 009e FFF7FEFF 		bl	BSP_SDRAM_Initialization_sequence
 135:Drivers/BSP/STM32F429I-Discovery/stm32f429i_discovery_sdram.c **** 
 136:Drivers/BSP/STM32F429I-Discovery/stm32f429i_discovery_sdram.c ****   return sdramstatus;
 157              		.loc 1 136 10
 158 00a2 054B     		ldr	r3, .L5+12
 159 00a4 1B78     		ldrb	r3, [r3]	@ zero_extendqisi2
 137:Drivers/BSP/STM32F429I-Discovery/stm32f429i_discovery_sdram.c **** }
 160              		.loc 1 137 1
 161 00a6 1846     		mov	r0, r3
 162 00a8 80BD     		pop	{r7, pc}
 163              	.L6:
 164 00aa 00BF     		.align	2
 165              	.L5:
 166 00ac 00000000 		.word	SdramHandle
 167 00b0 400100A0 		.word	-1610612416
 168 00b4 00000000 		.word	Timing
 169 00b8 00000000 		.word	sdramstatus.2
 170              		.cfi_endproc
 171              	.LFE134:
 173              		.section	.text.BSP_SDRAM_Initialization_sequence,"ax",%progbits
 174              		.align	1
 175              		.global	BSP_SDRAM_Initialization_sequence
 176              		.syntax unified
 177              		.thumb
 178              		.thumb_func
 180              	BSP_SDRAM_Initialization_sequence:
 181              	.LFB135:
 138:Drivers/BSP/STM32F429I-Discovery/stm32f429i_discovery_sdram.c **** 
 139:Drivers/BSP/STM32F429I-Discovery/stm32f429i_discovery_sdram.c **** /**
 140:Drivers/BSP/STM32F429I-Discovery/stm32f429i_discovery_sdram.c ****   * @brief  Programs the SDRAM device.
 141:Drivers/BSP/STM32F429I-Discovery/stm32f429i_discovery_sdram.c ****   * @param  RefreshCount: SDRAM refresh counter value
 142:Drivers/BSP/STM32F429I-Discovery/stm32f429i_discovery_sdram.c ****   */
 143:Drivers/BSP/STM32F429I-Discovery/stm32f429i_discovery_sdram.c **** void BSP_SDRAM_Initialization_sequence(uint32_t RefreshCount)
 144:Drivers/BSP/STM32F429I-Discovery/stm32f429i_discovery_sdram.c **** {
 182              		.loc 1 144 1
 183              		.cfi_startproc
 184              		@ args = 0, pretend = 0, frame = 16
 185              		@ frame_needed = 1, uses_anonymous_args = 0
 186 0000 80B5     		push	{r7, lr}
 187              	.LCFI2:
 188              		.cfi_def_cfa_offset 8
 189              		.cfi_offset 7, -8
 190              		.cfi_offset 14, -4
 191 0002 84B0     		sub	sp, sp, #16
 192              	.LCFI3:
 193              		.cfi_def_cfa_offset 24
 194 0004 00AF     		add	r7, sp, #0
 195              	.LCFI4:
 196              		.cfi_def_cfa_register 7
ARM GAS  /var/folders/06/9k7gq4t13mj84z2yhw3grvhc0000gn/T//ccCNHW7p.s 			page 7


 197 0006 7860     		str	r0, [r7, #4]
 145:Drivers/BSP/STM32F429I-Discovery/stm32f429i_discovery_sdram.c ****   __IO uint32_t tmpmrd = 0;
 198              		.loc 1 145 17
 199 0008 0023     		movs	r3, #0
 200 000a FB60     		str	r3, [r7, #12]
 146:Drivers/BSP/STM32F429I-Discovery/stm32f429i_discovery_sdram.c **** 
 147:Drivers/BSP/STM32F429I-Discovery/stm32f429i_discovery_sdram.c ****   /* Step 1:  Configure a clock configuration enable command */
 148:Drivers/BSP/STM32F429I-Discovery/stm32f429i_discovery_sdram.c ****   Command.CommandMode             = FMC_SDRAM_CMD_CLK_ENABLE;
 201              		.loc 1 148 35
 202 000c 2A4B     		ldr	r3, .L8
 203 000e 0122     		movs	r2, #1
 204 0010 1A60     		str	r2, [r3]
 149:Drivers/BSP/STM32F429I-Discovery/stm32f429i_discovery_sdram.c ****   Command.CommandTarget           = FMC_SDRAM_CMD_TARGET_BANK2;
 205              		.loc 1 149 35
 206 0012 294B     		ldr	r3, .L8
 207 0014 0822     		movs	r2, #8
 208 0016 5A60     		str	r2, [r3, #4]
 150:Drivers/BSP/STM32F429I-Discovery/stm32f429i_discovery_sdram.c ****   Command.AutoRefreshNumber       = 1;
 209              		.loc 1 150 35
 210 0018 274B     		ldr	r3, .L8
 211 001a 0122     		movs	r2, #1
 212 001c 9A60     		str	r2, [r3, #8]
 151:Drivers/BSP/STM32F429I-Discovery/stm32f429i_discovery_sdram.c ****   Command.ModeRegisterDefinition  = 0;
 213              		.loc 1 151 35
 214 001e 264B     		ldr	r3, .L8
 215 0020 0022     		movs	r2, #0
 216 0022 DA60     		str	r2, [r3, #12]
 152:Drivers/BSP/STM32F429I-Discovery/stm32f429i_discovery_sdram.c **** 
 153:Drivers/BSP/STM32F429I-Discovery/stm32f429i_discovery_sdram.c ****   /* Send the command */
 154:Drivers/BSP/STM32F429I-Discovery/stm32f429i_discovery_sdram.c ****   HAL_SDRAM_SendCommand(&SdramHandle, &Command, SDRAM_TIMEOUT);
 217              		.loc 1 154 3
 218 0024 4FF6FF72 		movw	r2, #65535
 219 0028 2349     		ldr	r1, .L8
 220 002a 2448     		ldr	r0, .L8+4
 221 002c FFF7FEFF 		bl	HAL_SDRAM_SendCommand
 155:Drivers/BSP/STM32F429I-Discovery/stm32f429i_discovery_sdram.c **** 
 156:Drivers/BSP/STM32F429I-Discovery/stm32f429i_discovery_sdram.c ****   /* Step 2: Insert 100 us minimum delay */
 157:Drivers/BSP/STM32F429I-Discovery/stm32f429i_discovery_sdram.c ****   /* Inserted delay is equal to 1 ms due to systick time base unit (ms) */
 158:Drivers/BSP/STM32F429I-Discovery/stm32f429i_discovery_sdram.c ****   HAL_Delay(1);
 222              		.loc 1 158 3
 223 0030 0120     		movs	r0, #1
 224 0032 FFF7FEFF 		bl	HAL_Delay
 159:Drivers/BSP/STM32F429I-Discovery/stm32f429i_discovery_sdram.c **** 
 160:Drivers/BSP/STM32F429I-Discovery/stm32f429i_discovery_sdram.c ****   /* Step 3: Configure a PALL (precharge all) command */
 161:Drivers/BSP/STM32F429I-Discovery/stm32f429i_discovery_sdram.c ****   Command.CommandMode             = FMC_SDRAM_CMD_PALL;
 225              		.loc 1 161 35
 226 0036 204B     		ldr	r3, .L8
 227 0038 0222     		movs	r2, #2
 228 003a 1A60     		str	r2, [r3]
 162:Drivers/BSP/STM32F429I-Discovery/stm32f429i_discovery_sdram.c ****   Command.CommandTarget           = FMC_SDRAM_CMD_TARGET_BANK2;
 229              		.loc 1 162 35
 230 003c 1E4B     		ldr	r3, .L8
 231 003e 0822     		movs	r2, #8
 232 0040 5A60     		str	r2, [r3, #4]
 163:Drivers/BSP/STM32F429I-Discovery/stm32f429i_discovery_sdram.c ****   Command.AutoRefreshNumber       = 1;
 233              		.loc 1 163 35
 234 0042 1D4B     		ldr	r3, .L8
ARM GAS  /var/folders/06/9k7gq4t13mj84z2yhw3grvhc0000gn/T//ccCNHW7p.s 			page 8


 235 0044 0122     		movs	r2, #1
 236 0046 9A60     		str	r2, [r3, #8]
 164:Drivers/BSP/STM32F429I-Discovery/stm32f429i_discovery_sdram.c ****   Command.ModeRegisterDefinition  = 0;
 237              		.loc 1 164 35
 238 0048 1B4B     		ldr	r3, .L8
 239 004a 0022     		movs	r2, #0
 240 004c DA60     		str	r2, [r3, #12]
 165:Drivers/BSP/STM32F429I-Discovery/stm32f429i_discovery_sdram.c **** 
 166:Drivers/BSP/STM32F429I-Discovery/stm32f429i_discovery_sdram.c ****   /* Send the command */
 167:Drivers/BSP/STM32F429I-Discovery/stm32f429i_discovery_sdram.c ****   HAL_SDRAM_SendCommand(&SdramHandle, &Command, SDRAM_TIMEOUT);
 241              		.loc 1 167 3
 242 004e 4FF6FF72 		movw	r2, #65535
 243 0052 1949     		ldr	r1, .L8
 244 0054 1948     		ldr	r0, .L8+4
 245 0056 FFF7FEFF 		bl	HAL_SDRAM_SendCommand
 168:Drivers/BSP/STM32F429I-Discovery/stm32f429i_discovery_sdram.c **** 
 169:Drivers/BSP/STM32F429I-Discovery/stm32f429i_discovery_sdram.c ****   /* Step 4: Configure an Auto Refresh command */
 170:Drivers/BSP/STM32F429I-Discovery/stm32f429i_discovery_sdram.c ****   Command.CommandMode             = FMC_SDRAM_CMD_AUTOREFRESH_MODE;
 246              		.loc 1 170 35
 247 005a 174B     		ldr	r3, .L8
 248 005c 0322     		movs	r2, #3
 249 005e 1A60     		str	r2, [r3]
 171:Drivers/BSP/STM32F429I-Discovery/stm32f429i_discovery_sdram.c ****   Command.CommandTarget           = FMC_SDRAM_CMD_TARGET_BANK2;
 250              		.loc 1 171 35
 251 0060 154B     		ldr	r3, .L8
 252 0062 0822     		movs	r2, #8
 253 0064 5A60     		str	r2, [r3, #4]
 172:Drivers/BSP/STM32F429I-Discovery/stm32f429i_discovery_sdram.c ****   Command.AutoRefreshNumber       = 4;
 254              		.loc 1 172 35
 255 0066 144B     		ldr	r3, .L8
 256 0068 0422     		movs	r2, #4
 257 006a 9A60     		str	r2, [r3, #8]
 173:Drivers/BSP/STM32F429I-Discovery/stm32f429i_discovery_sdram.c ****   Command.ModeRegisterDefinition  = 0;
 258              		.loc 1 173 35
 259 006c 124B     		ldr	r3, .L8
 260 006e 0022     		movs	r2, #0
 261 0070 DA60     		str	r2, [r3, #12]
 174:Drivers/BSP/STM32F429I-Discovery/stm32f429i_discovery_sdram.c **** 
 175:Drivers/BSP/STM32F429I-Discovery/stm32f429i_discovery_sdram.c ****   /* Send the command */
 176:Drivers/BSP/STM32F429I-Discovery/stm32f429i_discovery_sdram.c ****   HAL_SDRAM_SendCommand(&SdramHandle, &Command, SDRAM_TIMEOUT);
 262              		.loc 1 176 3
 263 0072 4FF6FF72 		movw	r2, #65535
 264 0076 1049     		ldr	r1, .L8
 265 0078 1048     		ldr	r0, .L8+4
 266 007a FFF7FEFF 		bl	HAL_SDRAM_SendCommand
 177:Drivers/BSP/STM32F429I-Discovery/stm32f429i_discovery_sdram.c **** 
 178:Drivers/BSP/STM32F429I-Discovery/stm32f429i_discovery_sdram.c ****   /* Step 5: Program the external memory mode register */
 179:Drivers/BSP/STM32F429I-Discovery/stm32f429i_discovery_sdram.c ****   tmpmrd = (uint32_t)SDRAM_MODEREG_BURST_LENGTH_1          |
 267              		.loc 1 179 10
 268 007e 4FF40C73 		mov	r3, #560
 269 0082 FB60     		str	r3, [r7, #12]
 180:Drivers/BSP/STM32F429I-Discovery/stm32f429i_discovery_sdram.c ****            SDRAM_MODEREG_BURST_TYPE_SEQUENTIAL   |
 181:Drivers/BSP/STM32F429I-Discovery/stm32f429i_discovery_sdram.c ****            SDRAM_MODEREG_CAS_LATENCY_3           |
 182:Drivers/BSP/STM32F429I-Discovery/stm32f429i_discovery_sdram.c ****            SDRAM_MODEREG_OPERATING_MODE_STANDARD |
 183:Drivers/BSP/STM32F429I-Discovery/stm32f429i_discovery_sdram.c ****            SDRAM_MODEREG_WRITEBURST_MODE_SINGLE;
 184:Drivers/BSP/STM32F429I-Discovery/stm32f429i_discovery_sdram.c **** 
 185:Drivers/BSP/STM32F429I-Discovery/stm32f429i_discovery_sdram.c ****   Command.CommandMode             = FMC_SDRAM_CMD_LOAD_MODE;
ARM GAS  /var/folders/06/9k7gq4t13mj84z2yhw3grvhc0000gn/T//ccCNHW7p.s 			page 9


 270              		.loc 1 185 35
 271 0084 0C4B     		ldr	r3, .L8
 272 0086 0422     		movs	r2, #4
 273 0088 1A60     		str	r2, [r3]
 186:Drivers/BSP/STM32F429I-Discovery/stm32f429i_discovery_sdram.c ****   Command.CommandTarget           = FMC_SDRAM_CMD_TARGET_BANK2;
 274              		.loc 1 186 35
 275 008a 0B4B     		ldr	r3, .L8
 276 008c 0822     		movs	r2, #8
 277 008e 5A60     		str	r2, [r3, #4]
 187:Drivers/BSP/STM32F429I-Discovery/stm32f429i_discovery_sdram.c ****   Command.AutoRefreshNumber       = 1;
 278              		.loc 1 187 35
 279 0090 094B     		ldr	r3, .L8
 280 0092 0122     		movs	r2, #1
 281 0094 9A60     		str	r2, [r3, #8]
 188:Drivers/BSP/STM32F429I-Discovery/stm32f429i_discovery_sdram.c ****   Command.ModeRegisterDefinition  = tmpmrd;
 282              		.loc 1 188 35
 283 0096 FB68     		ldr	r3, [r7, #12]
 284 0098 074A     		ldr	r2, .L8
 285 009a D360     		str	r3, [r2, #12]
 189:Drivers/BSP/STM32F429I-Discovery/stm32f429i_discovery_sdram.c **** 
 190:Drivers/BSP/STM32F429I-Discovery/stm32f429i_discovery_sdram.c ****   /* Send the command */
 191:Drivers/BSP/STM32F429I-Discovery/stm32f429i_discovery_sdram.c ****   HAL_SDRAM_SendCommand(&SdramHandle, &Command, SDRAM_TIMEOUT);
 286              		.loc 1 191 3
 287 009c 4FF6FF72 		movw	r2, #65535
 288 00a0 0549     		ldr	r1, .L8
 289 00a2 0648     		ldr	r0, .L8+4
 290 00a4 FFF7FEFF 		bl	HAL_SDRAM_SendCommand
 192:Drivers/BSP/STM32F429I-Discovery/stm32f429i_discovery_sdram.c **** 
 193:Drivers/BSP/STM32F429I-Discovery/stm32f429i_discovery_sdram.c ****   /* Step 6: Set the refresh rate counter */
 194:Drivers/BSP/STM32F429I-Discovery/stm32f429i_discovery_sdram.c ****   /* Set the device refresh rate */
 195:Drivers/BSP/STM32F429I-Discovery/stm32f429i_discovery_sdram.c ****   HAL_SDRAM_ProgramRefreshRate(&SdramHandle, RefreshCount);
 291              		.loc 1 195 3
 292 00a8 7968     		ldr	r1, [r7, #4]
 293 00aa 0448     		ldr	r0, .L8+4
 294 00ac FFF7FEFF 		bl	HAL_SDRAM_ProgramRefreshRate
 196:Drivers/BSP/STM32F429I-Discovery/stm32f429i_discovery_sdram.c **** }
 295              		.loc 1 196 1
 296 00b0 00BF     		nop
 297 00b2 1037     		adds	r7, r7, #16
 298              	.LCFI5:
 299              		.cfi_def_cfa_offset 8
 300 00b4 BD46     		mov	sp, r7
 301              	.LCFI6:
 302              		.cfi_def_cfa_register 13
 303              		@ sp needed
 304 00b6 80BD     		pop	{r7, pc}
 305              	.L9:
 306              		.align	2
 307              	.L8:
 308 00b8 00000000 		.word	Command
 309 00bc 00000000 		.word	SdramHandle
 310              		.cfi_endproc
 311              	.LFE135:
 313              		.section	.text.BSP_SDRAM_ReadData,"ax",%progbits
 314              		.align	1
 315              		.global	BSP_SDRAM_ReadData
 316              		.syntax unified
ARM GAS  /var/folders/06/9k7gq4t13mj84z2yhw3grvhc0000gn/T//ccCNHW7p.s 			page 10


 317              		.thumb
 318              		.thumb_func
 320              	BSP_SDRAM_ReadData:
 321              	.LFB136:
 197:Drivers/BSP/STM32F429I-Discovery/stm32f429i_discovery_sdram.c **** 
 198:Drivers/BSP/STM32F429I-Discovery/stm32f429i_discovery_sdram.c **** /**
 199:Drivers/BSP/STM32F429I-Discovery/stm32f429i_discovery_sdram.c ****   * @brief  Reads an mount of data from the SDRAM memory in polling mode.
 200:Drivers/BSP/STM32F429I-Discovery/stm32f429i_discovery_sdram.c ****   * @param  uwStartAddress : Read start address
 201:Drivers/BSP/STM32F429I-Discovery/stm32f429i_discovery_sdram.c ****   * @param  pData : Pointer to data to be read
 202:Drivers/BSP/STM32F429I-Discovery/stm32f429i_discovery_sdram.c ****   * @param  uwDataSize: Size of read data from the memory
 203:Drivers/BSP/STM32F429I-Discovery/stm32f429i_discovery_sdram.c ****   */
 204:Drivers/BSP/STM32F429I-Discovery/stm32f429i_discovery_sdram.c **** uint8_t BSP_SDRAM_ReadData(uint32_t uwStartAddress, uint32_t *pData, uint32_t uwDataSize)
 205:Drivers/BSP/STM32F429I-Discovery/stm32f429i_discovery_sdram.c **** {
 322              		.loc 1 205 1
 323              		.cfi_startproc
 324              		@ args = 0, pretend = 0, frame = 16
 325              		@ frame_needed = 1, uses_anonymous_args = 0
 326 0000 80B5     		push	{r7, lr}
 327              	.LCFI7:
 328              		.cfi_def_cfa_offset 8
 329              		.cfi_offset 7, -8
 330              		.cfi_offset 14, -4
 331 0002 84B0     		sub	sp, sp, #16
 332              	.LCFI8:
 333              		.cfi_def_cfa_offset 24
 334 0004 00AF     		add	r7, sp, #0
 335              	.LCFI9:
 336              		.cfi_def_cfa_register 7
 337 0006 F860     		str	r0, [r7, #12]
 338 0008 B960     		str	r1, [r7, #8]
 339 000a 7A60     		str	r2, [r7, #4]
 206:Drivers/BSP/STM32F429I-Discovery/stm32f429i_discovery_sdram.c ****   if (HAL_SDRAM_Read_32b(&SdramHandle, (uint32_t *)uwStartAddress, pData, uwDataSize) != HAL_OK)
 340              		.loc 1 206 7
 341 000c F968     		ldr	r1, [r7, #12]
 342 000e 7B68     		ldr	r3, [r7, #4]
 343 0010 BA68     		ldr	r2, [r7, #8]
 344 0012 0648     		ldr	r0, .L13
 345 0014 FFF7FEFF 		bl	HAL_SDRAM_Read_32b
 346 0018 0346     		mov	r3, r0
 347              		.loc 1 206 6 discriminator 1
 348 001a 002B     		cmp	r3, #0
 349 001c 01D0     		beq	.L11
 207:Drivers/BSP/STM32F429I-Discovery/stm32f429i_discovery_sdram.c ****   {
 208:Drivers/BSP/STM32F429I-Discovery/stm32f429i_discovery_sdram.c ****     return SDRAM_ERROR;
 350              		.loc 1 208 12
 351 001e 0123     		movs	r3, #1
 352 0020 00E0     		b	.L12
 353              	.L11:
 209:Drivers/BSP/STM32F429I-Discovery/stm32f429i_discovery_sdram.c ****   }
 210:Drivers/BSP/STM32F429I-Discovery/stm32f429i_discovery_sdram.c ****   else
 211:Drivers/BSP/STM32F429I-Discovery/stm32f429i_discovery_sdram.c ****   {
 212:Drivers/BSP/STM32F429I-Discovery/stm32f429i_discovery_sdram.c ****     return SDRAM_OK;
 354              		.loc 1 212 12
 355 0022 0023     		movs	r3, #0
 356              	.L12:
 213:Drivers/BSP/STM32F429I-Discovery/stm32f429i_discovery_sdram.c ****   }
 214:Drivers/BSP/STM32F429I-Discovery/stm32f429i_discovery_sdram.c **** }
ARM GAS  /var/folders/06/9k7gq4t13mj84z2yhw3grvhc0000gn/T//ccCNHW7p.s 			page 11


 357              		.loc 1 214 1
 358 0024 1846     		mov	r0, r3
 359 0026 1037     		adds	r7, r7, #16
 360              	.LCFI10:
 361              		.cfi_def_cfa_offset 8
 362 0028 BD46     		mov	sp, r7
 363              	.LCFI11:
 364              		.cfi_def_cfa_register 13
 365              		@ sp needed
 366 002a 80BD     		pop	{r7, pc}
 367              	.L14:
 368              		.align	2
 369              	.L13:
 370 002c 00000000 		.word	SdramHandle
 371              		.cfi_endproc
 372              	.LFE136:
 374              		.section	.text.BSP_SDRAM_ReadData_DMA,"ax",%progbits
 375              		.align	1
 376              		.global	BSP_SDRAM_ReadData_DMA
 377              		.syntax unified
 378              		.thumb
 379              		.thumb_func
 381              	BSP_SDRAM_ReadData_DMA:
 382              	.LFB137:
 215:Drivers/BSP/STM32F429I-Discovery/stm32f429i_discovery_sdram.c **** 
 216:Drivers/BSP/STM32F429I-Discovery/stm32f429i_discovery_sdram.c **** /**
 217:Drivers/BSP/STM32F429I-Discovery/stm32f429i_discovery_sdram.c ****   * @brief  Reads an mount of data from the SDRAM memory in DMA mode.
 218:Drivers/BSP/STM32F429I-Discovery/stm32f429i_discovery_sdram.c ****   * @param  uwStartAddress : Read start address
 219:Drivers/BSP/STM32F429I-Discovery/stm32f429i_discovery_sdram.c ****   * @param  pData : Pointer to data to be read
 220:Drivers/BSP/STM32F429I-Discovery/stm32f429i_discovery_sdram.c ****   * @param  uwDataSize: Size of read data from the memory
 221:Drivers/BSP/STM32F429I-Discovery/stm32f429i_discovery_sdram.c ****   */
 222:Drivers/BSP/STM32F429I-Discovery/stm32f429i_discovery_sdram.c **** uint8_t BSP_SDRAM_ReadData_DMA(uint32_t uwStartAddress, uint32_t *pData, uint32_t uwDataSize)
 223:Drivers/BSP/STM32F429I-Discovery/stm32f429i_discovery_sdram.c **** {
 383              		.loc 1 223 1
 384              		.cfi_startproc
 385              		@ args = 0, pretend = 0, frame = 16
 386              		@ frame_needed = 1, uses_anonymous_args = 0
 387 0000 80B5     		push	{r7, lr}
 388              	.LCFI12:
 389              		.cfi_def_cfa_offset 8
 390              		.cfi_offset 7, -8
 391              		.cfi_offset 14, -4
 392 0002 84B0     		sub	sp, sp, #16
 393              	.LCFI13:
 394              		.cfi_def_cfa_offset 24
 395 0004 00AF     		add	r7, sp, #0
 396              	.LCFI14:
 397              		.cfi_def_cfa_register 7
 398 0006 F860     		str	r0, [r7, #12]
 399 0008 B960     		str	r1, [r7, #8]
 400 000a 7A60     		str	r2, [r7, #4]
 224:Drivers/BSP/STM32F429I-Discovery/stm32f429i_discovery_sdram.c ****   if (HAL_SDRAM_Read_DMA(&SdramHandle, (uint32_t *)uwStartAddress, pData, uwDataSize) != HAL_OK)
 401              		.loc 1 224 7
 402 000c F968     		ldr	r1, [r7, #12]
 403 000e 7B68     		ldr	r3, [r7, #4]
 404 0010 BA68     		ldr	r2, [r7, #8]
 405 0012 0648     		ldr	r0, .L18
ARM GAS  /var/folders/06/9k7gq4t13mj84z2yhw3grvhc0000gn/T//ccCNHW7p.s 			page 12


 406 0014 FFF7FEFF 		bl	HAL_SDRAM_Read_DMA
 407 0018 0346     		mov	r3, r0
 408              		.loc 1 224 6 discriminator 1
 409 001a 002B     		cmp	r3, #0
 410 001c 01D0     		beq	.L16
 225:Drivers/BSP/STM32F429I-Discovery/stm32f429i_discovery_sdram.c ****   {
 226:Drivers/BSP/STM32F429I-Discovery/stm32f429i_discovery_sdram.c ****     return SDRAM_ERROR;
 411              		.loc 1 226 12
 412 001e 0123     		movs	r3, #1
 413 0020 00E0     		b	.L17
 414              	.L16:
 227:Drivers/BSP/STM32F429I-Discovery/stm32f429i_discovery_sdram.c ****   }
 228:Drivers/BSP/STM32F429I-Discovery/stm32f429i_discovery_sdram.c ****   else
 229:Drivers/BSP/STM32F429I-Discovery/stm32f429i_discovery_sdram.c ****   {
 230:Drivers/BSP/STM32F429I-Discovery/stm32f429i_discovery_sdram.c ****     return SDRAM_OK;
 415              		.loc 1 230 12
 416 0022 0023     		movs	r3, #0
 417              	.L17:
 231:Drivers/BSP/STM32F429I-Discovery/stm32f429i_discovery_sdram.c ****   }
 232:Drivers/BSP/STM32F429I-Discovery/stm32f429i_discovery_sdram.c **** }
 418              		.loc 1 232 1
 419 0024 1846     		mov	r0, r3
 420 0026 1037     		adds	r7, r7, #16
 421              	.LCFI15:
 422              		.cfi_def_cfa_offset 8
 423 0028 BD46     		mov	sp, r7
 424              	.LCFI16:
 425              		.cfi_def_cfa_register 13
 426              		@ sp needed
 427 002a 80BD     		pop	{r7, pc}
 428              	.L19:
 429              		.align	2
 430              	.L18:
 431 002c 00000000 		.word	SdramHandle
 432              		.cfi_endproc
 433              	.LFE137:
 435              		.section	.text.BSP_SDRAM_WriteData,"ax",%progbits
 436              		.align	1
 437              		.global	BSP_SDRAM_WriteData
 438              		.syntax unified
 439              		.thumb
 440              		.thumb_func
 442              	BSP_SDRAM_WriteData:
 443              	.LFB138:
 233:Drivers/BSP/STM32F429I-Discovery/stm32f429i_discovery_sdram.c **** 
 234:Drivers/BSP/STM32F429I-Discovery/stm32f429i_discovery_sdram.c **** /**
 235:Drivers/BSP/STM32F429I-Discovery/stm32f429i_discovery_sdram.c ****   * @brief  Writes an mount of data to the SDRAM memory in polling mode.
 236:Drivers/BSP/STM32F429I-Discovery/stm32f429i_discovery_sdram.c ****   * @param  uwStartAddress : Write start address
 237:Drivers/BSP/STM32F429I-Discovery/stm32f429i_discovery_sdram.c ****   * @param  pData : Pointer to data to be written
 238:Drivers/BSP/STM32F429I-Discovery/stm32f429i_discovery_sdram.c ****   * @param  uwDataSize: Size of written data from the memory
 239:Drivers/BSP/STM32F429I-Discovery/stm32f429i_discovery_sdram.c ****   */
 240:Drivers/BSP/STM32F429I-Discovery/stm32f429i_discovery_sdram.c **** uint8_t BSP_SDRAM_WriteData(uint32_t uwStartAddress, uint32_t *pData, uint32_t uwDataSize)
 241:Drivers/BSP/STM32F429I-Discovery/stm32f429i_discovery_sdram.c **** {
 444              		.loc 1 241 1
 445              		.cfi_startproc
 446              		@ args = 0, pretend = 0, frame = 16
 447              		@ frame_needed = 1, uses_anonymous_args = 0
ARM GAS  /var/folders/06/9k7gq4t13mj84z2yhw3grvhc0000gn/T//ccCNHW7p.s 			page 13


 448 0000 80B5     		push	{r7, lr}
 449              	.LCFI17:
 450              		.cfi_def_cfa_offset 8
 451              		.cfi_offset 7, -8
 452              		.cfi_offset 14, -4
 453 0002 84B0     		sub	sp, sp, #16
 454              	.LCFI18:
 455              		.cfi_def_cfa_offset 24
 456 0004 00AF     		add	r7, sp, #0
 457              	.LCFI19:
 458              		.cfi_def_cfa_register 7
 459 0006 F860     		str	r0, [r7, #12]
 460 0008 B960     		str	r1, [r7, #8]
 461 000a 7A60     		str	r2, [r7, #4]
 242:Drivers/BSP/STM32F429I-Discovery/stm32f429i_discovery_sdram.c ****   /* Disable write protection */
 243:Drivers/BSP/STM32F429I-Discovery/stm32f429i_discovery_sdram.c ****   HAL_SDRAM_WriteProtection_Disable(&SdramHandle);
 462              		.loc 1 243 3
 463 000c 0948     		ldr	r0, .L23
 464 000e FFF7FEFF 		bl	HAL_SDRAM_WriteProtection_Disable
 244:Drivers/BSP/STM32F429I-Discovery/stm32f429i_discovery_sdram.c **** 
 245:Drivers/BSP/STM32F429I-Discovery/stm32f429i_discovery_sdram.c ****   /*Write 32-bit data buffer to SDRAM memory*/
 246:Drivers/BSP/STM32F429I-Discovery/stm32f429i_discovery_sdram.c ****   if (HAL_SDRAM_Write_32b(&SdramHandle, (uint32_t *)uwStartAddress, pData, uwDataSize) != HAL_OK)
 465              		.loc 1 246 7
 466 0012 F968     		ldr	r1, [r7, #12]
 467 0014 7B68     		ldr	r3, [r7, #4]
 468 0016 BA68     		ldr	r2, [r7, #8]
 469 0018 0648     		ldr	r0, .L23
 470 001a FFF7FEFF 		bl	HAL_SDRAM_Write_32b
 471 001e 0346     		mov	r3, r0
 472              		.loc 1 246 6 discriminator 1
 473 0020 002B     		cmp	r3, #0
 474 0022 01D0     		beq	.L21
 247:Drivers/BSP/STM32F429I-Discovery/stm32f429i_discovery_sdram.c ****   {
 248:Drivers/BSP/STM32F429I-Discovery/stm32f429i_discovery_sdram.c ****     return SDRAM_ERROR;
 475              		.loc 1 248 12
 476 0024 0123     		movs	r3, #1
 477 0026 00E0     		b	.L22
 478              	.L21:
 249:Drivers/BSP/STM32F429I-Discovery/stm32f429i_discovery_sdram.c ****   }
 250:Drivers/BSP/STM32F429I-Discovery/stm32f429i_discovery_sdram.c ****   else
 251:Drivers/BSP/STM32F429I-Discovery/stm32f429i_discovery_sdram.c ****   {
 252:Drivers/BSP/STM32F429I-Discovery/stm32f429i_discovery_sdram.c ****     return SDRAM_OK;
 479              		.loc 1 252 12
 480 0028 0023     		movs	r3, #0
 481              	.L22:
 253:Drivers/BSP/STM32F429I-Discovery/stm32f429i_discovery_sdram.c ****   }
 254:Drivers/BSP/STM32F429I-Discovery/stm32f429i_discovery_sdram.c **** }
 482              		.loc 1 254 1
 483 002a 1846     		mov	r0, r3
 484 002c 1037     		adds	r7, r7, #16
 485              	.LCFI20:
 486              		.cfi_def_cfa_offset 8
 487 002e BD46     		mov	sp, r7
 488              	.LCFI21:
 489              		.cfi_def_cfa_register 13
 490              		@ sp needed
 491 0030 80BD     		pop	{r7, pc}
ARM GAS  /var/folders/06/9k7gq4t13mj84z2yhw3grvhc0000gn/T//ccCNHW7p.s 			page 14


 492              	.L24:
 493 0032 00BF     		.align	2
 494              	.L23:
 495 0034 00000000 		.word	SdramHandle
 496              		.cfi_endproc
 497              	.LFE138:
 499              		.section	.text.BSP_SDRAM_WriteData_DMA,"ax",%progbits
 500              		.align	1
 501              		.global	BSP_SDRAM_WriteData_DMA
 502              		.syntax unified
 503              		.thumb
 504              		.thumb_func
 506              	BSP_SDRAM_WriteData_DMA:
 507              	.LFB139:
 255:Drivers/BSP/STM32F429I-Discovery/stm32f429i_discovery_sdram.c **** 
 256:Drivers/BSP/STM32F429I-Discovery/stm32f429i_discovery_sdram.c **** /**
 257:Drivers/BSP/STM32F429I-Discovery/stm32f429i_discovery_sdram.c ****   * @brief  Writes an mount of data to the SDRAM memory in DMA mode.
 258:Drivers/BSP/STM32F429I-Discovery/stm32f429i_discovery_sdram.c ****   * @param  uwStartAddress : Write start address
 259:Drivers/BSP/STM32F429I-Discovery/stm32f429i_discovery_sdram.c ****   * @param  pData : Pointer to data to be written
 260:Drivers/BSP/STM32F429I-Discovery/stm32f429i_discovery_sdram.c ****   * @param  uwDataSize: Size of written data from the memory
 261:Drivers/BSP/STM32F429I-Discovery/stm32f429i_discovery_sdram.c ****   */
 262:Drivers/BSP/STM32F429I-Discovery/stm32f429i_discovery_sdram.c **** uint8_t BSP_SDRAM_WriteData_DMA(uint32_t uwStartAddress, uint32_t *pData, uint32_t uwDataSize)
 263:Drivers/BSP/STM32F429I-Discovery/stm32f429i_discovery_sdram.c **** {
 508              		.loc 1 263 1
 509              		.cfi_startproc
 510              		@ args = 0, pretend = 0, frame = 16
 511              		@ frame_needed = 1, uses_anonymous_args = 0
 512 0000 80B5     		push	{r7, lr}
 513              	.LCFI22:
 514              		.cfi_def_cfa_offset 8
 515              		.cfi_offset 7, -8
 516              		.cfi_offset 14, -4
 517 0002 84B0     		sub	sp, sp, #16
 518              	.LCFI23:
 519              		.cfi_def_cfa_offset 24
 520 0004 00AF     		add	r7, sp, #0
 521              	.LCFI24:
 522              		.cfi_def_cfa_register 7
 523 0006 F860     		str	r0, [r7, #12]
 524 0008 B960     		str	r1, [r7, #8]
 525 000a 7A60     		str	r2, [r7, #4]
 264:Drivers/BSP/STM32F429I-Discovery/stm32f429i_discovery_sdram.c ****   if (HAL_SDRAM_Write_DMA(&SdramHandle, (uint32_t *)uwStartAddress, pData, uwDataSize) != HAL_OK)
 526              		.loc 1 264 7
 527 000c F968     		ldr	r1, [r7, #12]
 528 000e 7B68     		ldr	r3, [r7, #4]
 529 0010 BA68     		ldr	r2, [r7, #8]
 530 0012 0648     		ldr	r0, .L28
 531 0014 FFF7FEFF 		bl	HAL_SDRAM_Write_DMA
 532 0018 0346     		mov	r3, r0
 533              		.loc 1 264 6 discriminator 1
 534 001a 002B     		cmp	r3, #0
 535 001c 01D0     		beq	.L26
 265:Drivers/BSP/STM32F429I-Discovery/stm32f429i_discovery_sdram.c ****   {
 266:Drivers/BSP/STM32F429I-Discovery/stm32f429i_discovery_sdram.c ****     return SDRAM_ERROR;
 536              		.loc 1 266 12
 537 001e 0123     		movs	r3, #1
 538 0020 00E0     		b	.L27
ARM GAS  /var/folders/06/9k7gq4t13mj84z2yhw3grvhc0000gn/T//ccCNHW7p.s 			page 15


 539              	.L26:
 267:Drivers/BSP/STM32F429I-Discovery/stm32f429i_discovery_sdram.c ****   }
 268:Drivers/BSP/STM32F429I-Discovery/stm32f429i_discovery_sdram.c ****   else
 269:Drivers/BSP/STM32F429I-Discovery/stm32f429i_discovery_sdram.c ****   {
 270:Drivers/BSP/STM32F429I-Discovery/stm32f429i_discovery_sdram.c ****     return SDRAM_OK;
 540              		.loc 1 270 12
 541 0022 0023     		movs	r3, #0
 542              	.L27:
 271:Drivers/BSP/STM32F429I-Discovery/stm32f429i_discovery_sdram.c ****   }
 272:Drivers/BSP/STM32F429I-Discovery/stm32f429i_discovery_sdram.c **** }
 543              		.loc 1 272 1
 544 0024 1846     		mov	r0, r3
 545 0026 1037     		adds	r7, r7, #16
 546              	.LCFI25:
 547              		.cfi_def_cfa_offset 8
 548 0028 BD46     		mov	sp, r7
 549              	.LCFI26:
 550              		.cfi_def_cfa_register 13
 551              		@ sp needed
 552 002a 80BD     		pop	{r7, pc}
 553              	.L29:
 554              		.align	2
 555              	.L28:
 556 002c 00000000 		.word	SdramHandle
 557              		.cfi_endproc
 558              	.LFE139:
 560              		.section	.text.BSP_SDRAM_Sendcmd,"ax",%progbits
 561              		.align	1
 562              		.global	BSP_SDRAM_Sendcmd
 563              		.syntax unified
 564              		.thumb
 565              		.thumb_func
 567              	BSP_SDRAM_Sendcmd:
 568              	.LFB140:
 273:Drivers/BSP/STM32F429I-Discovery/stm32f429i_discovery_sdram.c **** 
 274:Drivers/BSP/STM32F429I-Discovery/stm32f429i_discovery_sdram.c **** /**
 275:Drivers/BSP/STM32F429I-Discovery/stm32f429i_discovery_sdram.c ****   * @brief  Sends command to the SDRAM bank.
 276:Drivers/BSP/STM32F429I-Discovery/stm32f429i_discovery_sdram.c ****   * @param  SdramCmd: Pointer to SDRAM command structure
 277:Drivers/BSP/STM32F429I-Discovery/stm32f429i_discovery_sdram.c ****   * @retval HAL status
 278:Drivers/BSP/STM32F429I-Discovery/stm32f429i_discovery_sdram.c ****   */
 279:Drivers/BSP/STM32F429I-Discovery/stm32f429i_discovery_sdram.c **** uint8_t BSP_SDRAM_Sendcmd(FMC_SDRAM_CommandTypeDef *SdramCmd)
 280:Drivers/BSP/STM32F429I-Discovery/stm32f429i_discovery_sdram.c **** {
 569              		.loc 1 280 1
 570              		.cfi_startproc
 571              		@ args = 0, pretend = 0, frame = 8
 572              		@ frame_needed = 1, uses_anonymous_args = 0
 573 0000 80B5     		push	{r7, lr}
 574              	.LCFI27:
 575              		.cfi_def_cfa_offset 8
 576              		.cfi_offset 7, -8
 577              		.cfi_offset 14, -4
 578 0002 82B0     		sub	sp, sp, #8
 579              	.LCFI28:
 580              		.cfi_def_cfa_offset 16
 581 0004 00AF     		add	r7, sp, #0
 582              	.LCFI29:
 583              		.cfi_def_cfa_register 7
ARM GAS  /var/folders/06/9k7gq4t13mj84z2yhw3grvhc0000gn/T//ccCNHW7p.s 			page 16


 584 0006 7860     		str	r0, [r7, #4]
 281:Drivers/BSP/STM32F429I-Discovery/stm32f429i_discovery_sdram.c ****   if (HAL_SDRAM_SendCommand(&SdramHandle, SdramCmd, SDRAM_TIMEOUT) != HAL_OK)
 585              		.loc 1 281 7
 586 0008 4FF6FF72 		movw	r2, #65535
 587 000c 7968     		ldr	r1, [r7, #4]
 588 000e 0648     		ldr	r0, .L33
 589 0010 FFF7FEFF 		bl	HAL_SDRAM_SendCommand
 590 0014 0346     		mov	r3, r0
 591              		.loc 1 281 6 discriminator 1
 592 0016 002B     		cmp	r3, #0
 593 0018 01D0     		beq	.L31
 282:Drivers/BSP/STM32F429I-Discovery/stm32f429i_discovery_sdram.c ****   {
 283:Drivers/BSP/STM32F429I-Discovery/stm32f429i_discovery_sdram.c ****     return SDRAM_ERROR;
 594              		.loc 1 283 12
 595 001a 0123     		movs	r3, #1
 596 001c 00E0     		b	.L32
 597              	.L31:
 284:Drivers/BSP/STM32F429I-Discovery/stm32f429i_discovery_sdram.c ****   }
 285:Drivers/BSP/STM32F429I-Discovery/stm32f429i_discovery_sdram.c ****   else
 286:Drivers/BSP/STM32F429I-Discovery/stm32f429i_discovery_sdram.c ****   {
 287:Drivers/BSP/STM32F429I-Discovery/stm32f429i_discovery_sdram.c ****     return SDRAM_OK;
 598              		.loc 1 287 12
 599 001e 0023     		movs	r3, #0
 600              	.L32:
 288:Drivers/BSP/STM32F429I-Discovery/stm32f429i_discovery_sdram.c ****   }
 289:Drivers/BSP/STM32F429I-Discovery/stm32f429i_discovery_sdram.c **** }
 601              		.loc 1 289 1
 602 0020 1846     		mov	r0, r3
 603 0022 0837     		adds	r7, r7, #8
 604              	.LCFI30:
 605              		.cfi_def_cfa_offset 8
 606 0024 BD46     		mov	sp, r7
 607              	.LCFI31:
 608              		.cfi_def_cfa_register 13
 609              		@ sp needed
 610 0026 80BD     		pop	{r7, pc}
 611              	.L34:
 612              		.align	2
 613              	.L33:
 614 0028 00000000 		.word	SdramHandle
 615              		.cfi_endproc
 616              	.LFE140:
 618              		.section	.text.BSP_SDRAM_DMA_IRQHandler,"ax",%progbits
 619              		.align	1
 620              		.global	BSP_SDRAM_DMA_IRQHandler
 621              		.syntax unified
 622              		.thumb
 623              		.thumb_func
 625              	BSP_SDRAM_DMA_IRQHandler:
 626              	.LFB141:
 290:Drivers/BSP/STM32F429I-Discovery/stm32f429i_discovery_sdram.c **** 
 291:Drivers/BSP/STM32F429I-Discovery/stm32f429i_discovery_sdram.c **** /**
 292:Drivers/BSP/STM32F429I-Discovery/stm32f429i_discovery_sdram.c ****   * @brief  Handles SDRAM DMA transfer interrupt request.
 293:Drivers/BSP/STM32F429I-Discovery/stm32f429i_discovery_sdram.c ****   */
 294:Drivers/BSP/STM32F429I-Discovery/stm32f429i_discovery_sdram.c **** void BSP_SDRAM_DMA_IRQHandler(void)
 295:Drivers/BSP/STM32F429I-Discovery/stm32f429i_discovery_sdram.c **** {
 627              		.loc 1 295 1
ARM GAS  /var/folders/06/9k7gq4t13mj84z2yhw3grvhc0000gn/T//ccCNHW7p.s 			page 17


 628              		.cfi_startproc
 629              		@ args = 0, pretend = 0, frame = 0
 630              		@ frame_needed = 1, uses_anonymous_args = 0
 631 0000 80B5     		push	{r7, lr}
 632              	.LCFI32:
 633              		.cfi_def_cfa_offset 8
 634              		.cfi_offset 7, -8
 635              		.cfi_offset 14, -4
 636 0002 00AF     		add	r7, sp, #0
 637              	.LCFI33:
 638              		.cfi_def_cfa_register 7
 296:Drivers/BSP/STM32F429I-Discovery/stm32f429i_discovery_sdram.c ****   HAL_DMA_IRQHandler(SdramHandle.hdma);
 639              		.loc 1 296 3
 640 0004 034B     		ldr	r3, .L36
 641 0006 1B6B     		ldr	r3, [r3, #48]
 642 0008 1846     		mov	r0, r3
 643 000a FFF7FEFF 		bl	HAL_DMA_IRQHandler
 297:Drivers/BSP/STM32F429I-Discovery/stm32f429i_discovery_sdram.c **** }
 644              		.loc 1 297 1
 645 000e 00BF     		nop
 646 0010 80BD     		pop	{r7, pc}
 647              	.L37:
 648 0012 00BF     		.align	2
 649              	.L36:
 650 0014 00000000 		.word	SdramHandle
 651              		.cfi_endproc
 652              	.LFE141:
 654              		.section	.text.BSP_SDRAM_MspInit,"ax",%progbits
 655              		.align	1
 656              		.weak	BSP_SDRAM_MspInit
 657              		.syntax unified
 658              		.thumb
 659              		.thumb_func
 661              	BSP_SDRAM_MspInit:
 662              	.LFB142:
 298:Drivers/BSP/STM32F429I-Discovery/stm32f429i_discovery_sdram.c **** 
 299:Drivers/BSP/STM32F429I-Discovery/stm32f429i_discovery_sdram.c **** /**
 300:Drivers/BSP/STM32F429I-Discovery/stm32f429i_discovery_sdram.c ****   * @brief  Initializes SDRAM MSP.
 301:Drivers/BSP/STM32F429I-Discovery/stm32f429i_discovery_sdram.c ****   * @note   This function can be surcharged by application code.
 302:Drivers/BSP/STM32F429I-Discovery/stm32f429i_discovery_sdram.c ****   * @param  hsdram: pointer on SDRAM handle
 303:Drivers/BSP/STM32F429I-Discovery/stm32f429i_discovery_sdram.c ****   * @param  Params: pointer on additional configuration parameters, can be NULL.
 304:Drivers/BSP/STM32F429I-Discovery/stm32f429i_discovery_sdram.c ****   */
 305:Drivers/BSP/STM32F429I-Discovery/stm32f429i_discovery_sdram.c **** __weak void BSP_SDRAM_MspInit(SDRAM_HandleTypeDef  *hsdram, void *Params)
 306:Drivers/BSP/STM32F429I-Discovery/stm32f429i_discovery_sdram.c **** {
 663              		.loc 1 306 1
 664              		.cfi_startproc
 665              		@ args = 0, pretend = 0, frame = 64
 666              		@ frame_needed = 1, uses_anonymous_args = 0
 667 0000 80B5     		push	{r7, lr}
 668              	.LCFI34:
 669              		.cfi_def_cfa_offset 8
 670              		.cfi_offset 7, -8
 671              		.cfi_offset 14, -4
 672 0002 90B0     		sub	sp, sp, #64
 673              	.LCFI35:
 674              		.cfi_def_cfa_offset 72
 675 0004 00AF     		add	r7, sp, #0
ARM GAS  /var/folders/06/9k7gq4t13mj84z2yhw3grvhc0000gn/T//ccCNHW7p.s 			page 18


 676              	.LCFI36:
 677              		.cfi_def_cfa_register 7
 678 0006 7860     		str	r0, [r7, #4]
 679 0008 3960     		str	r1, [r7]
 307:Drivers/BSP/STM32F429I-Discovery/stm32f429i_discovery_sdram.c ****   static DMA_HandleTypeDef dmaHandle;
 308:Drivers/BSP/STM32F429I-Discovery/stm32f429i_discovery_sdram.c ****   GPIO_InitTypeDef GPIO_InitStructure;
 309:Drivers/BSP/STM32F429I-Discovery/stm32f429i_discovery_sdram.c **** 
 310:Drivers/BSP/STM32F429I-Discovery/stm32f429i_discovery_sdram.c ****   if (hsdram != (SDRAM_HandleTypeDef *)NULL)
 680              		.loc 1 310 6
 681 000a 7B68     		ldr	r3, [r7, #4]
 682 000c 002B     		cmp	r3, #0
 683 000e 00F0EC80 		beq	.L40
 684              	.LBB2:
 311:Drivers/BSP/STM32F429I-Discovery/stm32f429i_discovery_sdram.c ****   {
 312:Drivers/BSP/STM32F429I-Discovery/stm32f429i_discovery_sdram.c ****     /* Enable FMC clock */
 313:Drivers/BSP/STM32F429I-Discovery/stm32f429i_discovery_sdram.c ****     __HAL_RCC_FMC_CLK_ENABLE();
 685              		.loc 1 313 5
 686 0012 0023     		movs	r3, #0
 687 0014 BB62     		str	r3, [r7, #40]
 688 0016 774B     		ldr	r3, .L41
 689 0018 9B6B     		ldr	r3, [r3, #56]
 690 001a 764A     		ldr	r2, .L41
 691 001c 43F00103 		orr	r3, r3, #1
 692 0020 9363     		str	r3, [r2, #56]
 693 0022 744B     		ldr	r3, .L41
 694 0024 9B6B     		ldr	r3, [r3, #56]
 695 0026 03F00103 		and	r3, r3, #1
 696 002a BB62     		str	r3, [r7, #40]
 697 002c BB6A     		ldr	r3, [r7, #40]
 698              	.LBE2:
 699              	.LBB3:
 314:Drivers/BSP/STM32F429I-Discovery/stm32f429i_discovery_sdram.c **** 
 315:Drivers/BSP/STM32F429I-Discovery/stm32f429i_discovery_sdram.c ****     /* Enable chosen DMAx clock */
 316:Drivers/BSP/STM32F429I-Discovery/stm32f429i_discovery_sdram.c ****     __DMAx_CLK_ENABLE();
 700              		.loc 1 316 5
 701 002e 0023     		movs	r3, #0
 702 0030 7B62     		str	r3, [r7, #36]
 703 0032 704B     		ldr	r3, .L41
 704 0034 1B6B     		ldr	r3, [r3, #48]
 705 0036 6F4A     		ldr	r2, .L41
 706 0038 43F48003 		orr	r3, r3, #4194304
 707 003c 1363     		str	r3, [r2, #48]
 708 003e 6D4B     		ldr	r3, .L41
 709 0040 1B6B     		ldr	r3, [r3, #48]
 710 0042 03F48003 		and	r3, r3, #4194304
 711 0046 7B62     		str	r3, [r7, #36]
 712 0048 7B6A     		ldr	r3, [r7, #36]
 713              	.LBE3:
 714              	.LBB4:
 317:Drivers/BSP/STM32F429I-Discovery/stm32f429i_discovery_sdram.c **** 
 318:Drivers/BSP/STM32F429I-Discovery/stm32f429i_discovery_sdram.c ****     /* Enable GPIOs clock */
 319:Drivers/BSP/STM32F429I-Discovery/stm32f429i_discovery_sdram.c ****     __HAL_RCC_GPIOB_CLK_ENABLE();
 715              		.loc 1 319 5
 716 004a 0023     		movs	r3, #0
 717 004c 3B62     		str	r3, [r7, #32]
 718 004e 694B     		ldr	r3, .L41
 719 0050 1B6B     		ldr	r3, [r3, #48]
ARM GAS  /var/folders/06/9k7gq4t13mj84z2yhw3grvhc0000gn/T//ccCNHW7p.s 			page 19


 720 0052 684A     		ldr	r2, .L41
 721 0054 43F00203 		orr	r3, r3, #2
 722 0058 1363     		str	r3, [r2, #48]
 723 005a 664B     		ldr	r3, .L41
 724 005c 1B6B     		ldr	r3, [r3, #48]
 725 005e 03F00203 		and	r3, r3, #2
 726 0062 3B62     		str	r3, [r7, #32]
 727 0064 3B6A     		ldr	r3, [r7, #32]
 728              	.LBE4:
 729              	.LBB5:
 320:Drivers/BSP/STM32F429I-Discovery/stm32f429i_discovery_sdram.c ****     __HAL_RCC_GPIOC_CLK_ENABLE();
 730              		.loc 1 320 5
 731 0066 0023     		movs	r3, #0
 732 0068 FB61     		str	r3, [r7, #28]
 733 006a 624B     		ldr	r3, .L41
 734 006c 1B6B     		ldr	r3, [r3, #48]
 735 006e 614A     		ldr	r2, .L41
 736 0070 43F00403 		orr	r3, r3, #4
 737 0074 1363     		str	r3, [r2, #48]
 738 0076 5F4B     		ldr	r3, .L41
 739 0078 1B6B     		ldr	r3, [r3, #48]
 740 007a 03F00403 		and	r3, r3, #4
 741 007e FB61     		str	r3, [r7, #28]
 742 0080 FB69     		ldr	r3, [r7, #28]
 743              	.LBE5:
 744              	.LBB6:
 321:Drivers/BSP/STM32F429I-Discovery/stm32f429i_discovery_sdram.c ****     __HAL_RCC_GPIOD_CLK_ENABLE();
 745              		.loc 1 321 5
 746 0082 0023     		movs	r3, #0
 747 0084 BB61     		str	r3, [r7, #24]
 748 0086 5B4B     		ldr	r3, .L41
 749 0088 1B6B     		ldr	r3, [r3, #48]
 750 008a 5A4A     		ldr	r2, .L41
 751 008c 43F00803 		orr	r3, r3, #8
 752 0090 1363     		str	r3, [r2, #48]
 753 0092 584B     		ldr	r3, .L41
 754 0094 1B6B     		ldr	r3, [r3, #48]
 755 0096 03F00803 		and	r3, r3, #8
 756 009a BB61     		str	r3, [r7, #24]
 757 009c BB69     		ldr	r3, [r7, #24]
 758              	.LBE6:
 759              	.LBB7:
 322:Drivers/BSP/STM32F429I-Discovery/stm32f429i_discovery_sdram.c ****     __HAL_RCC_GPIOE_CLK_ENABLE();
 760              		.loc 1 322 5
 761 009e 0023     		movs	r3, #0
 762 00a0 7B61     		str	r3, [r7, #20]
 763 00a2 544B     		ldr	r3, .L41
 764 00a4 1B6B     		ldr	r3, [r3, #48]
 765 00a6 534A     		ldr	r2, .L41
 766 00a8 43F01003 		orr	r3, r3, #16
 767 00ac 1363     		str	r3, [r2, #48]
 768 00ae 514B     		ldr	r3, .L41
 769 00b0 1B6B     		ldr	r3, [r3, #48]
 770 00b2 03F01003 		and	r3, r3, #16
 771 00b6 7B61     		str	r3, [r7, #20]
 772 00b8 7B69     		ldr	r3, [r7, #20]
 773              	.LBE7:
ARM GAS  /var/folders/06/9k7gq4t13mj84z2yhw3grvhc0000gn/T//ccCNHW7p.s 			page 20


 774              	.LBB8:
 323:Drivers/BSP/STM32F429I-Discovery/stm32f429i_discovery_sdram.c ****     __HAL_RCC_GPIOF_CLK_ENABLE();
 775              		.loc 1 323 5
 776 00ba 0023     		movs	r3, #0
 777 00bc 3B61     		str	r3, [r7, #16]
 778 00be 4D4B     		ldr	r3, .L41
 779 00c0 1B6B     		ldr	r3, [r3, #48]
 780 00c2 4C4A     		ldr	r2, .L41
 781 00c4 43F02003 		orr	r3, r3, #32
 782 00c8 1363     		str	r3, [r2, #48]
 783 00ca 4A4B     		ldr	r3, .L41
 784 00cc 1B6B     		ldr	r3, [r3, #48]
 785 00ce 03F02003 		and	r3, r3, #32
 786 00d2 3B61     		str	r3, [r7, #16]
 787 00d4 3B69     		ldr	r3, [r7, #16]
 788              	.LBE8:
 789              	.LBB9:
 324:Drivers/BSP/STM32F429I-Discovery/stm32f429i_discovery_sdram.c ****     __HAL_RCC_GPIOG_CLK_ENABLE();
 790              		.loc 1 324 5
 791 00d6 0023     		movs	r3, #0
 792 00d8 FB60     		str	r3, [r7, #12]
 793 00da 464B     		ldr	r3, .L41
 794 00dc 1B6B     		ldr	r3, [r3, #48]
 795 00de 454A     		ldr	r2, .L41
 796 00e0 43F04003 		orr	r3, r3, #64
 797 00e4 1363     		str	r3, [r2, #48]
 798 00e6 434B     		ldr	r3, .L41
 799 00e8 1B6B     		ldr	r3, [r3, #48]
 800 00ea 03F04003 		and	r3, r3, #64
 801 00ee FB60     		str	r3, [r7, #12]
 802 00f0 FB68     		ldr	r3, [r7, #12]
 803              	.LBE9:
 325:Drivers/BSP/STM32F429I-Discovery/stm32f429i_discovery_sdram.c **** 
 326:Drivers/BSP/STM32F429I-Discovery/stm32f429i_discovery_sdram.c ****     /*-- GPIOs Configuration -----------------------------------------------------*/
 327:Drivers/BSP/STM32F429I-Discovery/stm32f429i_discovery_sdram.c ****     /*
 328:Drivers/BSP/STM32F429I-Discovery/stm32f429i_discovery_sdram.c ****      +-------------------+--------------------+--------------------+--------------------+
 329:Drivers/BSP/STM32F429I-Discovery/stm32f429i_discovery_sdram.c ****      +                       SDRAM pins assignment                                      +
 330:Drivers/BSP/STM32F429I-Discovery/stm32f429i_discovery_sdram.c ****      +-------------------+--------------------+--------------------+--------------------+
 331:Drivers/BSP/STM32F429I-Discovery/stm32f429i_discovery_sdram.c ****      | PD0  <-> FMC_D2   | PE0  <-> FMC_NBL0  | PF0  <-> FMC_A0    | PG0  <-> FMC_A10   |
 332:Drivers/BSP/STM32F429I-Discovery/stm32f429i_discovery_sdram.c ****      | PD1  <-> FMC_D3   | PE1  <-> FMC_NBL1  | PF1  <-> FMC_A1    | PG1  <-> FMC_A11   |
 333:Drivers/BSP/STM32F429I-Discovery/stm32f429i_discovery_sdram.c ****      | PD8  <-> FMC_D13  | PE7  <-> FMC_D4    | PF2  <-> FMC_A2    | PG8  <-> FMC_SDCLK |
 334:Drivers/BSP/STM32F429I-Discovery/stm32f429i_discovery_sdram.c ****      | PD9  <-> FMC_D14  | PE8  <-> FMC_D5    | PF3  <-> FMC_A3    | PG15 <-> FMC_NCAS  |
 335:Drivers/BSP/STM32F429I-Discovery/stm32f429i_discovery_sdram.c ****      | PD10 <-> FMC_D15  | PE9  <-> FMC_D6    | PF4  <-> FMC_A4    |--------------------+
 336:Drivers/BSP/STM32F429I-Discovery/stm32f429i_discovery_sdram.c ****      | PD14 <-> FMC_D0   | PE10 <-> FMC_D7    | PF5  <-> FMC_A5    |
 337:Drivers/BSP/STM32F429I-Discovery/stm32f429i_discovery_sdram.c ****      | PD15 <-> FMC_D1   | PE11 <-> FMC_D8    | PF11 <-> FMC_NRAS  |
 338:Drivers/BSP/STM32F429I-Discovery/stm32f429i_discovery_sdram.c ****      +-------------------| PE12 <-> FMC_D9    | PF12 <-> FMC_A6    |
 339:Drivers/BSP/STM32F429I-Discovery/stm32f429i_discovery_sdram.c ****                          | PE13 <-> FMC_D10   | PF13 <-> FMC_A7    |
 340:Drivers/BSP/STM32F429I-Discovery/stm32f429i_discovery_sdram.c ****                          | PE14 <-> FMC_D11   | PF14 <-> FMC_A8    |
 341:Drivers/BSP/STM32F429I-Discovery/stm32f429i_discovery_sdram.c ****                          | PE15 <-> FMC_D12   | PF15 <-> FMC_A9    |
 342:Drivers/BSP/STM32F429I-Discovery/stm32f429i_discovery_sdram.c ****      +-------------------+--------------------+--------------------+
 343:Drivers/BSP/STM32F429I-Discovery/stm32f429i_discovery_sdram.c ****      | PB5 <-> FMC_SDCKE1|
 344:Drivers/BSP/STM32F429I-Discovery/stm32f429i_discovery_sdram.c ****      | PB6 <-> FMC_SDNE1 |
 345:Drivers/BSP/STM32F429I-Discovery/stm32f429i_discovery_sdram.c ****      | PC0 <-> FMC_SDNWE |
 346:Drivers/BSP/STM32F429I-Discovery/stm32f429i_discovery_sdram.c ****      +-------------------+
 347:Drivers/BSP/STM32F429I-Discovery/stm32f429i_discovery_sdram.c **** 
 348:Drivers/BSP/STM32F429I-Discovery/stm32f429i_discovery_sdram.c ****     */
 349:Drivers/BSP/STM32F429I-Discovery/stm32f429i_discovery_sdram.c **** 
ARM GAS  /var/folders/06/9k7gq4t13mj84z2yhw3grvhc0000gn/T//ccCNHW7p.s 			page 21


 350:Drivers/BSP/STM32F429I-Discovery/stm32f429i_discovery_sdram.c ****     /* Common GPIO configuration */
 351:Drivers/BSP/STM32F429I-Discovery/stm32f429i_discovery_sdram.c ****     GPIO_InitStructure.Mode  = GPIO_MODE_AF_PP;
 804              		.loc 1 351 30
 805 00f2 0223     		movs	r3, #2
 806 00f4 3B63     		str	r3, [r7, #48]
 352:Drivers/BSP/STM32F429I-Discovery/stm32f429i_discovery_sdram.c ****     GPIO_InitStructure.Speed = GPIO_SPEED_FAST;
 807              		.loc 1 352 30
 808 00f6 0223     		movs	r3, #2
 809 00f8 BB63     		str	r3, [r7, #56]
 353:Drivers/BSP/STM32F429I-Discovery/stm32f429i_discovery_sdram.c ****     GPIO_InitStructure.Pull  = GPIO_NOPULL;
 810              		.loc 1 353 30
 811 00fa 0023     		movs	r3, #0
 812 00fc 7B63     		str	r3, [r7, #52]
 354:Drivers/BSP/STM32F429I-Discovery/stm32f429i_discovery_sdram.c ****     GPIO_InitStructure.Alternate = GPIO_AF12_FMC;
 813              		.loc 1 354 34
 814 00fe 0C23     		movs	r3, #12
 815 0100 FB63     		str	r3, [r7, #60]
 355:Drivers/BSP/STM32F429I-Discovery/stm32f429i_discovery_sdram.c **** 
 356:Drivers/BSP/STM32F429I-Discovery/stm32f429i_discovery_sdram.c ****     /* GPIOB configuration */
 357:Drivers/BSP/STM32F429I-Discovery/stm32f429i_discovery_sdram.c ****     GPIO_InitStructure.Pin = GPIO_PIN_5 | GPIO_PIN_6;
 816              		.loc 1 357 28
 817 0102 6023     		movs	r3, #96
 818 0104 FB62     		str	r3, [r7, #44]
 358:Drivers/BSP/STM32F429I-Discovery/stm32f429i_discovery_sdram.c ****     HAL_GPIO_Init(GPIOB, &GPIO_InitStructure);
 819              		.loc 1 358 5
 820 0106 07F12C03 		add	r3, r7, #44
 821 010a 1946     		mov	r1, r3
 822 010c 3A48     		ldr	r0, .L41+4
 823 010e FFF7FEFF 		bl	HAL_GPIO_Init
 359:Drivers/BSP/STM32F429I-Discovery/stm32f429i_discovery_sdram.c **** 
 360:Drivers/BSP/STM32F429I-Discovery/stm32f429i_discovery_sdram.c ****     /* GPIOC configuration */
 361:Drivers/BSP/STM32F429I-Discovery/stm32f429i_discovery_sdram.c ****     GPIO_InitStructure.Pin = GPIO_PIN_0;
 824              		.loc 1 361 28
 825 0112 0123     		movs	r3, #1
 826 0114 FB62     		str	r3, [r7, #44]
 362:Drivers/BSP/STM32F429I-Discovery/stm32f429i_discovery_sdram.c ****     HAL_GPIO_Init(GPIOC, &GPIO_InitStructure);
 827              		.loc 1 362 5
 828 0116 07F12C03 		add	r3, r7, #44
 829 011a 1946     		mov	r1, r3
 830 011c 3748     		ldr	r0, .L41+8
 831 011e FFF7FEFF 		bl	HAL_GPIO_Init
 363:Drivers/BSP/STM32F429I-Discovery/stm32f429i_discovery_sdram.c **** 
 364:Drivers/BSP/STM32F429I-Discovery/stm32f429i_discovery_sdram.c ****     /* GPIOD configuration */
 365:Drivers/BSP/STM32F429I-Discovery/stm32f429i_discovery_sdram.c ****     GPIO_InitStructure.Pin = GPIO_PIN_0 | GPIO_PIN_1  | GPIO_PIN_8 |
 832              		.loc 1 365 28
 833 0122 4CF20373 		movw	r3, #50947
 834 0126 FB62     		str	r3, [r7, #44]
 366:Drivers/BSP/STM32F429I-Discovery/stm32f429i_discovery_sdram.c ****                              GPIO_PIN_9 | GPIO_PIN_10 | GPIO_PIN_14 |
 367:Drivers/BSP/STM32F429I-Discovery/stm32f429i_discovery_sdram.c ****                              GPIO_PIN_15;
 368:Drivers/BSP/STM32F429I-Discovery/stm32f429i_discovery_sdram.c ****     HAL_GPIO_Init(GPIOD, &GPIO_InitStructure);
 835              		.loc 1 368 5
 836 0128 07F12C03 		add	r3, r7, #44
 837 012c 1946     		mov	r1, r3
 838 012e 3448     		ldr	r0, .L41+12
 839 0130 FFF7FEFF 		bl	HAL_GPIO_Init
 369:Drivers/BSP/STM32F429I-Discovery/stm32f429i_discovery_sdram.c **** 
 370:Drivers/BSP/STM32F429I-Discovery/stm32f429i_discovery_sdram.c ****     /* GPIOE configuration */
ARM GAS  /var/folders/06/9k7gq4t13mj84z2yhw3grvhc0000gn/T//ccCNHW7p.s 			page 22


 371:Drivers/BSP/STM32F429I-Discovery/stm32f429i_discovery_sdram.c ****     GPIO_InitStructure.Pin = GPIO_PIN_0  | GPIO_PIN_1  | GPIO_PIN_7 |
 840              		.loc 1 371 28
 841 0134 4FF68373 		movw	r3, #65411
 842 0138 FB62     		str	r3, [r7, #44]
 372:Drivers/BSP/STM32F429I-Discovery/stm32f429i_discovery_sdram.c ****                              GPIO_PIN_8  | GPIO_PIN_9  | GPIO_PIN_10 |
 373:Drivers/BSP/STM32F429I-Discovery/stm32f429i_discovery_sdram.c ****                              GPIO_PIN_11 | GPIO_PIN_12 | GPIO_PIN_13 |
 374:Drivers/BSP/STM32F429I-Discovery/stm32f429i_discovery_sdram.c ****                              GPIO_PIN_14 | GPIO_PIN_15;
 375:Drivers/BSP/STM32F429I-Discovery/stm32f429i_discovery_sdram.c ****     HAL_GPIO_Init(GPIOE, &GPIO_InitStructure);
 843              		.loc 1 375 5
 844 013a 07F12C03 		add	r3, r7, #44
 845 013e 1946     		mov	r1, r3
 846 0140 3048     		ldr	r0, .L41+16
 847 0142 FFF7FEFF 		bl	HAL_GPIO_Init
 376:Drivers/BSP/STM32F429I-Discovery/stm32f429i_discovery_sdram.c **** 
 377:Drivers/BSP/STM32F429I-Discovery/stm32f429i_discovery_sdram.c ****     /* GPIOF configuration */
 378:Drivers/BSP/STM32F429I-Discovery/stm32f429i_discovery_sdram.c ****     GPIO_InitStructure.Pin = GPIO_PIN_0  | GPIO_PIN_1 | GPIO_PIN_2 |
 848              		.loc 1 378 28
 849 0146 4FF63F03 		movw	r3, #63551
 850 014a FB62     		str	r3, [r7, #44]
 379:Drivers/BSP/STM32F429I-Discovery/stm32f429i_discovery_sdram.c ****                              GPIO_PIN_3  | GPIO_PIN_4 | GPIO_PIN_5 |
 380:Drivers/BSP/STM32F429I-Discovery/stm32f429i_discovery_sdram.c ****                              GPIO_PIN_11 | GPIO_PIN_12 | GPIO_PIN_13 |
 381:Drivers/BSP/STM32F429I-Discovery/stm32f429i_discovery_sdram.c ****                              GPIO_PIN_14 | GPIO_PIN_15;
 382:Drivers/BSP/STM32F429I-Discovery/stm32f429i_discovery_sdram.c ****     HAL_GPIO_Init(GPIOF, &GPIO_InitStructure);
 851              		.loc 1 382 5
 852 014c 07F12C03 		add	r3, r7, #44
 853 0150 1946     		mov	r1, r3
 854 0152 2D48     		ldr	r0, .L41+20
 855 0154 FFF7FEFF 		bl	HAL_GPIO_Init
 383:Drivers/BSP/STM32F429I-Discovery/stm32f429i_discovery_sdram.c **** 
 384:Drivers/BSP/STM32F429I-Discovery/stm32f429i_discovery_sdram.c ****     /* GPIOG configuration */
 385:Drivers/BSP/STM32F429I-Discovery/stm32f429i_discovery_sdram.c ****     GPIO_InitStructure.Pin = GPIO_PIN_0 | GPIO_PIN_1 | GPIO_PIN_4 |
 856              		.loc 1 385 28
 857 0158 48F23313 		movw	r3, #33075
 858 015c FB62     		str	r3, [r7, #44]
 386:Drivers/BSP/STM32F429I-Discovery/stm32f429i_discovery_sdram.c ****                              GPIO_PIN_5 | GPIO_PIN_8 | GPIO_PIN_15;
 387:Drivers/BSP/STM32F429I-Discovery/stm32f429i_discovery_sdram.c ****     HAL_GPIO_Init(GPIOG, &GPIO_InitStructure);
 859              		.loc 1 387 5
 860 015e 07F12C03 		add	r3, r7, #44
 861 0162 1946     		mov	r1, r3
 862 0164 2948     		ldr	r0, .L41+24
 863 0166 FFF7FEFF 		bl	HAL_GPIO_Init
 388:Drivers/BSP/STM32F429I-Discovery/stm32f429i_discovery_sdram.c **** 
 389:Drivers/BSP/STM32F429I-Discovery/stm32f429i_discovery_sdram.c ****     /* Configure common DMA parameters */
 390:Drivers/BSP/STM32F429I-Discovery/stm32f429i_discovery_sdram.c ****     dmaHandle.Init.Channel             = SDRAM_DMAx_CHANNEL;
 864              		.loc 1 390 40
 865 016a 294B     		ldr	r3, .L41+28
 866 016c 0022     		movs	r2, #0
 867 016e 5A60     		str	r2, [r3, #4]
 391:Drivers/BSP/STM32F429I-Discovery/stm32f429i_discovery_sdram.c ****     dmaHandle.Init.Direction           = DMA_MEMORY_TO_MEMORY;
 868              		.loc 1 391 40
 869 0170 274B     		ldr	r3, .L41+28
 870 0172 8022     		movs	r2, #128
 871 0174 9A60     		str	r2, [r3, #8]
 392:Drivers/BSP/STM32F429I-Discovery/stm32f429i_discovery_sdram.c ****     dmaHandle.Init.PeriphInc           = DMA_PINC_ENABLE;
 872              		.loc 1 392 40
 873 0176 264B     		ldr	r3, .L41+28
 874 0178 4FF40072 		mov	r2, #512
ARM GAS  /var/folders/06/9k7gq4t13mj84z2yhw3grvhc0000gn/T//ccCNHW7p.s 			page 23


 875 017c DA60     		str	r2, [r3, #12]
 393:Drivers/BSP/STM32F429I-Discovery/stm32f429i_discovery_sdram.c ****     dmaHandle.Init.MemInc              = DMA_MINC_ENABLE;
 876              		.loc 1 393 40
 877 017e 244B     		ldr	r3, .L41+28
 878 0180 4FF48062 		mov	r2, #1024
 879 0184 1A61     		str	r2, [r3, #16]
 394:Drivers/BSP/STM32F429I-Discovery/stm32f429i_discovery_sdram.c ****     dmaHandle.Init.PeriphDataAlignment = DMA_PDATAALIGN_WORD;
 880              		.loc 1 394 40
 881 0186 224B     		ldr	r3, .L41+28
 882 0188 4FF48052 		mov	r2, #4096
 883 018c 5A61     		str	r2, [r3, #20]
 395:Drivers/BSP/STM32F429I-Discovery/stm32f429i_discovery_sdram.c ****     dmaHandle.Init.MemDataAlignment    = DMA_MDATAALIGN_WORD;
 884              		.loc 1 395 40
 885 018e 204B     		ldr	r3, .L41+28
 886 0190 4FF48042 		mov	r2, #16384
 887 0194 9A61     		str	r2, [r3, #24]
 396:Drivers/BSP/STM32F429I-Discovery/stm32f429i_discovery_sdram.c ****     dmaHandle.Init.Mode                = DMA_NORMAL;
 888              		.loc 1 396 40
 889 0196 1E4B     		ldr	r3, .L41+28
 890 0198 0022     		movs	r2, #0
 891 019a DA61     		str	r2, [r3, #28]
 397:Drivers/BSP/STM32F429I-Discovery/stm32f429i_discovery_sdram.c ****     dmaHandle.Init.Priority            = DMA_PRIORITY_HIGH;
 892              		.loc 1 397 40
 893 019c 1C4B     		ldr	r3, .L41+28
 894 019e 4FF40032 		mov	r2, #131072
 895 01a2 1A62     		str	r2, [r3, #32]
 398:Drivers/BSP/STM32F429I-Discovery/stm32f429i_discovery_sdram.c ****     dmaHandle.Init.FIFOMode            = DMA_FIFOMODE_DISABLE;
 896              		.loc 1 398 40
 897 01a4 1A4B     		ldr	r3, .L41+28
 898 01a6 0022     		movs	r2, #0
 899 01a8 5A62     		str	r2, [r3, #36]
 399:Drivers/BSP/STM32F429I-Discovery/stm32f429i_discovery_sdram.c ****     dmaHandle.Init.FIFOThreshold       = DMA_FIFO_THRESHOLD_FULL;
 900              		.loc 1 399 40
 901 01aa 194B     		ldr	r3, .L41+28
 902 01ac 0322     		movs	r2, #3
 903 01ae 9A62     		str	r2, [r3, #40]
 400:Drivers/BSP/STM32F429I-Discovery/stm32f429i_discovery_sdram.c ****     dmaHandle.Init.MemBurst            = DMA_MBURST_SINGLE;
 904              		.loc 1 400 40
 905 01b0 174B     		ldr	r3, .L41+28
 906 01b2 0022     		movs	r2, #0
 907 01b4 DA62     		str	r2, [r3, #44]
 401:Drivers/BSP/STM32F429I-Discovery/stm32f429i_discovery_sdram.c ****     dmaHandle.Init.PeriphBurst         = DMA_PBURST_SINGLE;
 908              		.loc 1 401 40
 909 01b6 164B     		ldr	r3, .L41+28
 910 01b8 0022     		movs	r2, #0
 911 01ba 1A63     		str	r2, [r3, #48]
 402:Drivers/BSP/STM32F429I-Discovery/stm32f429i_discovery_sdram.c **** 
 403:Drivers/BSP/STM32F429I-Discovery/stm32f429i_discovery_sdram.c ****     dmaHandle.Instance = SDRAM_DMAx_STREAM;
 912              		.loc 1 403 24
 913 01bc 144B     		ldr	r3, .L41+28
 914 01be 154A     		ldr	r2, .L41+32
 915 01c0 1A60     		str	r2, [r3]
 404:Drivers/BSP/STM32F429I-Discovery/stm32f429i_discovery_sdram.c **** 
 405:Drivers/BSP/STM32F429I-Discovery/stm32f429i_discovery_sdram.c ****     /* Associate the DMA handle */
 406:Drivers/BSP/STM32F429I-Discovery/stm32f429i_discovery_sdram.c ****     __HAL_LINKDMA(hsdram, hdma, dmaHandle);
 916              		.loc 1 406 5
 917 01c2 7B68     		ldr	r3, [r7, #4]
ARM GAS  /var/folders/06/9k7gq4t13mj84z2yhw3grvhc0000gn/T//ccCNHW7p.s 			page 24


 918 01c4 124A     		ldr	r2, .L41+28
 919 01c6 1A63     		str	r2, [r3, #48]
 920 01c8 114A     		ldr	r2, .L41+28
 921 01ca 7B68     		ldr	r3, [r7, #4]
 922 01cc 9363     		str	r3, [r2, #56]
 407:Drivers/BSP/STM32F429I-Discovery/stm32f429i_discovery_sdram.c **** 
 408:Drivers/BSP/STM32F429I-Discovery/stm32f429i_discovery_sdram.c ****     /* Deinitialize the stream for new transfer */
 409:Drivers/BSP/STM32F429I-Discovery/stm32f429i_discovery_sdram.c ****     HAL_DMA_DeInit(&dmaHandle);
 923              		.loc 1 409 5
 924 01ce 1048     		ldr	r0, .L41+28
 925 01d0 FFF7FEFF 		bl	HAL_DMA_DeInit
 410:Drivers/BSP/STM32F429I-Discovery/stm32f429i_discovery_sdram.c **** 
 411:Drivers/BSP/STM32F429I-Discovery/stm32f429i_discovery_sdram.c ****     /* Configure the DMA stream */
 412:Drivers/BSP/STM32F429I-Discovery/stm32f429i_discovery_sdram.c ****     HAL_DMA_Init(&dmaHandle);
 926              		.loc 1 412 5
 927 01d4 0E48     		ldr	r0, .L41+28
 928 01d6 FFF7FEFF 		bl	HAL_DMA_Init
 413:Drivers/BSP/STM32F429I-Discovery/stm32f429i_discovery_sdram.c **** 
 414:Drivers/BSP/STM32F429I-Discovery/stm32f429i_discovery_sdram.c ****     /* NVIC configuration for DMA transfer complete interrupt */
 415:Drivers/BSP/STM32F429I-Discovery/stm32f429i_discovery_sdram.c ****     HAL_NVIC_SetPriority(SDRAM_DMAx_IRQn, 0x0F, 0);
 929              		.loc 1 415 5
 930 01da 0022     		movs	r2, #0
 931 01dc 0F21     		movs	r1, #15
 932 01de 3820     		movs	r0, #56
 933 01e0 FFF7FEFF 		bl	HAL_NVIC_SetPriority
 416:Drivers/BSP/STM32F429I-Discovery/stm32f429i_discovery_sdram.c ****     HAL_NVIC_EnableIRQ(SDRAM_DMAx_IRQn);
 934              		.loc 1 416 5
 935 01e4 3820     		movs	r0, #56
 936 01e6 FFF7FEFF 		bl	HAL_NVIC_EnableIRQ
 937              	.L40:
 417:Drivers/BSP/STM32F429I-Discovery/stm32f429i_discovery_sdram.c ****   } /* of if(hsdram != (SDRAM_HandleTypeDef  *)NULL) */
 418:Drivers/BSP/STM32F429I-Discovery/stm32f429i_discovery_sdram.c **** }
 938              		.loc 1 418 1
 939 01ea 00BF     		nop
 940 01ec 4037     		adds	r7, r7, #64
 941              	.LCFI37:
 942              		.cfi_def_cfa_offset 8
 943 01ee BD46     		mov	sp, r7
 944              	.LCFI38:
 945              		.cfi_def_cfa_register 13
 946              		@ sp needed
 947 01f0 80BD     		pop	{r7, pc}
 948              	.L42:
 949 01f2 00BF     		.align	2
 950              	.L41:
 951 01f4 00380240 		.word	1073887232
 952 01f8 00040240 		.word	1073873920
 953 01fc 00080240 		.word	1073874944
 954 0200 000C0240 		.word	1073875968
 955 0204 00100240 		.word	1073876992
 956 0208 00140240 		.word	1073878016
 957 020c 00180240 		.word	1073879040
 958 0210 00000000 		.word	dmaHandle.1
 959 0214 10640240 		.word	1073898512
 960              		.cfi_endproc
 961              	.LFE142:
 963              		.section	.text.BSP_SDRAM_MspDeInit,"ax",%progbits
ARM GAS  /var/folders/06/9k7gq4t13mj84z2yhw3grvhc0000gn/T//ccCNHW7p.s 			page 25


 964              		.align	1
 965              		.weak	BSP_SDRAM_MspDeInit
 966              		.syntax unified
 967              		.thumb
 968              		.thumb_func
 970              	BSP_SDRAM_MspDeInit:
 971              	.LFB143:
 419:Drivers/BSP/STM32F429I-Discovery/stm32f429i_discovery_sdram.c **** 
 420:Drivers/BSP/STM32F429I-Discovery/stm32f429i_discovery_sdram.c **** /**
 421:Drivers/BSP/STM32F429I-Discovery/stm32f429i_discovery_sdram.c ****   * @brief  DeInitializes SDRAM MSP.
 422:Drivers/BSP/STM32F429I-Discovery/stm32f429i_discovery_sdram.c ****   * @note   This function can be surcharged by application code.
 423:Drivers/BSP/STM32F429I-Discovery/stm32f429i_discovery_sdram.c ****   * @param  hsdram: pointer on SDRAM handle
 424:Drivers/BSP/STM32F429I-Discovery/stm32f429i_discovery_sdram.c ****   * @param  Params: pointer on additional configuration parameters, can be NULL.
 425:Drivers/BSP/STM32F429I-Discovery/stm32f429i_discovery_sdram.c ****   */
 426:Drivers/BSP/STM32F429I-Discovery/stm32f429i_discovery_sdram.c **** __weak void BSP_SDRAM_MspDeInit(SDRAM_HandleTypeDef  *hsdram, void *Params)
 427:Drivers/BSP/STM32F429I-Discovery/stm32f429i_discovery_sdram.c **** {
 972              		.loc 1 427 1
 973              		.cfi_startproc
 974              		@ args = 0, pretend = 0, frame = 8
 975              		@ frame_needed = 1, uses_anonymous_args = 0
 976 0000 80B5     		push	{r7, lr}
 977              	.LCFI39:
 978              		.cfi_def_cfa_offset 8
 979              		.cfi_offset 7, -8
 980              		.cfi_offset 14, -4
 981 0002 82B0     		sub	sp, sp, #8
 982              	.LCFI40:
 983              		.cfi_def_cfa_offset 16
 984 0004 00AF     		add	r7, sp, #0
 985              	.LCFI41:
 986              		.cfi_def_cfa_register 7
 987 0006 7860     		str	r0, [r7, #4]
 988 0008 3960     		str	r1, [r7]
 428:Drivers/BSP/STM32F429I-Discovery/stm32f429i_discovery_sdram.c ****   static DMA_HandleTypeDef dma_handle;
 429:Drivers/BSP/STM32F429I-Discovery/stm32f429i_discovery_sdram.c **** 
 430:Drivers/BSP/STM32F429I-Discovery/stm32f429i_discovery_sdram.c ****   if (hsdram != (SDRAM_HandleTypeDef *)NULL)
 989              		.loc 1 430 6
 990 000a 7B68     		ldr	r3, [r7, #4]
 991 000c 002B     		cmp	r3, #0
 992 000e 08D0     		beq	.L45
 431:Drivers/BSP/STM32F429I-Discovery/stm32f429i_discovery_sdram.c ****   {
 432:Drivers/BSP/STM32F429I-Discovery/stm32f429i_discovery_sdram.c ****     /* Disable NVIC configuration for DMA interrupt */
 433:Drivers/BSP/STM32F429I-Discovery/stm32f429i_discovery_sdram.c ****     HAL_NVIC_DisableIRQ(SDRAM_DMAx_IRQn);
 993              		.loc 1 433 5
 994 0010 3820     		movs	r0, #56
 995 0012 FFF7FEFF 		bl	HAL_NVIC_DisableIRQ
 434:Drivers/BSP/STM32F429I-Discovery/stm32f429i_discovery_sdram.c **** 
 435:Drivers/BSP/STM32F429I-Discovery/stm32f429i_discovery_sdram.c ****     /* Deinitialize the stream for new transfer */
 436:Drivers/BSP/STM32F429I-Discovery/stm32f429i_discovery_sdram.c ****     dma_handle.Instance = SDRAM_DMAx_STREAM;
 996              		.loc 1 436 25
 997 0016 054B     		ldr	r3, .L46
 998 0018 054A     		ldr	r2, .L46+4
 999 001a 1A60     		str	r2, [r3]
 437:Drivers/BSP/STM32F429I-Discovery/stm32f429i_discovery_sdram.c ****     HAL_DMA_DeInit(&dma_handle);
 1000              		.loc 1 437 5
 1001 001c 0348     		ldr	r0, .L46
 1002 001e FFF7FEFF 		bl	HAL_DMA_DeInit
ARM GAS  /var/folders/06/9k7gq4t13mj84z2yhw3grvhc0000gn/T//ccCNHW7p.s 			page 26


 1003              	.L45:
 438:Drivers/BSP/STM32F429I-Discovery/stm32f429i_discovery_sdram.c **** 
 439:Drivers/BSP/STM32F429I-Discovery/stm32f429i_discovery_sdram.c ****     /* DeInit GPIO pins can be done in the application
 440:Drivers/BSP/STM32F429I-Discovery/stm32f429i_discovery_sdram.c ****      (by surcharging this __weak function) */
 441:Drivers/BSP/STM32F429I-Discovery/stm32f429i_discovery_sdram.c **** 
 442:Drivers/BSP/STM32F429I-Discovery/stm32f429i_discovery_sdram.c ****     /* GPIO pins clock, FMC clock and DMA clock can be shut down in the application
 443:Drivers/BSP/STM32F429I-Discovery/stm32f429i_discovery_sdram.c ****      by surcharging this __weak function */
 444:Drivers/BSP/STM32F429I-Discovery/stm32f429i_discovery_sdram.c **** 
 445:Drivers/BSP/STM32F429I-Discovery/stm32f429i_discovery_sdram.c ****   } /* of if(hsdram != (SDRAM_HandleTypeDef  *)NULL) */
 446:Drivers/BSP/STM32F429I-Discovery/stm32f429i_discovery_sdram.c **** }
 1004              		.loc 1 446 1
 1005 0022 00BF     		nop
 1006 0024 0837     		adds	r7, r7, #8
 1007              	.LCFI42:
 1008              		.cfi_def_cfa_offset 8
 1009 0026 BD46     		mov	sp, r7
 1010              	.LCFI43:
 1011              		.cfi_def_cfa_register 13
 1012              		@ sp needed
 1013 0028 80BD     		pop	{r7, pc}
 1014              	.L47:
 1015 002a 00BF     		.align	2
 1016              	.L46:
 1017 002c 00000000 		.word	dma_handle.0
 1018 0030 10640240 		.word	1073898512
 1019              		.cfi_endproc
 1020              	.LFE143:
 1022              		.section	.data.sdramstatus.2,"aw"
 1025              	sdramstatus.2:
 1026 0000 01       		.byte	1
 1027              		.section	.bss.dmaHandle.1,"aw",%nobits
 1028              		.align	2
 1031              	dmaHandle.1:
 1032 0000 00000000 		.space	96
 1032      00000000 
 1032      00000000 
 1032      00000000 
 1032      00000000 
 1033              		.section	.bss.dma_handle.0,"aw",%nobits
 1034              		.align	2
 1037              	dma_handle.0:
 1038 0000 00000000 		.space	96
 1038      00000000 
 1038      00000000 
 1038      00000000 
 1038      00000000 
 1039              		.text
 1040              	.Letext0:
 1041              		.file 2 "Drivers/CMSIS/Device/ST/STM32F4xx/Include/stm32f429xx.h"
 1042              		.file 3 "/Applications/ArmGNUToolchain/13.2.Rel1/arm-none-eabi/arm-none-eabi/include/machine/_defa
 1043              		.file 4 "/Applications/ArmGNUToolchain/13.2.Rel1/arm-none-eabi/arm-none-eabi/include/sys/_stdint.h
 1044              		.file 5 "Drivers/STM32F4xx_HAL_Driver/Inc/stm32f4xx_hal_def.h"
 1045              		.file 6 "Drivers/STM32F4xx_HAL_Driver/Inc/stm32f4xx_hal_gpio.h"
 1046              		.file 7 "Drivers/STM32F4xx_HAL_Driver/Inc/stm32f4xx_hal_dma.h"
 1047              		.file 8 "Drivers/STM32F4xx_HAL_Driver/Inc/stm32f4xx_ll_fmc.h"
 1048              		.file 9 "Drivers/STM32F4xx_HAL_Driver/Inc/stm32f4xx_hal_sdram.h"
 1049              		.file 10 "Drivers/STM32F4xx_HAL_Driver/Inc/stm32f4xx_hal_cortex.h"
ARM GAS  /var/folders/06/9k7gq4t13mj84z2yhw3grvhc0000gn/T//ccCNHW7p.s 			page 27


 1050              		.file 11 "Drivers/STM32F4xx_HAL_Driver/Inc/stm32f4xx_hal.h"
ARM GAS  /var/folders/06/9k7gq4t13mj84z2yhw3grvhc0000gn/T//ccCNHW7p.s 			page 28

