ARM GAS  /var/folders/06/9k7gq4t13mj84z2yhw3grvhc0000gn/T//ccuiTnhW.s 			page 1


   1              		.cpu cortex-m4
   2              		.arch armv7e-m
   3              		.fpu fpv4-sp-d16
   4              		.eabi_attribute 27, 1
   5              		.eabi_attribute 28, 1
   6              		.eabi_attribute 20, 1
   7              		.eabi_attribute 21, 1
   8              		.eabi_attribute 23, 3
   9              		.eabi_attribute 24, 1
  10              		.eabi_attribute 25, 1
  11              		.eabi_attribute 26, 1
  12              		.eabi_attribute 30, 6
  13              		.eabi_attribute 34, 1
  14              		.eabi_attribute 18, 4
  15              		.file	"stm32f4xx_hal_ltdc.c"
  16              		.text
  17              	.Ltext0:
  18              		.cfi_sections	.debug_frame
  19              		.file 1 "Drivers/STM32F4xx_HAL_Driver/Src/stm32f4xx_hal_ltdc.c"
  20              		.section	.text.HAL_LTDC_Init,"ax",%progbits
  21              		.align	1
  22              		.global	HAL_LTDC_Init
  23              		.syntax unified
  24              		.thumb
  25              		.thumb_func
  27              	HAL_LTDC_Init:
  28              	.LFB134:
   1:Drivers/STM32F4xx_HAL_Driver/Src/stm32f4xx_hal_ltdc.c **** /**
   2:Drivers/STM32F4xx_HAL_Driver/Src/stm32f4xx_hal_ltdc.c ****   ******************************************************************************
   3:Drivers/STM32F4xx_HAL_Driver/Src/stm32f4xx_hal_ltdc.c ****   * @file    stm32f4xx_hal_ltdc.c
   4:Drivers/STM32F4xx_HAL_Driver/Src/stm32f4xx_hal_ltdc.c ****   * @author  MCD Application Team
   5:Drivers/STM32F4xx_HAL_Driver/Src/stm32f4xx_hal_ltdc.c ****   * @brief   LTDC HAL module driver.
   6:Drivers/STM32F4xx_HAL_Driver/Src/stm32f4xx_hal_ltdc.c ****   *          This file provides firmware functions to manage the following
   7:Drivers/STM32F4xx_HAL_Driver/Src/stm32f4xx_hal_ltdc.c ****   *          functionalities of the LTDC peripheral:
   8:Drivers/STM32F4xx_HAL_Driver/Src/stm32f4xx_hal_ltdc.c ****   *           + Initialization and de-initialization functions
   9:Drivers/STM32F4xx_HAL_Driver/Src/stm32f4xx_hal_ltdc.c ****   *           + IO operation functions
  10:Drivers/STM32F4xx_HAL_Driver/Src/stm32f4xx_hal_ltdc.c ****   *           + Peripheral Control functions
  11:Drivers/STM32F4xx_HAL_Driver/Src/stm32f4xx_hal_ltdc.c ****   *           + Peripheral State and Errors functions
  12:Drivers/STM32F4xx_HAL_Driver/Src/stm32f4xx_hal_ltdc.c ****   *
  13:Drivers/STM32F4xx_HAL_Driver/Src/stm32f4xx_hal_ltdc.c ****   ******************************************************************************
  14:Drivers/STM32F4xx_HAL_Driver/Src/stm32f4xx_hal_ltdc.c ****   * @attention
  15:Drivers/STM32F4xx_HAL_Driver/Src/stm32f4xx_hal_ltdc.c ****   *
  16:Drivers/STM32F4xx_HAL_Driver/Src/stm32f4xx_hal_ltdc.c ****   * Copyright (c) 2016 STMicroelectronics.
  17:Drivers/STM32F4xx_HAL_Driver/Src/stm32f4xx_hal_ltdc.c ****   * All rights reserved.
  18:Drivers/STM32F4xx_HAL_Driver/Src/stm32f4xx_hal_ltdc.c ****   *
  19:Drivers/STM32F4xx_HAL_Driver/Src/stm32f4xx_hal_ltdc.c ****   * This software is licensed under terms that can be found in the LICENSE file
  20:Drivers/STM32F4xx_HAL_Driver/Src/stm32f4xx_hal_ltdc.c ****   * in the root directory of this software component.
  21:Drivers/STM32F4xx_HAL_Driver/Src/stm32f4xx_hal_ltdc.c ****   * If no LICENSE file comes with this software, it is provided AS-IS.
  22:Drivers/STM32F4xx_HAL_Driver/Src/stm32f4xx_hal_ltdc.c ****   *
  23:Drivers/STM32F4xx_HAL_Driver/Src/stm32f4xx_hal_ltdc.c ****   ******************************************************************************
  24:Drivers/STM32F4xx_HAL_Driver/Src/stm32f4xx_hal_ltdc.c ****   @verbatim
  25:Drivers/STM32F4xx_HAL_Driver/Src/stm32f4xx_hal_ltdc.c ****   ==============================================================================
  26:Drivers/STM32F4xx_HAL_Driver/Src/stm32f4xx_hal_ltdc.c ****                         ##### How to use this driver #####
  27:Drivers/STM32F4xx_HAL_Driver/Src/stm32f4xx_hal_ltdc.c ****   ==============================================================================
  28:Drivers/STM32F4xx_HAL_Driver/Src/stm32f4xx_hal_ltdc.c ****      [..]
  29:Drivers/STM32F4xx_HAL_Driver/Src/stm32f4xx_hal_ltdc.c ****      The LTDC HAL driver can be used as follows:
  30:Drivers/STM32F4xx_HAL_Driver/Src/stm32f4xx_hal_ltdc.c **** 
ARM GAS  /var/folders/06/9k7gq4t13mj84z2yhw3grvhc0000gn/T//ccuiTnhW.s 			page 2


  31:Drivers/STM32F4xx_HAL_Driver/Src/stm32f4xx_hal_ltdc.c ****      (#) Declare a LTDC_HandleTypeDef handle structure, for example: LTDC_HandleTypeDef  hltdc;
  32:Drivers/STM32F4xx_HAL_Driver/Src/stm32f4xx_hal_ltdc.c **** 
  33:Drivers/STM32F4xx_HAL_Driver/Src/stm32f4xx_hal_ltdc.c ****      (#) Initialize the LTDC low level resources by implementing the HAL_LTDC_MspInit() API:
  34:Drivers/STM32F4xx_HAL_Driver/Src/stm32f4xx_hal_ltdc.c ****          (##) Enable the LTDC interface clock
  35:Drivers/STM32F4xx_HAL_Driver/Src/stm32f4xx_hal_ltdc.c ****          (##) NVIC configuration if you need to use interrupt process
  36:Drivers/STM32F4xx_HAL_Driver/Src/stm32f4xx_hal_ltdc.c ****              (+++) Configure the LTDC interrupt priority
  37:Drivers/STM32F4xx_HAL_Driver/Src/stm32f4xx_hal_ltdc.c ****              (+++) Enable the NVIC LTDC IRQ Channel
  38:Drivers/STM32F4xx_HAL_Driver/Src/stm32f4xx_hal_ltdc.c **** 
  39:Drivers/STM32F4xx_HAL_Driver/Src/stm32f4xx_hal_ltdc.c ****      (#) Initialize the required configuration through the following parameters:
  40:Drivers/STM32F4xx_HAL_Driver/Src/stm32f4xx_hal_ltdc.c ****          the LTDC timing, the horizontal and vertical polarity, the pixel clock polarity,
  41:Drivers/STM32F4xx_HAL_Driver/Src/stm32f4xx_hal_ltdc.c ****          Data Enable polarity and the LTDC background color value using HAL_LTDC_Init() function
  42:Drivers/STM32F4xx_HAL_Driver/Src/stm32f4xx_hal_ltdc.c **** 
  43:Drivers/STM32F4xx_HAL_Driver/Src/stm32f4xx_hal_ltdc.c ****      *** Configuration ***
  44:Drivers/STM32F4xx_HAL_Driver/Src/stm32f4xx_hal_ltdc.c ****      =========================
  45:Drivers/STM32F4xx_HAL_Driver/Src/stm32f4xx_hal_ltdc.c ****      [..]
  46:Drivers/STM32F4xx_HAL_Driver/Src/stm32f4xx_hal_ltdc.c ****      (#) Program the required configuration through the following parameters:
  47:Drivers/STM32F4xx_HAL_Driver/Src/stm32f4xx_hal_ltdc.c ****          the pixel format, the blending factors, input alpha value, the window size
  48:Drivers/STM32F4xx_HAL_Driver/Src/stm32f4xx_hal_ltdc.c ****          and the image size using HAL_LTDC_ConfigLayer() function for foreground
  49:Drivers/STM32F4xx_HAL_Driver/Src/stm32f4xx_hal_ltdc.c ****          or/and background layer.
  50:Drivers/STM32F4xx_HAL_Driver/Src/stm32f4xx_hal_ltdc.c **** 
  51:Drivers/STM32F4xx_HAL_Driver/Src/stm32f4xx_hal_ltdc.c ****      (#) Optionally, configure and enable the CLUT using HAL_LTDC_ConfigCLUT() and
  52:Drivers/STM32F4xx_HAL_Driver/Src/stm32f4xx_hal_ltdc.c ****          HAL_LTDC_EnableCLUT functions.
  53:Drivers/STM32F4xx_HAL_Driver/Src/stm32f4xx_hal_ltdc.c **** 
  54:Drivers/STM32F4xx_HAL_Driver/Src/stm32f4xx_hal_ltdc.c ****      (#) Optionally, enable the Dither using HAL_LTDC_EnableDither().
  55:Drivers/STM32F4xx_HAL_Driver/Src/stm32f4xx_hal_ltdc.c **** 
  56:Drivers/STM32F4xx_HAL_Driver/Src/stm32f4xx_hal_ltdc.c ****      (#) Optionally, configure and enable the Color keying using HAL_LTDC_ConfigColorKeying()
  57:Drivers/STM32F4xx_HAL_Driver/Src/stm32f4xx_hal_ltdc.c ****          and HAL_LTDC_EnableColorKeying functions.
  58:Drivers/STM32F4xx_HAL_Driver/Src/stm32f4xx_hal_ltdc.c **** 
  59:Drivers/STM32F4xx_HAL_Driver/Src/stm32f4xx_hal_ltdc.c ****      (#) Optionally, configure LineInterrupt using HAL_LTDC_ProgramLineEvent()
  60:Drivers/STM32F4xx_HAL_Driver/Src/stm32f4xx_hal_ltdc.c ****          function
  61:Drivers/STM32F4xx_HAL_Driver/Src/stm32f4xx_hal_ltdc.c **** 
  62:Drivers/STM32F4xx_HAL_Driver/Src/stm32f4xx_hal_ltdc.c ****      (#) If needed, reconfigure and change the pixel format value, the alpha value
  63:Drivers/STM32F4xx_HAL_Driver/Src/stm32f4xx_hal_ltdc.c ****          value, the window size, the window position and the layer start address
  64:Drivers/STM32F4xx_HAL_Driver/Src/stm32f4xx_hal_ltdc.c ****          for foreground or/and background layer using respectively the following
  65:Drivers/STM32F4xx_HAL_Driver/Src/stm32f4xx_hal_ltdc.c ****          functions: HAL_LTDC_SetPixelFormat(), HAL_LTDC_SetAlpha(), HAL_LTDC_SetWindowSize(),
  66:Drivers/STM32F4xx_HAL_Driver/Src/stm32f4xx_hal_ltdc.c ****          HAL_LTDC_SetWindowPosition() and HAL_LTDC_SetAddress().
  67:Drivers/STM32F4xx_HAL_Driver/Src/stm32f4xx_hal_ltdc.c **** 
  68:Drivers/STM32F4xx_HAL_Driver/Src/stm32f4xx_hal_ltdc.c ****      (#) Variant functions with _NoReload suffix allows to set the LTDC configuration/settings with
  69:Drivers/STM32F4xx_HAL_Driver/Src/stm32f4xx_hal_ltdc.c ****          This is useful in case when the program requires to modify serval LTDC settings (on one or
  70:Drivers/STM32F4xx_HAL_Driver/Src/stm32f4xx_hal_ltdc.c ****          then applying(reload) these settings in one shot by calling the function HAL_LTDC_Reload()
  71:Drivers/STM32F4xx_HAL_Driver/Src/stm32f4xx_hal_ltdc.c **** 
  72:Drivers/STM32F4xx_HAL_Driver/Src/stm32f4xx_hal_ltdc.c ****          After calling the _NoReload functions to set different color/format/layer settings,
  73:Drivers/STM32F4xx_HAL_Driver/Src/stm32f4xx_hal_ltdc.c ****          the program shall call the function HAL_LTDC_Reload() to apply(reload) these settings.
  74:Drivers/STM32F4xx_HAL_Driver/Src/stm32f4xx_hal_ltdc.c ****          Function HAL_LTDC_Reload() can be called with the parameter ReloadType set to LTDC_RELOAD_
  75:Drivers/STM32F4xx_HAL_Driver/Src/stm32f4xx_hal_ltdc.c ****          an immediate reload is required.
  76:Drivers/STM32F4xx_HAL_Driver/Src/stm32f4xx_hal_ltdc.c ****          Function HAL_LTDC_Reload() can be called with the parameter ReloadType set to LTDC_RELOAD_
  77:Drivers/STM32F4xx_HAL_Driver/Src/stm32f4xx_hal_ltdc.c ****          the reload should be done in the next vertical blanking period,
  78:Drivers/STM32F4xx_HAL_Driver/Src/stm32f4xx_hal_ltdc.c ****          this option allows to avoid display flicker by applying the new settings during the vertic
  79:Drivers/STM32F4xx_HAL_Driver/Src/stm32f4xx_hal_ltdc.c **** 
  80:Drivers/STM32F4xx_HAL_Driver/Src/stm32f4xx_hal_ltdc.c **** 
  81:Drivers/STM32F4xx_HAL_Driver/Src/stm32f4xx_hal_ltdc.c ****      (#) To control LTDC state you can use the following function: HAL_LTDC_GetState()
  82:Drivers/STM32F4xx_HAL_Driver/Src/stm32f4xx_hal_ltdc.c **** 
  83:Drivers/STM32F4xx_HAL_Driver/Src/stm32f4xx_hal_ltdc.c ****      *** LTDC HAL driver macros list ***
  84:Drivers/STM32F4xx_HAL_Driver/Src/stm32f4xx_hal_ltdc.c ****      =============================================
  85:Drivers/STM32F4xx_HAL_Driver/Src/stm32f4xx_hal_ltdc.c ****      [..]
  86:Drivers/STM32F4xx_HAL_Driver/Src/stm32f4xx_hal_ltdc.c ****        Below the list of most used macros in LTDC HAL driver.
  87:Drivers/STM32F4xx_HAL_Driver/Src/stm32f4xx_hal_ltdc.c **** 
ARM GAS  /var/folders/06/9k7gq4t13mj84z2yhw3grvhc0000gn/T//ccuiTnhW.s 			page 3


  88:Drivers/STM32F4xx_HAL_Driver/Src/stm32f4xx_hal_ltdc.c ****       (+) __HAL_LTDC_ENABLE: Enable the LTDC.
  89:Drivers/STM32F4xx_HAL_Driver/Src/stm32f4xx_hal_ltdc.c ****       (+) __HAL_LTDC_DISABLE: Disable the LTDC.
  90:Drivers/STM32F4xx_HAL_Driver/Src/stm32f4xx_hal_ltdc.c ****       (+) __HAL_LTDC_LAYER_ENABLE: Enable an LTDC Layer.
  91:Drivers/STM32F4xx_HAL_Driver/Src/stm32f4xx_hal_ltdc.c ****       (+) __HAL_LTDC_LAYER_DISABLE: Disable an LTDC Layer.
  92:Drivers/STM32F4xx_HAL_Driver/Src/stm32f4xx_hal_ltdc.c ****       (+) __HAL_LTDC_RELOAD_IMMEDIATE_CONFIG: Reload  Layer Configuration.
  93:Drivers/STM32F4xx_HAL_Driver/Src/stm32f4xx_hal_ltdc.c ****       (+) __HAL_LTDC_GET_FLAG: Get the LTDC pending flags.
  94:Drivers/STM32F4xx_HAL_Driver/Src/stm32f4xx_hal_ltdc.c ****       (+) __HAL_LTDC_CLEAR_FLAG: Clear the LTDC pending flags.
  95:Drivers/STM32F4xx_HAL_Driver/Src/stm32f4xx_hal_ltdc.c ****       (+) __HAL_LTDC_ENABLE_IT: Enable the specified LTDC interrupts.
  96:Drivers/STM32F4xx_HAL_Driver/Src/stm32f4xx_hal_ltdc.c ****       (+) __HAL_LTDC_DISABLE_IT: Disable the specified LTDC interrupts.
  97:Drivers/STM32F4xx_HAL_Driver/Src/stm32f4xx_hal_ltdc.c ****       (+) __HAL_LTDC_GET_IT_SOURCE: Check whether the specified LTDC interrupt has occurred or not.
  98:Drivers/STM32F4xx_HAL_Driver/Src/stm32f4xx_hal_ltdc.c **** 
  99:Drivers/STM32F4xx_HAL_Driver/Src/stm32f4xx_hal_ltdc.c ****      [..]
 100:Drivers/STM32F4xx_HAL_Driver/Src/stm32f4xx_hal_ltdc.c ****        (@) You can refer to the LTDC HAL driver header file for more useful macros
 101:Drivers/STM32F4xx_HAL_Driver/Src/stm32f4xx_hal_ltdc.c **** 
 102:Drivers/STM32F4xx_HAL_Driver/Src/stm32f4xx_hal_ltdc.c **** 
 103:Drivers/STM32F4xx_HAL_Driver/Src/stm32f4xx_hal_ltdc.c ****      *** Callback registration ***
 104:Drivers/STM32F4xx_HAL_Driver/Src/stm32f4xx_hal_ltdc.c ****      =============================================
 105:Drivers/STM32F4xx_HAL_Driver/Src/stm32f4xx_hal_ltdc.c ****      [..]
 106:Drivers/STM32F4xx_HAL_Driver/Src/stm32f4xx_hal_ltdc.c ****      The compilation define  USE_HAL_LTDC_REGISTER_CALLBACKS when set to 1
 107:Drivers/STM32F4xx_HAL_Driver/Src/stm32f4xx_hal_ltdc.c ****      allows the user to configure dynamically the driver callbacks.
 108:Drivers/STM32F4xx_HAL_Driver/Src/stm32f4xx_hal_ltdc.c ****      Use function HAL_LTDC_RegisterCallback() to register a callback.
 109:Drivers/STM32F4xx_HAL_Driver/Src/stm32f4xx_hal_ltdc.c **** 
 110:Drivers/STM32F4xx_HAL_Driver/Src/stm32f4xx_hal_ltdc.c ****     [..]
 111:Drivers/STM32F4xx_HAL_Driver/Src/stm32f4xx_hal_ltdc.c ****     Function HAL_LTDC_RegisterCallback() allows to register following callbacks:
 112:Drivers/STM32F4xx_HAL_Driver/Src/stm32f4xx_hal_ltdc.c ****       (+) LineEventCallback   : LTDC Line Event Callback.
 113:Drivers/STM32F4xx_HAL_Driver/Src/stm32f4xx_hal_ltdc.c ****       (+) ReloadEventCallback : LTDC Reload Event Callback.
 114:Drivers/STM32F4xx_HAL_Driver/Src/stm32f4xx_hal_ltdc.c ****       (+) ErrorCallback       : LTDC Error Callback
 115:Drivers/STM32F4xx_HAL_Driver/Src/stm32f4xx_hal_ltdc.c ****       (+) MspInitCallback     : LTDC MspInit.
 116:Drivers/STM32F4xx_HAL_Driver/Src/stm32f4xx_hal_ltdc.c ****       (+) MspDeInitCallback   : LTDC MspDeInit.
 117:Drivers/STM32F4xx_HAL_Driver/Src/stm32f4xx_hal_ltdc.c ****     [..]
 118:Drivers/STM32F4xx_HAL_Driver/Src/stm32f4xx_hal_ltdc.c ****     This function takes as parameters the HAL peripheral handle, the callback ID
 119:Drivers/STM32F4xx_HAL_Driver/Src/stm32f4xx_hal_ltdc.c ****     and a pointer to the user callback function.
 120:Drivers/STM32F4xx_HAL_Driver/Src/stm32f4xx_hal_ltdc.c **** 
 121:Drivers/STM32F4xx_HAL_Driver/Src/stm32f4xx_hal_ltdc.c ****     [..]
 122:Drivers/STM32F4xx_HAL_Driver/Src/stm32f4xx_hal_ltdc.c ****     Use function HAL_LTDC_UnRegisterCallback() to reset a callback to the default
 123:Drivers/STM32F4xx_HAL_Driver/Src/stm32f4xx_hal_ltdc.c ****     weak function.
 124:Drivers/STM32F4xx_HAL_Driver/Src/stm32f4xx_hal_ltdc.c ****     HAL_LTDC_UnRegisterCallback() takes as parameters the HAL peripheral handle
 125:Drivers/STM32F4xx_HAL_Driver/Src/stm32f4xx_hal_ltdc.c ****     and the callback ID.
 126:Drivers/STM32F4xx_HAL_Driver/Src/stm32f4xx_hal_ltdc.c ****     [..]
 127:Drivers/STM32F4xx_HAL_Driver/Src/stm32f4xx_hal_ltdc.c ****     This function allows to reset following callbacks:
 128:Drivers/STM32F4xx_HAL_Driver/Src/stm32f4xx_hal_ltdc.c ****       (+) LineEventCallback   : LTDC Line Event Callback
 129:Drivers/STM32F4xx_HAL_Driver/Src/stm32f4xx_hal_ltdc.c ****       (+) ReloadEventCallback : LTDC Reload Event Callback
 130:Drivers/STM32F4xx_HAL_Driver/Src/stm32f4xx_hal_ltdc.c ****       (+) ErrorCallback       : LTDC Error Callback
 131:Drivers/STM32F4xx_HAL_Driver/Src/stm32f4xx_hal_ltdc.c ****       (+) MspInitCallback     : LTDC MspInit
 132:Drivers/STM32F4xx_HAL_Driver/Src/stm32f4xx_hal_ltdc.c ****       (+) MspDeInitCallback   : LTDC MspDeInit.
 133:Drivers/STM32F4xx_HAL_Driver/Src/stm32f4xx_hal_ltdc.c **** 
 134:Drivers/STM32F4xx_HAL_Driver/Src/stm32f4xx_hal_ltdc.c ****     [..]
 135:Drivers/STM32F4xx_HAL_Driver/Src/stm32f4xx_hal_ltdc.c ****     By default, after the HAL_LTDC_Init and when the state is HAL_LTDC_STATE_RESET
 136:Drivers/STM32F4xx_HAL_Driver/Src/stm32f4xx_hal_ltdc.c ****     all callbacks are set to the corresponding weak functions:
 137:Drivers/STM32F4xx_HAL_Driver/Src/stm32f4xx_hal_ltdc.c ****     examples HAL_LTDC_LineEventCallback(), HAL_LTDC_ErrorCallback().
 138:Drivers/STM32F4xx_HAL_Driver/Src/stm32f4xx_hal_ltdc.c ****     Exception done for MspInit and MspDeInit functions that are
 139:Drivers/STM32F4xx_HAL_Driver/Src/stm32f4xx_hal_ltdc.c ****     reset to the legacy weak (surcharged) functions in the HAL_LTDC_Init() and HAL_LTDC_DeInit()
 140:Drivers/STM32F4xx_HAL_Driver/Src/stm32f4xx_hal_ltdc.c ****     only when these callbacks are null (not registered beforehand).
 141:Drivers/STM32F4xx_HAL_Driver/Src/stm32f4xx_hal_ltdc.c ****     If not, MspInit or MspDeInit are not null, the HAL_LTDC_Init() and HAL_LTDC_DeInit()
 142:Drivers/STM32F4xx_HAL_Driver/Src/stm32f4xx_hal_ltdc.c ****     keep and use the user MspInit/MspDeInit callbacks (registered beforehand).
 143:Drivers/STM32F4xx_HAL_Driver/Src/stm32f4xx_hal_ltdc.c **** 
 144:Drivers/STM32F4xx_HAL_Driver/Src/stm32f4xx_hal_ltdc.c ****     [..]
ARM GAS  /var/folders/06/9k7gq4t13mj84z2yhw3grvhc0000gn/T//ccuiTnhW.s 			page 4


 145:Drivers/STM32F4xx_HAL_Driver/Src/stm32f4xx_hal_ltdc.c ****     Callbacks can be registered/unregistered in HAL_LTDC_STATE_READY state only.
 146:Drivers/STM32F4xx_HAL_Driver/Src/stm32f4xx_hal_ltdc.c ****     Exception done MspInit/MspDeInit that can be registered/unregistered
 147:Drivers/STM32F4xx_HAL_Driver/Src/stm32f4xx_hal_ltdc.c ****     in HAL_LTDC_STATE_READY or HAL_LTDC_STATE_RESET state,
 148:Drivers/STM32F4xx_HAL_Driver/Src/stm32f4xx_hal_ltdc.c ****     thus registered (user) MspInit/DeInit callbacks can be used during the Init/DeInit.
 149:Drivers/STM32F4xx_HAL_Driver/Src/stm32f4xx_hal_ltdc.c ****     In that case first register the MspInit/MspDeInit user callbacks
 150:Drivers/STM32F4xx_HAL_Driver/Src/stm32f4xx_hal_ltdc.c ****     using HAL_LTDC_RegisterCallback() before calling HAL_LTDC_DeInit()
 151:Drivers/STM32F4xx_HAL_Driver/Src/stm32f4xx_hal_ltdc.c ****     or HAL_LTDC_Init() function.
 152:Drivers/STM32F4xx_HAL_Driver/Src/stm32f4xx_hal_ltdc.c **** 
 153:Drivers/STM32F4xx_HAL_Driver/Src/stm32f4xx_hal_ltdc.c ****     [..]
 154:Drivers/STM32F4xx_HAL_Driver/Src/stm32f4xx_hal_ltdc.c ****     When the compilation define USE_HAL_LTDC_REGISTER_CALLBACKS is set to 0 or
 155:Drivers/STM32F4xx_HAL_Driver/Src/stm32f4xx_hal_ltdc.c ****     not defined, the callback registration feature is not available and all callbacks
 156:Drivers/STM32F4xx_HAL_Driver/Src/stm32f4xx_hal_ltdc.c ****     are set to the corresponding weak functions.
 157:Drivers/STM32F4xx_HAL_Driver/Src/stm32f4xx_hal_ltdc.c **** 
 158:Drivers/STM32F4xx_HAL_Driver/Src/stm32f4xx_hal_ltdc.c ****   @endverbatim
 159:Drivers/STM32F4xx_HAL_Driver/Src/stm32f4xx_hal_ltdc.c ****   ******************************************************************************
 160:Drivers/STM32F4xx_HAL_Driver/Src/stm32f4xx_hal_ltdc.c ****   */
 161:Drivers/STM32F4xx_HAL_Driver/Src/stm32f4xx_hal_ltdc.c **** 
 162:Drivers/STM32F4xx_HAL_Driver/Src/stm32f4xx_hal_ltdc.c **** /* Includes ------------------------------------------------------------------*/
 163:Drivers/STM32F4xx_HAL_Driver/Src/stm32f4xx_hal_ltdc.c **** #include "stm32f4xx_hal.h"
 164:Drivers/STM32F4xx_HAL_Driver/Src/stm32f4xx_hal_ltdc.c **** 
 165:Drivers/STM32F4xx_HAL_Driver/Src/stm32f4xx_hal_ltdc.c **** /** @addtogroup STM32F4xx_HAL_Driver
 166:Drivers/STM32F4xx_HAL_Driver/Src/stm32f4xx_hal_ltdc.c ****   * @{
 167:Drivers/STM32F4xx_HAL_Driver/Src/stm32f4xx_hal_ltdc.c ****   */
 168:Drivers/STM32F4xx_HAL_Driver/Src/stm32f4xx_hal_ltdc.c **** 
 169:Drivers/STM32F4xx_HAL_Driver/Src/stm32f4xx_hal_ltdc.c **** #ifdef HAL_LTDC_MODULE_ENABLED
 170:Drivers/STM32F4xx_HAL_Driver/Src/stm32f4xx_hal_ltdc.c **** 
 171:Drivers/STM32F4xx_HAL_Driver/Src/stm32f4xx_hal_ltdc.c **** #if defined (LTDC)
 172:Drivers/STM32F4xx_HAL_Driver/Src/stm32f4xx_hal_ltdc.c **** 
 173:Drivers/STM32F4xx_HAL_Driver/Src/stm32f4xx_hal_ltdc.c **** /** @defgroup LTDC LTDC
 174:Drivers/STM32F4xx_HAL_Driver/Src/stm32f4xx_hal_ltdc.c ****   * @brief LTDC HAL module driver
 175:Drivers/STM32F4xx_HAL_Driver/Src/stm32f4xx_hal_ltdc.c ****   * @{
 176:Drivers/STM32F4xx_HAL_Driver/Src/stm32f4xx_hal_ltdc.c ****   */
 177:Drivers/STM32F4xx_HAL_Driver/Src/stm32f4xx_hal_ltdc.c **** 
 178:Drivers/STM32F4xx_HAL_Driver/Src/stm32f4xx_hal_ltdc.c **** 
 179:Drivers/STM32F4xx_HAL_Driver/Src/stm32f4xx_hal_ltdc.c **** /* Private typedef -----------------------------------------------------------*/
 180:Drivers/STM32F4xx_HAL_Driver/Src/stm32f4xx_hal_ltdc.c **** /* Private define ------------------------------------------------------------*/
 181:Drivers/STM32F4xx_HAL_Driver/Src/stm32f4xx_hal_ltdc.c **** /** @defgroup LTDC_Private_Define LTDC Private Define
 182:Drivers/STM32F4xx_HAL_Driver/Src/stm32f4xx_hal_ltdc.c ****   * @{
 183:Drivers/STM32F4xx_HAL_Driver/Src/stm32f4xx_hal_ltdc.c ****   */
 184:Drivers/STM32F4xx_HAL_Driver/Src/stm32f4xx_hal_ltdc.c **** #define LTDC_TIMEOUT_VALUE ((uint32_t)100U)  /* 100ms */
 185:Drivers/STM32F4xx_HAL_Driver/Src/stm32f4xx_hal_ltdc.c **** /**
 186:Drivers/STM32F4xx_HAL_Driver/Src/stm32f4xx_hal_ltdc.c ****   * @}
 187:Drivers/STM32F4xx_HAL_Driver/Src/stm32f4xx_hal_ltdc.c ****   */
 188:Drivers/STM32F4xx_HAL_Driver/Src/stm32f4xx_hal_ltdc.c **** /* Private macro -------------------------------------------------------------*/
 189:Drivers/STM32F4xx_HAL_Driver/Src/stm32f4xx_hal_ltdc.c **** /* Private variables ---------------------------------------------------------*/
 190:Drivers/STM32F4xx_HAL_Driver/Src/stm32f4xx_hal_ltdc.c **** /* Private function prototypes -----------------------------------------------*/
 191:Drivers/STM32F4xx_HAL_Driver/Src/stm32f4xx_hal_ltdc.c **** static void LTDC_SetConfig(LTDC_HandleTypeDef *hltdc, LTDC_LayerCfgTypeDef *pLayerCfg, uint32_t Lay
 192:Drivers/STM32F4xx_HAL_Driver/Src/stm32f4xx_hal_ltdc.c **** /* Private functions ---------------------------------------------------------*/
 193:Drivers/STM32F4xx_HAL_Driver/Src/stm32f4xx_hal_ltdc.c **** 
 194:Drivers/STM32F4xx_HAL_Driver/Src/stm32f4xx_hal_ltdc.c **** /** @defgroup LTDC_Exported_Functions LTDC Exported Functions
 195:Drivers/STM32F4xx_HAL_Driver/Src/stm32f4xx_hal_ltdc.c ****   * @{
 196:Drivers/STM32F4xx_HAL_Driver/Src/stm32f4xx_hal_ltdc.c ****   */
 197:Drivers/STM32F4xx_HAL_Driver/Src/stm32f4xx_hal_ltdc.c **** 
 198:Drivers/STM32F4xx_HAL_Driver/Src/stm32f4xx_hal_ltdc.c **** /** @defgroup LTDC_Exported_Functions_Group1 Initialization and Configuration functions
 199:Drivers/STM32F4xx_HAL_Driver/Src/stm32f4xx_hal_ltdc.c ****   *  @brief   Initialization and Configuration functions
 200:Drivers/STM32F4xx_HAL_Driver/Src/stm32f4xx_hal_ltdc.c ****   *
 201:Drivers/STM32F4xx_HAL_Driver/Src/stm32f4xx_hal_ltdc.c **** @verbatim
ARM GAS  /var/folders/06/9k7gq4t13mj84z2yhw3grvhc0000gn/T//ccuiTnhW.s 			page 5


 202:Drivers/STM32F4xx_HAL_Driver/Src/stm32f4xx_hal_ltdc.c ****  ===============================================================================
 203:Drivers/STM32F4xx_HAL_Driver/Src/stm32f4xx_hal_ltdc.c ****                 ##### Initialization and Configuration functions #####
 204:Drivers/STM32F4xx_HAL_Driver/Src/stm32f4xx_hal_ltdc.c ****  ===============================================================================
 205:Drivers/STM32F4xx_HAL_Driver/Src/stm32f4xx_hal_ltdc.c ****     [..]  This section provides functions allowing to:
 206:Drivers/STM32F4xx_HAL_Driver/Src/stm32f4xx_hal_ltdc.c ****       (+) Initialize and configure the LTDC
 207:Drivers/STM32F4xx_HAL_Driver/Src/stm32f4xx_hal_ltdc.c ****       (+) De-initialize the LTDC
 208:Drivers/STM32F4xx_HAL_Driver/Src/stm32f4xx_hal_ltdc.c **** 
 209:Drivers/STM32F4xx_HAL_Driver/Src/stm32f4xx_hal_ltdc.c **** @endverbatim
 210:Drivers/STM32F4xx_HAL_Driver/Src/stm32f4xx_hal_ltdc.c ****   * @{
 211:Drivers/STM32F4xx_HAL_Driver/Src/stm32f4xx_hal_ltdc.c ****   */
 212:Drivers/STM32F4xx_HAL_Driver/Src/stm32f4xx_hal_ltdc.c **** 
 213:Drivers/STM32F4xx_HAL_Driver/Src/stm32f4xx_hal_ltdc.c **** /**
 214:Drivers/STM32F4xx_HAL_Driver/Src/stm32f4xx_hal_ltdc.c ****   * @brief  Initialize the LTDC according to the specified parameters in the LTDC_InitTypeDef.
 215:Drivers/STM32F4xx_HAL_Driver/Src/stm32f4xx_hal_ltdc.c ****   * @param  hltdc  pointer to a LTDC_HandleTypeDef structure that contains
 216:Drivers/STM32F4xx_HAL_Driver/Src/stm32f4xx_hal_ltdc.c ****   *                the configuration information for the LTDC.
 217:Drivers/STM32F4xx_HAL_Driver/Src/stm32f4xx_hal_ltdc.c ****   * @retval HAL status
 218:Drivers/STM32F4xx_HAL_Driver/Src/stm32f4xx_hal_ltdc.c ****   */
 219:Drivers/STM32F4xx_HAL_Driver/Src/stm32f4xx_hal_ltdc.c **** HAL_StatusTypeDef HAL_LTDC_Init(LTDC_HandleTypeDef *hltdc)
 220:Drivers/STM32F4xx_HAL_Driver/Src/stm32f4xx_hal_ltdc.c **** {
  29              		.loc 1 220 1
  30              		.cfi_startproc
  31              		@ args = 0, pretend = 0, frame = 16
  32              		@ frame_needed = 1, uses_anonymous_args = 0
  33 0000 80B5     		push	{r7, lr}
  34              	.LCFI0:
  35              		.cfi_def_cfa_offset 8
  36              		.cfi_offset 7, -8
  37              		.cfi_offset 14, -4
  38 0002 84B0     		sub	sp, sp, #16
  39              	.LCFI1:
  40              		.cfi_def_cfa_offset 24
  41 0004 00AF     		add	r7, sp, #0
  42              	.LCFI2:
  43              		.cfi_def_cfa_register 7
  44 0006 7860     		str	r0, [r7, #4]
 221:Drivers/STM32F4xx_HAL_Driver/Src/stm32f4xx_hal_ltdc.c ****   uint32_t tmp;
 222:Drivers/STM32F4xx_HAL_Driver/Src/stm32f4xx_hal_ltdc.c ****   uint32_t tmp1;
 223:Drivers/STM32F4xx_HAL_Driver/Src/stm32f4xx_hal_ltdc.c **** 
 224:Drivers/STM32F4xx_HAL_Driver/Src/stm32f4xx_hal_ltdc.c ****   /* Check the LTDC peripheral state */
 225:Drivers/STM32F4xx_HAL_Driver/Src/stm32f4xx_hal_ltdc.c ****   if (hltdc == NULL)
  45              		.loc 1 225 6
  46 0008 7B68     		ldr	r3, [r7, #4]
  47 000a 002B     		cmp	r3, #0
  48 000c 01D1     		bne	.L2
 226:Drivers/STM32F4xx_HAL_Driver/Src/stm32f4xx_hal_ltdc.c ****   {
 227:Drivers/STM32F4xx_HAL_Driver/Src/stm32f4xx_hal_ltdc.c ****     return HAL_ERROR;
  49              		.loc 1 227 12
  50 000e 0123     		movs	r3, #1
  51 0010 BFE0     		b	.L3
  52              	.L2:
 228:Drivers/STM32F4xx_HAL_Driver/Src/stm32f4xx_hal_ltdc.c ****   }
 229:Drivers/STM32F4xx_HAL_Driver/Src/stm32f4xx_hal_ltdc.c **** 
 230:Drivers/STM32F4xx_HAL_Driver/Src/stm32f4xx_hal_ltdc.c ****   /* Check function parameters */
 231:Drivers/STM32F4xx_HAL_Driver/Src/stm32f4xx_hal_ltdc.c ****   assert_param(IS_LTDC_ALL_INSTANCE(hltdc->Instance));
 232:Drivers/STM32F4xx_HAL_Driver/Src/stm32f4xx_hal_ltdc.c ****   assert_param(IS_LTDC_HSYNC(hltdc->Init.HorizontalSync));
 233:Drivers/STM32F4xx_HAL_Driver/Src/stm32f4xx_hal_ltdc.c ****   assert_param(IS_LTDC_VSYNC(hltdc->Init.VerticalSync));
 234:Drivers/STM32F4xx_HAL_Driver/Src/stm32f4xx_hal_ltdc.c ****   assert_param(IS_LTDC_AHBP(hltdc->Init.AccumulatedHBP));
ARM GAS  /var/folders/06/9k7gq4t13mj84z2yhw3grvhc0000gn/T//ccuiTnhW.s 			page 6


 235:Drivers/STM32F4xx_HAL_Driver/Src/stm32f4xx_hal_ltdc.c ****   assert_param(IS_LTDC_AVBP(hltdc->Init.AccumulatedVBP));
 236:Drivers/STM32F4xx_HAL_Driver/Src/stm32f4xx_hal_ltdc.c ****   assert_param(IS_LTDC_AAH(hltdc->Init.AccumulatedActiveH));
 237:Drivers/STM32F4xx_HAL_Driver/Src/stm32f4xx_hal_ltdc.c ****   assert_param(IS_LTDC_AAW(hltdc->Init.AccumulatedActiveW));
 238:Drivers/STM32F4xx_HAL_Driver/Src/stm32f4xx_hal_ltdc.c ****   assert_param(IS_LTDC_TOTALH(hltdc->Init.TotalHeigh));
 239:Drivers/STM32F4xx_HAL_Driver/Src/stm32f4xx_hal_ltdc.c ****   assert_param(IS_LTDC_TOTALW(hltdc->Init.TotalWidth));
 240:Drivers/STM32F4xx_HAL_Driver/Src/stm32f4xx_hal_ltdc.c ****   assert_param(IS_LTDC_HSPOL(hltdc->Init.HSPolarity));
 241:Drivers/STM32F4xx_HAL_Driver/Src/stm32f4xx_hal_ltdc.c ****   assert_param(IS_LTDC_VSPOL(hltdc->Init.VSPolarity));
 242:Drivers/STM32F4xx_HAL_Driver/Src/stm32f4xx_hal_ltdc.c ****   assert_param(IS_LTDC_DEPOL(hltdc->Init.DEPolarity));
 243:Drivers/STM32F4xx_HAL_Driver/Src/stm32f4xx_hal_ltdc.c ****   assert_param(IS_LTDC_PCPOL(hltdc->Init.PCPolarity));
 244:Drivers/STM32F4xx_HAL_Driver/Src/stm32f4xx_hal_ltdc.c **** 
 245:Drivers/STM32F4xx_HAL_Driver/Src/stm32f4xx_hal_ltdc.c **** #if (USE_HAL_LTDC_REGISTER_CALLBACKS == 1)
 246:Drivers/STM32F4xx_HAL_Driver/Src/stm32f4xx_hal_ltdc.c ****   if (hltdc->State == HAL_LTDC_STATE_RESET)
 247:Drivers/STM32F4xx_HAL_Driver/Src/stm32f4xx_hal_ltdc.c ****   {
 248:Drivers/STM32F4xx_HAL_Driver/Src/stm32f4xx_hal_ltdc.c ****     /* Allocate lock resource and initialize it */
 249:Drivers/STM32F4xx_HAL_Driver/Src/stm32f4xx_hal_ltdc.c ****     hltdc->Lock = HAL_UNLOCKED;
 250:Drivers/STM32F4xx_HAL_Driver/Src/stm32f4xx_hal_ltdc.c **** 
 251:Drivers/STM32F4xx_HAL_Driver/Src/stm32f4xx_hal_ltdc.c ****     /* Reset the LTDC callback to the legacy weak callbacks */
 252:Drivers/STM32F4xx_HAL_Driver/Src/stm32f4xx_hal_ltdc.c ****     hltdc->LineEventCallback   = HAL_LTDC_LineEventCallback;    /* Legacy weak LineEventCallback   
 253:Drivers/STM32F4xx_HAL_Driver/Src/stm32f4xx_hal_ltdc.c ****     hltdc->ReloadEventCallback = HAL_LTDC_ReloadEventCallback;  /* Legacy weak ReloadEventCallback 
 254:Drivers/STM32F4xx_HAL_Driver/Src/stm32f4xx_hal_ltdc.c ****     hltdc->ErrorCallback       = HAL_LTDC_ErrorCallback;        /* Legacy weak ErrorCallback       
 255:Drivers/STM32F4xx_HAL_Driver/Src/stm32f4xx_hal_ltdc.c **** 
 256:Drivers/STM32F4xx_HAL_Driver/Src/stm32f4xx_hal_ltdc.c ****     if (hltdc->MspInitCallback == NULL)
 257:Drivers/STM32F4xx_HAL_Driver/Src/stm32f4xx_hal_ltdc.c ****     {
 258:Drivers/STM32F4xx_HAL_Driver/Src/stm32f4xx_hal_ltdc.c ****       hltdc->MspInitCallback = HAL_LTDC_MspInit;
 259:Drivers/STM32F4xx_HAL_Driver/Src/stm32f4xx_hal_ltdc.c ****     }
 260:Drivers/STM32F4xx_HAL_Driver/Src/stm32f4xx_hal_ltdc.c ****     /* Init the low level hardware */
 261:Drivers/STM32F4xx_HAL_Driver/Src/stm32f4xx_hal_ltdc.c ****     hltdc->MspInitCallback(hltdc);
 262:Drivers/STM32F4xx_HAL_Driver/Src/stm32f4xx_hal_ltdc.c ****   }
 263:Drivers/STM32F4xx_HAL_Driver/Src/stm32f4xx_hal_ltdc.c **** #else
 264:Drivers/STM32F4xx_HAL_Driver/Src/stm32f4xx_hal_ltdc.c ****   if (hltdc->State == HAL_LTDC_STATE_RESET)
  53              		.loc 1 264 12
  54 0012 7B68     		ldr	r3, [r7, #4]
  55 0014 93F8A130 		ldrb	r3, [r3, #161]
  56 0018 DBB2     		uxtb	r3, r3
  57              		.loc 1 264 6
  58 001a 002B     		cmp	r3, #0
  59 001c 06D1     		bne	.L4
 265:Drivers/STM32F4xx_HAL_Driver/Src/stm32f4xx_hal_ltdc.c ****   {
 266:Drivers/STM32F4xx_HAL_Driver/Src/stm32f4xx_hal_ltdc.c ****     /* Allocate lock resource and initialize it */
 267:Drivers/STM32F4xx_HAL_Driver/Src/stm32f4xx_hal_ltdc.c ****     hltdc->Lock = HAL_UNLOCKED;
  60              		.loc 1 267 17
  61 001e 7B68     		ldr	r3, [r7, #4]
  62 0020 0022     		movs	r2, #0
  63 0022 83F8A020 		strb	r2, [r3, #160]
 268:Drivers/STM32F4xx_HAL_Driver/Src/stm32f4xx_hal_ltdc.c ****     /* Init the low level hardware */
 269:Drivers/STM32F4xx_HAL_Driver/Src/stm32f4xx_hal_ltdc.c ****     HAL_LTDC_MspInit(hltdc);
  64              		.loc 1 269 5
  65 0026 7868     		ldr	r0, [r7, #4]
  66 0028 FFF7FEFF 		bl	HAL_LTDC_MspInit
  67              	.L4:
 270:Drivers/STM32F4xx_HAL_Driver/Src/stm32f4xx_hal_ltdc.c ****   }
 271:Drivers/STM32F4xx_HAL_Driver/Src/stm32f4xx_hal_ltdc.c **** #endif /* USE_HAL_LTDC_REGISTER_CALLBACKS */
 272:Drivers/STM32F4xx_HAL_Driver/Src/stm32f4xx_hal_ltdc.c **** 
 273:Drivers/STM32F4xx_HAL_Driver/Src/stm32f4xx_hal_ltdc.c ****   /* Change LTDC peripheral state */
 274:Drivers/STM32F4xx_HAL_Driver/Src/stm32f4xx_hal_ltdc.c ****   hltdc->State = HAL_LTDC_STATE_BUSY;
  68              		.loc 1 274 16
  69 002c 7B68     		ldr	r3, [r7, #4]
ARM GAS  /var/folders/06/9k7gq4t13mj84z2yhw3grvhc0000gn/T//ccuiTnhW.s 			page 7


  70 002e 0222     		movs	r2, #2
  71 0030 83F8A120 		strb	r2, [r3, #161]
 275:Drivers/STM32F4xx_HAL_Driver/Src/stm32f4xx_hal_ltdc.c **** 
 276:Drivers/STM32F4xx_HAL_Driver/Src/stm32f4xx_hal_ltdc.c ****   /* Configure the HS, VS, DE and PC polarity */
 277:Drivers/STM32F4xx_HAL_Driver/Src/stm32f4xx_hal_ltdc.c ****   hltdc->Instance->GCR &= ~(LTDC_GCR_HSPOL | LTDC_GCR_VSPOL | LTDC_GCR_DEPOL | LTDC_GCR_PCPOL);
  72              		.loc 1 277 8
  73 0034 7B68     		ldr	r3, [r7, #4]
  74 0036 1B68     		ldr	r3, [r3]
  75              		.loc 1 277 18
  76 0038 9A69     		ldr	r2, [r3, #24]
  77              		.loc 1 277 8
  78 003a 7B68     		ldr	r3, [r7, #4]
  79 003c 1B68     		ldr	r3, [r3]
  80              		.loc 1 277 24
  81 003e 22F07042 		bic	r2, r2, #-268435456
  82 0042 9A61     		str	r2, [r3, #24]
 278:Drivers/STM32F4xx_HAL_Driver/Src/stm32f4xx_hal_ltdc.c ****   hltdc->Instance->GCR |= (uint32_t)(hltdc->Init.HSPolarity | hltdc->Init.VSPolarity | \
  83              		.loc 1 278 8
  84 0044 7B68     		ldr	r3, [r7, #4]
  85 0046 1B68     		ldr	r3, [r3]
  86              		.loc 1 278 18
  87 0048 9969     		ldr	r1, [r3, #24]
  88              		.loc 1 278 49
  89 004a 7B68     		ldr	r3, [r7, #4]
  90 004c 5A68     		ldr	r2, [r3, #4]
  91              		.loc 1 278 74
  92 004e 7B68     		ldr	r3, [r7, #4]
  93 0050 9B68     		ldr	r3, [r3, #8]
  94              		.loc 1 278 61
  95 0052 1A43     		orrs	r2, r2, r3
 279:Drivers/STM32F4xx_HAL_Driver/Src/stm32f4xx_hal_ltdc.c ****                                      hltdc->Init.DEPolarity | hltdc->Init.PCPolarity);
  96              		.loc 1 279 49
  97 0054 7B68     		ldr	r3, [r7, #4]
  98 0056 DB68     		ldr	r3, [r3, #12]
 278:Drivers/STM32F4xx_HAL_Driver/Src/stm32f4xx_hal_ltdc.c ****   hltdc->Instance->GCR |= (uint32_t)(hltdc->Init.HSPolarity | hltdc->Init.VSPolarity | \
  99              		.loc 1 278 86
 100 0058 1A43     		orrs	r2, r2, r3
 101              		.loc 1 279 74
 102 005a 7B68     		ldr	r3, [r7, #4]
 103 005c 1B69     		ldr	r3, [r3, #16]
 104              		.loc 1 279 61
 105 005e 1A43     		orrs	r2, r2, r3
 278:Drivers/STM32F4xx_HAL_Driver/Src/stm32f4xx_hal_ltdc.c ****   hltdc->Instance->GCR |= (uint32_t)(hltdc->Init.HSPolarity | hltdc->Init.VSPolarity | \
 106              		.loc 1 278 8
 107 0060 7B68     		ldr	r3, [r7, #4]
 108 0062 1B68     		ldr	r3, [r3]
 278:Drivers/STM32F4xx_HAL_Driver/Src/stm32f4xx_hal_ltdc.c ****   hltdc->Instance->GCR |= (uint32_t)(hltdc->Init.HSPolarity | hltdc->Init.VSPolarity | \
 109              		.loc 1 278 24
 110 0064 0A43     		orrs	r2, r2, r1
 111 0066 9A61     		str	r2, [r3, #24]
 280:Drivers/STM32F4xx_HAL_Driver/Src/stm32f4xx_hal_ltdc.c **** 
 281:Drivers/STM32F4xx_HAL_Driver/Src/stm32f4xx_hal_ltdc.c ****   /* Set Synchronization size */
 282:Drivers/STM32F4xx_HAL_Driver/Src/stm32f4xx_hal_ltdc.c ****   hltdc->Instance->SSCR &= ~(LTDC_SSCR_VSH | LTDC_SSCR_HSW);
 112              		.loc 1 282 8
 113 0068 7B68     		ldr	r3, [r7, #4]
 114 006a 1B68     		ldr	r3, [r3]
 115              		.loc 1 282 18
ARM GAS  /var/folders/06/9k7gq4t13mj84z2yhw3grvhc0000gn/T//ccuiTnhW.s 			page 8


 116 006c 9968     		ldr	r1, [r3, #8]
 117              		.loc 1 282 8
 118 006e 7B68     		ldr	r3, [r7, #4]
 119 0070 1A68     		ldr	r2, [r3]
 120              		.loc 1 282 25
 121 0072 4A4B     		ldr	r3, .L5
 122 0074 0B40     		ands	r3, r3, r1
 123 0076 9360     		str	r3, [r2, #8]
 283:Drivers/STM32F4xx_HAL_Driver/Src/stm32f4xx_hal_ltdc.c ****   tmp = (hltdc->Init.HorizontalSync << 16U);
 124              		.loc 1 283 21
 125 0078 7B68     		ldr	r3, [r7, #4]
 126 007a 5B69     		ldr	r3, [r3, #20]
 127              		.loc 1 283 7
 128 007c 1B04     		lsls	r3, r3, #16
 129 007e FB60     		str	r3, [r7, #12]
 284:Drivers/STM32F4xx_HAL_Driver/Src/stm32f4xx_hal_ltdc.c ****   hltdc->Instance->SSCR |= (tmp | hltdc->Init.VerticalSync);
 130              		.loc 1 284 8
 131 0080 7B68     		ldr	r3, [r7, #4]
 132 0082 1B68     		ldr	r3, [r3]
 133              		.loc 1 284 18
 134 0084 9968     		ldr	r1, [r3, #8]
 135              		.loc 1 284 46
 136 0086 7B68     		ldr	r3, [r7, #4]
 137 0088 9A69     		ldr	r2, [r3, #24]
 138              		.loc 1 284 33
 139 008a FB68     		ldr	r3, [r7, #12]
 140 008c 1A43     		orrs	r2, r2, r3
 141              		.loc 1 284 8
 142 008e 7B68     		ldr	r3, [r7, #4]
 143 0090 1B68     		ldr	r3, [r3]
 144              		.loc 1 284 25
 145 0092 0A43     		orrs	r2, r2, r1
 146 0094 9A60     		str	r2, [r3, #8]
 285:Drivers/STM32F4xx_HAL_Driver/Src/stm32f4xx_hal_ltdc.c **** 
 286:Drivers/STM32F4xx_HAL_Driver/Src/stm32f4xx_hal_ltdc.c ****   /* Set Accumulated Back porch */
 287:Drivers/STM32F4xx_HAL_Driver/Src/stm32f4xx_hal_ltdc.c ****   hltdc->Instance->BPCR &= ~(LTDC_BPCR_AVBP | LTDC_BPCR_AHBP);
 147              		.loc 1 287 8
 148 0096 7B68     		ldr	r3, [r7, #4]
 149 0098 1B68     		ldr	r3, [r3]
 150              		.loc 1 287 18
 151 009a D968     		ldr	r1, [r3, #12]
 152              		.loc 1 287 8
 153 009c 7B68     		ldr	r3, [r7, #4]
 154 009e 1A68     		ldr	r2, [r3]
 155              		.loc 1 287 25
 156 00a0 3E4B     		ldr	r3, .L5
 157 00a2 0B40     		ands	r3, r3, r1
 158 00a4 D360     		str	r3, [r2, #12]
 288:Drivers/STM32F4xx_HAL_Driver/Src/stm32f4xx_hal_ltdc.c ****   tmp = (hltdc->Init.AccumulatedHBP << 16U);
 159              		.loc 1 288 21
 160 00a6 7B68     		ldr	r3, [r7, #4]
 161 00a8 DB69     		ldr	r3, [r3, #28]
 162              		.loc 1 288 7
 163 00aa 1B04     		lsls	r3, r3, #16
 164 00ac FB60     		str	r3, [r7, #12]
 289:Drivers/STM32F4xx_HAL_Driver/Src/stm32f4xx_hal_ltdc.c ****   hltdc->Instance->BPCR |= (tmp | hltdc->Init.AccumulatedVBP);
 165              		.loc 1 289 8
ARM GAS  /var/folders/06/9k7gq4t13mj84z2yhw3grvhc0000gn/T//ccuiTnhW.s 			page 9


 166 00ae 7B68     		ldr	r3, [r7, #4]
 167 00b0 1B68     		ldr	r3, [r3]
 168              		.loc 1 289 18
 169 00b2 D968     		ldr	r1, [r3, #12]
 170              		.loc 1 289 46
 171 00b4 7B68     		ldr	r3, [r7, #4]
 172 00b6 1A6A     		ldr	r2, [r3, #32]
 173              		.loc 1 289 33
 174 00b8 FB68     		ldr	r3, [r7, #12]
 175 00ba 1A43     		orrs	r2, r2, r3
 176              		.loc 1 289 8
 177 00bc 7B68     		ldr	r3, [r7, #4]
 178 00be 1B68     		ldr	r3, [r3]
 179              		.loc 1 289 25
 180 00c0 0A43     		orrs	r2, r2, r1
 181 00c2 DA60     		str	r2, [r3, #12]
 290:Drivers/STM32F4xx_HAL_Driver/Src/stm32f4xx_hal_ltdc.c **** 
 291:Drivers/STM32F4xx_HAL_Driver/Src/stm32f4xx_hal_ltdc.c ****   /* Set Accumulated Active Width */
 292:Drivers/STM32F4xx_HAL_Driver/Src/stm32f4xx_hal_ltdc.c ****   hltdc->Instance->AWCR &= ~(LTDC_AWCR_AAH | LTDC_AWCR_AAW);
 182              		.loc 1 292 8
 183 00c4 7B68     		ldr	r3, [r7, #4]
 184 00c6 1B68     		ldr	r3, [r3]
 185              		.loc 1 292 18
 186 00c8 1969     		ldr	r1, [r3, #16]
 187              		.loc 1 292 8
 188 00ca 7B68     		ldr	r3, [r7, #4]
 189 00cc 1A68     		ldr	r2, [r3]
 190              		.loc 1 292 25
 191 00ce 334B     		ldr	r3, .L5
 192 00d0 0B40     		ands	r3, r3, r1
 193 00d2 1361     		str	r3, [r2, #16]
 293:Drivers/STM32F4xx_HAL_Driver/Src/stm32f4xx_hal_ltdc.c ****   tmp = (hltdc->Init.AccumulatedActiveW << 16U);
 194              		.loc 1 293 21
 195 00d4 7B68     		ldr	r3, [r7, #4]
 196 00d6 5B6A     		ldr	r3, [r3, #36]
 197              		.loc 1 293 7
 198 00d8 1B04     		lsls	r3, r3, #16
 199 00da FB60     		str	r3, [r7, #12]
 294:Drivers/STM32F4xx_HAL_Driver/Src/stm32f4xx_hal_ltdc.c ****   hltdc->Instance->AWCR |= (tmp | hltdc->Init.AccumulatedActiveH);
 200              		.loc 1 294 8
 201 00dc 7B68     		ldr	r3, [r7, #4]
 202 00de 1B68     		ldr	r3, [r3]
 203              		.loc 1 294 18
 204 00e0 1969     		ldr	r1, [r3, #16]
 205              		.loc 1 294 46
 206 00e2 7B68     		ldr	r3, [r7, #4]
 207 00e4 9A6A     		ldr	r2, [r3, #40]
 208              		.loc 1 294 33
 209 00e6 FB68     		ldr	r3, [r7, #12]
 210 00e8 1A43     		orrs	r2, r2, r3
 211              		.loc 1 294 8
 212 00ea 7B68     		ldr	r3, [r7, #4]
 213 00ec 1B68     		ldr	r3, [r3]
 214              		.loc 1 294 25
 215 00ee 0A43     		orrs	r2, r2, r1
 216 00f0 1A61     		str	r2, [r3, #16]
 295:Drivers/STM32F4xx_HAL_Driver/Src/stm32f4xx_hal_ltdc.c **** 
ARM GAS  /var/folders/06/9k7gq4t13mj84z2yhw3grvhc0000gn/T//ccuiTnhW.s 			page 10


 296:Drivers/STM32F4xx_HAL_Driver/Src/stm32f4xx_hal_ltdc.c ****   /* Set Total Width */
 297:Drivers/STM32F4xx_HAL_Driver/Src/stm32f4xx_hal_ltdc.c ****   hltdc->Instance->TWCR &= ~(LTDC_TWCR_TOTALH | LTDC_TWCR_TOTALW);
 217              		.loc 1 297 8
 218 00f2 7B68     		ldr	r3, [r7, #4]
 219 00f4 1B68     		ldr	r3, [r3]
 220              		.loc 1 297 18
 221 00f6 5969     		ldr	r1, [r3, #20]
 222              		.loc 1 297 8
 223 00f8 7B68     		ldr	r3, [r7, #4]
 224 00fa 1A68     		ldr	r2, [r3]
 225              		.loc 1 297 25
 226 00fc 274B     		ldr	r3, .L5
 227 00fe 0B40     		ands	r3, r3, r1
 228 0100 5361     		str	r3, [r2, #20]
 298:Drivers/STM32F4xx_HAL_Driver/Src/stm32f4xx_hal_ltdc.c ****   tmp = (hltdc->Init.TotalWidth << 16U);
 229              		.loc 1 298 21
 230 0102 7B68     		ldr	r3, [r7, #4]
 231 0104 DB6A     		ldr	r3, [r3, #44]
 232              		.loc 1 298 7
 233 0106 1B04     		lsls	r3, r3, #16
 234 0108 FB60     		str	r3, [r7, #12]
 299:Drivers/STM32F4xx_HAL_Driver/Src/stm32f4xx_hal_ltdc.c ****   hltdc->Instance->TWCR |= (tmp | hltdc->Init.TotalHeigh);
 235              		.loc 1 299 8
 236 010a 7B68     		ldr	r3, [r7, #4]
 237 010c 1B68     		ldr	r3, [r3]
 238              		.loc 1 299 18
 239 010e 5969     		ldr	r1, [r3, #20]
 240              		.loc 1 299 46
 241 0110 7B68     		ldr	r3, [r7, #4]
 242 0112 1A6B     		ldr	r2, [r3, #48]
 243              		.loc 1 299 33
 244 0114 FB68     		ldr	r3, [r7, #12]
 245 0116 1A43     		orrs	r2, r2, r3
 246              		.loc 1 299 8
 247 0118 7B68     		ldr	r3, [r7, #4]
 248 011a 1B68     		ldr	r3, [r3]
 249              		.loc 1 299 25
 250 011c 0A43     		orrs	r2, r2, r1
 251 011e 5A61     		str	r2, [r3, #20]
 300:Drivers/STM32F4xx_HAL_Driver/Src/stm32f4xx_hal_ltdc.c **** 
 301:Drivers/STM32F4xx_HAL_Driver/Src/stm32f4xx_hal_ltdc.c ****   /* Set the background color value */
 302:Drivers/STM32F4xx_HAL_Driver/Src/stm32f4xx_hal_ltdc.c ****   tmp = ((uint32_t)(hltdc->Init.Backcolor.Green) << 8U);
 252              		.loc 1 302 42
 253 0120 7B68     		ldr	r3, [r7, #4]
 254 0122 93F83530 		ldrb	r3, [r3, #53]	@ zero_extendqisi2
 255              		.loc 1 302 7
 256 0126 1B02     		lsls	r3, r3, #8
 257 0128 FB60     		str	r3, [r7, #12]
 303:Drivers/STM32F4xx_HAL_Driver/Src/stm32f4xx_hal_ltdc.c ****   tmp1 = ((uint32_t)(hltdc->Init.Backcolor.Red) << 16U);
 258              		.loc 1 303 43
 259 012a 7B68     		ldr	r3, [r7, #4]
 260 012c 93F83630 		ldrb	r3, [r3, #54]	@ zero_extendqisi2
 261              		.loc 1 303 8
 262 0130 1B04     		lsls	r3, r3, #16
 263 0132 BB60     		str	r3, [r7, #8]
 304:Drivers/STM32F4xx_HAL_Driver/Src/stm32f4xx_hal_ltdc.c ****   hltdc->Instance->BCCR &= ~(LTDC_BCCR_BCBLUE | LTDC_BCCR_BCGREEN | LTDC_BCCR_BCRED);
 264              		.loc 1 304 8
ARM GAS  /var/folders/06/9k7gq4t13mj84z2yhw3grvhc0000gn/T//ccuiTnhW.s 			page 11


 265 0134 7B68     		ldr	r3, [r7, #4]
 266 0136 1B68     		ldr	r3, [r3]
 267              		.loc 1 304 18
 268 0138 DA6A     		ldr	r2, [r3, #44]
 269              		.loc 1 304 8
 270 013a 7B68     		ldr	r3, [r7, #4]
 271 013c 1B68     		ldr	r3, [r3]
 272              		.loc 1 304 25
 273 013e 02F07F42 		and	r2, r2, #-16777216
 274 0142 DA62     		str	r2, [r3, #44]
 305:Drivers/STM32F4xx_HAL_Driver/Src/stm32f4xx_hal_ltdc.c ****   hltdc->Instance->BCCR |= (tmp1 | tmp | hltdc->Init.Backcolor.Blue);
 275              		.loc 1 305 8
 276 0144 7B68     		ldr	r3, [r7, #4]
 277 0146 1B68     		ldr	r3, [r3]
 278              		.loc 1 305 18
 279 0148 D96A     		ldr	r1, [r3, #44]
 280              		.loc 1 305 34
 281 014a BA68     		ldr	r2, [r7, #8]
 282 014c FB68     		ldr	r3, [r7, #12]
 283 014e 1343     		orrs	r3, r3, r2
 284              		.loc 1 305 63
 285 0150 7A68     		ldr	r2, [r7, #4]
 286 0152 92F83420 		ldrb	r2, [r2, #52]	@ zero_extendqisi2
 287              		.loc 1 305 40
 288 0156 1A43     		orrs	r2, r2, r3
 289              		.loc 1 305 8
 290 0158 7B68     		ldr	r3, [r7, #4]
 291 015a 1B68     		ldr	r3, [r3]
 292              		.loc 1 305 25
 293 015c 0A43     		orrs	r2, r2, r1
 294 015e DA62     		str	r2, [r3, #44]
 306:Drivers/STM32F4xx_HAL_Driver/Src/stm32f4xx_hal_ltdc.c **** 
 307:Drivers/STM32F4xx_HAL_Driver/Src/stm32f4xx_hal_ltdc.c ****   /* Enable the Transfer Error and FIFO underrun interrupts */
 308:Drivers/STM32F4xx_HAL_Driver/Src/stm32f4xx_hal_ltdc.c ****   __HAL_LTDC_ENABLE_IT(hltdc, LTDC_IT_TE | LTDC_IT_FU);
 295              		.loc 1 308 3
 296 0160 7B68     		ldr	r3, [r7, #4]
 297 0162 1B68     		ldr	r3, [r3]
 298 0164 5A6B     		ldr	r2, [r3, #52]
 299 0166 7B68     		ldr	r3, [r7, #4]
 300 0168 1B68     		ldr	r3, [r3]
 301 016a 42F00602 		orr	r2, r2, #6
 302 016e 5A63     		str	r2, [r3, #52]
 309:Drivers/STM32F4xx_HAL_Driver/Src/stm32f4xx_hal_ltdc.c **** 
 310:Drivers/STM32F4xx_HAL_Driver/Src/stm32f4xx_hal_ltdc.c ****   /* Enable LTDC by setting LTDCEN bit */
 311:Drivers/STM32F4xx_HAL_Driver/Src/stm32f4xx_hal_ltdc.c ****   __HAL_LTDC_ENABLE(hltdc);
 303              		.loc 1 311 3
 304 0170 7B68     		ldr	r3, [r7, #4]
 305 0172 1B68     		ldr	r3, [r3]
 306 0174 9A69     		ldr	r2, [r3, #24]
 307 0176 7B68     		ldr	r3, [r7, #4]
 308 0178 1B68     		ldr	r3, [r3]
 309 017a 42F00102 		orr	r2, r2, #1
 310 017e 9A61     		str	r2, [r3, #24]
 312:Drivers/STM32F4xx_HAL_Driver/Src/stm32f4xx_hal_ltdc.c **** 
 313:Drivers/STM32F4xx_HAL_Driver/Src/stm32f4xx_hal_ltdc.c ****   /* Initialize the error code */
 314:Drivers/STM32F4xx_HAL_Driver/Src/stm32f4xx_hal_ltdc.c ****   hltdc->ErrorCode = HAL_LTDC_ERROR_NONE;
 311              		.loc 1 314 20
ARM GAS  /var/folders/06/9k7gq4t13mj84z2yhw3grvhc0000gn/T//ccuiTnhW.s 			page 12


 312 0180 7B68     		ldr	r3, [r7, #4]
 313 0182 0022     		movs	r2, #0
 314 0184 C3F8A420 		str	r2, [r3, #164]
 315:Drivers/STM32F4xx_HAL_Driver/Src/stm32f4xx_hal_ltdc.c **** 
 316:Drivers/STM32F4xx_HAL_Driver/Src/stm32f4xx_hal_ltdc.c ****   /* Initialize the LTDC state*/
 317:Drivers/STM32F4xx_HAL_Driver/Src/stm32f4xx_hal_ltdc.c ****   hltdc->State = HAL_LTDC_STATE_READY;
 315              		.loc 1 317 16
 316 0188 7B68     		ldr	r3, [r7, #4]
 317 018a 0122     		movs	r2, #1
 318 018c 83F8A120 		strb	r2, [r3, #161]
 318:Drivers/STM32F4xx_HAL_Driver/Src/stm32f4xx_hal_ltdc.c **** 
 319:Drivers/STM32F4xx_HAL_Driver/Src/stm32f4xx_hal_ltdc.c ****   return HAL_OK;
 319              		.loc 1 319 10
 320 0190 0023     		movs	r3, #0
 321              	.L3:
 320:Drivers/STM32F4xx_HAL_Driver/Src/stm32f4xx_hal_ltdc.c **** }
 322              		.loc 1 320 1
 323 0192 1846     		mov	r0, r3
 324 0194 1037     		adds	r7, r7, #16
 325              	.LCFI3:
 326              		.cfi_def_cfa_offset 8
 327 0196 BD46     		mov	sp, r7
 328              	.LCFI4:
 329              		.cfi_def_cfa_register 13
 330              		@ sp needed
 331 0198 80BD     		pop	{r7, pc}
 332              	.L6:
 333 019a 00BF     		.align	2
 334              	.L5:
 335 019c 00F800F0 		.word	-268371968
 336              		.cfi_endproc
 337              	.LFE134:
 339              		.section	.text.HAL_LTDC_DeInit,"ax",%progbits
 340              		.align	1
 341              		.global	HAL_LTDC_DeInit
 342              		.syntax unified
 343              		.thumb
 344              		.thumb_func
 346              	HAL_LTDC_DeInit:
 347              	.LFB135:
 321:Drivers/STM32F4xx_HAL_Driver/Src/stm32f4xx_hal_ltdc.c **** 
 322:Drivers/STM32F4xx_HAL_Driver/Src/stm32f4xx_hal_ltdc.c **** /**
 323:Drivers/STM32F4xx_HAL_Driver/Src/stm32f4xx_hal_ltdc.c ****   * @brief  De-initialize the LTDC peripheral.
 324:Drivers/STM32F4xx_HAL_Driver/Src/stm32f4xx_hal_ltdc.c ****   * @param  hltdc  pointer to a LTDC_HandleTypeDef structure that contains
 325:Drivers/STM32F4xx_HAL_Driver/Src/stm32f4xx_hal_ltdc.c ****   *                the configuration information for the LTDC.
 326:Drivers/STM32F4xx_HAL_Driver/Src/stm32f4xx_hal_ltdc.c ****   * @retval None
 327:Drivers/STM32F4xx_HAL_Driver/Src/stm32f4xx_hal_ltdc.c ****   */
 328:Drivers/STM32F4xx_HAL_Driver/Src/stm32f4xx_hal_ltdc.c **** 
 329:Drivers/STM32F4xx_HAL_Driver/Src/stm32f4xx_hal_ltdc.c **** HAL_StatusTypeDef HAL_LTDC_DeInit(LTDC_HandleTypeDef *hltdc)
 330:Drivers/STM32F4xx_HAL_Driver/Src/stm32f4xx_hal_ltdc.c **** {
 348              		.loc 1 330 1
 349              		.cfi_startproc
 350              		@ args = 0, pretend = 0, frame = 16
 351              		@ frame_needed = 1, uses_anonymous_args = 0
 352 0000 80B5     		push	{r7, lr}
 353              	.LCFI5:
 354              		.cfi_def_cfa_offset 8
ARM GAS  /var/folders/06/9k7gq4t13mj84z2yhw3grvhc0000gn/T//ccuiTnhW.s 			page 13


 355              		.cfi_offset 7, -8
 356              		.cfi_offset 14, -4
 357 0002 84B0     		sub	sp, sp, #16
 358              	.LCFI6:
 359              		.cfi_def_cfa_offset 24
 360 0004 00AF     		add	r7, sp, #0
 361              	.LCFI7:
 362              		.cfi_def_cfa_register 7
 363 0006 7860     		str	r0, [r7, #4]
 331:Drivers/STM32F4xx_HAL_Driver/Src/stm32f4xx_hal_ltdc.c ****   uint32_t tickstart;
 332:Drivers/STM32F4xx_HAL_Driver/Src/stm32f4xx_hal_ltdc.c **** 
 333:Drivers/STM32F4xx_HAL_Driver/Src/stm32f4xx_hal_ltdc.c ****   /* Check the LTDC peripheral state */
 334:Drivers/STM32F4xx_HAL_Driver/Src/stm32f4xx_hal_ltdc.c ****   if (hltdc == NULL)
 364              		.loc 1 334 6
 365 0008 7B68     		ldr	r3, [r7, #4]
 366 000a 002B     		cmp	r3, #0
 367 000c 01D1     		bne	.L8
 335:Drivers/STM32F4xx_HAL_Driver/Src/stm32f4xx_hal_ltdc.c ****   {
 336:Drivers/STM32F4xx_HAL_Driver/Src/stm32f4xx_hal_ltdc.c ****     return HAL_ERROR;
 368              		.loc 1 336 12
 369 000e 0123     		movs	r3, #1
 370 0010 49E0     		b	.L9
 371              	.L8:
 337:Drivers/STM32F4xx_HAL_Driver/Src/stm32f4xx_hal_ltdc.c ****   }
 338:Drivers/STM32F4xx_HAL_Driver/Src/stm32f4xx_hal_ltdc.c **** 
 339:Drivers/STM32F4xx_HAL_Driver/Src/stm32f4xx_hal_ltdc.c ****   /* Check function parameters */
 340:Drivers/STM32F4xx_HAL_Driver/Src/stm32f4xx_hal_ltdc.c ****   assert_param(IS_LTDC_ALL_INSTANCE(hltdc->Instance));
 341:Drivers/STM32F4xx_HAL_Driver/Src/stm32f4xx_hal_ltdc.c **** 
 342:Drivers/STM32F4xx_HAL_Driver/Src/stm32f4xx_hal_ltdc.c ****   /* Disable LTDC Layer 1 */
 343:Drivers/STM32F4xx_HAL_Driver/Src/stm32f4xx_hal_ltdc.c ****   __HAL_LTDC_LAYER_DISABLE(hltdc, LTDC_LAYER_1);
 372              		.loc 1 343 3
 373 0012 7B68     		ldr	r3, [r7, #4]
 374 0014 1B68     		ldr	r3, [r3]
 375 0016 8433     		adds	r3, r3, #132
 376 0018 1B68     		ldr	r3, [r3]
 377 001a 7A68     		ldr	r2, [r7, #4]
 378 001c 1268     		ldr	r2, [r2]
 379 001e 8432     		adds	r2, r2, #132
 380 0020 23F00103 		bic	r3, r3, #1
 381 0024 1360     		str	r3, [r2]
 344:Drivers/STM32F4xx_HAL_Driver/Src/stm32f4xx_hal_ltdc.c **** 
 345:Drivers/STM32F4xx_HAL_Driver/Src/stm32f4xx_hal_ltdc.c **** #if defined(LTDC_Layer2_BASE)
 346:Drivers/STM32F4xx_HAL_Driver/Src/stm32f4xx_hal_ltdc.c ****   /* Disable LTDC Layer 2 */
 347:Drivers/STM32F4xx_HAL_Driver/Src/stm32f4xx_hal_ltdc.c ****   __HAL_LTDC_LAYER_DISABLE(hltdc, LTDC_LAYER_2);
 382              		.loc 1 347 3
 383 0026 7B68     		ldr	r3, [r7, #4]
 384 0028 1B68     		ldr	r3, [r3]
 385 002a 03F58273 		add	r3, r3, #260
 386 002e 1B68     		ldr	r3, [r3]
 387 0030 7A68     		ldr	r2, [r7, #4]
 388 0032 1268     		ldr	r2, [r2]
 389 0034 02F58272 		add	r2, r2, #260
 390 0038 23F00103 		bic	r3, r3, #1
 391 003c 1360     		str	r3, [r2]
 348:Drivers/STM32F4xx_HAL_Driver/Src/stm32f4xx_hal_ltdc.c **** #endif /* LTDC_Layer2_BASE */
 349:Drivers/STM32F4xx_HAL_Driver/Src/stm32f4xx_hal_ltdc.c **** 
 350:Drivers/STM32F4xx_HAL_Driver/Src/stm32f4xx_hal_ltdc.c ****   /* Reload during vertical blanking period */
ARM GAS  /var/folders/06/9k7gq4t13mj84z2yhw3grvhc0000gn/T//ccuiTnhW.s 			page 14


 351:Drivers/STM32F4xx_HAL_Driver/Src/stm32f4xx_hal_ltdc.c ****   __HAL_LTDC_VERTICAL_BLANKING_RELOAD_CONFIG(hltdc);
 392              		.loc 1 351 3
 393 003e 7B68     		ldr	r3, [r7, #4]
 394 0040 1B68     		ldr	r3, [r3]
 395 0042 5A6A     		ldr	r2, [r3, #36]
 396 0044 7B68     		ldr	r3, [r7, #4]
 397 0046 1B68     		ldr	r3, [r3]
 398 0048 42F00202 		orr	r2, r2, #2
 399 004c 5A62     		str	r2, [r3, #36]
 352:Drivers/STM32F4xx_HAL_Driver/Src/stm32f4xx_hal_ltdc.c **** 
 353:Drivers/STM32F4xx_HAL_Driver/Src/stm32f4xx_hal_ltdc.c ****   /* Get tick */
 354:Drivers/STM32F4xx_HAL_Driver/Src/stm32f4xx_hal_ltdc.c ****   tickstart = HAL_GetTick();
 400              		.loc 1 354 15
 401 004e FFF7FEFF 		bl	HAL_GetTick
 402 0052 F860     		str	r0, [r7, #12]
 355:Drivers/STM32F4xx_HAL_Driver/Src/stm32f4xx_hal_ltdc.c **** 
 356:Drivers/STM32F4xx_HAL_Driver/Src/stm32f4xx_hal_ltdc.c ****   /* Wait for VSYNC Interrupt */
 357:Drivers/STM32F4xx_HAL_Driver/Src/stm32f4xx_hal_ltdc.c ****   while (READ_BIT(hltdc->Instance->CDSR, LTDC_CDSR_VSYNCS) == 0U)
 403              		.loc 1 357 9
 404 0054 06E0     		b	.L10
 405              	.L12:
 358:Drivers/STM32F4xx_HAL_Driver/Src/stm32f4xx_hal_ltdc.c ****   {
 359:Drivers/STM32F4xx_HAL_Driver/Src/stm32f4xx_hal_ltdc.c ****     /* Check for the Timeout */
 360:Drivers/STM32F4xx_HAL_Driver/Src/stm32f4xx_hal_ltdc.c ****     if ((HAL_GetTick() - tickstart) > LTDC_TIMEOUT_VALUE)
 406              		.loc 1 360 10
 407 0056 FFF7FEFF 		bl	HAL_GetTick
 408 005a 0246     		mov	r2, r0
 409              		.loc 1 360 24 discriminator 1
 410 005c FB68     		ldr	r3, [r7, #12]
 411 005e D31A     		subs	r3, r2, r3
 412              		.loc 1 360 8 discriminator 1
 413 0060 642B     		cmp	r3, #100
 414 0062 07D8     		bhi	.L13
 415              	.L10:
 357:Drivers/STM32F4xx_HAL_Driver/Src/stm32f4xx_hal_ltdc.c ****   {
 416              		.loc 1 357 10
 417 0064 7B68     		ldr	r3, [r7, #4]
 418 0066 1B68     		ldr	r3, [r3]
 419 0068 9B6C     		ldr	r3, [r3, #72]
 420 006a 03F00403 		and	r3, r3, #4
 357:Drivers/STM32F4xx_HAL_Driver/Src/stm32f4xx_hal_ltdc.c ****   {
 421              		.loc 1 357 60
 422 006e 002B     		cmp	r3, #0
 423 0070 F1D0     		beq	.L12
 424 0072 00E0     		b	.L11
 425              	.L13:
 361:Drivers/STM32F4xx_HAL_Driver/Src/stm32f4xx_hal_ltdc.c ****     {
 362:Drivers/STM32F4xx_HAL_Driver/Src/stm32f4xx_hal_ltdc.c ****       break;
 426              		.loc 1 362 7
 427 0074 00BF     		nop
 428              	.L11:
 363:Drivers/STM32F4xx_HAL_Driver/Src/stm32f4xx_hal_ltdc.c ****     }
 364:Drivers/STM32F4xx_HAL_Driver/Src/stm32f4xx_hal_ltdc.c ****   }
 365:Drivers/STM32F4xx_HAL_Driver/Src/stm32f4xx_hal_ltdc.c **** 
 366:Drivers/STM32F4xx_HAL_Driver/Src/stm32f4xx_hal_ltdc.c ****   /* Disable LTDC  */
 367:Drivers/STM32F4xx_HAL_Driver/Src/stm32f4xx_hal_ltdc.c ****   __HAL_LTDC_DISABLE(hltdc);
 429              		.loc 1 367 3
ARM GAS  /var/folders/06/9k7gq4t13mj84z2yhw3grvhc0000gn/T//ccuiTnhW.s 			page 15


 430 0076 7B68     		ldr	r3, [r7, #4]
 431 0078 1B68     		ldr	r3, [r3]
 432 007a 9A69     		ldr	r2, [r3, #24]
 433 007c 7B68     		ldr	r3, [r7, #4]
 434 007e 1B68     		ldr	r3, [r3]
 435 0080 22F00102 		bic	r2, r2, #1
 436 0084 9A61     		str	r2, [r3, #24]
 368:Drivers/STM32F4xx_HAL_Driver/Src/stm32f4xx_hal_ltdc.c **** 
 369:Drivers/STM32F4xx_HAL_Driver/Src/stm32f4xx_hal_ltdc.c **** #if (USE_HAL_LTDC_REGISTER_CALLBACKS == 1)
 370:Drivers/STM32F4xx_HAL_Driver/Src/stm32f4xx_hal_ltdc.c ****   if (hltdc->MspDeInitCallback == NULL)
 371:Drivers/STM32F4xx_HAL_Driver/Src/stm32f4xx_hal_ltdc.c ****   {
 372:Drivers/STM32F4xx_HAL_Driver/Src/stm32f4xx_hal_ltdc.c ****     hltdc->MspDeInitCallback = HAL_LTDC_MspDeInit;
 373:Drivers/STM32F4xx_HAL_Driver/Src/stm32f4xx_hal_ltdc.c ****   }
 374:Drivers/STM32F4xx_HAL_Driver/Src/stm32f4xx_hal_ltdc.c ****   /* DeInit the low level hardware */
 375:Drivers/STM32F4xx_HAL_Driver/Src/stm32f4xx_hal_ltdc.c ****   hltdc->MspDeInitCallback(hltdc);
 376:Drivers/STM32F4xx_HAL_Driver/Src/stm32f4xx_hal_ltdc.c **** #else
 377:Drivers/STM32F4xx_HAL_Driver/Src/stm32f4xx_hal_ltdc.c ****   /* DeInit the low level hardware */
 378:Drivers/STM32F4xx_HAL_Driver/Src/stm32f4xx_hal_ltdc.c ****   HAL_LTDC_MspDeInit(hltdc);
 437              		.loc 1 378 3
 438 0086 7868     		ldr	r0, [r7, #4]
 439 0088 FFF7FEFF 		bl	HAL_LTDC_MspDeInit
 379:Drivers/STM32F4xx_HAL_Driver/Src/stm32f4xx_hal_ltdc.c **** #endif /* USE_HAL_LTDC_REGISTER_CALLBACKS */
 380:Drivers/STM32F4xx_HAL_Driver/Src/stm32f4xx_hal_ltdc.c **** 
 381:Drivers/STM32F4xx_HAL_Driver/Src/stm32f4xx_hal_ltdc.c ****   /* Initialize the error code */
 382:Drivers/STM32F4xx_HAL_Driver/Src/stm32f4xx_hal_ltdc.c ****   hltdc->ErrorCode = HAL_LTDC_ERROR_NONE;
 440              		.loc 1 382 20
 441 008c 7B68     		ldr	r3, [r7, #4]
 442 008e 0022     		movs	r2, #0
 443 0090 C3F8A420 		str	r2, [r3, #164]
 383:Drivers/STM32F4xx_HAL_Driver/Src/stm32f4xx_hal_ltdc.c **** 
 384:Drivers/STM32F4xx_HAL_Driver/Src/stm32f4xx_hal_ltdc.c ****   /* Initialize the LTDC state*/
 385:Drivers/STM32F4xx_HAL_Driver/Src/stm32f4xx_hal_ltdc.c ****   hltdc->State = HAL_LTDC_STATE_RESET;
 444              		.loc 1 385 16
 445 0094 7B68     		ldr	r3, [r7, #4]
 446 0096 0022     		movs	r2, #0
 447 0098 83F8A120 		strb	r2, [r3, #161]
 386:Drivers/STM32F4xx_HAL_Driver/Src/stm32f4xx_hal_ltdc.c **** 
 387:Drivers/STM32F4xx_HAL_Driver/Src/stm32f4xx_hal_ltdc.c ****   /* Release Lock */
 388:Drivers/STM32F4xx_HAL_Driver/Src/stm32f4xx_hal_ltdc.c ****   __HAL_UNLOCK(hltdc);
 448              		.loc 1 388 3
 449 009c 7B68     		ldr	r3, [r7, #4]
 450 009e 0022     		movs	r2, #0
 451 00a0 83F8A020 		strb	r2, [r3, #160]
 389:Drivers/STM32F4xx_HAL_Driver/Src/stm32f4xx_hal_ltdc.c **** 
 390:Drivers/STM32F4xx_HAL_Driver/Src/stm32f4xx_hal_ltdc.c ****   return HAL_OK;
 452              		.loc 1 390 10
 453 00a4 0023     		movs	r3, #0
 454              	.L9:
 391:Drivers/STM32F4xx_HAL_Driver/Src/stm32f4xx_hal_ltdc.c **** }
 455              		.loc 1 391 1
 456 00a6 1846     		mov	r0, r3
 457 00a8 1037     		adds	r7, r7, #16
 458              	.LCFI8:
 459              		.cfi_def_cfa_offset 8
 460 00aa BD46     		mov	sp, r7
 461              	.LCFI9:
 462              		.cfi_def_cfa_register 13
ARM GAS  /var/folders/06/9k7gq4t13mj84z2yhw3grvhc0000gn/T//ccuiTnhW.s 			page 16


 463              		@ sp needed
 464 00ac 80BD     		pop	{r7, pc}
 465              		.cfi_endproc
 466              	.LFE135:
 468              		.section	.text.HAL_LTDC_MspInit,"ax",%progbits
 469              		.align	1
 470              		.weak	HAL_LTDC_MspInit
 471              		.syntax unified
 472              		.thumb
 473              		.thumb_func
 475              	HAL_LTDC_MspInit:
 476              	.LFB136:
 392:Drivers/STM32F4xx_HAL_Driver/Src/stm32f4xx_hal_ltdc.c **** 
 393:Drivers/STM32F4xx_HAL_Driver/Src/stm32f4xx_hal_ltdc.c **** /**
 394:Drivers/STM32F4xx_HAL_Driver/Src/stm32f4xx_hal_ltdc.c ****   * @brief  Initialize the LTDC MSP.
 395:Drivers/STM32F4xx_HAL_Driver/Src/stm32f4xx_hal_ltdc.c ****   * @param  hltdc  pointer to a LTDC_HandleTypeDef structure that contains
 396:Drivers/STM32F4xx_HAL_Driver/Src/stm32f4xx_hal_ltdc.c ****   *                the configuration information for the LTDC.
 397:Drivers/STM32F4xx_HAL_Driver/Src/stm32f4xx_hal_ltdc.c ****   * @retval None
 398:Drivers/STM32F4xx_HAL_Driver/Src/stm32f4xx_hal_ltdc.c ****   */
 399:Drivers/STM32F4xx_HAL_Driver/Src/stm32f4xx_hal_ltdc.c **** __weak void HAL_LTDC_MspInit(LTDC_HandleTypeDef *hltdc)
 400:Drivers/STM32F4xx_HAL_Driver/Src/stm32f4xx_hal_ltdc.c **** {
 477              		.loc 1 400 1
 478              		.cfi_startproc
 479              		@ args = 0, pretend = 0, frame = 8
 480              		@ frame_needed = 1, uses_anonymous_args = 0
 481              		@ link register save eliminated.
 482 0000 80B4     		push	{r7}
 483              	.LCFI10:
 484              		.cfi_def_cfa_offset 4
 485              		.cfi_offset 7, -4
 486 0002 83B0     		sub	sp, sp, #12
 487              	.LCFI11:
 488              		.cfi_def_cfa_offset 16
 489 0004 00AF     		add	r7, sp, #0
 490              	.LCFI12:
 491              		.cfi_def_cfa_register 7
 492 0006 7860     		str	r0, [r7, #4]
 401:Drivers/STM32F4xx_HAL_Driver/Src/stm32f4xx_hal_ltdc.c ****   /* Prevent unused argument(s) compilation warning */
 402:Drivers/STM32F4xx_HAL_Driver/Src/stm32f4xx_hal_ltdc.c ****   UNUSED(hltdc);
 403:Drivers/STM32F4xx_HAL_Driver/Src/stm32f4xx_hal_ltdc.c **** 
 404:Drivers/STM32F4xx_HAL_Driver/Src/stm32f4xx_hal_ltdc.c ****   /* NOTE : This function should not be modified, when the callback is needed,
 405:Drivers/STM32F4xx_HAL_Driver/Src/stm32f4xx_hal_ltdc.c ****             the HAL_LTDC_MspInit could be implemented in the user file
 406:Drivers/STM32F4xx_HAL_Driver/Src/stm32f4xx_hal_ltdc.c ****    */
 407:Drivers/STM32F4xx_HAL_Driver/Src/stm32f4xx_hal_ltdc.c **** }
 493              		.loc 1 407 1
 494 0008 00BF     		nop
 495 000a 0C37     		adds	r7, r7, #12
 496              	.LCFI13:
 497              		.cfi_def_cfa_offset 4
 498 000c BD46     		mov	sp, r7
 499              	.LCFI14:
 500              		.cfi_def_cfa_register 13
 501              		@ sp needed
 502 000e 5DF8047B 		ldr	r7, [sp], #4
 503              	.LCFI15:
 504              		.cfi_restore 7
 505              		.cfi_def_cfa_offset 0
ARM GAS  /var/folders/06/9k7gq4t13mj84z2yhw3grvhc0000gn/T//ccuiTnhW.s 			page 17


 506 0012 7047     		bx	lr
 507              		.cfi_endproc
 508              	.LFE136:
 510              		.section	.text.HAL_LTDC_MspDeInit,"ax",%progbits
 511              		.align	1
 512              		.weak	HAL_LTDC_MspDeInit
 513              		.syntax unified
 514              		.thumb
 515              		.thumb_func
 517              	HAL_LTDC_MspDeInit:
 518              	.LFB137:
 408:Drivers/STM32F4xx_HAL_Driver/Src/stm32f4xx_hal_ltdc.c **** 
 409:Drivers/STM32F4xx_HAL_Driver/Src/stm32f4xx_hal_ltdc.c **** /**
 410:Drivers/STM32F4xx_HAL_Driver/Src/stm32f4xx_hal_ltdc.c ****   * @brief  De-initialize the LTDC MSP.
 411:Drivers/STM32F4xx_HAL_Driver/Src/stm32f4xx_hal_ltdc.c ****   * @param  hltdc  pointer to a LTDC_HandleTypeDef structure that contains
 412:Drivers/STM32F4xx_HAL_Driver/Src/stm32f4xx_hal_ltdc.c ****   *                the configuration information for the LTDC.
 413:Drivers/STM32F4xx_HAL_Driver/Src/stm32f4xx_hal_ltdc.c ****   * @retval None
 414:Drivers/STM32F4xx_HAL_Driver/Src/stm32f4xx_hal_ltdc.c ****   */
 415:Drivers/STM32F4xx_HAL_Driver/Src/stm32f4xx_hal_ltdc.c **** __weak void HAL_LTDC_MspDeInit(LTDC_HandleTypeDef *hltdc)
 416:Drivers/STM32F4xx_HAL_Driver/Src/stm32f4xx_hal_ltdc.c **** {
 519              		.loc 1 416 1
 520              		.cfi_startproc
 521              		@ args = 0, pretend = 0, frame = 8
 522              		@ frame_needed = 1, uses_anonymous_args = 0
 523              		@ link register save eliminated.
 524 0000 80B4     		push	{r7}
 525              	.LCFI16:
 526              		.cfi_def_cfa_offset 4
 527              		.cfi_offset 7, -4
 528 0002 83B0     		sub	sp, sp, #12
 529              	.LCFI17:
 530              		.cfi_def_cfa_offset 16
 531 0004 00AF     		add	r7, sp, #0
 532              	.LCFI18:
 533              		.cfi_def_cfa_register 7
 534 0006 7860     		str	r0, [r7, #4]
 417:Drivers/STM32F4xx_HAL_Driver/Src/stm32f4xx_hal_ltdc.c ****   /* Prevent unused argument(s) compilation warning */
 418:Drivers/STM32F4xx_HAL_Driver/Src/stm32f4xx_hal_ltdc.c ****   UNUSED(hltdc);
 419:Drivers/STM32F4xx_HAL_Driver/Src/stm32f4xx_hal_ltdc.c **** 
 420:Drivers/STM32F4xx_HAL_Driver/Src/stm32f4xx_hal_ltdc.c ****   /* NOTE : This function should not be modified, when the callback is needed,
 421:Drivers/STM32F4xx_HAL_Driver/Src/stm32f4xx_hal_ltdc.c ****             the HAL_LTDC_MspDeInit could be implemented in the user file
 422:Drivers/STM32F4xx_HAL_Driver/Src/stm32f4xx_hal_ltdc.c ****    */
 423:Drivers/STM32F4xx_HAL_Driver/Src/stm32f4xx_hal_ltdc.c **** }
 535              		.loc 1 423 1
 536 0008 00BF     		nop
 537 000a 0C37     		adds	r7, r7, #12
 538              	.LCFI19:
 539              		.cfi_def_cfa_offset 4
 540 000c BD46     		mov	sp, r7
 541              	.LCFI20:
 542              		.cfi_def_cfa_register 13
 543              		@ sp needed
 544 000e 5DF8047B 		ldr	r7, [sp], #4
 545              	.LCFI21:
 546              		.cfi_restore 7
 547              		.cfi_def_cfa_offset 0
 548 0012 7047     		bx	lr
ARM GAS  /var/folders/06/9k7gq4t13mj84z2yhw3grvhc0000gn/T//ccuiTnhW.s 			page 18


 549              		.cfi_endproc
 550              	.LFE137:
 552              		.section	.text.HAL_LTDC_IRQHandler,"ax",%progbits
 553              		.align	1
 554              		.global	HAL_LTDC_IRQHandler
 555              		.syntax unified
 556              		.thumb
 557              		.thumb_func
 559              	HAL_LTDC_IRQHandler:
 560              	.LFB138:
 424:Drivers/STM32F4xx_HAL_Driver/Src/stm32f4xx_hal_ltdc.c **** 
 425:Drivers/STM32F4xx_HAL_Driver/Src/stm32f4xx_hal_ltdc.c **** #if (USE_HAL_LTDC_REGISTER_CALLBACKS == 1)
 426:Drivers/STM32F4xx_HAL_Driver/Src/stm32f4xx_hal_ltdc.c **** /**
 427:Drivers/STM32F4xx_HAL_Driver/Src/stm32f4xx_hal_ltdc.c ****   * @brief  Register a User LTDC Callback
 428:Drivers/STM32F4xx_HAL_Driver/Src/stm32f4xx_hal_ltdc.c ****   *         To be used instead of the weak predefined callback
 429:Drivers/STM32F4xx_HAL_Driver/Src/stm32f4xx_hal_ltdc.c ****   * @param hltdc ltdc handle
 430:Drivers/STM32F4xx_HAL_Driver/Src/stm32f4xx_hal_ltdc.c ****   * @param CallbackID ID of the callback to be registered
 431:Drivers/STM32F4xx_HAL_Driver/Src/stm32f4xx_hal_ltdc.c ****   *        This parameter can be one of the following values:
 432:Drivers/STM32F4xx_HAL_Driver/Src/stm32f4xx_hal_ltdc.c ****   *          @arg @ref HAL_LTDC_LINE_EVENT_CB_ID Line Event Callback ID
 433:Drivers/STM32F4xx_HAL_Driver/Src/stm32f4xx_hal_ltdc.c ****   *          @arg @ref HAL_LTDC_RELOAD_EVENT_CB_ID Reload Event Callback ID
 434:Drivers/STM32F4xx_HAL_Driver/Src/stm32f4xx_hal_ltdc.c ****   *          @arg @ref HAL_LTDC_ERROR_CB_ID Error Callback ID
 435:Drivers/STM32F4xx_HAL_Driver/Src/stm32f4xx_hal_ltdc.c ****   *          @arg @ref HAL_LTDC_MSPINIT_CB_ID MspInit callback ID
 436:Drivers/STM32F4xx_HAL_Driver/Src/stm32f4xx_hal_ltdc.c ****   *          @arg @ref HAL_LTDC_MSPDEINIT_CB_ID MspDeInit callback ID
 437:Drivers/STM32F4xx_HAL_Driver/Src/stm32f4xx_hal_ltdc.c ****   * @param pCallback pointer to the Callback function
 438:Drivers/STM32F4xx_HAL_Driver/Src/stm32f4xx_hal_ltdc.c ****   * @retval status
 439:Drivers/STM32F4xx_HAL_Driver/Src/stm32f4xx_hal_ltdc.c ****   */
 440:Drivers/STM32F4xx_HAL_Driver/Src/stm32f4xx_hal_ltdc.c **** HAL_StatusTypeDef HAL_LTDC_RegisterCallback(LTDC_HandleTypeDef *hltdc, HAL_LTDC_CallbackIDTypeDef C
 441:Drivers/STM32F4xx_HAL_Driver/Src/stm32f4xx_hal_ltdc.c ****                                             pLTDC_CallbackTypeDef pCallback)
 442:Drivers/STM32F4xx_HAL_Driver/Src/stm32f4xx_hal_ltdc.c **** {
 443:Drivers/STM32F4xx_HAL_Driver/Src/stm32f4xx_hal_ltdc.c ****   HAL_StatusTypeDef status = HAL_OK;
 444:Drivers/STM32F4xx_HAL_Driver/Src/stm32f4xx_hal_ltdc.c **** 
 445:Drivers/STM32F4xx_HAL_Driver/Src/stm32f4xx_hal_ltdc.c ****   if (pCallback == NULL)
 446:Drivers/STM32F4xx_HAL_Driver/Src/stm32f4xx_hal_ltdc.c ****   {
 447:Drivers/STM32F4xx_HAL_Driver/Src/stm32f4xx_hal_ltdc.c ****     /* Update the error code */
 448:Drivers/STM32F4xx_HAL_Driver/Src/stm32f4xx_hal_ltdc.c ****     hltdc->ErrorCode |= HAL_LTDC_ERROR_INVALID_CALLBACK;
 449:Drivers/STM32F4xx_HAL_Driver/Src/stm32f4xx_hal_ltdc.c **** 
 450:Drivers/STM32F4xx_HAL_Driver/Src/stm32f4xx_hal_ltdc.c ****     return HAL_ERROR;
 451:Drivers/STM32F4xx_HAL_Driver/Src/stm32f4xx_hal_ltdc.c ****   }
 452:Drivers/STM32F4xx_HAL_Driver/Src/stm32f4xx_hal_ltdc.c ****   /* Process locked */
 453:Drivers/STM32F4xx_HAL_Driver/Src/stm32f4xx_hal_ltdc.c ****   __HAL_LOCK(hltdc);
 454:Drivers/STM32F4xx_HAL_Driver/Src/stm32f4xx_hal_ltdc.c **** 
 455:Drivers/STM32F4xx_HAL_Driver/Src/stm32f4xx_hal_ltdc.c ****   if (hltdc->State == HAL_LTDC_STATE_READY)
 456:Drivers/STM32F4xx_HAL_Driver/Src/stm32f4xx_hal_ltdc.c ****   {
 457:Drivers/STM32F4xx_HAL_Driver/Src/stm32f4xx_hal_ltdc.c ****     switch (CallbackID)
 458:Drivers/STM32F4xx_HAL_Driver/Src/stm32f4xx_hal_ltdc.c ****     {
 459:Drivers/STM32F4xx_HAL_Driver/Src/stm32f4xx_hal_ltdc.c ****       case HAL_LTDC_LINE_EVENT_CB_ID :
 460:Drivers/STM32F4xx_HAL_Driver/Src/stm32f4xx_hal_ltdc.c ****         hltdc->LineEventCallback = pCallback;
 461:Drivers/STM32F4xx_HAL_Driver/Src/stm32f4xx_hal_ltdc.c ****         break;
 462:Drivers/STM32F4xx_HAL_Driver/Src/stm32f4xx_hal_ltdc.c **** 
 463:Drivers/STM32F4xx_HAL_Driver/Src/stm32f4xx_hal_ltdc.c ****       case HAL_LTDC_RELOAD_EVENT_CB_ID :
 464:Drivers/STM32F4xx_HAL_Driver/Src/stm32f4xx_hal_ltdc.c ****         hltdc->ReloadEventCallback = pCallback;
 465:Drivers/STM32F4xx_HAL_Driver/Src/stm32f4xx_hal_ltdc.c ****         break;
 466:Drivers/STM32F4xx_HAL_Driver/Src/stm32f4xx_hal_ltdc.c **** 
 467:Drivers/STM32F4xx_HAL_Driver/Src/stm32f4xx_hal_ltdc.c ****       case HAL_LTDC_ERROR_CB_ID :
 468:Drivers/STM32F4xx_HAL_Driver/Src/stm32f4xx_hal_ltdc.c ****         hltdc->ErrorCallback = pCallback;
 469:Drivers/STM32F4xx_HAL_Driver/Src/stm32f4xx_hal_ltdc.c ****         break;
 470:Drivers/STM32F4xx_HAL_Driver/Src/stm32f4xx_hal_ltdc.c **** 
ARM GAS  /var/folders/06/9k7gq4t13mj84z2yhw3grvhc0000gn/T//ccuiTnhW.s 			page 19


 471:Drivers/STM32F4xx_HAL_Driver/Src/stm32f4xx_hal_ltdc.c ****       case HAL_LTDC_MSPINIT_CB_ID :
 472:Drivers/STM32F4xx_HAL_Driver/Src/stm32f4xx_hal_ltdc.c ****         hltdc->MspInitCallback = pCallback;
 473:Drivers/STM32F4xx_HAL_Driver/Src/stm32f4xx_hal_ltdc.c ****         break;
 474:Drivers/STM32F4xx_HAL_Driver/Src/stm32f4xx_hal_ltdc.c **** 
 475:Drivers/STM32F4xx_HAL_Driver/Src/stm32f4xx_hal_ltdc.c ****       case HAL_LTDC_MSPDEINIT_CB_ID :
 476:Drivers/STM32F4xx_HAL_Driver/Src/stm32f4xx_hal_ltdc.c ****         hltdc->MspDeInitCallback = pCallback;
 477:Drivers/STM32F4xx_HAL_Driver/Src/stm32f4xx_hal_ltdc.c ****         break;
 478:Drivers/STM32F4xx_HAL_Driver/Src/stm32f4xx_hal_ltdc.c **** 
 479:Drivers/STM32F4xx_HAL_Driver/Src/stm32f4xx_hal_ltdc.c ****       default :
 480:Drivers/STM32F4xx_HAL_Driver/Src/stm32f4xx_hal_ltdc.c ****         /* Update the error code */
 481:Drivers/STM32F4xx_HAL_Driver/Src/stm32f4xx_hal_ltdc.c ****         hltdc->ErrorCode |= HAL_LTDC_ERROR_INVALID_CALLBACK;
 482:Drivers/STM32F4xx_HAL_Driver/Src/stm32f4xx_hal_ltdc.c ****         /* Return error status */
 483:Drivers/STM32F4xx_HAL_Driver/Src/stm32f4xx_hal_ltdc.c ****         status =  HAL_ERROR;
 484:Drivers/STM32F4xx_HAL_Driver/Src/stm32f4xx_hal_ltdc.c ****         break;
 485:Drivers/STM32F4xx_HAL_Driver/Src/stm32f4xx_hal_ltdc.c ****     }
 486:Drivers/STM32F4xx_HAL_Driver/Src/stm32f4xx_hal_ltdc.c ****   }
 487:Drivers/STM32F4xx_HAL_Driver/Src/stm32f4xx_hal_ltdc.c ****   else if (hltdc->State == HAL_LTDC_STATE_RESET)
 488:Drivers/STM32F4xx_HAL_Driver/Src/stm32f4xx_hal_ltdc.c ****   {
 489:Drivers/STM32F4xx_HAL_Driver/Src/stm32f4xx_hal_ltdc.c ****     switch (CallbackID)
 490:Drivers/STM32F4xx_HAL_Driver/Src/stm32f4xx_hal_ltdc.c ****     {
 491:Drivers/STM32F4xx_HAL_Driver/Src/stm32f4xx_hal_ltdc.c ****       case HAL_LTDC_MSPINIT_CB_ID :
 492:Drivers/STM32F4xx_HAL_Driver/Src/stm32f4xx_hal_ltdc.c ****         hltdc->MspInitCallback = pCallback;
 493:Drivers/STM32F4xx_HAL_Driver/Src/stm32f4xx_hal_ltdc.c ****         break;
 494:Drivers/STM32F4xx_HAL_Driver/Src/stm32f4xx_hal_ltdc.c **** 
 495:Drivers/STM32F4xx_HAL_Driver/Src/stm32f4xx_hal_ltdc.c ****       case HAL_LTDC_MSPDEINIT_CB_ID :
 496:Drivers/STM32F4xx_HAL_Driver/Src/stm32f4xx_hal_ltdc.c ****         hltdc->MspDeInitCallback = pCallback;
 497:Drivers/STM32F4xx_HAL_Driver/Src/stm32f4xx_hal_ltdc.c ****         break;
 498:Drivers/STM32F4xx_HAL_Driver/Src/stm32f4xx_hal_ltdc.c **** 
 499:Drivers/STM32F4xx_HAL_Driver/Src/stm32f4xx_hal_ltdc.c ****       default :
 500:Drivers/STM32F4xx_HAL_Driver/Src/stm32f4xx_hal_ltdc.c ****         /* Update the error code */
 501:Drivers/STM32F4xx_HAL_Driver/Src/stm32f4xx_hal_ltdc.c ****         hltdc->ErrorCode |= HAL_LTDC_ERROR_INVALID_CALLBACK;
 502:Drivers/STM32F4xx_HAL_Driver/Src/stm32f4xx_hal_ltdc.c ****         /* Return error status */
 503:Drivers/STM32F4xx_HAL_Driver/Src/stm32f4xx_hal_ltdc.c ****         status =  HAL_ERROR;
 504:Drivers/STM32F4xx_HAL_Driver/Src/stm32f4xx_hal_ltdc.c ****         break;
 505:Drivers/STM32F4xx_HAL_Driver/Src/stm32f4xx_hal_ltdc.c ****     }
 506:Drivers/STM32F4xx_HAL_Driver/Src/stm32f4xx_hal_ltdc.c ****   }
 507:Drivers/STM32F4xx_HAL_Driver/Src/stm32f4xx_hal_ltdc.c ****   else
 508:Drivers/STM32F4xx_HAL_Driver/Src/stm32f4xx_hal_ltdc.c ****   {
 509:Drivers/STM32F4xx_HAL_Driver/Src/stm32f4xx_hal_ltdc.c ****     /* Update the error code */
 510:Drivers/STM32F4xx_HAL_Driver/Src/stm32f4xx_hal_ltdc.c ****     hltdc->ErrorCode |= HAL_LTDC_ERROR_INVALID_CALLBACK;
 511:Drivers/STM32F4xx_HAL_Driver/Src/stm32f4xx_hal_ltdc.c ****     /* Return error status */
 512:Drivers/STM32F4xx_HAL_Driver/Src/stm32f4xx_hal_ltdc.c ****     status =  HAL_ERROR;
 513:Drivers/STM32F4xx_HAL_Driver/Src/stm32f4xx_hal_ltdc.c ****   }
 514:Drivers/STM32F4xx_HAL_Driver/Src/stm32f4xx_hal_ltdc.c **** 
 515:Drivers/STM32F4xx_HAL_Driver/Src/stm32f4xx_hal_ltdc.c ****   /* Release Lock */
 516:Drivers/STM32F4xx_HAL_Driver/Src/stm32f4xx_hal_ltdc.c ****   __HAL_UNLOCK(hltdc);
 517:Drivers/STM32F4xx_HAL_Driver/Src/stm32f4xx_hal_ltdc.c **** 
 518:Drivers/STM32F4xx_HAL_Driver/Src/stm32f4xx_hal_ltdc.c ****   return status;
 519:Drivers/STM32F4xx_HAL_Driver/Src/stm32f4xx_hal_ltdc.c **** }
 520:Drivers/STM32F4xx_HAL_Driver/Src/stm32f4xx_hal_ltdc.c **** 
 521:Drivers/STM32F4xx_HAL_Driver/Src/stm32f4xx_hal_ltdc.c **** /**
 522:Drivers/STM32F4xx_HAL_Driver/Src/stm32f4xx_hal_ltdc.c ****   * @brief  Unregister an LTDC Callback
 523:Drivers/STM32F4xx_HAL_Driver/Src/stm32f4xx_hal_ltdc.c ****   *         LTDC callback is redirected to the weak predefined callback
 524:Drivers/STM32F4xx_HAL_Driver/Src/stm32f4xx_hal_ltdc.c ****   * @param hltdc ltdc handle
 525:Drivers/STM32F4xx_HAL_Driver/Src/stm32f4xx_hal_ltdc.c ****   * @param CallbackID ID of the callback to be unregistered
 526:Drivers/STM32F4xx_HAL_Driver/Src/stm32f4xx_hal_ltdc.c ****   *        This parameter can be one of the following values:
 527:Drivers/STM32F4xx_HAL_Driver/Src/stm32f4xx_hal_ltdc.c ****   *          @arg @ref HAL_LTDC_LINE_EVENT_CB_ID Line Event Callback ID
ARM GAS  /var/folders/06/9k7gq4t13mj84z2yhw3grvhc0000gn/T//ccuiTnhW.s 			page 20


 528:Drivers/STM32F4xx_HAL_Driver/Src/stm32f4xx_hal_ltdc.c ****   *          @arg @ref HAL_LTDC_RELOAD_EVENT_CB_ID Reload Event Callback ID
 529:Drivers/STM32F4xx_HAL_Driver/Src/stm32f4xx_hal_ltdc.c ****   *          @arg @ref HAL_LTDC_ERROR_CB_ID Error Callback ID
 530:Drivers/STM32F4xx_HAL_Driver/Src/stm32f4xx_hal_ltdc.c ****   *          @arg @ref HAL_LTDC_MSPINIT_CB_ID MspInit callback ID
 531:Drivers/STM32F4xx_HAL_Driver/Src/stm32f4xx_hal_ltdc.c ****   *          @arg @ref HAL_LTDC_MSPDEINIT_CB_ID MspDeInit callback ID
 532:Drivers/STM32F4xx_HAL_Driver/Src/stm32f4xx_hal_ltdc.c ****   * @retval status
 533:Drivers/STM32F4xx_HAL_Driver/Src/stm32f4xx_hal_ltdc.c ****   */
 534:Drivers/STM32F4xx_HAL_Driver/Src/stm32f4xx_hal_ltdc.c **** HAL_StatusTypeDef HAL_LTDC_UnRegisterCallback(LTDC_HandleTypeDef *hltdc, HAL_LTDC_CallbackIDTypeDef
 535:Drivers/STM32F4xx_HAL_Driver/Src/stm32f4xx_hal_ltdc.c **** {
 536:Drivers/STM32F4xx_HAL_Driver/Src/stm32f4xx_hal_ltdc.c ****   HAL_StatusTypeDef status = HAL_OK;
 537:Drivers/STM32F4xx_HAL_Driver/Src/stm32f4xx_hal_ltdc.c **** 
 538:Drivers/STM32F4xx_HAL_Driver/Src/stm32f4xx_hal_ltdc.c ****   /* Process locked */
 539:Drivers/STM32F4xx_HAL_Driver/Src/stm32f4xx_hal_ltdc.c ****   __HAL_LOCK(hltdc);
 540:Drivers/STM32F4xx_HAL_Driver/Src/stm32f4xx_hal_ltdc.c **** 
 541:Drivers/STM32F4xx_HAL_Driver/Src/stm32f4xx_hal_ltdc.c ****   if (hltdc->State == HAL_LTDC_STATE_READY)
 542:Drivers/STM32F4xx_HAL_Driver/Src/stm32f4xx_hal_ltdc.c ****   {
 543:Drivers/STM32F4xx_HAL_Driver/Src/stm32f4xx_hal_ltdc.c ****     switch (CallbackID)
 544:Drivers/STM32F4xx_HAL_Driver/Src/stm32f4xx_hal_ltdc.c ****     {
 545:Drivers/STM32F4xx_HAL_Driver/Src/stm32f4xx_hal_ltdc.c ****       case HAL_LTDC_LINE_EVENT_CB_ID :
 546:Drivers/STM32F4xx_HAL_Driver/Src/stm32f4xx_hal_ltdc.c ****         hltdc->LineEventCallback = HAL_LTDC_LineEventCallback;      /* Legacy weak LineEventCallbac
 547:Drivers/STM32F4xx_HAL_Driver/Src/stm32f4xx_hal_ltdc.c ****         break;
 548:Drivers/STM32F4xx_HAL_Driver/Src/stm32f4xx_hal_ltdc.c **** 
 549:Drivers/STM32F4xx_HAL_Driver/Src/stm32f4xx_hal_ltdc.c ****       case HAL_LTDC_RELOAD_EVENT_CB_ID :
 550:Drivers/STM32F4xx_HAL_Driver/Src/stm32f4xx_hal_ltdc.c ****         hltdc->ReloadEventCallback = HAL_LTDC_ReloadEventCallback;  /* Legacy weak ReloadEventCallb
 551:Drivers/STM32F4xx_HAL_Driver/Src/stm32f4xx_hal_ltdc.c ****         break;
 552:Drivers/STM32F4xx_HAL_Driver/Src/stm32f4xx_hal_ltdc.c **** 
 553:Drivers/STM32F4xx_HAL_Driver/Src/stm32f4xx_hal_ltdc.c ****       case HAL_LTDC_ERROR_CB_ID :
 554:Drivers/STM32F4xx_HAL_Driver/Src/stm32f4xx_hal_ltdc.c ****         hltdc->ErrorCallback       = HAL_LTDC_ErrorCallback;        /* Legacy weak ErrorCallback   
 555:Drivers/STM32F4xx_HAL_Driver/Src/stm32f4xx_hal_ltdc.c ****         break;
 556:Drivers/STM32F4xx_HAL_Driver/Src/stm32f4xx_hal_ltdc.c **** 
 557:Drivers/STM32F4xx_HAL_Driver/Src/stm32f4xx_hal_ltdc.c ****       case HAL_LTDC_MSPINIT_CB_ID :
 558:Drivers/STM32F4xx_HAL_Driver/Src/stm32f4xx_hal_ltdc.c ****         hltdc->MspInitCallback = HAL_LTDC_MspInit;                  /* Legcay weak MspInit Callback
 559:Drivers/STM32F4xx_HAL_Driver/Src/stm32f4xx_hal_ltdc.c ****         break;
 560:Drivers/STM32F4xx_HAL_Driver/Src/stm32f4xx_hal_ltdc.c **** 
 561:Drivers/STM32F4xx_HAL_Driver/Src/stm32f4xx_hal_ltdc.c ****       case HAL_LTDC_MSPDEINIT_CB_ID :
 562:Drivers/STM32F4xx_HAL_Driver/Src/stm32f4xx_hal_ltdc.c ****         hltdc->MspDeInitCallback = HAL_LTDC_MspDeInit;              /* Legcay weak MspDeInit Callba
 563:Drivers/STM32F4xx_HAL_Driver/Src/stm32f4xx_hal_ltdc.c ****         break;
 564:Drivers/STM32F4xx_HAL_Driver/Src/stm32f4xx_hal_ltdc.c **** 
 565:Drivers/STM32F4xx_HAL_Driver/Src/stm32f4xx_hal_ltdc.c ****       default :
 566:Drivers/STM32F4xx_HAL_Driver/Src/stm32f4xx_hal_ltdc.c ****         /* Update the error code */
 567:Drivers/STM32F4xx_HAL_Driver/Src/stm32f4xx_hal_ltdc.c ****         hltdc->ErrorCode |= HAL_LTDC_ERROR_INVALID_CALLBACK;
 568:Drivers/STM32F4xx_HAL_Driver/Src/stm32f4xx_hal_ltdc.c ****         /* Return error status */
 569:Drivers/STM32F4xx_HAL_Driver/Src/stm32f4xx_hal_ltdc.c ****         status =  HAL_ERROR;
 570:Drivers/STM32F4xx_HAL_Driver/Src/stm32f4xx_hal_ltdc.c ****         break;
 571:Drivers/STM32F4xx_HAL_Driver/Src/stm32f4xx_hal_ltdc.c ****     }
 572:Drivers/STM32F4xx_HAL_Driver/Src/stm32f4xx_hal_ltdc.c ****   }
 573:Drivers/STM32F4xx_HAL_Driver/Src/stm32f4xx_hal_ltdc.c ****   else if (hltdc->State == HAL_LTDC_STATE_RESET)
 574:Drivers/STM32F4xx_HAL_Driver/Src/stm32f4xx_hal_ltdc.c ****   {
 575:Drivers/STM32F4xx_HAL_Driver/Src/stm32f4xx_hal_ltdc.c ****     switch (CallbackID)
 576:Drivers/STM32F4xx_HAL_Driver/Src/stm32f4xx_hal_ltdc.c ****     {
 577:Drivers/STM32F4xx_HAL_Driver/Src/stm32f4xx_hal_ltdc.c ****       case HAL_LTDC_MSPINIT_CB_ID :
 578:Drivers/STM32F4xx_HAL_Driver/Src/stm32f4xx_hal_ltdc.c ****         hltdc->MspInitCallback = HAL_LTDC_MspInit;                  /* Legcay weak MspInit Callback
 579:Drivers/STM32F4xx_HAL_Driver/Src/stm32f4xx_hal_ltdc.c ****         break;
 580:Drivers/STM32F4xx_HAL_Driver/Src/stm32f4xx_hal_ltdc.c **** 
 581:Drivers/STM32F4xx_HAL_Driver/Src/stm32f4xx_hal_ltdc.c ****       case HAL_LTDC_MSPDEINIT_CB_ID :
 582:Drivers/STM32F4xx_HAL_Driver/Src/stm32f4xx_hal_ltdc.c ****         hltdc->MspDeInitCallback = HAL_LTDC_MspDeInit;              /* Legcay weak MspDeInit Callba
 583:Drivers/STM32F4xx_HAL_Driver/Src/stm32f4xx_hal_ltdc.c ****         break;
 584:Drivers/STM32F4xx_HAL_Driver/Src/stm32f4xx_hal_ltdc.c **** 
ARM GAS  /var/folders/06/9k7gq4t13mj84z2yhw3grvhc0000gn/T//ccuiTnhW.s 			page 21


 585:Drivers/STM32F4xx_HAL_Driver/Src/stm32f4xx_hal_ltdc.c ****       default :
 586:Drivers/STM32F4xx_HAL_Driver/Src/stm32f4xx_hal_ltdc.c ****         /* Update the error code */
 587:Drivers/STM32F4xx_HAL_Driver/Src/stm32f4xx_hal_ltdc.c ****         hltdc->ErrorCode |= HAL_LTDC_ERROR_INVALID_CALLBACK;
 588:Drivers/STM32F4xx_HAL_Driver/Src/stm32f4xx_hal_ltdc.c ****         /* Return error status */
 589:Drivers/STM32F4xx_HAL_Driver/Src/stm32f4xx_hal_ltdc.c ****         status =  HAL_ERROR;
 590:Drivers/STM32F4xx_HAL_Driver/Src/stm32f4xx_hal_ltdc.c ****         break;
 591:Drivers/STM32F4xx_HAL_Driver/Src/stm32f4xx_hal_ltdc.c ****     }
 592:Drivers/STM32F4xx_HAL_Driver/Src/stm32f4xx_hal_ltdc.c ****   }
 593:Drivers/STM32F4xx_HAL_Driver/Src/stm32f4xx_hal_ltdc.c ****   else
 594:Drivers/STM32F4xx_HAL_Driver/Src/stm32f4xx_hal_ltdc.c ****   {
 595:Drivers/STM32F4xx_HAL_Driver/Src/stm32f4xx_hal_ltdc.c ****     /* Update the error code */
 596:Drivers/STM32F4xx_HAL_Driver/Src/stm32f4xx_hal_ltdc.c ****     hltdc->ErrorCode |= HAL_LTDC_ERROR_INVALID_CALLBACK;
 597:Drivers/STM32F4xx_HAL_Driver/Src/stm32f4xx_hal_ltdc.c ****     /* Return error status */
 598:Drivers/STM32F4xx_HAL_Driver/Src/stm32f4xx_hal_ltdc.c ****     status =  HAL_ERROR;
 599:Drivers/STM32F4xx_HAL_Driver/Src/stm32f4xx_hal_ltdc.c ****   }
 600:Drivers/STM32F4xx_HAL_Driver/Src/stm32f4xx_hal_ltdc.c **** 
 601:Drivers/STM32F4xx_HAL_Driver/Src/stm32f4xx_hal_ltdc.c ****   /* Release Lock */
 602:Drivers/STM32F4xx_HAL_Driver/Src/stm32f4xx_hal_ltdc.c ****   __HAL_UNLOCK(hltdc);
 603:Drivers/STM32F4xx_HAL_Driver/Src/stm32f4xx_hal_ltdc.c **** 
 604:Drivers/STM32F4xx_HAL_Driver/Src/stm32f4xx_hal_ltdc.c ****   return status;
 605:Drivers/STM32F4xx_HAL_Driver/Src/stm32f4xx_hal_ltdc.c **** }
 606:Drivers/STM32F4xx_HAL_Driver/Src/stm32f4xx_hal_ltdc.c **** #endif /* USE_HAL_LTDC_REGISTER_CALLBACKS */
 607:Drivers/STM32F4xx_HAL_Driver/Src/stm32f4xx_hal_ltdc.c **** 
 608:Drivers/STM32F4xx_HAL_Driver/Src/stm32f4xx_hal_ltdc.c **** /**
 609:Drivers/STM32F4xx_HAL_Driver/Src/stm32f4xx_hal_ltdc.c ****   * @}
 610:Drivers/STM32F4xx_HAL_Driver/Src/stm32f4xx_hal_ltdc.c ****   */
 611:Drivers/STM32F4xx_HAL_Driver/Src/stm32f4xx_hal_ltdc.c **** 
 612:Drivers/STM32F4xx_HAL_Driver/Src/stm32f4xx_hal_ltdc.c **** /** @defgroup LTDC_Exported_Functions_Group2 IO operation functions
 613:Drivers/STM32F4xx_HAL_Driver/Src/stm32f4xx_hal_ltdc.c ****   *  @brief   IO operation functions
 614:Drivers/STM32F4xx_HAL_Driver/Src/stm32f4xx_hal_ltdc.c ****   *
 615:Drivers/STM32F4xx_HAL_Driver/Src/stm32f4xx_hal_ltdc.c **** @verbatim
 616:Drivers/STM32F4xx_HAL_Driver/Src/stm32f4xx_hal_ltdc.c ****  ===============================================================================
 617:Drivers/STM32F4xx_HAL_Driver/Src/stm32f4xx_hal_ltdc.c ****                       #####  IO operation functions  #####
 618:Drivers/STM32F4xx_HAL_Driver/Src/stm32f4xx_hal_ltdc.c ****  ===============================================================================
 619:Drivers/STM32F4xx_HAL_Driver/Src/stm32f4xx_hal_ltdc.c ****     [..]  This section provides function allowing to:
 620:Drivers/STM32F4xx_HAL_Driver/Src/stm32f4xx_hal_ltdc.c ****       (+) Handle LTDC interrupt request
 621:Drivers/STM32F4xx_HAL_Driver/Src/stm32f4xx_hal_ltdc.c **** 
 622:Drivers/STM32F4xx_HAL_Driver/Src/stm32f4xx_hal_ltdc.c **** @endverbatim
 623:Drivers/STM32F4xx_HAL_Driver/Src/stm32f4xx_hal_ltdc.c ****   * @{
 624:Drivers/STM32F4xx_HAL_Driver/Src/stm32f4xx_hal_ltdc.c ****   */
 625:Drivers/STM32F4xx_HAL_Driver/Src/stm32f4xx_hal_ltdc.c **** /**
 626:Drivers/STM32F4xx_HAL_Driver/Src/stm32f4xx_hal_ltdc.c ****   * @brief  Handle LTDC interrupt request.
 627:Drivers/STM32F4xx_HAL_Driver/Src/stm32f4xx_hal_ltdc.c ****   * @param  hltdc  pointer to a LTDC_HandleTypeDef structure that contains
 628:Drivers/STM32F4xx_HAL_Driver/Src/stm32f4xx_hal_ltdc.c ****   *                the configuration information for the LTDC.
 629:Drivers/STM32F4xx_HAL_Driver/Src/stm32f4xx_hal_ltdc.c ****   * @retval HAL status
 630:Drivers/STM32F4xx_HAL_Driver/Src/stm32f4xx_hal_ltdc.c ****   */
 631:Drivers/STM32F4xx_HAL_Driver/Src/stm32f4xx_hal_ltdc.c **** void HAL_LTDC_IRQHandler(LTDC_HandleTypeDef *hltdc)
 632:Drivers/STM32F4xx_HAL_Driver/Src/stm32f4xx_hal_ltdc.c **** {
 561              		.loc 1 632 1
 562              		.cfi_startproc
 563              		@ args = 0, pretend = 0, frame = 16
 564              		@ frame_needed = 1, uses_anonymous_args = 0
 565 0000 80B5     		push	{r7, lr}
 566              	.LCFI22:
 567              		.cfi_def_cfa_offset 8
 568              		.cfi_offset 7, -8
 569              		.cfi_offset 14, -4
ARM GAS  /var/folders/06/9k7gq4t13mj84z2yhw3grvhc0000gn/T//ccuiTnhW.s 			page 22


 570 0002 84B0     		sub	sp, sp, #16
 571              	.LCFI23:
 572              		.cfi_def_cfa_offset 24
 573 0004 00AF     		add	r7, sp, #0
 574              	.LCFI24:
 575              		.cfi_def_cfa_register 7
 576 0006 7860     		str	r0, [r7, #4]
 633:Drivers/STM32F4xx_HAL_Driver/Src/stm32f4xx_hal_ltdc.c ****   uint32_t isrflags  = READ_REG(hltdc->Instance->ISR);
 577              		.loc 1 633 24
 578 0008 7B68     		ldr	r3, [r7, #4]
 579 000a 1B68     		ldr	r3, [r3]
 580              		.loc 1 633 12
 581 000c 9B6B     		ldr	r3, [r3, #56]
 582 000e FB60     		str	r3, [r7, #12]
 634:Drivers/STM32F4xx_HAL_Driver/Src/stm32f4xx_hal_ltdc.c ****   uint32_t itsources = READ_REG(hltdc->Instance->IER);
 583              		.loc 1 634 24
 584 0010 7B68     		ldr	r3, [r7, #4]
 585 0012 1B68     		ldr	r3, [r3]
 586              		.loc 1 634 12
 587 0014 5B6B     		ldr	r3, [r3, #52]
 588 0016 BB60     		str	r3, [r7, #8]
 635:Drivers/STM32F4xx_HAL_Driver/Src/stm32f4xx_hal_ltdc.c **** 
 636:Drivers/STM32F4xx_HAL_Driver/Src/stm32f4xx_hal_ltdc.c ****   /* Transfer Error Interrupt management ***************************************/
 637:Drivers/STM32F4xx_HAL_Driver/Src/stm32f4xx_hal_ltdc.c ****   if (((isrflags & LTDC_ISR_TERRIF) != 0U) && ((itsources & LTDC_IER_TERRIE) != 0U))
 589              		.loc 1 637 18
 590 0018 FB68     		ldr	r3, [r7, #12]
 591 001a 03F00403 		and	r3, r3, #4
 592              		.loc 1 637 6
 593 001e 002B     		cmp	r3, #0
 594 0020 23D0     		beq	.L17
 595              		.loc 1 637 59 discriminator 1
 596 0022 BB68     		ldr	r3, [r7, #8]
 597 0024 03F00403 		and	r3, r3, #4
 598              		.loc 1 637 44 discriminator 1
 599 0028 002B     		cmp	r3, #0
 600 002a 1ED0     		beq	.L17
 638:Drivers/STM32F4xx_HAL_Driver/Src/stm32f4xx_hal_ltdc.c ****   {
 639:Drivers/STM32F4xx_HAL_Driver/Src/stm32f4xx_hal_ltdc.c ****     /* Disable the transfer Error interrupt */
 640:Drivers/STM32F4xx_HAL_Driver/Src/stm32f4xx_hal_ltdc.c ****     __HAL_LTDC_DISABLE_IT(hltdc, LTDC_IT_TE);
 601              		.loc 1 640 5
 602 002c 7B68     		ldr	r3, [r7, #4]
 603 002e 1B68     		ldr	r3, [r3]
 604 0030 5A6B     		ldr	r2, [r3, #52]
 605 0032 7B68     		ldr	r3, [r7, #4]
 606 0034 1B68     		ldr	r3, [r3]
 607 0036 22F00402 		bic	r2, r2, #4
 608 003a 5A63     		str	r2, [r3, #52]
 641:Drivers/STM32F4xx_HAL_Driver/Src/stm32f4xx_hal_ltdc.c **** 
 642:Drivers/STM32F4xx_HAL_Driver/Src/stm32f4xx_hal_ltdc.c ****     /* Clear the transfer error flag */
 643:Drivers/STM32F4xx_HAL_Driver/Src/stm32f4xx_hal_ltdc.c ****     __HAL_LTDC_CLEAR_FLAG(hltdc, LTDC_FLAG_TE);
 609              		.loc 1 643 5
 610 003c 7B68     		ldr	r3, [r7, #4]
 611 003e 1B68     		ldr	r3, [r3]
 612 0040 0422     		movs	r2, #4
 613 0042 DA63     		str	r2, [r3, #60]
 644:Drivers/STM32F4xx_HAL_Driver/Src/stm32f4xx_hal_ltdc.c **** 
 645:Drivers/STM32F4xx_HAL_Driver/Src/stm32f4xx_hal_ltdc.c ****     /* Update error code */
ARM GAS  /var/folders/06/9k7gq4t13mj84z2yhw3grvhc0000gn/T//ccuiTnhW.s 			page 23


 646:Drivers/STM32F4xx_HAL_Driver/Src/stm32f4xx_hal_ltdc.c ****     hltdc->ErrorCode |= HAL_LTDC_ERROR_TE;
 614              		.loc 1 646 10
 615 0044 7B68     		ldr	r3, [r7, #4]
 616 0046 D3F8A430 		ldr	r3, [r3, #164]
 617              		.loc 1 646 22
 618 004a 43F00102 		orr	r2, r3, #1
 619 004e 7B68     		ldr	r3, [r7, #4]
 620 0050 C3F8A420 		str	r2, [r3, #164]
 647:Drivers/STM32F4xx_HAL_Driver/Src/stm32f4xx_hal_ltdc.c **** 
 648:Drivers/STM32F4xx_HAL_Driver/Src/stm32f4xx_hal_ltdc.c ****     /* Change LTDC state */
 649:Drivers/STM32F4xx_HAL_Driver/Src/stm32f4xx_hal_ltdc.c ****     hltdc->State = HAL_LTDC_STATE_ERROR;
 621              		.loc 1 649 18
 622 0054 7B68     		ldr	r3, [r7, #4]
 623 0056 0422     		movs	r2, #4
 624 0058 83F8A120 		strb	r2, [r3, #161]
 650:Drivers/STM32F4xx_HAL_Driver/Src/stm32f4xx_hal_ltdc.c **** 
 651:Drivers/STM32F4xx_HAL_Driver/Src/stm32f4xx_hal_ltdc.c ****     /* Process unlocked */
 652:Drivers/STM32F4xx_HAL_Driver/Src/stm32f4xx_hal_ltdc.c ****     __HAL_UNLOCK(hltdc);
 625              		.loc 1 652 5
 626 005c 7B68     		ldr	r3, [r7, #4]
 627 005e 0022     		movs	r2, #0
 628 0060 83F8A020 		strb	r2, [r3, #160]
 653:Drivers/STM32F4xx_HAL_Driver/Src/stm32f4xx_hal_ltdc.c **** 
 654:Drivers/STM32F4xx_HAL_Driver/Src/stm32f4xx_hal_ltdc.c ****     /* Transfer error Callback */
 655:Drivers/STM32F4xx_HAL_Driver/Src/stm32f4xx_hal_ltdc.c **** #if (USE_HAL_LTDC_REGISTER_CALLBACKS == 1)
 656:Drivers/STM32F4xx_HAL_Driver/Src/stm32f4xx_hal_ltdc.c ****     /*Call registered error callback*/
 657:Drivers/STM32F4xx_HAL_Driver/Src/stm32f4xx_hal_ltdc.c ****     hltdc->ErrorCallback(hltdc);
 658:Drivers/STM32F4xx_HAL_Driver/Src/stm32f4xx_hal_ltdc.c **** #else
 659:Drivers/STM32F4xx_HAL_Driver/Src/stm32f4xx_hal_ltdc.c ****     /* Call legacy error callback*/
 660:Drivers/STM32F4xx_HAL_Driver/Src/stm32f4xx_hal_ltdc.c ****     HAL_LTDC_ErrorCallback(hltdc);
 629              		.loc 1 660 5
 630 0064 7868     		ldr	r0, [r7, #4]
 631 0066 FFF7FEFF 		bl	HAL_LTDC_ErrorCallback
 632              	.L17:
 661:Drivers/STM32F4xx_HAL_Driver/Src/stm32f4xx_hal_ltdc.c **** #endif /* USE_HAL_LTDC_REGISTER_CALLBACKS */
 662:Drivers/STM32F4xx_HAL_Driver/Src/stm32f4xx_hal_ltdc.c ****   }
 663:Drivers/STM32F4xx_HAL_Driver/Src/stm32f4xx_hal_ltdc.c **** 
 664:Drivers/STM32F4xx_HAL_Driver/Src/stm32f4xx_hal_ltdc.c ****   /* FIFO underrun Interrupt management ***************************************/
 665:Drivers/STM32F4xx_HAL_Driver/Src/stm32f4xx_hal_ltdc.c ****   if (((isrflags & LTDC_ISR_FUIF) != 0U) && ((itsources & LTDC_IER_FUIE) != 0U))
 633              		.loc 1 665 18
 634 006a FB68     		ldr	r3, [r7, #12]
 635 006c 03F00203 		and	r3, r3, #2
 636              		.loc 1 665 6
 637 0070 002B     		cmp	r3, #0
 638 0072 23D0     		beq	.L18
 639              		.loc 1 665 57 discriminator 1
 640 0074 BB68     		ldr	r3, [r7, #8]
 641 0076 03F00203 		and	r3, r3, #2
 642              		.loc 1 665 42 discriminator 1
 643 007a 002B     		cmp	r3, #0
 644 007c 1ED0     		beq	.L18
 666:Drivers/STM32F4xx_HAL_Driver/Src/stm32f4xx_hal_ltdc.c ****   {
 667:Drivers/STM32F4xx_HAL_Driver/Src/stm32f4xx_hal_ltdc.c ****     /* Disable the FIFO underrun interrupt */
 668:Drivers/STM32F4xx_HAL_Driver/Src/stm32f4xx_hal_ltdc.c ****     __HAL_LTDC_DISABLE_IT(hltdc, LTDC_IT_FU);
 645              		.loc 1 668 5
 646 007e 7B68     		ldr	r3, [r7, #4]
 647 0080 1B68     		ldr	r3, [r3]
ARM GAS  /var/folders/06/9k7gq4t13mj84z2yhw3grvhc0000gn/T//ccuiTnhW.s 			page 24


 648 0082 5A6B     		ldr	r2, [r3, #52]
 649 0084 7B68     		ldr	r3, [r7, #4]
 650 0086 1B68     		ldr	r3, [r3]
 651 0088 22F00202 		bic	r2, r2, #2
 652 008c 5A63     		str	r2, [r3, #52]
 669:Drivers/STM32F4xx_HAL_Driver/Src/stm32f4xx_hal_ltdc.c **** 
 670:Drivers/STM32F4xx_HAL_Driver/Src/stm32f4xx_hal_ltdc.c ****     /* Clear the FIFO underrun flag */
 671:Drivers/STM32F4xx_HAL_Driver/Src/stm32f4xx_hal_ltdc.c ****     __HAL_LTDC_CLEAR_FLAG(hltdc, LTDC_FLAG_FU);
 653              		.loc 1 671 5
 654 008e 7B68     		ldr	r3, [r7, #4]
 655 0090 1B68     		ldr	r3, [r3]
 656 0092 0222     		movs	r2, #2
 657 0094 DA63     		str	r2, [r3, #60]
 672:Drivers/STM32F4xx_HAL_Driver/Src/stm32f4xx_hal_ltdc.c **** 
 673:Drivers/STM32F4xx_HAL_Driver/Src/stm32f4xx_hal_ltdc.c ****     /* Update error code */
 674:Drivers/STM32F4xx_HAL_Driver/Src/stm32f4xx_hal_ltdc.c ****     hltdc->ErrorCode |= HAL_LTDC_ERROR_FU;
 658              		.loc 1 674 10
 659 0096 7B68     		ldr	r3, [r7, #4]
 660 0098 D3F8A430 		ldr	r3, [r3, #164]
 661              		.loc 1 674 22
 662 009c 43F00202 		orr	r2, r3, #2
 663 00a0 7B68     		ldr	r3, [r7, #4]
 664 00a2 C3F8A420 		str	r2, [r3, #164]
 675:Drivers/STM32F4xx_HAL_Driver/Src/stm32f4xx_hal_ltdc.c **** 
 676:Drivers/STM32F4xx_HAL_Driver/Src/stm32f4xx_hal_ltdc.c ****     /* Change LTDC state */
 677:Drivers/STM32F4xx_HAL_Driver/Src/stm32f4xx_hal_ltdc.c ****     hltdc->State = HAL_LTDC_STATE_ERROR;
 665              		.loc 1 677 18
 666 00a6 7B68     		ldr	r3, [r7, #4]
 667 00a8 0422     		movs	r2, #4
 668 00aa 83F8A120 		strb	r2, [r3, #161]
 678:Drivers/STM32F4xx_HAL_Driver/Src/stm32f4xx_hal_ltdc.c **** 
 679:Drivers/STM32F4xx_HAL_Driver/Src/stm32f4xx_hal_ltdc.c ****     /* Process unlocked */
 680:Drivers/STM32F4xx_HAL_Driver/Src/stm32f4xx_hal_ltdc.c ****     __HAL_UNLOCK(hltdc);
 669              		.loc 1 680 5
 670 00ae 7B68     		ldr	r3, [r7, #4]
 671 00b0 0022     		movs	r2, #0
 672 00b2 83F8A020 		strb	r2, [r3, #160]
 681:Drivers/STM32F4xx_HAL_Driver/Src/stm32f4xx_hal_ltdc.c **** 
 682:Drivers/STM32F4xx_HAL_Driver/Src/stm32f4xx_hal_ltdc.c ****     /* Transfer error Callback */
 683:Drivers/STM32F4xx_HAL_Driver/Src/stm32f4xx_hal_ltdc.c **** #if (USE_HAL_LTDC_REGISTER_CALLBACKS == 1)
 684:Drivers/STM32F4xx_HAL_Driver/Src/stm32f4xx_hal_ltdc.c ****     /*Call registered error callback*/
 685:Drivers/STM32F4xx_HAL_Driver/Src/stm32f4xx_hal_ltdc.c ****     hltdc->ErrorCallback(hltdc);
 686:Drivers/STM32F4xx_HAL_Driver/Src/stm32f4xx_hal_ltdc.c **** #else
 687:Drivers/STM32F4xx_HAL_Driver/Src/stm32f4xx_hal_ltdc.c ****     /* Call legacy error callback*/
 688:Drivers/STM32F4xx_HAL_Driver/Src/stm32f4xx_hal_ltdc.c ****     HAL_LTDC_ErrorCallback(hltdc);
 673              		.loc 1 688 5
 674 00b6 7868     		ldr	r0, [r7, #4]
 675 00b8 FFF7FEFF 		bl	HAL_LTDC_ErrorCallback
 676              	.L18:
 689:Drivers/STM32F4xx_HAL_Driver/Src/stm32f4xx_hal_ltdc.c **** #endif /* USE_HAL_LTDC_REGISTER_CALLBACKS */
 690:Drivers/STM32F4xx_HAL_Driver/Src/stm32f4xx_hal_ltdc.c ****   }
 691:Drivers/STM32F4xx_HAL_Driver/Src/stm32f4xx_hal_ltdc.c **** 
 692:Drivers/STM32F4xx_HAL_Driver/Src/stm32f4xx_hal_ltdc.c ****   /* Line Interrupt management ************************************************/
 693:Drivers/STM32F4xx_HAL_Driver/Src/stm32f4xx_hal_ltdc.c ****   if (((isrflags & LTDC_ISR_LIF) != 0U) && ((itsources & LTDC_IER_LIE) != 0U))
 677              		.loc 1 693 18
 678 00bc FB68     		ldr	r3, [r7, #12]
 679 00be 03F00103 		and	r3, r3, #1
ARM GAS  /var/folders/06/9k7gq4t13mj84z2yhw3grvhc0000gn/T//ccuiTnhW.s 			page 25


 680              		.loc 1 693 6
 681 00c2 002B     		cmp	r3, #0
 682 00c4 1BD0     		beq	.L19
 683              		.loc 1 693 56 discriminator 1
 684 00c6 BB68     		ldr	r3, [r7, #8]
 685 00c8 03F00103 		and	r3, r3, #1
 686              		.loc 1 693 41 discriminator 1
 687 00cc 002B     		cmp	r3, #0
 688 00ce 16D0     		beq	.L19
 694:Drivers/STM32F4xx_HAL_Driver/Src/stm32f4xx_hal_ltdc.c ****   {
 695:Drivers/STM32F4xx_HAL_Driver/Src/stm32f4xx_hal_ltdc.c ****     /* Disable the Line interrupt */
 696:Drivers/STM32F4xx_HAL_Driver/Src/stm32f4xx_hal_ltdc.c ****     __HAL_LTDC_DISABLE_IT(hltdc, LTDC_IT_LI);
 689              		.loc 1 696 5
 690 00d0 7B68     		ldr	r3, [r7, #4]
 691 00d2 1B68     		ldr	r3, [r3]
 692 00d4 5A6B     		ldr	r2, [r3, #52]
 693 00d6 7B68     		ldr	r3, [r7, #4]
 694 00d8 1B68     		ldr	r3, [r3]
 695 00da 22F00102 		bic	r2, r2, #1
 696 00de 5A63     		str	r2, [r3, #52]
 697:Drivers/STM32F4xx_HAL_Driver/Src/stm32f4xx_hal_ltdc.c **** 
 698:Drivers/STM32F4xx_HAL_Driver/Src/stm32f4xx_hal_ltdc.c ****     /* Clear the Line interrupt flag */
 699:Drivers/STM32F4xx_HAL_Driver/Src/stm32f4xx_hal_ltdc.c ****     __HAL_LTDC_CLEAR_FLAG(hltdc, LTDC_FLAG_LI);
 697              		.loc 1 699 5
 698 00e0 7B68     		ldr	r3, [r7, #4]
 699 00e2 1B68     		ldr	r3, [r3]
 700 00e4 0122     		movs	r2, #1
 701 00e6 DA63     		str	r2, [r3, #60]
 700:Drivers/STM32F4xx_HAL_Driver/Src/stm32f4xx_hal_ltdc.c **** 
 701:Drivers/STM32F4xx_HAL_Driver/Src/stm32f4xx_hal_ltdc.c ****     /* Change LTDC state */
 702:Drivers/STM32F4xx_HAL_Driver/Src/stm32f4xx_hal_ltdc.c ****     hltdc->State = HAL_LTDC_STATE_READY;
 702              		.loc 1 702 18
 703 00e8 7B68     		ldr	r3, [r7, #4]
 704 00ea 0122     		movs	r2, #1
 705 00ec 83F8A120 		strb	r2, [r3, #161]
 703:Drivers/STM32F4xx_HAL_Driver/Src/stm32f4xx_hal_ltdc.c **** 
 704:Drivers/STM32F4xx_HAL_Driver/Src/stm32f4xx_hal_ltdc.c ****     /* Process unlocked */
 705:Drivers/STM32F4xx_HAL_Driver/Src/stm32f4xx_hal_ltdc.c ****     __HAL_UNLOCK(hltdc);
 706              		.loc 1 705 5
 707 00f0 7B68     		ldr	r3, [r7, #4]
 708 00f2 0022     		movs	r2, #0
 709 00f4 83F8A020 		strb	r2, [r3, #160]
 706:Drivers/STM32F4xx_HAL_Driver/Src/stm32f4xx_hal_ltdc.c **** 
 707:Drivers/STM32F4xx_HAL_Driver/Src/stm32f4xx_hal_ltdc.c ****     /* Line interrupt Callback */
 708:Drivers/STM32F4xx_HAL_Driver/Src/stm32f4xx_hal_ltdc.c **** #if (USE_HAL_LTDC_REGISTER_CALLBACKS == 1)
 709:Drivers/STM32F4xx_HAL_Driver/Src/stm32f4xx_hal_ltdc.c ****     /*Call registered Line Event callback */
 710:Drivers/STM32F4xx_HAL_Driver/Src/stm32f4xx_hal_ltdc.c ****     hltdc->LineEventCallback(hltdc);
 711:Drivers/STM32F4xx_HAL_Driver/Src/stm32f4xx_hal_ltdc.c **** #else
 712:Drivers/STM32F4xx_HAL_Driver/Src/stm32f4xx_hal_ltdc.c ****     /*Call Legacy Line Event callback */
 713:Drivers/STM32F4xx_HAL_Driver/Src/stm32f4xx_hal_ltdc.c ****     HAL_LTDC_LineEventCallback(hltdc);
 710              		.loc 1 713 5
 711 00f8 7868     		ldr	r0, [r7, #4]
 712 00fa FFF7FEFF 		bl	HAL_LTDC_LineEventCallback
 713              	.L19:
 714:Drivers/STM32F4xx_HAL_Driver/Src/stm32f4xx_hal_ltdc.c **** #endif /* USE_HAL_LTDC_REGISTER_CALLBACKS */
 715:Drivers/STM32F4xx_HAL_Driver/Src/stm32f4xx_hal_ltdc.c ****   }
 716:Drivers/STM32F4xx_HAL_Driver/Src/stm32f4xx_hal_ltdc.c **** 
ARM GAS  /var/folders/06/9k7gq4t13mj84z2yhw3grvhc0000gn/T//ccuiTnhW.s 			page 26


 717:Drivers/STM32F4xx_HAL_Driver/Src/stm32f4xx_hal_ltdc.c ****   /* Register reload Interrupt management ***************************************/
 718:Drivers/STM32F4xx_HAL_Driver/Src/stm32f4xx_hal_ltdc.c ****   if (((isrflags & LTDC_ISR_RRIF) != 0U) && ((itsources & LTDC_IER_RRIE) != 0U))
 714              		.loc 1 718 18
 715 00fe FB68     		ldr	r3, [r7, #12]
 716 0100 03F00803 		and	r3, r3, #8
 717              		.loc 1 718 6
 718 0104 002B     		cmp	r3, #0
 719 0106 1BD0     		beq	.L21
 720              		.loc 1 718 57 discriminator 1
 721 0108 BB68     		ldr	r3, [r7, #8]
 722 010a 03F00803 		and	r3, r3, #8
 723              		.loc 1 718 42 discriminator 1
 724 010e 002B     		cmp	r3, #0
 725 0110 16D0     		beq	.L21
 719:Drivers/STM32F4xx_HAL_Driver/Src/stm32f4xx_hal_ltdc.c ****   {
 720:Drivers/STM32F4xx_HAL_Driver/Src/stm32f4xx_hal_ltdc.c ****     /* Disable the register reload interrupt */
 721:Drivers/STM32F4xx_HAL_Driver/Src/stm32f4xx_hal_ltdc.c ****     __HAL_LTDC_DISABLE_IT(hltdc, LTDC_IT_RR);
 726              		.loc 1 721 5
 727 0112 7B68     		ldr	r3, [r7, #4]
 728 0114 1B68     		ldr	r3, [r3]
 729 0116 5A6B     		ldr	r2, [r3, #52]
 730 0118 7B68     		ldr	r3, [r7, #4]
 731 011a 1B68     		ldr	r3, [r3]
 732 011c 22F00802 		bic	r2, r2, #8
 733 0120 5A63     		str	r2, [r3, #52]
 722:Drivers/STM32F4xx_HAL_Driver/Src/stm32f4xx_hal_ltdc.c **** 
 723:Drivers/STM32F4xx_HAL_Driver/Src/stm32f4xx_hal_ltdc.c ****     /* Clear the register reload flag */
 724:Drivers/STM32F4xx_HAL_Driver/Src/stm32f4xx_hal_ltdc.c ****     __HAL_LTDC_CLEAR_FLAG(hltdc, LTDC_FLAG_RR);
 734              		.loc 1 724 5
 735 0122 7B68     		ldr	r3, [r7, #4]
 736 0124 1B68     		ldr	r3, [r3]
 737 0126 0822     		movs	r2, #8
 738 0128 DA63     		str	r2, [r3, #60]
 725:Drivers/STM32F4xx_HAL_Driver/Src/stm32f4xx_hal_ltdc.c **** 
 726:Drivers/STM32F4xx_HAL_Driver/Src/stm32f4xx_hal_ltdc.c ****     /* Change LTDC state */
 727:Drivers/STM32F4xx_HAL_Driver/Src/stm32f4xx_hal_ltdc.c ****     hltdc->State = HAL_LTDC_STATE_READY;
 739              		.loc 1 727 18
 740 012a 7B68     		ldr	r3, [r7, #4]
 741 012c 0122     		movs	r2, #1
 742 012e 83F8A120 		strb	r2, [r3, #161]
 728:Drivers/STM32F4xx_HAL_Driver/Src/stm32f4xx_hal_ltdc.c **** 
 729:Drivers/STM32F4xx_HAL_Driver/Src/stm32f4xx_hal_ltdc.c ****     /* Process unlocked */
 730:Drivers/STM32F4xx_HAL_Driver/Src/stm32f4xx_hal_ltdc.c ****     __HAL_UNLOCK(hltdc);
 743              		.loc 1 730 5
 744 0132 7B68     		ldr	r3, [r7, #4]
 745 0134 0022     		movs	r2, #0
 746 0136 83F8A020 		strb	r2, [r3, #160]
 731:Drivers/STM32F4xx_HAL_Driver/Src/stm32f4xx_hal_ltdc.c **** 
 732:Drivers/STM32F4xx_HAL_Driver/Src/stm32f4xx_hal_ltdc.c ****     /* Reload interrupt Callback */
 733:Drivers/STM32F4xx_HAL_Driver/Src/stm32f4xx_hal_ltdc.c **** #if (USE_HAL_LTDC_REGISTER_CALLBACKS == 1)
 734:Drivers/STM32F4xx_HAL_Driver/Src/stm32f4xx_hal_ltdc.c ****     /*Call registered reload Event callback */
 735:Drivers/STM32F4xx_HAL_Driver/Src/stm32f4xx_hal_ltdc.c ****     hltdc->ReloadEventCallback(hltdc);
 736:Drivers/STM32F4xx_HAL_Driver/Src/stm32f4xx_hal_ltdc.c **** #else
 737:Drivers/STM32F4xx_HAL_Driver/Src/stm32f4xx_hal_ltdc.c ****     /*Call Legacy Reload Event callback */
 738:Drivers/STM32F4xx_HAL_Driver/Src/stm32f4xx_hal_ltdc.c ****     HAL_LTDC_ReloadEventCallback(hltdc);
 747              		.loc 1 738 5
 748 013a 7868     		ldr	r0, [r7, #4]
ARM GAS  /var/folders/06/9k7gq4t13mj84z2yhw3grvhc0000gn/T//ccuiTnhW.s 			page 27


 749 013c FFF7FEFF 		bl	HAL_LTDC_ReloadEventCallback
 750              	.L21:
 739:Drivers/STM32F4xx_HAL_Driver/Src/stm32f4xx_hal_ltdc.c **** #endif /* USE_HAL_LTDC_REGISTER_CALLBACKS */
 740:Drivers/STM32F4xx_HAL_Driver/Src/stm32f4xx_hal_ltdc.c ****   }
 741:Drivers/STM32F4xx_HAL_Driver/Src/stm32f4xx_hal_ltdc.c **** }
 751              		.loc 1 741 1
 752 0140 00BF     		nop
 753 0142 1037     		adds	r7, r7, #16
 754              	.LCFI25:
 755              		.cfi_def_cfa_offset 8
 756 0144 BD46     		mov	sp, r7
 757              	.LCFI26:
 758              		.cfi_def_cfa_register 13
 759              		@ sp needed
 760 0146 80BD     		pop	{r7, pc}
 761              		.cfi_endproc
 762              	.LFE138:
 764              		.section	.text.HAL_LTDC_ErrorCallback,"ax",%progbits
 765              		.align	1
 766              		.weak	HAL_LTDC_ErrorCallback
 767              		.syntax unified
 768              		.thumb
 769              		.thumb_func
 771              	HAL_LTDC_ErrorCallback:
 772              	.LFB139:
 742:Drivers/STM32F4xx_HAL_Driver/Src/stm32f4xx_hal_ltdc.c **** 
 743:Drivers/STM32F4xx_HAL_Driver/Src/stm32f4xx_hal_ltdc.c **** /**
 744:Drivers/STM32F4xx_HAL_Driver/Src/stm32f4xx_hal_ltdc.c ****   * @brief  Error LTDC callback.
 745:Drivers/STM32F4xx_HAL_Driver/Src/stm32f4xx_hal_ltdc.c ****   * @param  hltdc  pointer to a LTDC_HandleTypeDef structure that contains
 746:Drivers/STM32F4xx_HAL_Driver/Src/stm32f4xx_hal_ltdc.c ****   *                the configuration information for the LTDC.
 747:Drivers/STM32F4xx_HAL_Driver/Src/stm32f4xx_hal_ltdc.c ****   * @retval None
 748:Drivers/STM32F4xx_HAL_Driver/Src/stm32f4xx_hal_ltdc.c ****   */
 749:Drivers/STM32F4xx_HAL_Driver/Src/stm32f4xx_hal_ltdc.c **** __weak void HAL_LTDC_ErrorCallback(LTDC_HandleTypeDef *hltdc)
 750:Drivers/STM32F4xx_HAL_Driver/Src/stm32f4xx_hal_ltdc.c **** {
 773              		.loc 1 750 1
 774              		.cfi_startproc
 775              		@ args = 0, pretend = 0, frame = 8
 776              		@ frame_needed = 1, uses_anonymous_args = 0
 777              		@ link register save eliminated.
 778 0000 80B4     		push	{r7}
 779              	.LCFI27:
 780              		.cfi_def_cfa_offset 4
 781              		.cfi_offset 7, -4
 782 0002 83B0     		sub	sp, sp, #12
 783              	.LCFI28:
 784              		.cfi_def_cfa_offset 16
 785 0004 00AF     		add	r7, sp, #0
 786              	.LCFI29:
 787              		.cfi_def_cfa_register 7
 788 0006 7860     		str	r0, [r7, #4]
 751:Drivers/STM32F4xx_HAL_Driver/Src/stm32f4xx_hal_ltdc.c ****   /* Prevent unused argument(s) compilation warning */
 752:Drivers/STM32F4xx_HAL_Driver/Src/stm32f4xx_hal_ltdc.c ****   UNUSED(hltdc);
 753:Drivers/STM32F4xx_HAL_Driver/Src/stm32f4xx_hal_ltdc.c **** 
 754:Drivers/STM32F4xx_HAL_Driver/Src/stm32f4xx_hal_ltdc.c ****   /* NOTE : This function should not be modified, when the callback is needed,
 755:Drivers/STM32F4xx_HAL_Driver/Src/stm32f4xx_hal_ltdc.c ****             the HAL_LTDC_ErrorCallback could be implemented in the user file
 756:Drivers/STM32F4xx_HAL_Driver/Src/stm32f4xx_hal_ltdc.c ****    */
 757:Drivers/STM32F4xx_HAL_Driver/Src/stm32f4xx_hal_ltdc.c **** }
ARM GAS  /var/folders/06/9k7gq4t13mj84z2yhw3grvhc0000gn/T//ccuiTnhW.s 			page 28


 789              		.loc 1 757 1
 790 0008 00BF     		nop
 791 000a 0C37     		adds	r7, r7, #12
 792              	.LCFI30:
 793              		.cfi_def_cfa_offset 4
 794 000c BD46     		mov	sp, r7
 795              	.LCFI31:
 796              		.cfi_def_cfa_register 13
 797              		@ sp needed
 798 000e 5DF8047B 		ldr	r7, [sp], #4
 799              	.LCFI32:
 800              		.cfi_restore 7
 801              		.cfi_def_cfa_offset 0
 802 0012 7047     		bx	lr
 803              		.cfi_endproc
 804              	.LFE139:
 806              		.section	.text.HAL_LTDC_LineEventCallback,"ax",%progbits
 807              		.align	1
 808              		.weak	HAL_LTDC_LineEventCallback
 809              		.syntax unified
 810              		.thumb
 811              		.thumb_func
 813              	HAL_LTDC_LineEventCallback:
 814              	.LFB140:
 758:Drivers/STM32F4xx_HAL_Driver/Src/stm32f4xx_hal_ltdc.c **** 
 759:Drivers/STM32F4xx_HAL_Driver/Src/stm32f4xx_hal_ltdc.c **** /**
 760:Drivers/STM32F4xx_HAL_Driver/Src/stm32f4xx_hal_ltdc.c ****   * @brief  Line Event callback.
 761:Drivers/STM32F4xx_HAL_Driver/Src/stm32f4xx_hal_ltdc.c ****   * @param  hltdc  pointer to a LTDC_HandleTypeDef structure that contains
 762:Drivers/STM32F4xx_HAL_Driver/Src/stm32f4xx_hal_ltdc.c ****   *                the configuration information for the LTDC.
 763:Drivers/STM32F4xx_HAL_Driver/Src/stm32f4xx_hal_ltdc.c ****   * @retval None
 764:Drivers/STM32F4xx_HAL_Driver/Src/stm32f4xx_hal_ltdc.c ****   */
 765:Drivers/STM32F4xx_HAL_Driver/Src/stm32f4xx_hal_ltdc.c **** __weak void HAL_LTDC_LineEventCallback(LTDC_HandleTypeDef *hltdc)
 766:Drivers/STM32F4xx_HAL_Driver/Src/stm32f4xx_hal_ltdc.c **** {
 815              		.loc 1 766 1
 816              		.cfi_startproc
 817              		@ args = 0, pretend = 0, frame = 8
 818              		@ frame_needed = 1, uses_anonymous_args = 0
 819              		@ link register save eliminated.
 820 0000 80B4     		push	{r7}
 821              	.LCFI33:
 822              		.cfi_def_cfa_offset 4
 823              		.cfi_offset 7, -4
 824 0002 83B0     		sub	sp, sp, #12
 825              	.LCFI34:
 826              		.cfi_def_cfa_offset 16
 827 0004 00AF     		add	r7, sp, #0
 828              	.LCFI35:
 829              		.cfi_def_cfa_register 7
 830 0006 7860     		str	r0, [r7, #4]
 767:Drivers/STM32F4xx_HAL_Driver/Src/stm32f4xx_hal_ltdc.c ****   /* Prevent unused argument(s) compilation warning */
 768:Drivers/STM32F4xx_HAL_Driver/Src/stm32f4xx_hal_ltdc.c ****   UNUSED(hltdc);
 769:Drivers/STM32F4xx_HAL_Driver/Src/stm32f4xx_hal_ltdc.c **** 
 770:Drivers/STM32F4xx_HAL_Driver/Src/stm32f4xx_hal_ltdc.c ****   /* NOTE : This function should not be modified, when the callback is needed,
 771:Drivers/STM32F4xx_HAL_Driver/Src/stm32f4xx_hal_ltdc.c ****             the HAL_LTDC_LineEventCallback could be implemented in the user file
 772:Drivers/STM32F4xx_HAL_Driver/Src/stm32f4xx_hal_ltdc.c ****    */
 773:Drivers/STM32F4xx_HAL_Driver/Src/stm32f4xx_hal_ltdc.c **** }
 831              		.loc 1 773 1
ARM GAS  /var/folders/06/9k7gq4t13mj84z2yhw3grvhc0000gn/T//ccuiTnhW.s 			page 29


 832 0008 00BF     		nop
 833 000a 0C37     		adds	r7, r7, #12
 834              	.LCFI36:
 835              		.cfi_def_cfa_offset 4
 836 000c BD46     		mov	sp, r7
 837              	.LCFI37:
 838              		.cfi_def_cfa_register 13
 839              		@ sp needed
 840 000e 5DF8047B 		ldr	r7, [sp], #4
 841              	.LCFI38:
 842              		.cfi_restore 7
 843              		.cfi_def_cfa_offset 0
 844 0012 7047     		bx	lr
 845              		.cfi_endproc
 846              	.LFE140:
 848              		.section	.text.HAL_LTDC_ReloadEventCallback,"ax",%progbits
 849              		.align	1
 850              		.weak	HAL_LTDC_ReloadEventCallback
 851              		.syntax unified
 852              		.thumb
 853              		.thumb_func
 855              	HAL_LTDC_ReloadEventCallback:
 856              	.LFB141:
 774:Drivers/STM32F4xx_HAL_Driver/Src/stm32f4xx_hal_ltdc.c **** 
 775:Drivers/STM32F4xx_HAL_Driver/Src/stm32f4xx_hal_ltdc.c **** /**
 776:Drivers/STM32F4xx_HAL_Driver/Src/stm32f4xx_hal_ltdc.c ****   * @brief  Reload Event callback.
 777:Drivers/STM32F4xx_HAL_Driver/Src/stm32f4xx_hal_ltdc.c ****   * @param  hltdc  pointer to a LTDC_HandleTypeDef structure that contains
 778:Drivers/STM32F4xx_HAL_Driver/Src/stm32f4xx_hal_ltdc.c ****   *                the configuration information for the LTDC.
 779:Drivers/STM32F4xx_HAL_Driver/Src/stm32f4xx_hal_ltdc.c ****   * @retval None
 780:Drivers/STM32F4xx_HAL_Driver/Src/stm32f4xx_hal_ltdc.c ****   */
 781:Drivers/STM32F4xx_HAL_Driver/Src/stm32f4xx_hal_ltdc.c **** __weak void HAL_LTDC_ReloadEventCallback(LTDC_HandleTypeDef *hltdc)
 782:Drivers/STM32F4xx_HAL_Driver/Src/stm32f4xx_hal_ltdc.c **** {
 857              		.loc 1 782 1
 858              		.cfi_startproc
 859              		@ args = 0, pretend = 0, frame = 8
 860              		@ frame_needed = 1, uses_anonymous_args = 0
 861              		@ link register save eliminated.
 862 0000 80B4     		push	{r7}
 863              	.LCFI39:
 864              		.cfi_def_cfa_offset 4
 865              		.cfi_offset 7, -4
 866 0002 83B0     		sub	sp, sp, #12
 867              	.LCFI40:
 868              		.cfi_def_cfa_offset 16
 869 0004 00AF     		add	r7, sp, #0
 870              	.LCFI41:
 871              		.cfi_def_cfa_register 7
 872 0006 7860     		str	r0, [r7, #4]
 783:Drivers/STM32F4xx_HAL_Driver/Src/stm32f4xx_hal_ltdc.c ****   /* Prevent unused argument(s) compilation warning */
 784:Drivers/STM32F4xx_HAL_Driver/Src/stm32f4xx_hal_ltdc.c ****   UNUSED(hltdc);
 785:Drivers/STM32F4xx_HAL_Driver/Src/stm32f4xx_hal_ltdc.c **** 
 786:Drivers/STM32F4xx_HAL_Driver/Src/stm32f4xx_hal_ltdc.c ****   /* NOTE : This function should not be modified, when the callback is needed,
 787:Drivers/STM32F4xx_HAL_Driver/Src/stm32f4xx_hal_ltdc.c ****             the HAL_LTDC_ReloadEvenCallback could be implemented in the user file
 788:Drivers/STM32F4xx_HAL_Driver/Src/stm32f4xx_hal_ltdc.c ****    */
 789:Drivers/STM32F4xx_HAL_Driver/Src/stm32f4xx_hal_ltdc.c **** }
 873              		.loc 1 789 1
 874 0008 00BF     		nop
ARM GAS  /var/folders/06/9k7gq4t13mj84z2yhw3grvhc0000gn/T//ccuiTnhW.s 			page 30


 875 000a 0C37     		adds	r7, r7, #12
 876              	.LCFI42:
 877              		.cfi_def_cfa_offset 4
 878 000c BD46     		mov	sp, r7
 879              	.LCFI43:
 880              		.cfi_def_cfa_register 13
 881              		@ sp needed
 882 000e 5DF8047B 		ldr	r7, [sp], #4
 883              	.LCFI44:
 884              		.cfi_restore 7
 885              		.cfi_def_cfa_offset 0
 886 0012 7047     		bx	lr
 887              		.cfi_endproc
 888              	.LFE141:
 890              		.section	.text.HAL_LTDC_ConfigLayer,"ax",%progbits
 891              		.align	1
 892              		.global	HAL_LTDC_ConfigLayer
 893              		.syntax unified
 894              		.thumb
 895              		.thumb_func
 897              	HAL_LTDC_ConfigLayer:
 898              	.LFB142:
 790:Drivers/STM32F4xx_HAL_Driver/Src/stm32f4xx_hal_ltdc.c **** 
 791:Drivers/STM32F4xx_HAL_Driver/Src/stm32f4xx_hal_ltdc.c **** /**
 792:Drivers/STM32F4xx_HAL_Driver/Src/stm32f4xx_hal_ltdc.c ****   * @}
 793:Drivers/STM32F4xx_HAL_Driver/Src/stm32f4xx_hal_ltdc.c ****   */
 794:Drivers/STM32F4xx_HAL_Driver/Src/stm32f4xx_hal_ltdc.c **** 
 795:Drivers/STM32F4xx_HAL_Driver/Src/stm32f4xx_hal_ltdc.c **** /** @defgroup LTDC_Exported_Functions_Group3 Peripheral Control functions
 796:Drivers/STM32F4xx_HAL_Driver/Src/stm32f4xx_hal_ltdc.c ****   *  @brief    Peripheral Control functions
 797:Drivers/STM32F4xx_HAL_Driver/Src/stm32f4xx_hal_ltdc.c ****   *
 798:Drivers/STM32F4xx_HAL_Driver/Src/stm32f4xx_hal_ltdc.c **** @verbatim
 799:Drivers/STM32F4xx_HAL_Driver/Src/stm32f4xx_hal_ltdc.c ****  ===============================================================================
 800:Drivers/STM32F4xx_HAL_Driver/Src/stm32f4xx_hal_ltdc.c ****                     ##### Peripheral Control functions #####
 801:Drivers/STM32F4xx_HAL_Driver/Src/stm32f4xx_hal_ltdc.c ****  ===============================================================================
 802:Drivers/STM32F4xx_HAL_Driver/Src/stm32f4xx_hal_ltdc.c ****     [..]  This section provides functions allowing to:
 803:Drivers/STM32F4xx_HAL_Driver/Src/stm32f4xx_hal_ltdc.c ****       (+) Configure the LTDC foreground or/and background parameters.
 804:Drivers/STM32F4xx_HAL_Driver/Src/stm32f4xx_hal_ltdc.c ****       (+) Set the active layer.
 805:Drivers/STM32F4xx_HAL_Driver/Src/stm32f4xx_hal_ltdc.c ****       (+) Configure the color keying.
 806:Drivers/STM32F4xx_HAL_Driver/Src/stm32f4xx_hal_ltdc.c ****       (+) Configure the C-LUT.
 807:Drivers/STM32F4xx_HAL_Driver/Src/stm32f4xx_hal_ltdc.c ****       (+) Enable / Disable the color keying.
 808:Drivers/STM32F4xx_HAL_Driver/Src/stm32f4xx_hal_ltdc.c ****       (+) Enable / Disable the C-LUT.
 809:Drivers/STM32F4xx_HAL_Driver/Src/stm32f4xx_hal_ltdc.c ****       (+) Update the layer position.
 810:Drivers/STM32F4xx_HAL_Driver/Src/stm32f4xx_hal_ltdc.c ****       (+) Update the layer size.
 811:Drivers/STM32F4xx_HAL_Driver/Src/stm32f4xx_hal_ltdc.c ****       (+) Update pixel format on the fly.
 812:Drivers/STM32F4xx_HAL_Driver/Src/stm32f4xx_hal_ltdc.c ****       (+) Update transparency on the fly.
 813:Drivers/STM32F4xx_HAL_Driver/Src/stm32f4xx_hal_ltdc.c ****       (+) Update address on the fly.
 814:Drivers/STM32F4xx_HAL_Driver/Src/stm32f4xx_hal_ltdc.c **** 
 815:Drivers/STM32F4xx_HAL_Driver/Src/stm32f4xx_hal_ltdc.c **** @endverbatim
 816:Drivers/STM32F4xx_HAL_Driver/Src/stm32f4xx_hal_ltdc.c ****   * @{
 817:Drivers/STM32F4xx_HAL_Driver/Src/stm32f4xx_hal_ltdc.c ****   */
 818:Drivers/STM32F4xx_HAL_Driver/Src/stm32f4xx_hal_ltdc.c **** 
 819:Drivers/STM32F4xx_HAL_Driver/Src/stm32f4xx_hal_ltdc.c **** /**
 820:Drivers/STM32F4xx_HAL_Driver/Src/stm32f4xx_hal_ltdc.c ****   * @brief  Configure the LTDC Layer according to the specified
 821:Drivers/STM32F4xx_HAL_Driver/Src/stm32f4xx_hal_ltdc.c ****   *         parameters in the LTDC_InitTypeDef and create the associated handle.
 822:Drivers/STM32F4xx_HAL_Driver/Src/stm32f4xx_hal_ltdc.c ****   * @param  hltdc      pointer to a LTDC_HandleTypeDef structure that contains
 823:Drivers/STM32F4xx_HAL_Driver/Src/stm32f4xx_hal_ltdc.c ****   *                    the configuration information for the LTDC.
 824:Drivers/STM32F4xx_HAL_Driver/Src/stm32f4xx_hal_ltdc.c ****   * @param  pLayerCfg  pointer to a LTDC_LayerCfgTypeDef structure that contains
ARM GAS  /var/folders/06/9k7gq4t13mj84z2yhw3grvhc0000gn/T//ccuiTnhW.s 			page 31


 825:Drivers/STM32F4xx_HAL_Driver/Src/stm32f4xx_hal_ltdc.c ****   *                    the configuration information for the Layer.
 826:Drivers/STM32F4xx_HAL_Driver/Src/stm32f4xx_hal_ltdc.c ****   * @param  LayerIdx  LTDC Layer index.
 827:Drivers/STM32F4xx_HAL_Driver/Src/stm32f4xx_hal_ltdc.c ****   *                    This parameter can be one of the following values:
 828:Drivers/STM32F4xx_HAL_Driver/Src/stm32f4xx_hal_ltdc.c ****   *                    LTDC_LAYER_1 (0) or LTDC_LAYER_2 (1)
 829:Drivers/STM32F4xx_HAL_Driver/Src/stm32f4xx_hal_ltdc.c ****   * @retval HAL status
 830:Drivers/STM32F4xx_HAL_Driver/Src/stm32f4xx_hal_ltdc.c ****   */
 831:Drivers/STM32F4xx_HAL_Driver/Src/stm32f4xx_hal_ltdc.c **** HAL_StatusTypeDef HAL_LTDC_ConfigLayer(LTDC_HandleTypeDef *hltdc, LTDC_LayerCfgTypeDef *pLayerCfg, 
 832:Drivers/STM32F4xx_HAL_Driver/Src/stm32f4xx_hal_ltdc.c **** {
 899              		.loc 1 832 1
 900              		.cfi_startproc
 901              		@ args = 0, pretend = 0, frame = 16
 902              		@ frame_needed = 1, uses_anonymous_args = 0
 903 0000 B0B5     		push	{r4, r5, r7, lr}
 904              	.LCFI45:
 905              		.cfi_def_cfa_offset 16
 906              		.cfi_offset 4, -16
 907              		.cfi_offset 5, -12
 908              		.cfi_offset 7, -8
 909              		.cfi_offset 14, -4
 910 0002 84B0     		sub	sp, sp, #16
 911              	.LCFI46:
 912              		.cfi_def_cfa_offset 32
 913 0004 00AF     		add	r7, sp, #0
 914              	.LCFI47:
 915              		.cfi_def_cfa_register 7
 916 0006 F860     		str	r0, [r7, #12]
 917 0008 B960     		str	r1, [r7, #8]
 918 000a 7A60     		str	r2, [r7, #4]
 833:Drivers/STM32F4xx_HAL_Driver/Src/stm32f4xx_hal_ltdc.c ****   /* Check the parameters */
 834:Drivers/STM32F4xx_HAL_Driver/Src/stm32f4xx_hal_ltdc.c ****   assert_param(IS_LTDC_LAYER(LayerIdx));
 835:Drivers/STM32F4xx_HAL_Driver/Src/stm32f4xx_hal_ltdc.c ****   assert_param(IS_LTDC_HCONFIGST(pLayerCfg->WindowX0));
 836:Drivers/STM32F4xx_HAL_Driver/Src/stm32f4xx_hal_ltdc.c ****   assert_param(IS_LTDC_HCONFIGSP(pLayerCfg->WindowX1));
 837:Drivers/STM32F4xx_HAL_Driver/Src/stm32f4xx_hal_ltdc.c ****   assert_param(IS_LTDC_VCONFIGST(pLayerCfg->WindowY0));
 838:Drivers/STM32F4xx_HAL_Driver/Src/stm32f4xx_hal_ltdc.c ****   assert_param(IS_LTDC_VCONFIGSP(pLayerCfg->WindowY1));
 839:Drivers/STM32F4xx_HAL_Driver/Src/stm32f4xx_hal_ltdc.c ****   assert_param(IS_LTDC_PIXEL_FORMAT(pLayerCfg->PixelFormat));
 840:Drivers/STM32F4xx_HAL_Driver/Src/stm32f4xx_hal_ltdc.c ****   assert_param(IS_LTDC_ALPHA(pLayerCfg->Alpha));
 841:Drivers/STM32F4xx_HAL_Driver/Src/stm32f4xx_hal_ltdc.c ****   assert_param(IS_LTDC_ALPHA(pLayerCfg->Alpha0));
 842:Drivers/STM32F4xx_HAL_Driver/Src/stm32f4xx_hal_ltdc.c ****   assert_param(IS_LTDC_BLENDING_FACTOR1(pLayerCfg->BlendingFactor1));
 843:Drivers/STM32F4xx_HAL_Driver/Src/stm32f4xx_hal_ltdc.c ****   assert_param(IS_LTDC_BLENDING_FACTOR2(pLayerCfg->BlendingFactor2));
 844:Drivers/STM32F4xx_HAL_Driver/Src/stm32f4xx_hal_ltdc.c ****   assert_param(IS_LTDC_CFBLL(pLayerCfg->ImageWidth));
 845:Drivers/STM32F4xx_HAL_Driver/Src/stm32f4xx_hal_ltdc.c ****   assert_param(IS_LTDC_CFBLNBR(pLayerCfg->ImageHeight));
 846:Drivers/STM32F4xx_HAL_Driver/Src/stm32f4xx_hal_ltdc.c **** 
 847:Drivers/STM32F4xx_HAL_Driver/Src/stm32f4xx_hal_ltdc.c ****   /* Process locked */
 848:Drivers/STM32F4xx_HAL_Driver/Src/stm32f4xx_hal_ltdc.c ****   __HAL_LOCK(hltdc);
 919              		.loc 1 848 3
 920 000c FB68     		ldr	r3, [r7, #12]
 921 000e 93F8A030 		ldrb	r3, [r3, #160]	@ zero_extendqisi2
 922 0012 012B     		cmp	r3, #1
 923 0014 01D1     		bne	.L26
 924              		.loc 1 848 3 is_stmt 0 discriminator 1
 925 0016 0223     		movs	r3, #2
 926              		.loc 1 848 3
 927 0018 2CE0     		b	.L27
 928              	.L26:
 929              		.loc 1 848 3 discriminator 2
 930 001a FB68     		ldr	r3, [r7, #12]
 931 001c 0122     		movs	r2, #1
ARM GAS  /var/folders/06/9k7gq4t13mj84z2yhw3grvhc0000gn/T//ccuiTnhW.s 			page 32


 932 001e 83F8A020 		strb	r2, [r3, #160]
 849:Drivers/STM32F4xx_HAL_Driver/Src/stm32f4xx_hal_ltdc.c **** 
 850:Drivers/STM32F4xx_HAL_Driver/Src/stm32f4xx_hal_ltdc.c ****   /* Change LTDC peripheral state */
 851:Drivers/STM32F4xx_HAL_Driver/Src/stm32f4xx_hal_ltdc.c ****   hltdc->State = HAL_LTDC_STATE_BUSY;
 933              		.loc 1 851 16 is_stmt 1
 934 0022 FB68     		ldr	r3, [r7, #12]
 935 0024 0222     		movs	r2, #2
 936 0026 83F8A120 		strb	r2, [r3, #161]
 852:Drivers/STM32F4xx_HAL_Driver/Src/stm32f4xx_hal_ltdc.c **** 
 853:Drivers/STM32F4xx_HAL_Driver/Src/stm32f4xx_hal_ltdc.c ****   /* Copy new layer configuration into handle structure */
 854:Drivers/STM32F4xx_HAL_Driver/Src/stm32f4xx_hal_ltdc.c ****   hltdc->LayerCfg[LayerIdx] = *pLayerCfg;
 937              		.loc 1 854 29
 938 002a FA68     		ldr	r2, [r7, #12]
 939 002c 7B68     		ldr	r3, [r7, #4]
 940 002e 3421     		movs	r1, #52
 941 0030 01FB03F3 		mul	r3, r1, r3
 942 0034 1344     		add	r3, r3, r2
 943 0036 03F13802 		add	r2, r3, #56
 944 003a BB68     		ldr	r3, [r7, #8]
 945 003c 1446     		mov	r4, r2
 946 003e 1D46     		mov	r5, r3
 947 0040 0FCD     		ldmia	r5!, {r0, r1, r2, r3}
 948 0042 0FC4     		stmia	r4!, {r0, r1, r2, r3}
 949 0044 0FCD     		ldmia	r5!, {r0, r1, r2, r3}
 950 0046 0FC4     		stmia	r4!, {r0, r1, r2, r3}
 951 0048 0FCD     		ldmia	r5!, {r0, r1, r2, r3}
 952 004a 0FC4     		stmia	r4!, {r0, r1, r2, r3}
 953 004c 2B68     		ldr	r3, [r5]
 954 004e 2360     		str	r3, [r4]
 855:Drivers/STM32F4xx_HAL_Driver/Src/stm32f4xx_hal_ltdc.c **** 
 856:Drivers/STM32F4xx_HAL_Driver/Src/stm32f4xx_hal_ltdc.c ****   /* Configure the LTDC Layer */
 857:Drivers/STM32F4xx_HAL_Driver/Src/stm32f4xx_hal_ltdc.c ****   LTDC_SetConfig(hltdc, pLayerCfg, LayerIdx);
 955              		.loc 1 857 3
 956 0050 7A68     		ldr	r2, [r7, #4]
 957 0052 B968     		ldr	r1, [r7, #8]
 958 0054 F868     		ldr	r0, [r7, #12]
 959 0056 FFF7FEFF 		bl	LTDC_SetConfig
 858:Drivers/STM32F4xx_HAL_Driver/Src/stm32f4xx_hal_ltdc.c **** 
 859:Drivers/STM32F4xx_HAL_Driver/Src/stm32f4xx_hal_ltdc.c ****   /* Set the Immediate Reload type */
 860:Drivers/STM32F4xx_HAL_Driver/Src/stm32f4xx_hal_ltdc.c ****   hltdc->Instance->SRCR = LTDC_SRCR_IMR;
 960              		.loc 1 860 8
 961 005a FB68     		ldr	r3, [r7, #12]
 962 005c 1B68     		ldr	r3, [r3]
 963              		.loc 1 860 25
 964 005e 0122     		movs	r2, #1
 965 0060 5A62     		str	r2, [r3, #36]
 861:Drivers/STM32F4xx_HAL_Driver/Src/stm32f4xx_hal_ltdc.c **** 
 862:Drivers/STM32F4xx_HAL_Driver/Src/stm32f4xx_hal_ltdc.c ****   /* Initialize the LTDC state*/
 863:Drivers/STM32F4xx_HAL_Driver/Src/stm32f4xx_hal_ltdc.c ****   hltdc->State  = HAL_LTDC_STATE_READY;
 966              		.loc 1 863 17
 967 0062 FB68     		ldr	r3, [r7, #12]
 968 0064 0122     		movs	r2, #1
 969 0066 83F8A120 		strb	r2, [r3, #161]
 864:Drivers/STM32F4xx_HAL_Driver/Src/stm32f4xx_hal_ltdc.c **** 
 865:Drivers/STM32F4xx_HAL_Driver/Src/stm32f4xx_hal_ltdc.c ****   /* Process unlocked */
 866:Drivers/STM32F4xx_HAL_Driver/Src/stm32f4xx_hal_ltdc.c ****   __HAL_UNLOCK(hltdc);
 970              		.loc 1 866 3
ARM GAS  /var/folders/06/9k7gq4t13mj84z2yhw3grvhc0000gn/T//ccuiTnhW.s 			page 33


 971 006a FB68     		ldr	r3, [r7, #12]
 972 006c 0022     		movs	r2, #0
 973 006e 83F8A020 		strb	r2, [r3, #160]
 867:Drivers/STM32F4xx_HAL_Driver/Src/stm32f4xx_hal_ltdc.c **** 
 868:Drivers/STM32F4xx_HAL_Driver/Src/stm32f4xx_hal_ltdc.c ****   return HAL_OK;
 974              		.loc 1 868 10
 975 0072 0023     		movs	r3, #0
 976              	.L27:
 869:Drivers/STM32F4xx_HAL_Driver/Src/stm32f4xx_hal_ltdc.c **** }
 977              		.loc 1 869 1
 978 0074 1846     		mov	r0, r3
 979 0076 1037     		adds	r7, r7, #16
 980              	.LCFI48:
 981              		.cfi_def_cfa_offset 16
 982 0078 BD46     		mov	sp, r7
 983              	.LCFI49:
 984              		.cfi_def_cfa_register 13
 985              		@ sp needed
 986 007a B0BD     		pop	{r4, r5, r7, pc}
 987              		.cfi_endproc
 988              	.LFE142:
 990              		.section	.text.HAL_LTDC_ConfigColorKeying,"ax",%progbits
 991              		.align	1
 992              		.global	HAL_LTDC_ConfigColorKeying
 993              		.syntax unified
 994              		.thumb
 995              		.thumb_func
 997              	HAL_LTDC_ConfigColorKeying:
 998              	.LFB143:
 870:Drivers/STM32F4xx_HAL_Driver/Src/stm32f4xx_hal_ltdc.c **** 
 871:Drivers/STM32F4xx_HAL_Driver/Src/stm32f4xx_hal_ltdc.c **** /**
 872:Drivers/STM32F4xx_HAL_Driver/Src/stm32f4xx_hal_ltdc.c ****   * @brief  Configure the color keying.
 873:Drivers/STM32F4xx_HAL_Driver/Src/stm32f4xx_hal_ltdc.c ****   * @param  hltdc     pointer to a LTDC_HandleTypeDef structure that contains
 874:Drivers/STM32F4xx_HAL_Driver/Src/stm32f4xx_hal_ltdc.c ****   *                   the configuration information for the LTDC.
 875:Drivers/STM32F4xx_HAL_Driver/Src/stm32f4xx_hal_ltdc.c ****   * @param  RGBValue  the color key value
 876:Drivers/STM32F4xx_HAL_Driver/Src/stm32f4xx_hal_ltdc.c ****   * @param  LayerIdx  LTDC Layer index.
 877:Drivers/STM32F4xx_HAL_Driver/Src/stm32f4xx_hal_ltdc.c ****   *                   This parameter can be one of the following values:
 878:Drivers/STM32F4xx_HAL_Driver/Src/stm32f4xx_hal_ltdc.c ****   *                   LTDC_LAYER_1 (0) or LTDC_LAYER_2 (1)
 879:Drivers/STM32F4xx_HAL_Driver/Src/stm32f4xx_hal_ltdc.c ****   * @retval HAL status
 880:Drivers/STM32F4xx_HAL_Driver/Src/stm32f4xx_hal_ltdc.c ****   */
 881:Drivers/STM32F4xx_HAL_Driver/Src/stm32f4xx_hal_ltdc.c **** HAL_StatusTypeDef HAL_LTDC_ConfigColorKeying(LTDC_HandleTypeDef *hltdc, uint32_t RGBValue, uint32_t
 882:Drivers/STM32F4xx_HAL_Driver/Src/stm32f4xx_hal_ltdc.c **** {
 999              		.loc 1 882 1
 1000              		.cfi_startproc
 1001              		@ args = 0, pretend = 0, frame = 16
 1002              		@ frame_needed = 1, uses_anonymous_args = 0
 1003              		@ link register save eliminated.
 1004 0000 80B4     		push	{r7}
 1005              	.LCFI50:
 1006              		.cfi_def_cfa_offset 4
 1007              		.cfi_offset 7, -4
 1008 0002 85B0     		sub	sp, sp, #20
 1009              	.LCFI51:
 1010              		.cfi_def_cfa_offset 24
 1011 0004 00AF     		add	r7, sp, #0
 1012              	.LCFI52:
 1013              		.cfi_def_cfa_register 7
ARM GAS  /var/folders/06/9k7gq4t13mj84z2yhw3grvhc0000gn/T//ccuiTnhW.s 			page 34


 1014 0006 F860     		str	r0, [r7, #12]
 1015 0008 B960     		str	r1, [r7, #8]
 1016 000a 7A60     		str	r2, [r7, #4]
 883:Drivers/STM32F4xx_HAL_Driver/Src/stm32f4xx_hal_ltdc.c ****   /* Check the parameters */
 884:Drivers/STM32F4xx_HAL_Driver/Src/stm32f4xx_hal_ltdc.c ****   assert_param(IS_LTDC_LAYER(LayerIdx));
 885:Drivers/STM32F4xx_HAL_Driver/Src/stm32f4xx_hal_ltdc.c **** 
 886:Drivers/STM32F4xx_HAL_Driver/Src/stm32f4xx_hal_ltdc.c ****   /* Process locked */
 887:Drivers/STM32F4xx_HAL_Driver/Src/stm32f4xx_hal_ltdc.c ****   __HAL_LOCK(hltdc);
 1017              		.loc 1 887 3
 1018 000c FB68     		ldr	r3, [r7, #12]
 1019 000e 93F8A030 		ldrb	r3, [r3, #160]	@ zero_extendqisi2
 1020 0012 012B     		cmp	r3, #1
 1021 0014 01D1     		bne	.L29
 1022              		.loc 1 887 3 is_stmt 0 discriminator 1
 1023 0016 0223     		movs	r3, #2
 1024              		.loc 1 887 3
 1025 0018 30E0     		b	.L30
 1026              	.L29:
 1027              		.loc 1 887 3 discriminator 2
 1028 001a FB68     		ldr	r3, [r7, #12]
 1029 001c 0122     		movs	r2, #1
 1030 001e 83F8A020 		strb	r2, [r3, #160]
 888:Drivers/STM32F4xx_HAL_Driver/Src/stm32f4xx_hal_ltdc.c **** 
 889:Drivers/STM32F4xx_HAL_Driver/Src/stm32f4xx_hal_ltdc.c ****   /* Change LTDC peripheral state */
 890:Drivers/STM32F4xx_HAL_Driver/Src/stm32f4xx_hal_ltdc.c ****   hltdc->State = HAL_LTDC_STATE_BUSY;
 1031              		.loc 1 890 16 is_stmt 1
 1032 0022 FB68     		ldr	r3, [r7, #12]
 1033 0024 0222     		movs	r2, #2
 1034 0026 83F8A120 		strb	r2, [r3, #161]
 891:Drivers/STM32F4xx_HAL_Driver/Src/stm32f4xx_hal_ltdc.c **** 
 892:Drivers/STM32F4xx_HAL_Driver/Src/stm32f4xx_hal_ltdc.c ****   /* Configure the default color values */
 893:Drivers/STM32F4xx_HAL_Driver/Src/stm32f4xx_hal_ltdc.c ****   LTDC_LAYER(hltdc, LayerIdx)->CKCR &=  ~(LTDC_LxCKCR_CKBLUE | LTDC_LxCKCR_CKGREEN | LTDC_LxCKCR_CK
 1035              		.loc 1 893 3
 1036 002a FB68     		ldr	r3, [r7, #12]
 1037 002c 1B68     		ldr	r3, [r3]
 1038              		.loc 1 893 30
 1039 002e 1A46     		mov	r2, r3
 1040 0030 7B68     		ldr	r3, [r7, #4]
 1041 0032 DB01     		lsls	r3, r3, #7
 1042 0034 1344     		add	r3, r3, r2
 1043 0036 8433     		adds	r3, r3, #132
 1044 0038 DB68     		ldr	r3, [r3, #12]
 1045              		.loc 1 893 3
 1046 003a FA68     		ldr	r2, [r7, #12]
 1047 003c 1268     		ldr	r2, [r2]
 1048              		.loc 1 893 30
 1049 003e 1146     		mov	r1, r2
 1050 0040 7A68     		ldr	r2, [r7, #4]
 1051 0042 D201     		lsls	r2, r2, #7
 1052 0044 0A44     		add	r2, r2, r1
 1053 0046 8432     		adds	r2, r2, #132
 1054              		.loc 1 893 37
 1055 0048 03F07F43 		and	r3, r3, #-16777216
 1056 004c D360     		str	r3, [r2, #12]
 894:Drivers/STM32F4xx_HAL_Driver/Src/stm32f4xx_hal_ltdc.c ****   LTDC_LAYER(hltdc, LayerIdx)->CKCR  = RGBValue;
 1057              		.loc 1 894 3
 1058 004e FB68     		ldr	r3, [r7, #12]
ARM GAS  /var/folders/06/9k7gq4t13mj84z2yhw3grvhc0000gn/T//ccuiTnhW.s 			page 35


 1059 0050 1B68     		ldr	r3, [r3]
 1060 0052 1A46     		mov	r2, r3
 1061 0054 7B68     		ldr	r3, [r7, #4]
 1062 0056 DB01     		lsls	r3, r3, #7
 1063 0058 1344     		add	r3, r3, r2
 1064 005a 8433     		adds	r3, r3, #132
 1065 005c 1A46     		mov	r2, r3
 1066              		.loc 1 894 38
 1067 005e BB68     		ldr	r3, [r7, #8]
 1068 0060 D360     		str	r3, [r2, #12]
 895:Drivers/STM32F4xx_HAL_Driver/Src/stm32f4xx_hal_ltdc.c **** 
 896:Drivers/STM32F4xx_HAL_Driver/Src/stm32f4xx_hal_ltdc.c ****   /* Set the Immediate Reload type */
 897:Drivers/STM32F4xx_HAL_Driver/Src/stm32f4xx_hal_ltdc.c ****   hltdc->Instance->SRCR = LTDC_SRCR_IMR;
 1069              		.loc 1 897 8
 1070 0062 FB68     		ldr	r3, [r7, #12]
 1071 0064 1B68     		ldr	r3, [r3]
 1072              		.loc 1 897 25
 1073 0066 0122     		movs	r2, #1
 1074 0068 5A62     		str	r2, [r3, #36]
 898:Drivers/STM32F4xx_HAL_Driver/Src/stm32f4xx_hal_ltdc.c **** 
 899:Drivers/STM32F4xx_HAL_Driver/Src/stm32f4xx_hal_ltdc.c ****   /* Change the LTDC state*/
 900:Drivers/STM32F4xx_HAL_Driver/Src/stm32f4xx_hal_ltdc.c ****   hltdc->State = HAL_LTDC_STATE_READY;
 1075              		.loc 1 900 16
 1076 006a FB68     		ldr	r3, [r7, #12]
 1077 006c 0122     		movs	r2, #1
 1078 006e 83F8A120 		strb	r2, [r3, #161]
 901:Drivers/STM32F4xx_HAL_Driver/Src/stm32f4xx_hal_ltdc.c **** 
 902:Drivers/STM32F4xx_HAL_Driver/Src/stm32f4xx_hal_ltdc.c ****   /* Process unlocked */
 903:Drivers/STM32F4xx_HAL_Driver/Src/stm32f4xx_hal_ltdc.c ****   __HAL_UNLOCK(hltdc);
 1079              		.loc 1 903 3
 1080 0072 FB68     		ldr	r3, [r7, #12]
 1081 0074 0022     		movs	r2, #0
 1082 0076 83F8A020 		strb	r2, [r3, #160]
 904:Drivers/STM32F4xx_HAL_Driver/Src/stm32f4xx_hal_ltdc.c **** 
 905:Drivers/STM32F4xx_HAL_Driver/Src/stm32f4xx_hal_ltdc.c ****   return HAL_OK;
 1083              		.loc 1 905 10
 1084 007a 0023     		movs	r3, #0
 1085              	.L30:
 906:Drivers/STM32F4xx_HAL_Driver/Src/stm32f4xx_hal_ltdc.c **** }
 1086              		.loc 1 906 1
 1087 007c 1846     		mov	r0, r3
 1088 007e 1437     		adds	r7, r7, #20
 1089              	.LCFI53:
 1090              		.cfi_def_cfa_offset 4
 1091 0080 BD46     		mov	sp, r7
 1092              	.LCFI54:
 1093              		.cfi_def_cfa_register 13
 1094              		@ sp needed
 1095 0082 5DF8047B 		ldr	r7, [sp], #4
 1096              	.LCFI55:
 1097              		.cfi_restore 7
 1098              		.cfi_def_cfa_offset 0
 1099 0086 7047     		bx	lr
 1100              		.cfi_endproc
 1101              	.LFE143:
 1103              		.section	.text.HAL_LTDC_ConfigCLUT,"ax",%progbits
 1104              		.align	1
ARM GAS  /var/folders/06/9k7gq4t13mj84z2yhw3grvhc0000gn/T//ccuiTnhW.s 			page 36


 1105              		.global	HAL_LTDC_ConfigCLUT
 1106              		.syntax unified
 1107              		.thumb
 1108              		.thumb_func
 1110              	HAL_LTDC_ConfigCLUT:
 1111              	.LFB144:
 907:Drivers/STM32F4xx_HAL_Driver/Src/stm32f4xx_hal_ltdc.c **** 
 908:Drivers/STM32F4xx_HAL_Driver/Src/stm32f4xx_hal_ltdc.c **** /**
 909:Drivers/STM32F4xx_HAL_Driver/Src/stm32f4xx_hal_ltdc.c ****   * @brief  Load the color lookup table.
 910:Drivers/STM32F4xx_HAL_Driver/Src/stm32f4xx_hal_ltdc.c ****   * @param  hltdc     pointer to a LTDC_HandleTypeDef structure that contains
 911:Drivers/STM32F4xx_HAL_Driver/Src/stm32f4xx_hal_ltdc.c ****   *                   the configuration information for the LTDC.
 912:Drivers/STM32F4xx_HAL_Driver/Src/stm32f4xx_hal_ltdc.c ****   * @param  pCLUT     pointer to the color lookup table address.
 913:Drivers/STM32F4xx_HAL_Driver/Src/stm32f4xx_hal_ltdc.c ****   * @param  CLUTSize  the color lookup table size.
 914:Drivers/STM32F4xx_HAL_Driver/Src/stm32f4xx_hal_ltdc.c ****   * @param  LayerIdx  LTDC Layer index.
 915:Drivers/STM32F4xx_HAL_Driver/Src/stm32f4xx_hal_ltdc.c ****   *                   This parameter can be one of the following values:
 916:Drivers/STM32F4xx_HAL_Driver/Src/stm32f4xx_hal_ltdc.c ****   *                   LTDC_LAYER_1 (0) or LTDC_LAYER_2 (1)
 917:Drivers/STM32F4xx_HAL_Driver/Src/stm32f4xx_hal_ltdc.c ****   * @retval HAL status
 918:Drivers/STM32F4xx_HAL_Driver/Src/stm32f4xx_hal_ltdc.c ****   */
 919:Drivers/STM32F4xx_HAL_Driver/Src/stm32f4xx_hal_ltdc.c **** HAL_StatusTypeDef HAL_LTDC_ConfigCLUT(LTDC_HandleTypeDef *hltdc, uint32_t *pCLUT, uint32_t CLUTSize
 920:Drivers/STM32F4xx_HAL_Driver/Src/stm32f4xx_hal_ltdc.c **** {
 1112              		.loc 1 920 1
 1113              		.cfi_startproc
 1114              		@ args = 0, pretend = 0, frame = 32
 1115              		@ frame_needed = 1, uses_anonymous_args = 0
 1116              		@ link register save eliminated.
 1117 0000 80B4     		push	{r7}
 1118              	.LCFI56:
 1119              		.cfi_def_cfa_offset 4
 1120              		.cfi_offset 7, -4
 1121 0002 89B0     		sub	sp, sp, #36
 1122              	.LCFI57:
 1123              		.cfi_def_cfa_offset 40
 1124 0004 00AF     		add	r7, sp, #0
 1125              	.LCFI58:
 1126              		.cfi_def_cfa_register 7
 1127 0006 F860     		str	r0, [r7, #12]
 1128 0008 B960     		str	r1, [r7, #8]
 1129 000a 7A60     		str	r2, [r7, #4]
 1130 000c 3B60     		str	r3, [r7]
 921:Drivers/STM32F4xx_HAL_Driver/Src/stm32f4xx_hal_ltdc.c ****   uint32_t tmp;
 922:Drivers/STM32F4xx_HAL_Driver/Src/stm32f4xx_hal_ltdc.c ****   uint32_t counter;
 923:Drivers/STM32F4xx_HAL_Driver/Src/stm32f4xx_hal_ltdc.c ****   uint32_t *pcolorlut = pCLUT;
 1131              		.loc 1 923 13
 1132 000e BB68     		ldr	r3, [r7, #8]
 1133 0010 7B61     		str	r3, [r7, #20]
 924:Drivers/STM32F4xx_HAL_Driver/Src/stm32f4xx_hal_ltdc.c ****   /* Check the parameters */
 925:Drivers/STM32F4xx_HAL_Driver/Src/stm32f4xx_hal_ltdc.c ****   assert_param(IS_LTDC_LAYER(LayerIdx));
 926:Drivers/STM32F4xx_HAL_Driver/Src/stm32f4xx_hal_ltdc.c **** 
 927:Drivers/STM32F4xx_HAL_Driver/Src/stm32f4xx_hal_ltdc.c ****   /* Process locked */
 928:Drivers/STM32F4xx_HAL_Driver/Src/stm32f4xx_hal_ltdc.c ****   __HAL_LOCK(hltdc);
 1134              		.loc 1 928 3
 1135 0012 FB68     		ldr	r3, [r7, #12]
 1136 0014 93F8A030 		ldrb	r3, [r3, #160]	@ zero_extendqisi2
 1137 0018 012B     		cmp	r3, #1
 1138 001a 01D1     		bne	.L32
 1139              		.loc 1 928 3 is_stmt 0 discriminator 1
 1140 001c 0223     		movs	r3, #2
ARM GAS  /var/folders/06/9k7gq4t13mj84z2yhw3grvhc0000gn/T//ccuiTnhW.s 			page 37


 1141              		.loc 1 928 3
 1142 001e 57E0     		b	.L33
 1143              	.L32:
 1144              		.loc 1 928 3 discriminator 2
 1145 0020 FB68     		ldr	r3, [r7, #12]
 1146 0022 0122     		movs	r2, #1
 1147 0024 83F8A020 		strb	r2, [r3, #160]
 929:Drivers/STM32F4xx_HAL_Driver/Src/stm32f4xx_hal_ltdc.c **** 
 930:Drivers/STM32F4xx_HAL_Driver/Src/stm32f4xx_hal_ltdc.c ****   /* Change LTDC peripheral state */
 931:Drivers/STM32F4xx_HAL_Driver/Src/stm32f4xx_hal_ltdc.c ****   hltdc->State = HAL_LTDC_STATE_BUSY;
 1148              		.loc 1 931 16 is_stmt 1
 1149 0028 FB68     		ldr	r3, [r7, #12]
 1150 002a 0222     		movs	r2, #2
 1151 002c 83F8A120 		strb	r2, [r3, #161]
 932:Drivers/STM32F4xx_HAL_Driver/Src/stm32f4xx_hal_ltdc.c **** 
 933:Drivers/STM32F4xx_HAL_Driver/Src/stm32f4xx_hal_ltdc.c ****   for (counter = 0U; (counter < CLUTSize); counter++)
 1152              		.loc 1 933 16
 1153 0030 0023     		movs	r3, #0
 1154 0032 BB61     		str	r3, [r7, #24]
 1155              		.loc 1 933 3
 1156 0034 3FE0     		b	.L34
 1157              	.L37:
 934:Drivers/STM32F4xx_HAL_Driver/Src/stm32f4xx_hal_ltdc.c ****   {
 935:Drivers/STM32F4xx_HAL_Driver/Src/stm32f4xx_hal_ltdc.c ****     if (hltdc->LayerCfg[LayerIdx].PixelFormat == LTDC_PIXEL_FORMAT_AL44)
 1158              		.loc 1 935 34
 1159 0036 FA68     		ldr	r2, [r7, #12]
 1160 0038 3B68     		ldr	r3, [r7]
 1161 003a 3421     		movs	r1, #52
 1162 003c 01FB03F3 		mul	r3, r1, r3
 1163 0040 1344     		add	r3, r3, r2
 1164 0042 4833     		adds	r3, r3, #72
 1165 0044 1B68     		ldr	r3, [r3]
 1166              		.loc 1 935 8
 1167 0046 062B     		cmp	r3, #6
 1168 0048 14D1     		bne	.L35
 936:Drivers/STM32F4xx_HAL_Driver/Src/stm32f4xx_hal_ltdc.c ****     {
 937:Drivers/STM32F4xx_HAL_Driver/Src/stm32f4xx_hal_ltdc.c ****       tmp  = (((counter + (16U * counter)) << 24U) | ((uint32_t)(*pcolorlut) & 0xFFU) | \
 1169              		.loc 1 937 25
 1170 004a BA69     		ldr	r2, [r7, #24]
 1171 004c 1346     		mov	r3, r2
 1172 004e 1B01     		lsls	r3, r3, #4
 1173 0050 1344     		add	r3, r3, r2
 1174              		.loc 1 937 44
 1175 0052 1A06     		lsls	r2, r3, #24
 1176              		.loc 1 937 55
 1177 0054 7B69     		ldr	r3, [r7, #20]
 1178 0056 1B68     		ldr	r3, [r3]
 1179              		.loc 1 937 78
 1180 0058 DBB2     		uxtb	r3, r3
 1181              		.loc 1 937 52
 1182 005a 1A43     		orrs	r2, r2, r3
 938:Drivers/STM32F4xx_HAL_Driver/Src/stm32f4xx_hal_ltdc.c ****               ((uint32_t)(*pcolorlut) & 0xFF00U) | ((uint32_t)(*pcolorlut) & 0xFF0000U));
 1183              		.loc 1 938 16
 1184 005c 7B69     		ldr	r3, [r7, #20]
 1185 005e 1B68     		ldr	r3, [r3]
 1186              		.loc 1 938 39
 1187 0060 03F47F43 		and	r3, r3, #65280
ARM GAS  /var/folders/06/9k7gq4t13mj84z2yhw3grvhc0000gn/T//ccuiTnhW.s 			page 38


 937:Drivers/STM32F4xx_HAL_Driver/Src/stm32f4xx_hal_ltdc.c ****               ((uint32_t)(*pcolorlut) & 0xFF00U) | ((uint32_t)(*pcolorlut) & 0xFF0000U));
 1188              		.loc 1 937 87
 1189 0064 1A43     		orrs	r2, r2, r3
 1190              		.loc 1 938 53
 1191 0066 7B69     		ldr	r3, [r7, #20]
 1192 0068 1B68     		ldr	r3, [r3]
 1193              		.loc 1 938 76
 1194 006a 03F47F03 		and	r3, r3, #16711680
 937:Drivers/STM32F4xx_HAL_Driver/Src/stm32f4xx_hal_ltdc.c ****               ((uint32_t)(*pcolorlut) & 0xFF00U) | ((uint32_t)(*pcolorlut) & 0xFF0000U));
 1195              		.loc 1 937 12
 1196 006e 1343     		orrs	r3, r3, r2
 1197 0070 FB61     		str	r3, [r7, #28]
 1198 0072 10E0     		b	.L36
 1199              	.L35:
 939:Drivers/STM32F4xx_HAL_Driver/Src/stm32f4xx_hal_ltdc.c ****     }
 940:Drivers/STM32F4xx_HAL_Driver/Src/stm32f4xx_hal_ltdc.c ****     else
 941:Drivers/STM32F4xx_HAL_Driver/Src/stm32f4xx_hal_ltdc.c ****     {
 942:Drivers/STM32F4xx_HAL_Driver/Src/stm32f4xx_hal_ltdc.c ****       tmp  = ((counter << 24U) | ((uint32_t)(*pcolorlut) & 0xFFU) | \
 1200              		.loc 1 942 24
 1201 0074 BB69     		ldr	r3, [r7, #24]
 1202 0076 1A06     		lsls	r2, r3, #24
 1203              		.loc 1 942 35
 1204 0078 7B69     		ldr	r3, [r7, #20]
 1205 007a 1B68     		ldr	r3, [r3]
 1206              		.loc 1 942 58
 1207 007c DBB2     		uxtb	r3, r3
 1208              		.loc 1 942 32
 1209 007e 1A43     		orrs	r2, r2, r3
 943:Drivers/STM32F4xx_HAL_Driver/Src/stm32f4xx_hal_ltdc.c ****               ((uint32_t)(*pcolorlut) & 0xFF00U) | ((uint32_t)(*pcolorlut) & 0xFF0000U));
 1210              		.loc 1 943 16
 1211 0080 7B69     		ldr	r3, [r7, #20]
 1212 0082 1B68     		ldr	r3, [r3]
 1213              		.loc 1 943 39
 1214 0084 03F47F43 		and	r3, r3, #65280
 942:Drivers/STM32F4xx_HAL_Driver/Src/stm32f4xx_hal_ltdc.c ****               ((uint32_t)(*pcolorlut) & 0xFF00U) | ((uint32_t)(*pcolorlut) & 0xFF0000U));
 1215              		.loc 1 942 67
 1216 0088 1A43     		orrs	r2, r2, r3
 1217              		.loc 1 943 53
 1218 008a 7B69     		ldr	r3, [r7, #20]
 1219 008c 1B68     		ldr	r3, [r3]
 1220              		.loc 1 943 76
 1221 008e 03F47F03 		and	r3, r3, #16711680
 942:Drivers/STM32F4xx_HAL_Driver/Src/stm32f4xx_hal_ltdc.c ****               ((uint32_t)(*pcolorlut) & 0xFF00U) | ((uint32_t)(*pcolorlut) & 0xFF0000U));
 1222              		.loc 1 942 12
 1223 0092 1343     		orrs	r3, r3, r2
 1224 0094 FB61     		str	r3, [r7, #28]
 1225              	.L36:
 944:Drivers/STM32F4xx_HAL_Driver/Src/stm32f4xx_hal_ltdc.c ****     }
 945:Drivers/STM32F4xx_HAL_Driver/Src/stm32f4xx_hal_ltdc.c **** 
 946:Drivers/STM32F4xx_HAL_Driver/Src/stm32f4xx_hal_ltdc.c ****     pcolorlut++;
 1226              		.loc 1 946 14
 1227 0096 7B69     		ldr	r3, [r7, #20]
 1228 0098 0433     		adds	r3, r3, #4
 1229 009a 7B61     		str	r3, [r7, #20]
 947:Drivers/STM32F4xx_HAL_Driver/Src/stm32f4xx_hal_ltdc.c **** 
 948:Drivers/STM32F4xx_HAL_Driver/Src/stm32f4xx_hal_ltdc.c ****     /* Specifies the C-LUT address and RGB value */
 949:Drivers/STM32F4xx_HAL_Driver/Src/stm32f4xx_hal_ltdc.c ****     LTDC_LAYER(hltdc, LayerIdx)->CLUTWR  = tmp;
ARM GAS  /var/folders/06/9k7gq4t13mj84z2yhw3grvhc0000gn/T//ccuiTnhW.s 			page 39


 1230              		.loc 1 949 5
 1231 009c FB68     		ldr	r3, [r7, #12]
 1232 009e 1B68     		ldr	r3, [r3]
 1233 00a0 1A46     		mov	r2, r3
 1234 00a2 3B68     		ldr	r3, [r7]
 1235 00a4 DB01     		lsls	r3, r3, #7
 1236 00a6 1344     		add	r3, r3, r2
 1237 00a8 8433     		adds	r3, r3, #132
 1238 00aa 1A46     		mov	r2, r3
 1239              		.loc 1 949 42
 1240 00ac FB69     		ldr	r3, [r7, #28]
 1241 00ae 1364     		str	r3, [r2, #64]
 933:Drivers/STM32F4xx_HAL_Driver/Src/stm32f4xx_hal_ltdc.c ****   {
 1242              		.loc 1 933 51 discriminator 2
 1243 00b0 BB69     		ldr	r3, [r7, #24]
 1244 00b2 0133     		adds	r3, r3, #1
 1245 00b4 BB61     		str	r3, [r7, #24]
 1246              	.L34:
 933:Drivers/STM32F4xx_HAL_Driver/Src/stm32f4xx_hal_ltdc.c ****   {
 1247              		.loc 1 933 31 discriminator 1
 1248 00b6 BA69     		ldr	r2, [r7, #24]
 1249 00b8 7B68     		ldr	r3, [r7, #4]
 1250 00ba 9A42     		cmp	r2, r3
 1251 00bc BBD3     		bcc	.L37
 950:Drivers/STM32F4xx_HAL_Driver/Src/stm32f4xx_hal_ltdc.c ****   }
 951:Drivers/STM32F4xx_HAL_Driver/Src/stm32f4xx_hal_ltdc.c **** 
 952:Drivers/STM32F4xx_HAL_Driver/Src/stm32f4xx_hal_ltdc.c ****   /* Change the LTDC state*/
 953:Drivers/STM32F4xx_HAL_Driver/Src/stm32f4xx_hal_ltdc.c ****   hltdc->State = HAL_LTDC_STATE_READY;
 1252              		.loc 1 953 16
 1253 00be FB68     		ldr	r3, [r7, #12]
 1254 00c0 0122     		movs	r2, #1
 1255 00c2 83F8A120 		strb	r2, [r3, #161]
 954:Drivers/STM32F4xx_HAL_Driver/Src/stm32f4xx_hal_ltdc.c **** 
 955:Drivers/STM32F4xx_HAL_Driver/Src/stm32f4xx_hal_ltdc.c ****   /* Process unlocked */
 956:Drivers/STM32F4xx_HAL_Driver/Src/stm32f4xx_hal_ltdc.c ****   __HAL_UNLOCK(hltdc);
 1256              		.loc 1 956 3
 1257 00c6 FB68     		ldr	r3, [r7, #12]
 1258 00c8 0022     		movs	r2, #0
 1259 00ca 83F8A020 		strb	r2, [r3, #160]
 957:Drivers/STM32F4xx_HAL_Driver/Src/stm32f4xx_hal_ltdc.c **** 
 958:Drivers/STM32F4xx_HAL_Driver/Src/stm32f4xx_hal_ltdc.c ****   return HAL_OK;
 1260              		.loc 1 958 10
 1261 00ce 0023     		movs	r3, #0
 1262              	.L33:
 959:Drivers/STM32F4xx_HAL_Driver/Src/stm32f4xx_hal_ltdc.c **** }
 1263              		.loc 1 959 1
 1264 00d0 1846     		mov	r0, r3
 1265 00d2 2437     		adds	r7, r7, #36
 1266              	.LCFI59:
 1267              		.cfi_def_cfa_offset 4
 1268 00d4 BD46     		mov	sp, r7
 1269              	.LCFI60:
 1270              		.cfi_def_cfa_register 13
 1271              		@ sp needed
 1272 00d6 5DF8047B 		ldr	r7, [sp], #4
 1273              	.LCFI61:
 1274              		.cfi_restore 7
ARM GAS  /var/folders/06/9k7gq4t13mj84z2yhw3grvhc0000gn/T//ccuiTnhW.s 			page 40


 1275              		.cfi_def_cfa_offset 0
 1276 00da 7047     		bx	lr
 1277              		.cfi_endproc
 1278              	.LFE144:
 1280              		.section	.text.HAL_LTDC_EnableColorKeying,"ax",%progbits
 1281              		.align	1
 1282              		.global	HAL_LTDC_EnableColorKeying
 1283              		.syntax unified
 1284              		.thumb
 1285              		.thumb_func
 1287              	HAL_LTDC_EnableColorKeying:
 1288              	.LFB145:
 960:Drivers/STM32F4xx_HAL_Driver/Src/stm32f4xx_hal_ltdc.c **** 
 961:Drivers/STM32F4xx_HAL_Driver/Src/stm32f4xx_hal_ltdc.c **** /**
 962:Drivers/STM32F4xx_HAL_Driver/Src/stm32f4xx_hal_ltdc.c ****   * @brief  Enable the color keying.
 963:Drivers/STM32F4xx_HAL_Driver/Src/stm32f4xx_hal_ltdc.c ****   * @param  hltdc     pointer to a LTDC_HandleTypeDef structure that contains
 964:Drivers/STM32F4xx_HAL_Driver/Src/stm32f4xx_hal_ltdc.c ****   *                   the configuration information for the LTDC.
 965:Drivers/STM32F4xx_HAL_Driver/Src/stm32f4xx_hal_ltdc.c ****   * @param  LayerIdx  LTDC Layer index.
 966:Drivers/STM32F4xx_HAL_Driver/Src/stm32f4xx_hal_ltdc.c ****   *                   This parameter can be one of the following values:
 967:Drivers/STM32F4xx_HAL_Driver/Src/stm32f4xx_hal_ltdc.c ****   *                   LTDC_LAYER_1 (0) or LTDC_LAYER_2 (1)
 968:Drivers/STM32F4xx_HAL_Driver/Src/stm32f4xx_hal_ltdc.c ****   * @retval  HAL status
 969:Drivers/STM32F4xx_HAL_Driver/Src/stm32f4xx_hal_ltdc.c ****   */
 970:Drivers/STM32F4xx_HAL_Driver/Src/stm32f4xx_hal_ltdc.c **** HAL_StatusTypeDef HAL_LTDC_EnableColorKeying(LTDC_HandleTypeDef *hltdc, uint32_t LayerIdx)
 971:Drivers/STM32F4xx_HAL_Driver/Src/stm32f4xx_hal_ltdc.c **** {
 1289              		.loc 1 971 1
 1290              		.cfi_startproc
 1291              		@ args = 0, pretend = 0, frame = 8
 1292              		@ frame_needed = 1, uses_anonymous_args = 0
 1293              		@ link register save eliminated.
 1294 0000 80B4     		push	{r7}
 1295              	.LCFI62:
 1296              		.cfi_def_cfa_offset 4
 1297              		.cfi_offset 7, -4
 1298 0002 83B0     		sub	sp, sp, #12
 1299              	.LCFI63:
 1300              		.cfi_def_cfa_offset 16
 1301 0004 00AF     		add	r7, sp, #0
 1302              	.LCFI64:
 1303              		.cfi_def_cfa_register 7
 1304 0006 7860     		str	r0, [r7, #4]
 1305 0008 3960     		str	r1, [r7]
 972:Drivers/STM32F4xx_HAL_Driver/Src/stm32f4xx_hal_ltdc.c ****   /* Check the parameters */
 973:Drivers/STM32F4xx_HAL_Driver/Src/stm32f4xx_hal_ltdc.c ****   assert_param(IS_LTDC_LAYER(LayerIdx));
 974:Drivers/STM32F4xx_HAL_Driver/Src/stm32f4xx_hal_ltdc.c **** 
 975:Drivers/STM32F4xx_HAL_Driver/Src/stm32f4xx_hal_ltdc.c ****   /* Process locked */
 976:Drivers/STM32F4xx_HAL_Driver/Src/stm32f4xx_hal_ltdc.c ****   __HAL_LOCK(hltdc);
 1306              		.loc 1 976 3
 1307 000a 7B68     		ldr	r3, [r7, #4]
 1308 000c 93F8A030 		ldrb	r3, [r3, #160]	@ zero_extendqisi2
 1309 0010 012B     		cmp	r3, #1
 1310 0012 01D1     		bne	.L39
 1311              		.loc 1 976 3 is_stmt 0 discriminator 1
 1312 0014 0223     		movs	r3, #2
 1313              		.loc 1 976 3
 1314 0016 26E0     		b	.L40
 1315              	.L39:
 1316              		.loc 1 976 3 discriminator 2
ARM GAS  /var/folders/06/9k7gq4t13mj84z2yhw3grvhc0000gn/T//ccuiTnhW.s 			page 41


 1317 0018 7B68     		ldr	r3, [r7, #4]
 1318 001a 0122     		movs	r2, #1
 1319 001c 83F8A020 		strb	r2, [r3, #160]
 977:Drivers/STM32F4xx_HAL_Driver/Src/stm32f4xx_hal_ltdc.c **** 
 978:Drivers/STM32F4xx_HAL_Driver/Src/stm32f4xx_hal_ltdc.c ****   /* Change LTDC peripheral state */
 979:Drivers/STM32F4xx_HAL_Driver/Src/stm32f4xx_hal_ltdc.c ****   hltdc->State = HAL_LTDC_STATE_BUSY;
 1320              		.loc 1 979 16 is_stmt 1
 1321 0020 7B68     		ldr	r3, [r7, #4]
 1322 0022 0222     		movs	r2, #2
 1323 0024 83F8A120 		strb	r2, [r3, #161]
 980:Drivers/STM32F4xx_HAL_Driver/Src/stm32f4xx_hal_ltdc.c **** 
 981:Drivers/STM32F4xx_HAL_Driver/Src/stm32f4xx_hal_ltdc.c ****   /* Enable LTDC color keying by setting COLKEN bit */
 982:Drivers/STM32F4xx_HAL_Driver/Src/stm32f4xx_hal_ltdc.c ****   LTDC_LAYER(hltdc, LayerIdx)->CR |= (uint32_t)LTDC_LxCR_COLKEN;
 1324              		.loc 1 982 3
 1325 0028 7B68     		ldr	r3, [r7, #4]
 1326 002a 1B68     		ldr	r3, [r3]
 1327              		.loc 1 982 30
 1328 002c 1A46     		mov	r2, r3
 1329 002e 3B68     		ldr	r3, [r7]
 1330 0030 DB01     		lsls	r3, r3, #7
 1331 0032 1344     		add	r3, r3, r2
 1332 0034 8433     		adds	r3, r3, #132
 1333 0036 1B68     		ldr	r3, [r3]
 1334              		.loc 1 982 3
 1335 0038 7A68     		ldr	r2, [r7, #4]
 1336 003a 1268     		ldr	r2, [r2]
 1337              		.loc 1 982 30
 1338 003c 1146     		mov	r1, r2
 1339 003e 3A68     		ldr	r2, [r7]
 1340 0040 D201     		lsls	r2, r2, #7
 1341 0042 0A44     		add	r2, r2, r1
 1342 0044 8432     		adds	r2, r2, #132
 1343              		.loc 1 982 35
 1344 0046 43F00203 		orr	r3, r3, #2
 1345 004a 1360     		str	r3, [r2]
 983:Drivers/STM32F4xx_HAL_Driver/Src/stm32f4xx_hal_ltdc.c **** 
 984:Drivers/STM32F4xx_HAL_Driver/Src/stm32f4xx_hal_ltdc.c ****   /* Set the Immediate Reload type */
 985:Drivers/STM32F4xx_HAL_Driver/Src/stm32f4xx_hal_ltdc.c ****   hltdc->Instance->SRCR = LTDC_SRCR_IMR;
 1346              		.loc 1 985 8
 1347 004c 7B68     		ldr	r3, [r7, #4]
 1348 004e 1B68     		ldr	r3, [r3]
 1349              		.loc 1 985 25
 1350 0050 0122     		movs	r2, #1
 1351 0052 5A62     		str	r2, [r3, #36]
 986:Drivers/STM32F4xx_HAL_Driver/Src/stm32f4xx_hal_ltdc.c **** 
 987:Drivers/STM32F4xx_HAL_Driver/Src/stm32f4xx_hal_ltdc.c ****   /* Change the LTDC state*/
 988:Drivers/STM32F4xx_HAL_Driver/Src/stm32f4xx_hal_ltdc.c ****   hltdc->State = HAL_LTDC_STATE_READY;
 1352              		.loc 1 988 16
 1353 0054 7B68     		ldr	r3, [r7, #4]
 1354 0056 0122     		movs	r2, #1
 1355 0058 83F8A120 		strb	r2, [r3, #161]
 989:Drivers/STM32F4xx_HAL_Driver/Src/stm32f4xx_hal_ltdc.c **** 
 990:Drivers/STM32F4xx_HAL_Driver/Src/stm32f4xx_hal_ltdc.c ****   /* Process unlocked */
 991:Drivers/STM32F4xx_HAL_Driver/Src/stm32f4xx_hal_ltdc.c ****   __HAL_UNLOCK(hltdc);
 1356              		.loc 1 991 3
 1357 005c 7B68     		ldr	r3, [r7, #4]
 1358 005e 0022     		movs	r2, #0
ARM GAS  /var/folders/06/9k7gq4t13mj84z2yhw3grvhc0000gn/T//ccuiTnhW.s 			page 42


 1359 0060 83F8A020 		strb	r2, [r3, #160]
 992:Drivers/STM32F4xx_HAL_Driver/Src/stm32f4xx_hal_ltdc.c **** 
 993:Drivers/STM32F4xx_HAL_Driver/Src/stm32f4xx_hal_ltdc.c ****   return HAL_OK;
 1360              		.loc 1 993 10
 1361 0064 0023     		movs	r3, #0
 1362              	.L40:
 994:Drivers/STM32F4xx_HAL_Driver/Src/stm32f4xx_hal_ltdc.c **** }
 1363              		.loc 1 994 1
 1364 0066 1846     		mov	r0, r3
 1365 0068 0C37     		adds	r7, r7, #12
 1366              	.LCFI65:
 1367              		.cfi_def_cfa_offset 4
 1368 006a BD46     		mov	sp, r7
 1369              	.LCFI66:
 1370              		.cfi_def_cfa_register 13
 1371              		@ sp needed
 1372 006c 5DF8047B 		ldr	r7, [sp], #4
 1373              	.LCFI67:
 1374              		.cfi_restore 7
 1375              		.cfi_def_cfa_offset 0
 1376 0070 7047     		bx	lr
 1377              		.cfi_endproc
 1378              	.LFE145:
 1380              		.section	.text.HAL_LTDC_DisableColorKeying,"ax",%progbits
 1381              		.align	1
 1382              		.global	HAL_LTDC_DisableColorKeying
 1383              		.syntax unified
 1384              		.thumb
 1385              		.thumb_func
 1387              	HAL_LTDC_DisableColorKeying:
 1388              	.LFB146:
 995:Drivers/STM32F4xx_HAL_Driver/Src/stm32f4xx_hal_ltdc.c **** 
 996:Drivers/STM32F4xx_HAL_Driver/Src/stm32f4xx_hal_ltdc.c **** /**
 997:Drivers/STM32F4xx_HAL_Driver/Src/stm32f4xx_hal_ltdc.c ****   * @brief  Disable the color keying.
 998:Drivers/STM32F4xx_HAL_Driver/Src/stm32f4xx_hal_ltdc.c ****   * @param  hltdc     pointer to a LTDC_HandleTypeDef structure that contains
 999:Drivers/STM32F4xx_HAL_Driver/Src/stm32f4xx_hal_ltdc.c ****   *                   the configuration information for the LTDC.
1000:Drivers/STM32F4xx_HAL_Driver/Src/stm32f4xx_hal_ltdc.c ****   * @param  LayerIdx  LTDC Layer index.
1001:Drivers/STM32F4xx_HAL_Driver/Src/stm32f4xx_hal_ltdc.c ****   *                   This parameter can be one of the following values:
1002:Drivers/STM32F4xx_HAL_Driver/Src/stm32f4xx_hal_ltdc.c ****   *                   LTDC_LAYER_1 (0) or LTDC_LAYER_2 (1)
1003:Drivers/STM32F4xx_HAL_Driver/Src/stm32f4xx_hal_ltdc.c ****   * @retval  HAL status
1004:Drivers/STM32F4xx_HAL_Driver/Src/stm32f4xx_hal_ltdc.c ****   */
1005:Drivers/STM32F4xx_HAL_Driver/Src/stm32f4xx_hal_ltdc.c **** HAL_StatusTypeDef HAL_LTDC_DisableColorKeying(LTDC_HandleTypeDef *hltdc, uint32_t LayerIdx)
1006:Drivers/STM32F4xx_HAL_Driver/Src/stm32f4xx_hal_ltdc.c **** {
 1389              		.loc 1 1006 1
 1390              		.cfi_startproc
 1391              		@ args = 0, pretend = 0, frame = 8
 1392              		@ frame_needed = 1, uses_anonymous_args = 0
 1393              		@ link register save eliminated.
 1394 0000 80B4     		push	{r7}
 1395              	.LCFI68:
 1396              		.cfi_def_cfa_offset 4
 1397              		.cfi_offset 7, -4
 1398 0002 83B0     		sub	sp, sp, #12
 1399              	.LCFI69:
 1400              		.cfi_def_cfa_offset 16
 1401 0004 00AF     		add	r7, sp, #0
 1402              	.LCFI70:
ARM GAS  /var/folders/06/9k7gq4t13mj84z2yhw3grvhc0000gn/T//ccuiTnhW.s 			page 43


 1403              		.cfi_def_cfa_register 7
 1404 0006 7860     		str	r0, [r7, #4]
 1405 0008 3960     		str	r1, [r7]
1007:Drivers/STM32F4xx_HAL_Driver/Src/stm32f4xx_hal_ltdc.c ****   /* Check the parameters */
1008:Drivers/STM32F4xx_HAL_Driver/Src/stm32f4xx_hal_ltdc.c ****   assert_param(IS_LTDC_LAYER(LayerIdx));
1009:Drivers/STM32F4xx_HAL_Driver/Src/stm32f4xx_hal_ltdc.c **** 
1010:Drivers/STM32F4xx_HAL_Driver/Src/stm32f4xx_hal_ltdc.c ****   /* Process locked */
1011:Drivers/STM32F4xx_HAL_Driver/Src/stm32f4xx_hal_ltdc.c ****   __HAL_LOCK(hltdc);
 1406              		.loc 1 1011 3
 1407 000a 7B68     		ldr	r3, [r7, #4]
 1408 000c 93F8A030 		ldrb	r3, [r3, #160]	@ zero_extendqisi2
 1409 0010 012B     		cmp	r3, #1
 1410 0012 01D1     		bne	.L42
 1411              		.loc 1 1011 3 is_stmt 0 discriminator 1
 1412 0014 0223     		movs	r3, #2
 1413              		.loc 1 1011 3
 1414 0016 26E0     		b	.L43
 1415              	.L42:
 1416              		.loc 1 1011 3 discriminator 2
 1417 0018 7B68     		ldr	r3, [r7, #4]
 1418 001a 0122     		movs	r2, #1
 1419 001c 83F8A020 		strb	r2, [r3, #160]
1012:Drivers/STM32F4xx_HAL_Driver/Src/stm32f4xx_hal_ltdc.c **** 
1013:Drivers/STM32F4xx_HAL_Driver/Src/stm32f4xx_hal_ltdc.c ****   /* Change LTDC peripheral state */
1014:Drivers/STM32F4xx_HAL_Driver/Src/stm32f4xx_hal_ltdc.c ****   hltdc->State = HAL_LTDC_STATE_BUSY;
 1420              		.loc 1 1014 16 is_stmt 1
 1421 0020 7B68     		ldr	r3, [r7, #4]
 1422 0022 0222     		movs	r2, #2
 1423 0024 83F8A120 		strb	r2, [r3, #161]
1015:Drivers/STM32F4xx_HAL_Driver/Src/stm32f4xx_hal_ltdc.c **** 
1016:Drivers/STM32F4xx_HAL_Driver/Src/stm32f4xx_hal_ltdc.c ****   /* Disable LTDC color keying by setting COLKEN bit */
1017:Drivers/STM32F4xx_HAL_Driver/Src/stm32f4xx_hal_ltdc.c ****   LTDC_LAYER(hltdc, LayerIdx)->CR &= ~(uint32_t)LTDC_LxCR_COLKEN;
 1424              		.loc 1 1017 3
 1425 0028 7B68     		ldr	r3, [r7, #4]
 1426 002a 1B68     		ldr	r3, [r3]
 1427              		.loc 1 1017 30
 1428 002c 1A46     		mov	r2, r3
 1429 002e 3B68     		ldr	r3, [r7]
 1430 0030 DB01     		lsls	r3, r3, #7
 1431 0032 1344     		add	r3, r3, r2
 1432 0034 8433     		adds	r3, r3, #132
 1433 0036 1B68     		ldr	r3, [r3]
 1434              		.loc 1 1017 3
 1435 0038 7A68     		ldr	r2, [r7, #4]
 1436 003a 1268     		ldr	r2, [r2]
 1437              		.loc 1 1017 30
 1438 003c 1146     		mov	r1, r2
 1439 003e 3A68     		ldr	r2, [r7]
 1440 0040 D201     		lsls	r2, r2, #7
 1441 0042 0A44     		add	r2, r2, r1
 1442 0044 8432     		adds	r2, r2, #132
 1443              		.loc 1 1017 35
 1444 0046 23F00203 		bic	r3, r3, #2
 1445 004a 1360     		str	r3, [r2]
1018:Drivers/STM32F4xx_HAL_Driver/Src/stm32f4xx_hal_ltdc.c **** 
1019:Drivers/STM32F4xx_HAL_Driver/Src/stm32f4xx_hal_ltdc.c ****   /* Set the Immediate Reload type */
1020:Drivers/STM32F4xx_HAL_Driver/Src/stm32f4xx_hal_ltdc.c ****   hltdc->Instance->SRCR = LTDC_SRCR_IMR;
ARM GAS  /var/folders/06/9k7gq4t13mj84z2yhw3grvhc0000gn/T//ccuiTnhW.s 			page 44


 1446              		.loc 1 1020 8
 1447 004c 7B68     		ldr	r3, [r7, #4]
 1448 004e 1B68     		ldr	r3, [r3]
 1449              		.loc 1 1020 25
 1450 0050 0122     		movs	r2, #1
 1451 0052 5A62     		str	r2, [r3, #36]
1021:Drivers/STM32F4xx_HAL_Driver/Src/stm32f4xx_hal_ltdc.c **** 
1022:Drivers/STM32F4xx_HAL_Driver/Src/stm32f4xx_hal_ltdc.c ****   /* Change the LTDC state*/
1023:Drivers/STM32F4xx_HAL_Driver/Src/stm32f4xx_hal_ltdc.c ****   hltdc->State = HAL_LTDC_STATE_READY;
 1452              		.loc 1 1023 16
 1453 0054 7B68     		ldr	r3, [r7, #4]
 1454 0056 0122     		movs	r2, #1
 1455 0058 83F8A120 		strb	r2, [r3, #161]
1024:Drivers/STM32F4xx_HAL_Driver/Src/stm32f4xx_hal_ltdc.c **** 
1025:Drivers/STM32F4xx_HAL_Driver/Src/stm32f4xx_hal_ltdc.c ****   /* Process unlocked */
1026:Drivers/STM32F4xx_HAL_Driver/Src/stm32f4xx_hal_ltdc.c ****   __HAL_UNLOCK(hltdc);
 1456              		.loc 1 1026 3
 1457 005c 7B68     		ldr	r3, [r7, #4]
 1458 005e 0022     		movs	r2, #0
 1459 0060 83F8A020 		strb	r2, [r3, #160]
1027:Drivers/STM32F4xx_HAL_Driver/Src/stm32f4xx_hal_ltdc.c **** 
1028:Drivers/STM32F4xx_HAL_Driver/Src/stm32f4xx_hal_ltdc.c ****   return HAL_OK;
 1460              		.loc 1 1028 10
 1461 0064 0023     		movs	r3, #0
 1462              	.L43:
1029:Drivers/STM32F4xx_HAL_Driver/Src/stm32f4xx_hal_ltdc.c **** }
 1463              		.loc 1 1029 1
 1464 0066 1846     		mov	r0, r3
 1465 0068 0C37     		adds	r7, r7, #12
 1466              	.LCFI71:
 1467              		.cfi_def_cfa_offset 4
 1468 006a BD46     		mov	sp, r7
 1469              	.LCFI72:
 1470              		.cfi_def_cfa_register 13
 1471              		@ sp needed
 1472 006c 5DF8047B 		ldr	r7, [sp], #4
 1473              	.LCFI73:
 1474              		.cfi_restore 7
 1475              		.cfi_def_cfa_offset 0
 1476 0070 7047     		bx	lr
 1477              		.cfi_endproc
 1478              	.LFE146:
 1480              		.section	.text.HAL_LTDC_EnableCLUT,"ax",%progbits
 1481              		.align	1
 1482              		.global	HAL_LTDC_EnableCLUT
 1483              		.syntax unified
 1484              		.thumb
 1485              		.thumb_func
 1487              	HAL_LTDC_EnableCLUT:
 1488              	.LFB147:
1030:Drivers/STM32F4xx_HAL_Driver/Src/stm32f4xx_hal_ltdc.c **** 
1031:Drivers/STM32F4xx_HAL_Driver/Src/stm32f4xx_hal_ltdc.c **** /**
1032:Drivers/STM32F4xx_HAL_Driver/Src/stm32f4xx_hal_ltdc.c ****   * @brief  Enable the color lookup table.
1033:Drivers/STM32F4xx_HAL_Driver/Src/stm32f4xx_hal_ltdc.c ****   * @param  hltdc     pointer to a LTDC_HandleTypeDef structure that contains
1034:Drivers/STM32F4xx_HAL_Driver/Src/stm32f4xx_hal_ltdc.c ****   *                   the configuration information for the LTDC.
1035:Drivers/STM32F4xx_HAL_Driver/Src/stm32f4xx_hal_ltdc.c ****   * @param  LayerIdx  LTDC Layer index.
1036:Drivers/STM32F4xx_HAL_Driver/Src/stm32f4xx_hal_ltdc.c ****   *                   This parameter can be one of the following values:
ARM GAS  /var/folders/06/9k7gq4t13mj84z2yhw3grvhc0000gn/T//ccuiTnhW.s 			page 45


1037:Drivers/STM32F4xx_HAL_Driver/Src/stm32f4xx_hal_ltdc.c ****   *                   LTDC_LAYER_1 (0) or LTDC_LAYER_2 (1)
1038:Drivers/STM32F4xx_HAL_Driver/Src/stm32f4xx_hal_ltdc.c ****   * @retval  HAL status
1039:Drivers/STM32F4xx_HAL_Driver/Src/stm32f4xx_hal_ltdc.c ****   */
1040:Drivers/STM32F4xx_HAL_Driver/Src/stm32f4xx_hal_ltdc.c **** HAL_StatusTypeDef HAL_LTDC_EnableCLUT(LTDC_HandleTypeDef *hltdc, uint32_t LayerIdx)
1041:Drivers/STM32F4xx_HAL_Driver/Src/stm32f4xx_hal_ltdc.c **** {
 1489              		.loc 1 1041 1
 1490              		.cfi_startproc
 1491              		@ args = 0, pretend = 0, frame = 8
 1492              		@ frame_needed = 1, uses_anonymous_args = 0
 1493              		@ link register save eliminated.
 1494 0000 80B4     		push	{r7}
 1495              	.LCFI74:
 1496              		.cfi_def_cfa_offset 4
 1497              		.cfi_offset 7, -4
 1498 0002 83B0     		sub	sp, sp, #12
 1499              	.LCFI75:
 1500              		.cfi_def_cfa_offset 16
 1501 0004 00AF     		add	r7, sp, #0
 1502              	.LCFI76:
 1503              		.cfi_def_cfa_register 7
 1504 0006 7860     		str	r0, [r7, #4]
 1505 0008 3960     		str	r1, [r7]
1042:Drivers/STM32F4xx_HAL_Driver/Src/stm32f4xx_hal_ltdc.c ****   /* Check the parameters */
1043:Drivers/STM32F4xx_HAL_Driver/Src/stm32f4xx_hal_ltdc.c ****   assert_param(IS_LTDC_LAYER(LayerIdx));
1044:Drivers/STM32F4xx_HAL_Driver/Src/stm32f4xx_hal_ltdc.c **** 
1045:Drivers/STM32F4xx_HAL_Driver/Src/stm32f4xx_hal_ltdc.c ****   /* Process locked */
1046:Drivers/STM32F4xx_HAL_Driver/Src/stm32f4xx_hal_ltdc.c ****   __HAL_LOCK(hltdc);
 1506              		.loc 1 1046 3
 1507 000a 7B68     		ldr	r3, [r7, #4]
 1508 000c 93F8A030 		ldrb	r3, [r3, #160]	@ zero_extendqisi2
 1509 0010 012B     		cmp	r3, #1
 1510 0012 01D1     		bne	.L45
 1511              		.loc 1 1046 3 is_stmt 0 discriminator 1
 1512 0014 0223     		movs	r3, #2
 1513              		.loc 1 1046 3
 1514 0016 26E0     		b	.L46
 1515              	.L45:
 1516              		.loc 1 1046 3 discriminator 2
 1517 0018 7B68     		ldr	r3, [r7, #4]
 1518 001a 0122     		movs	r2, #1
 1519 001c 83F8A020 		strb	r2, [r3, #160]
1047:Drivers/STM32F4xx_HAL_Driver/Src/stm32f4xx_hal_ltdc.c **** 
1048:Drivers/STM32F4xx_HAL_Driver/Src/stm32f4xx_hal_ltdc.c ****   /* Change LTDC peripheral state */
1049:Drivers/STM32F4xx_HAL_Driver/Src/stm32f4xx_hal_ltdc.c ****   hltdc->State = HAL_LTDC_STATE_BUSY;
 1520              		.loc 1 1049 16 is_stmt 1
 1521 0020 7B68     		ldr	r3, [r7, #4]
 1522 0022 0222     		movs	r2, #2
 1523 0024 83F8A120 		strb	r2, [r3, #161]
1050:Drivers/STM32F4xx_HAL_Driver/Src/stm32f4xx_hal_ltdc.c **** 
1051:Drivers/STM32F4xx_HAL_Driver/Src/stm32f4xx_hal_ltdc.c ****   /* Enable LTDC color lookup table by setting CLUTEN bit */
1052:Drivers/STM32F4xx_HAL_Driver/Src/stm32f4xx_hal_ltdc.c ****   LTDC_LAYER(hltdc, LayerIdx)->CR |= (uint32_t)LTDC_LxCR_CLUTEN;
 1524              		.loc 1 1052 3
 1525 0028 7B68     		ldr	r3, [r7, #4]
 1526 002a 1B68     		ldr	r3, [r3]
 1527              		.loc 1 1052 30
 1528 002c 1A46     		mov	r2, r3
 1529 002e 3B68     		ldr	r3, [r7]
ARM GAS  /var/folders/06/9k7gq4t13mj84z2yhw3grvhc0000gn/T//ccuiTnhW.s 			page 46


 1530 0030 DB01     		lsls	r3, r3, #7
 1531 0032 1344     		add	r3, r3, r2
 1532 0034 8433     		adds	r3, r3, #132
 1533 0036 1B68     		ldr	r3, [r3]
 1534              		.loc 1 1052 3
 1535 0038 7A68     		ldr	r2, [r7, #4]
 1536 003a 1268     		ldr	r2, [r2]
 1537              		.loc 1 1052 30
 1538 003c 1146     		mov	r1, r2
 1539 003e 3A68     		ldr	r2, [r7]
 1540 0040 D201     		lsls	r2, r2, #7
 1541 0042 0A44     		add	r2, r2, r1
 1542 0044 8432     		adds	r2, r2, #132
 1543              		.loc 1 1052 35
 1544 0046 43F01003 		orr	r3, r3, #16
 1545 004a 1360     		str	r3, [r2]
1053:Drivers/STM32F4xx_HAL_Driver/Src/stm32f4xx_hal_ltdc.c **** 
1054:Drivers/STM32F4xx_HAL_Driver/Src/stm32f4xx_hal_ltdc.c ****   /* Set the Immediate Reload type */
1055:Drivers/STM32F4xx_HAL_Driver/Src/stm32f4xx_hal_ltdc.c ****   hltdc->Instance->SRCR = LTDC_SRCR_IMR;
 1546              		.loc 1 1055 8
 1547 004c 7B68     		ldr	r3, [r7, #4]
 1548 004e 1B68     		ldr	r3, [r3]
 1549              		.loc 1 1055 25
 1550 0050 0122     		movs	r2, #1
 1551 0052 5A62     		str	r2, [r3, #36]
1056:Drivers/STM32F4xx_HAL_Driver/Src/stm32f4xx_hal_ltdc.c **** 
1057:Drivers/STM32F4xx_HAL_Driver/Src/stm32f4xx_hal_ltdc.c ****   /* Change the LTDC state*/
1058:Drivers/STM32F4xx_HAL_Driver/Src/stm32f4xx_hal_ltdc.c ****   hltdc->State = HAL_LTDC_STATE_READY;
 1552              		.loc 1 1058 16
 1553 0054 7B68     		ldr	r3, [r7, #4]
 1554 0056 0122     		movs	r2, #1
 1555 0058 83F8A120 		strb	r2, [r3, #161]
1059:Drivers/STM32F4xx_HAL_Driver/Src/stm32f4xx_hal_ltdc.c **** 
1060:Drivers/STM32F4xx_HAL_Driver/Src/stm32f4xx_hal_ltdc.c ****   /* Process unlocked */
1061:Drivers/STM32F4xx_HAL_Driver/Src/stm32f4xx_hal_ltdc.c ****   __HAL_UNLOCK(hltdc);
 1556              		.loc 1 1061 3
 1557 005c 7B68     		ldr	r3, [r7, #4]
 1558 005e 0022     		movs	r2, #0
 1559 0060 83F8A020 		strb	r2, [r3, #160]
1062:Drivers/STM32F4xx_HAL_Driver/Src/stm32f4xx_hal_ltdc.c **** 
1063:Drivers/STM32F4xx_HAL_Driver/Src/stm32f4xx_hal_ltdc.c ****   return HAL_OK;
 1560              		.loc 1 1063 10
 1561 0064 0023     		movs	r3, #0
 1562              	.L46:
1064:Drivers/STM32F4xx_HAL_Driver/Src/stm32f4xx_hal_ltdc.c **** }
 1563              		.loc 1 1064 1
 1564 0066 1846     		mov	r0, r3
 1565 0068 0C37     		adds	r7, r7, #12
 1566              	.LCFI77:
 1567              		.cfi_def_cfa_offset 4
 1568 006a BD46     		mov	sp, r7
 1569              	.LCFI78:
 1570              		.cfi_def_cfa_register 13
 1571              		@ sp needed
 1572 006c 5DF8047B 		ldr	r7, [sp], #4
 1573              	.LCFI79:
 1574              		.cfi_restore 7
ARM GAS  /var/folders/06/9k7gq4t13mj84z2yhw3grvhc0000gn/T//ccuiTnhW.s 			page 47


 1575              		.cfi_def_cfa_offset 0
 1576 0070 7047     		bx	lr
 1577              		.cfi_endproc
 1578              	.LFE147:
 1580              		.section	.text.HAL_LTDC_DisableCLUT,"ax",%progbits
 1581              		.align	1
 1582              		.global	HAL_LTDC_DisableCLUT
 1583              		.syntax unified
 1584              		.thumb
 1585              		.thumb_func
 1587              	HAL_LTDC_DisableCLUT:
 1588              	.LFB148:
1065:Drivers/STM32F4xx_HAL_Driver/Src/stm32f4xx_hal_ltdc.c **** 
1066:Drivers/STM32F4xx_HAL_Driver/Src/stm32f4xx_hal_ltdc.c **** /**
1067:Drivers/STM32F4xx_HAL_Driver/Src/stm32f4xx_hal_ltdc.c ****   * @brief  Disable the color lookup table.
1068:Drivers/STM32F4xx_HAL_Driver/Src/stm32f4xx_hal_ltdc.c ****   * @param  hltdc     pointer to a LTDC_HandleTypeDef structure that contains
1069:Drivers/STM32F4xx_HAL_Driver/Src/stm32f4xx_hal_ltdc.c ****   *                   the configuration information for the LTDC.
1070:Drivers/STM32F4xx_HAL_Driver/Src/stm32f4xx_hal_ltdc.c ****   * @param  LayerIdx  LTDC Layer index.
1071:Drivers/STM32F4xx_HAL_Driver/Src/stm32f4xx_hal_ltdc.c ****   *                   This parameter can be one of the following values:
1072:Drivers/STM32F4xx_HAL_Driver/Src/stm32f4xx_hal_ltdc.c ****   *                   LTDC_LAYER_1 (0) or LTDC_LAYER_2 (1)
1073:Drivers/STM32F4xx_HAL_Driver/Src/stm32f4xx_hal_ltdc.c ****   * @retval  HAL status
1074:Drivers/STM32F4xx_HAL_Driver/Src/stm32f4xx_hal_ltdc.c ****   */
1075:Drivers/STM32F4xx_HAL_Driver/Src/stm32f4xx_hal_ltdc.c **** HAL_StatusTypeDef HAL_LTDC_DisableCLUT(LTDC_HandleTypeDef *hltdc, uint32_t LayerIdx)
1076:Drivers/STM32F4xx_HAL_Driver/Src/stm32f4xx_hal_ltdc.c **** {
 1589              		.loc 1 1076 1
 1590              		.cfi_startproc
 1591              		@ args = 0, pretend = 0, frame = 8
 1592              		@ frame_needed = 1, uses_anonymous_args = 0
 1593              		@ link register save eliminated.
 1594 0000 80B4     		push	{r7}
 1595              	.LCFI80:
 1596              		.cfi_def_cfa_offset 4
 1597              		.cfi_offset 7, -4
 1598 0002 83B0     		sub	sp, sp, #12
 1599              	.LCFI81:
 1600              		.cfi_def_cfa_offset 16
 1601 0004 00AF     		add	r7, sp, #0
 1602              	.LCFI82:
 1603              		.cfi_def_cfa_register 7
 1604 0006 7860     		str	r0, [r7, #4]
 1605 0008 3960     		str	r1, [r7]
1077:Drivers/STM32F4xx_HAL_Driver/Src/stm32f4xx_hal_ltdc.c ****   /* Check the parameters */
1078:Drivers/STM32F4xx_HAL_Driver/Src/stm32f4xx_hal_ltdc.c ****   assert_param(IS_LTDC_LAYER(LayerIdx));
1079:Drivers/STM32F4xx_HAL_Driver/Src/stm32f4xx_hal_ltdc.c **** 
1080:Drivers/STM32F4xx_HAL_Driver/Src/stm32f4xx_hal_ltdc.c ****   /* Process locked */
1081:Drivers/STM32F4xx_HAL_Driver/Src/stm32f4xx_hal_ltdc.c ****   __HAL_LOCK(hltdc);
 1606              		.loc 1 1081 3
 1607 000a 7B68     		ldr	r3, [r7, #4]
 1608 000c 93F8A030 		ldrb	r3, [r3, #160]	@ zero_extendqisi2
 1609 0010 012B     		cmp	r3, #1
 1610 0012 01D1     		bne	.L48
 1611              		.loc 1 1081 3 is_stmt 0 discriminator 1
 1612 0014 0223     		movs	r3, #2
 1613              		.loc 1 1081 3
 1614 0016 26E0     		b	.L49
 1615              	.L48:
 1616              		.loc 1 1081 3 discriminator 2
ARM GAS  /var/folders/06/9k7gq4t13mj84z2yhw3grvhc0000gn/T//ccuiTnhW.s 			page 48


 1617 0018 7B68     		ldr	r3, [r7, #4]
 1618 001a 0122     		movs	r2, #1
 1619 001c 83F8A020 		strb	r2, [r3, #160]
1082:Drivers/STM32F4xx_HAL_Driver/Src/stm32f4xx_hal_ltdc.c **** 
1083:Drivers/STM32F4xx_HAL_Driver/Src/stm32f4xx_hal_ltdc.c ****   /* Change LTDC peripheral state */
1084:Drivers/STM32F4xx_HAL_Driver/Src/stm32f4xx_hal_ltdc.c ****   hltdc->State = HAL_LTDC_STATE_BUSY;
 1620              		.loc 1 1084 16 is_stmt 1
 1621 0020 7B68     		ldr	r3, [r7, #4]
 1622 0022 0222     		movs	r2, #2
 1623 0024 83F8A120 		strb	r2, [r3, #161]
1085:Drivers/STM32F4xx_HAL_Driver/Src/stm32f4xx_hal_ltdc.c **** 
1086:Drivers/STM32F4xx_HAL_Driver/Src/stm32f4xx_hal_ltdc.c ****   /* Disable LTDC color lookup table by setting CLUTEN bit */
1087:Drivers/STM32F4xx_HAL_Driver/Src/stm32f4xx_hal_ltdc.c ****   LTDC_LAYER(hltdc, LayerIdx)->CR &= ~(uint32_t)LTDC_LxCR_CLUTEN;
 1624              		.loc 1 1087 3
 1625 0028 7B68     		ldr	r3, [r7, #4]
 1626 002a 1B68     		ldr	r3, [r3]
 1627              		.loc 1 1087 30
 1628 002c 1A46     		mov	r2, r3
 1629 002e 3B68     		ldr	r3, [r7]
 1630 0030 DB01     		lsls	r3, r3, #7
 1631 0032 1344     		add	r3, r3, r2
 1632 0034 8433     		adds	r3, r3, #132
 1633 0036 1B68     		ldr	r3, [r3]
 1634              		.loc 1 1087 3
 1635 0038 7A68     		ldr	r2, [r7, #4]
 1636 003a 1268     		ldr	r2, [r2]
 1637              		.loc 1 1087 30
 1638 003c 1146     		mov	r1, r2
 1639 003e 3A68     		ldr	r2, [r7]
 1640 0040 D201     		lsls	r2, r2, #7
 1641 0042 0A44     		add	r2, r2, r1
 1642 0044 8432     		adds	r2, r2, #132
 1643              		.loc 1 1087 35
 1644 0046 23F01003 		bic	r3, r3, #16
 1645 004a 1360     		str	r3, [r2]
1088:Drivers/STM32F4xx_HAL_Driver/Src/stm32f4xx_hal_ltdc.c **** 
1089:Drivers/STM32F4xx_HAL_Driver/Src/stm32f4xx_hal_ltdc.c ****   /* Set the Immediate Reload type */
1090:Drivers/STM32F4xx_HAL_Driver/Src/stm32f4xx_hal_ltdc.c ****   hltdc->Instance->SRCR = LTDC_SRCR_IMR;
 1646              		.loc 1 1090 8
 1647 004c 7B68     		ldr	r3, [r7, #4]
 1648 004e 1B68     		ldr	r3, [r3]
 1649              		.loc 1 1090 25
 1650 0050 0122     		movs	r2, #1
 1651 0052 5A62     		str	r2, [r3, #36]
1091:Drivers/STM32F4xx_HAL_Driver/Src/stm32f4xx_hal_ltdc.c **** 
1092:Drivers/STM32F4xx_HAL_Driver/Src/stm32f4xx_hal_ltdc.c ****   /* Change the LTDC state*/
1093:Drivers/STM32F4xx_HAL_Driver/Src/stm32f4xx_hal_ltdc.c ****   hltdc->State = HAL_LTDC_STATE_READY;
 1652              		.loc 1 1093 16
 1653 0054 7B68     		ldr	r3, [r7, #4]
 1654 0056 0122     		movs	r2, #1
 1655 0058 83F8A120 		strb	r2, [r3, #161]
1094:Drivers/STM32F4xx_HAL_Driver/Src/stm32f4xx_hal_ltdc.c **** 
1095:Drivers/STM32F4xx_HAL_Driver/Src/stm32f4xx_hal_ltdc.c ****   /* Process unlocked */
1096:Drivers/STM32F4xx_HAL_Driver/Src/stm32f4xx_hal_ltdc.c ****   __HAL_UNLOCK(hltdc);
 1656              		.loc 1 1096 3
 1657 005c 7B68     		ldr	r3, [r7, #4]
 1658 005e 0022     		movs	r2, #0
ARM GAS  /var/folders/06/9k7gq4t13mj84z2yhw3grvhc0000gn/T//ccuiTnhW.s 			page 49


 1659 0060 83F8A020 		strb	r2, [r3, #160]
1097:Drivers/STM32F4xx_HAL_Driver/Src/stm32f4xx_hal_ltdc.c **** 
1098:Drivers/STM32F4xx_HAL_Driver/Src/stm32f4xx_hal_ltdc.c ****   return HAL_OK;
 1660              		.loc 1 1098 10
 1661 0064 0023     		movs	r3, #0
 1662              	.L49:
1099:Drivers/STM32F4xx_HAL_Driver/Src/stm32f4xx_hal_ltdc.c **** }
 1663              		.loc 1 1099 1
 1664 0066 1846     		mov	r0, r3
 1665 0068 0C37     		adds	r7, r7, #12
 1666              	.LCFI83:
 1667              		.cfi_def_cfa_offset 4
 1668 006a BD46     		mov	sp, r7
 1669              	.LCFI84:
 1670              		.cfi_def_cfa_register 13
 1671              		@ sp needed
 1672 006c 5DF8047B 		ldr	r7, [sp], #4
 1673              	.LCFI85:
 1674              		.cfi_restore 7
 1675              		.cfi_def_cfa_offset 0
 1676 0070 7047     		bx	lr
 1677              		.cfi_endproc
 1678              	.LFE148:
 1680              		.section	.text.HAL_LTDC_EnableDither,"ax",%progbits
 1681              		.align	1
 1682              		.global	HAL_LTDC_EnableDither
 1683              		.syntax unified
 1684              		.thumb
 1685              		.thumb_func
 1687              	HAL_LTDC_EnableDither:
 1688              	.LFB149:
1100:Drivers/STM32F4xx_HAL_Driver/Src/stm32f4xx_hal_ltdc.c **** 
1101:Drivers/STM32F4xx_HAL_Driver/Src/stm32f4xx_hal_ltdc.c **** /**
1102:Drivers/STM32F4xx_HAL_Driver/Src/stm32f4xx_hal_ltdc.c ****   * @brief  Enable Dither.
1103:Drivers/STM32F4xx_HAL_Driver/Src/stm32f4xx_hal_ltdc.c ****   * @param  hltdc  pointer to a LTDC_HandleTypeDef structure that contains
1104:Drivers/STM32F4xx_HAL_Driver/Src/stm32f4xx_hal_ltdc.c ****   *                the configuration information for the LTDC.
1105:Drivers/STM32F4xx_HAL_Driver/Src/stm32f4xx_hal_ltdc.c ****   * @retval  HAL status
1106:Drivers/STM32F4xx_HAL_Driver/Src/stm32f4xx_hal_ltdc.c ****   */
1107:Drivers/STM32F4xx_HAL_Driver/Src/stm32f4xx_hal_ltdc.c **** 
1108:Drivers/STM32F4xx_HAL_Driver/Src/stm32f4xx_hal_ltdc.c **** HAL_StatusTypeDef HAL_LTDC_EnableDither(LTDC_HandleTypeDef *hltdc)
1109:Drivers/STM32F4xx_HAL_Driver/Src/stm32f4xx_hal_ltdc.c **** {
 1689              		.loc 1 1109 1
 1690              		.cfi_startproc
 1691              		@ args = 0, pretend = 0, frame = 8
 1692              		@ frame_needed = 1, uses_anonymous_args = 0
 1693              		@ link register save eliminated.
 1694 0000 80B4     		push	{r7}
 1695              	.LCFI86:
 1696              		.cfi_def_cfa_offset 4
 1697              		.cfi_offset 7, -4
 1698 0002 83B0     		sub	sp, sp, #12
 1699              	.LCFI87:
 1700              		.cfi_def_cfa_offset 16
 1701 0004 00AF     		add	r7, sp, #0
 1702              	.LCFI88:
 1703              		.cfi_def_cfa_register 7
 1704 0006 7860     		str	r0, [r7, #4]
ARM GAS  /var/folders/06/9k7gq4t13mj84z2yhw3grvhc0000gn/T//ccuiTnhW.s 			page 50


1110:Drivers/STM32F4xx_HAL_Driver/Src/stm32f4xx_hal_ltdc.c ****   /* Process locked */
1111:Drivers/STM32F4xx_HAL_Driver/Src/stm32f4xx_hal_ltdc.c ****   __HAL_LOCK(hltdc);
 1705              		.loc 1 1111 3
 1706 0008 7B68     		ldr	r3, [r7, #4]
 1707 000a 93F8A030 		ldrb	r3, [r3, #160]	@ zero_extendqisi2
 1708 000e 012B     		cmp	r3, #1
 1709 0010 01D1     		bne	.L51
 1710              		.loc 1 1111 3 is_stmt 0 discriminator 1
 1711 0012 0223     		movs	r3, #2
 1712              		.loc 1 1111 3
 1713 0014 16E0     		b	.L52
 1714              	.L51:
 1715              		.loc 1 1111 3 discriminator 2
 1716 0016 7B68     		ldr	r3, [r7, #4]
 1717 0018 0122     		movs	r2, #1
 1718 001a 83F8A020 		strb	r2, [r3, #160]
1112:Drivers/STM32F4xx_HAL_Driver/Src/stm32f4xx_hal_ltdc.c **** 
1113:Drivers/STM32F4xx_HAL_Driver/Src/stm32f4xx_hal_ltdc.c ****   /* Change LTDC peripheral state */
1114:Drivers/STM32F4xx_HAL_Driver/Src/stm32f4xx_hal_ltdc.c ****   hltdc->State = HAL_LTDC_STATE_BUSY;
 1719              		.loc 1 1114 16 is_stmt 1
 1720 001e 7B68     		ldr	r3, [r7, #4]
 1721 0020 0222     		movs	r2, #2
 1722 0022 83F8A120 		strb	r2, [r3, #161]
1115:Drivers/STM32F4xx_HAL_Driver/Src/stm32f4xx_hal_ltdc.c **** 
1116:Drivers/STM32F4xx_HAL_Driver/Src/stm32f4xx_hal_ltdc.c ****   /* Enable Dither by setting DTEN bit */
1117:Drivers/STM32F4xx_HAL_Driver/Src/stm32f4xx_hal_ltdc.c ****   LTDC->GCR |= (uint32_t)LTDC_GCR_DEN;
 1723              		.loc 1 1117 7
 1724 0026 0A4B     		ldr	r3, .L53
 1725 0028 9B69     		ldr	r3, [r3, #24]
 1726 002a 094A     		ldr	r2, .L53
 1727              		.loc 1 1117 13
 1728 002c 43F48033 		orr	r3, r3, #65536
 1729 0030 9361     		str	r3, [r2, #24]
1118:Drivers/STM32F4xx_HAL_Driver/Src/stm32f4xx_hal_ltdc.c **** 
1119:Drivers/STM32F4xx_HAL_Driver/Src/stm32f4xx_hal_ltdc.c ****   /* Change the LTDC state*/
1120:Drivers/STM32F4xx_HAL_Driver/Src/stm32f4xx_hal_ltdc.c ****   hltdc->State = HAL_LTDC_STATE_READY;
 1730              		.loc 1 1120 16
 1731 0032 7B68     		ldr	r3, [r7, #4]
 1732 0034 0122     		movs	r2, #1
 1733 0036 83F8A120 		strb	r2, [r3, #161]
1121:Drivers/STM32F4xx_HAL_Driver/Src/stm32f4xx_hal_ltdc.c **** 
1122:Drivers/STM32F4xx_HAL_Driver/Src/stm32f4xx_hal_ltdc.c ****   /* Process unlocked */
1123:Drivers/STM32F4xx_HAL_Driver/Src/stm32f4xx_hal_ltdc.c ****   __HAL_UNLOCK(hltdc);
 1734              		.loc 1 1123 3
 1735 003a 7B68     		ldr	r3, [r7, #4]
 1736 003c 0022     		movs	r2, #0
 1737 003e 83F8A020 		strb	r2, [r3, #160]
1124:Drivers/STM32F4xx_HAL_Driver/Src/stm32f4xx_hal_ltdc.c **** 
1125:Drivers/STM32F4xx_HAL_Driver/Src/stm32f4xx_hal_ltdc.c ****   return HAL_OK;
 1738              		.loc 1 1125 10
 1739 0042 0023     		movs	r3, #0
 1740              	.L52:
1126:Drivers/STM32F4xx_HAL_Driver/Src/stm32f4xx_hal_ltdc.c **** }
 1741              		.loc 1 1126 1
 1742 0044 1846     		mov	r0, r3
 1743 0046 0C37     		adds	r7, r7, #12
 1744              	.LCFI89:
ARM GAS  /var/folders/06/9k7gq4t13mj84z2yhw3grvhc0000gn/T//ccuiTnhW.s 			page 51


 1745              		.cfi_def_cfa_offset 4
 1746 0048 BD46     		mov	sp, r7
 1747              	.LCFI90:
 1748              		.cfi_def_cfa_register 13
 1749              		@ sp needed
 1750 004a 5DF8047B 		ldr	r7, [sp], #4
 1751              	.LCFI91:
 1752              		.cfi_restore 7
 1753              		.cfi_def_cfa_offset 0
 1754 004e 7047     		bx	lr
 1755              	.L54:
 1756              		.align	2
 1757              	.L53:
 1758 0050 00680140 		.word	1073833984
 1759              		.cfi_endproc
 1760              	.LFE149:
 1762              		.section	.text.HAL_LTDC_DisableDither,"ax",%progbits
 1763              		.align	1
 1764              		.global	HAL_LTDC_DisableDither
 1765              		.syntax unified
 1766              		.thumb
 1767              		.thumb_func
 1769              	HAL_LTDC_DisableDither:
 1770              	.LFB150:
1127:Drivers/STM32F4xx_HAL_Driver/Src/stm32f4xx_hal_ltdc.c **** 
1128:Drivers/STM32F4xx_HAL_Driver/Src/stm32f4xx_hal_ltdc.c **** /**
1129:Drivers/STM32F4xx_HAL_Driver/Src/stm32f4xx_hal_ltdc.c ****   * @brief  Disable Dither.
1130:Drivers/STM32F4xx_HAL_Driver/Src/stm32f4xx_hal_ltdc.c ****   * @param  hltdc  pointer to a LTDC_HandleTypeDef structure that contains
1131:Drivers/STM32F4xx_HAL_Driver/Src/stm32f4xx_hal_ltdc.c ****   *                the configuration information for the LTDC.
1132:Drivers/STM32F4xx_HAL_Driver/Src/stm32f4xx_hal_ltdc.c ****   * @retval  HAL status
1133:Drivers/STM32F4xx_HAL_Driver/Src/stm32f4xx_hal_ltdc.c ****   */
1134:Drivers/STM32F4xx_HAL_Driver/Src/stm32f4xx_hal_ltdc.c **** 
1135:Drivers/STM32F4xx_HAL_Driver/Src/stm32f4xx_hal_ltdc.c **** HAL_StatusTypeDef HAL_LTDC_DisableDither(LTDC_HandleTypeDef *hltdc)
1136:Drivers/STM32F4xx_HAL_Driver/Src/stm32f4xx_hal_ltdc.c **** {
 1771              		.loc 1 1136 1
 1772              		.cfi_startproc
 1773              		@ args = 0, pretend = 0, frame = 8
 1774              		@ frame_needed = 1, uses_anonymous_args = 0
 1775              		@ link register save eliminated.
 1776 0000 80B4     		push	{r7}
 1777              	.LCFI92:
 1778              		.cfi_def_cfa_offset 4
 1779              		.cfi_offset 7, -4
 1780 0002 83B0     		sub	sp, sp, #12
 1781              	.LCFI93:
 1782              		.cfi_def_cfa_offset 16
 1783 0004 00AF     		add	r7, sp, #0
 1784              	.LCFI94:
 1785              		.cfi_def_cfa_register 7
 1786 0006 7860     		str	r0, [r7, #4]
1137:Drivers/STM32F4xx_HAL_Driver/Src/stm32f4xx_hal_ltdc.c ****   /* Process locked */
1138:Drivers/STM32F4xx_HAL_Driver/Src/stm32f4xx_hal_ltdc.c ****   __HAL_LOCK(hltdc);
 1787              		.loc 1 1138 3
 1788 0008 7B68     		ldr	r3, [r7, #4]
 1789 000a 93F8A030 		ldrb	r3, [r3, #160]	@ zero_extendqisi2
 1790 000e 012B     		cmp	r3, #1
 1791 0010 01D1     		bne	.L56
ARM GAS  /var/folders/06/9k7gq4t13mj84z2yhw3grvhc0000gn/T//ccuiTnhW.s 			page 52


 1792              		.loc 1 1138 3 is_stmt 0 discriminator 1
 1793 0012 0223     		movs	r3, #2
 1794              		.loc 1 1138 3
 1795 0014 16E0     		b	.L57
 1796              	.L56:
 1797              		.loc 1 1138 3 discriminator 2
 1798 0016 7B68     		ldr	r3, [r7, #4]
 1799 0018 0122     		movs	r2, #1
 1800 001a 83F8A020 		strb	r2, [r3, #160]
1139:Drivers/STM32F4xx_HAL_Driver/Src/stm32f4xx_hal_ltdc.c **** 
1140:Drivers/STM32F4xx_HAL_Driver/Src/stm32f4xx_hal_ltdc.c ****   /* Change LTDC peripheral state */
1141:Drivers/STM32F4xx_HAL_Driver/Src/stm32f4xx_hal_ltdc.c ****   hltdc->State = HAL_LTDC_STATE_BUSY;
 1801              		.loc 1 1141 16 is_stmt 1
 1802 001e 7B68     		ldr	r3, [r7, #4]
 1803 0020 0222     		movs	r2, #2
 1804 0022 83F8A120 		strb	r2, [r3, #161]
1142:Drivers/STM32F4xx_HAL_Driver/Src/stm32f4xx_hal_ltdc.c **** 
1143:Drivers/STM32F4xx_HAL_Driver/Src/stm32f4xx_hal_ltdc.c ****   /* Disable Dither by setting DTEN bit */
1144:Drivers/STM32F4xx_HAL_Driver/Src/stm32f4xx_hal_ltdc.c ****   LTDC->GCR &= ~(uint32_t)LTDC_GCR_DEN;
 1805              		.loc 1 1144 7
 1806 0026 0A4B     		ldr	r3, .L58
 1807 0028 9B69     		ldr	r3, [r3, #24]
 1808 002a 094A     		ldr	r2, .L58
 1809              		.loc 1 1144 13
 1810 002c 23F48033 		bic	r3, r3, #65536
 1811 0030 9361     		str	r3, [r2, #24]
1145:Drivers/STM32F4xx_HAL_Driver/Src/stm32f4xx_hal_ltdc.c **** 
1146:Drivers/STM32F4xx_HAL_Driver/Src/stm32f4xx_hal_ltdc.c ****   /* Change the LTDC state*/
1147:Drivers/STM32F4xx_HAL_Driver/Src/stm32f4xx_hal_ltdc.c ****   hltdc->State = HAL_LTDC_STATE_READY;
 1812              		.loc 1 1147 16
 1813 0032 7B68     		ldr	r3, [r7, #4]
 1814 0034 0122     		movs	r2, #1
 1815 0036 83F8A120 		strb	r2, [r3, #161]
1148:Drivers/STM32F4xx_HAL_Driver/Src/stm32f4xx_hal_ltdc.c **** 
1149:Drivers/STM32F4xx_HAL_Driver/Src/stm32f4xx_hal_ltdc.c ****   /* Process unlocked */
1150:Drivers/STM32F4xx_HAL_Driver/Src/stm32f4xx_hal_ltdc.c ****   __HAL_UNLOCK(hltdc);
 1816              		.loc 1 1150 3
 1817 003a 7B68     		ldr	r3, [r7, #4]
 1818 003c 0022     		movs	r2, #0
 1819 003e 83F8A020 		strb	r2, [r3, #160]
1151:Drivers/STM32F4xx_HAL_Driver/Src/stm32f4xx_hal_ltdc.c **** 
1152:Drivers/STM32F4xx_HAL_Driver/Src/stm32f4xx_hal_ltdc.c ****   return HAL_OK;
 1820              		.loc 1 1152 10
 1821 0042 0023     		movs	r3, #0
 1822              	.L57:
1153:Drivers/STM32F4xx_HAL_Driver/Src/stm32f4xx_hal_ltdc.c **** }
 1823              		.loc 1 1153 1
 1824 0044 1846     		mov	r0, r3
 1825 0046 0C37     		adds	r7, r7, #12
 1826              	.LCFI95:
 1827              		.cfi_def_cfa_offset 4
 1828 0048 BD46     		mov	sp, r7
 1829              	.LCFI96:
 1830              		.cfi_def_cfa_register 13
 1831              		@ sp needed
 1832 004a 5DF8047B 		ldr	r7, [sp], #4
 1833              	.LCFI97:
ARM GAS  /var/folders/06/9k7gq4t13mj84z2yhw3grvhc0000gn/T//ccuiTnhW.s 			page 53


 1834              		.cfi_restore 7
 1835              		.cfi_def_cfa_offset 0
 1836 004e 7047     		bx	lr
 1837              	.L59:
 1838              		.align	2
 1839              	.L58:
 1840 0050 00680140 		.word	1073833984
 1841              		.cfi_endproc
 1842              	.LFE150:
 1844              		.section	.text.HAL_LTDC_SetWindowSize,"ax",%progbits
 1845              		.align	1
 1846              		.global	HAL_LTDC_SetWindowSize
 1847              		.syntax unified
 1848              		.thumb
 1849              		.thumb_func
 1851              	HAL_LTDC_SetWindowSize:
 1852              	.LFB151:
1154:Drivers/STM32F4xx_HAL_Driver/Src/stm32f4xx_hal_ltdc.c **** 
1155:Drivers/STM32F4xx_HAL_Driver/Src/stm32f4xx_hal_ltdc.c **** /**
1156:Drivers/STM32F4xx_HAL_Driver/Src/stm32f4xx_hal_ltdc.c ****   * @brief  Set the LTDC window size.
1157:Drivers/STM32F4xx_HAL_Driver/Src/stm32f4xx_hal_ltdc.c ****   * @param  hltdc     pointer to a LTDC_HandleTypeDef structure that contains
1158:Drivers/STM32F4xx_HAL_Driver/Src/stm32f4xx_hal_ltdc.c ****   *                   the configuration information for the LTDC.
1159:Drivers/STM32F4xx_HAL_Driver/Src/stm32f4xx_hal_ltdc.c ****   * @param  XSize     LTDC Pixel per line
1160:Drivers/STM32F4xx_HAL_Driver/Src/stm32f4xx_hal_ltdc.c ****   * @param  YSize     LTDC Line number
1161:Drivers/STM32F4xx_HAL_Driver/Src/stm32f4xx_hal_ltdc.c ****   * @param  LayerIdx  LTDC Layer index.
1162:Drivers/STM32F4xx_HAL_Driver/Src/stm32f4xx_hal_ltdc.c ****   *                   This parameter can be one of the following values:
1163:Drivers/STM32F4xx_HAL_Driver/Src/stm32f4xx_hal_ltdc.c ****   *                   LTDC_LAYER_1 (0) or LTDC_LAYER_2 (1)
1164:Drivers/STM32F4xx_HAL_Driver/Src/stm32f4xx_hal_ltdc.c ****   * @retval  HAL status
1165:Drivers/STM32F4xx_HAL_Driver/Src/stm32f4xx_hal_ltdc.c ****   */
1166:Drivers/STM32F4xx_HAL_Driver/Src/stm32f4xx_hal_ltdc.c **** HAL_StatusTypeDef HAL_LTDC_SetWindowSize(LTDC_HandleTypeDef *hltdc, uint32_t XSize, uint32_t YSize,
1167:Drivers/STM32F4xx_HAL_Driver/Src/stm32f4xx_hal_ltdc.c **** {
 1853              		.loc 1 1167 1
 1854              		.cfi_startproc
 1855              		@ args = 0, pretend = 0, frame = 24
 1856              		@ frame_needed = 1, uses_anonymous_args = 0
 1857 0000 80B5     		push	{r7, lr}
 1858              	.LCFI98:
 1859              		.cfi_def_cfa_offset 8
 1860              		.cfi_offset 7, -8
 1861              		.cfi_offset 14, -4
 1862 0002 86B0     		sub	sp, sp, #24
 1863              	.LCFI99:
 1864              		.cfi_def_cfa_offset 32
 1865 0004 00AF     		add	r7, sp, #0
 1866              	.LCFI100:
 1867              		.cfi_def_cfa_register 7
 1868 0006 F860     		str	r0, [r7, #12]
 1869 0008 B960     		str	r1, [r7, #8]
 1870 000a 7A60     		str	r2, [r7, #4]
 1871 000c 3B60     		str	r3, [r7]
1168:Drivers/STM32F4xx_HAL_Driver/Src/stm32f4xx_hal_ltdc.c ****   LTDC_LayerCfgTypeDef *pLayerCfg;
1169:Drivers/STM32F4xx_HAL_Driver/Src/stm32f4xx_hal_ltdc.c **** 
1170:Drivers/STM32F4xx_HAL_Driver/Src/stm32f4xx_hal_ltdc.c ****   /* Check the parameters (Layers parameters)*/
1171:Drivers/STM32F4xx_HAL_Driver/Src/stm32f4xx_hal_ltdc.c ****   assert_param(IS_LTDC_LAYER(LayerIdx));
1172:Drivers/STM32F4xx_HAL_Driver/Src/stm32f4xx_hal_ltdc.c ****   assert_param(IS_LTDC_CFBLL(XSize));
1173:Drivers/STM32F4xx_HAL_Driver/Src/stm32f4xx_hal_ltdc.c ****   assert_param(IS_LTDC_CFBLNBR(YSize));
1174:Drivers/STM32F4xx_HAL_Driver/Src/stm32f4xx_hal_ltdc.c **** 
ARM GAS  /var/folders/06/9k7gq4t13mj84z2yhw3grvhc0000gn/T//ccuiTnhW.s 			page 54


1175:Drivers/STM32F4xx_HAL_Driver/Src/stm32f4xx_hal_ltdc.c ****   /* Process locked */
1176:Drivers/STM32F4xx_HAL_Driver/Src/stm32f4xx_hal_ltdc.c ****   __HAL_LOCK(hltdc);
 1872              		.loc 1 1176 3
 1873 000e FB68     		ldr	r3, [r7, #12]
 1874 0010 93F8A030 		ldrb	r3, [r3, #160]	@ zero_extendqisi2
 1875 0014 012B     		cmp	r3, #1
 1876 0016 01D1     		bne	.L61
 1877              		.loc 1 1176 3 is_stmt 0 discriminator 1
 1878 0018 0223     		movs	r3, #2
 1879              		.loc 1 1176 3
 1880 001a 33E0     		b	.L62
 1881              	.L61:
 1882              		.loc 1 1176 3 discriminator 2
 1883 001c FB68     		ldr	r3, [r7, #12]
 1884 001e 0122     		movs	r2, #1
 1885 0020 83F8A020 		strb	r2, [r3, #160]
1177:Drivers/STM32F4xx_HAL_Driver/Src/stm32f4xx_hal_ltdc.c **** 
1178:Drivers/STM32F4xx_HAL_Driver/Src/stm32f4xx_hal_ltdc.c ****   /* Change LTDC peripheral state */
1179:Drivers/STM32F4xx_HAL_Driver/Src/stm32f4xx_hal_ltdc.c ****   hltdc->State = HAL_LTDC_STATE_BUSY;
 1886              		.loc 1 1179 16 is_stmt 1
 1887 0024 FB68     		ldr	r3, [r7, #12]
 1888 0026 0222     		movs	r2, #2
 1889 0028 83F8A120 		strb	r2, [r3, #161]
1180:Drivers/STM32F4xx_HAL_Driver/Src/stm32f4xx_hal_ltdc.c **** 
1181:Drivers/STM32F4xx_HAL_Driver/Src/stm32f4xx_hal_ltdc.c ****   /* Get layer configuration from handle structure */
1182:Drivers/STM32F4xx_HAL_Driver/Src/stm32f4xx_hal_ltdc.c ****   pLayerCfg = &hltdc->LayerCfg[LayerIdx];
 1890              		.loc 1 1182 13
 1891 002c 3B68     		ldr	r3, [r7]
 1892 002e 3422     		movs	r2, #52
 1893 0030 02FB03F3 		mul	r3, r2, r3
 1894 0034 3833     		adds	r3, r3, #56
 1895 0036 FA68     		ldr	r2, [r7, #12]
 1896 0038 1344     		add	r3, r3, r2
 1897 003a 7B61     		str	r3, [r7, #20]
1183:Drivers/STM32F4xx_HAL_Driver/Src/stm32f4xx_hal_ltdc.c **** 
1184:Drivers/STM32F4xx_HAL_Driver/Src/stm32f4xx_hal_ltdc.c ****   /* update horizontal stop */
1185:Drivers/STM32F4xx_HAL_Driver/Src/stm32f4xx_hal_ltdc.c ****   pLayerCfg->WindowX1 = XSize + pLayerCfg->WindowX0;
 1898              		.loc 1 1185 42
 1899 003c 7B69     		ldr	r3, [r7, #20]
 1900 003e 1A68     		ldr	r2, [r3]
 1901              		.loc 1 1185 31
 1902 0040 BB68     		ldr	r3, [r7, #8]
 1903 0042 1A44     		add	r2, r2, r3
 1904              		.loc 1 1185 23
 1905 0044 7B69     		ldr	r3, [r7, #20]
 1906 0046 5A60     		str	r2, [r3, #4]
1186:Drivers/STM32F4xx_HAL_Driver/Src/stm32f4xx_hal_ltdc.c **** 
1187:Drivers/STM32F4xx_HAL_Driver/Src/stm32f4xx_hal_ltdc.c ****   /* update vertical stop */
1188:Drivers/STM32F4xx_HAL_Driver/Src/stm32f4xx_hal_ltdc.c ****   pLayerCfg->WindowY1 = YSize + pLayerCfg->WindowY0;
 1907              		.loc 1 1188 42
 1908 0048 7B69     		ldr	r3, [r7, #20]
 1909 004a 9A68     		ldr	r2, [r3, #8]
 1910              		.loc 1 1188 31
 1911 004c 7B68     		ldr	r3, [r7, #4]
 1912 004e 1A44     		add	r2, r2, r3
 1913              		.loc 1 1188 23
 1914 0050 7B69     		ldr	r3, [r7, #20]
ARM GAS  /var/folders/06/9k7gq4t13mj84z2yhw3grvhc0000gn/T//ccuiTnhW.s 			page 55


 1915 0052 DA60     		str	r2, [r3, #12]
1189:Drivers/STM32F4xx_HAL_Driver/Src/stm32f4xx_hal_ltdc.c **** 
1190:Drivers/STM32F4xx_HAL_Driver/Src/stm32f4xx_hal_ltdc.c ****   /* Reconfigures the color frame buffer pitch in byte */
1191:Drivers/STM32F4xx_HAL_Driver/Src/stm32f4xx_hal_ltdc.c ****   pLayerCfg->ImageWidth = XSize;
 1916              		.loc 1 1191 25
 1917 0054 7B69     		ldr	r3, [r7, #20]
 1918 0056 BA68     		ldr	r2, [r7, #8]
 1919 0058 9A62     		str	r2, [r3, #40]
1192:Drivers/STM32F4xx_HAL_Driver/Src/stm32f4xx_hal_ltdc.c **** 
1193:Drivers/STM32F4xx_HAL_Driver/Src/stm32f4xx_hal_ltdc.c ****   /* Reconfigures the frame buffer line number */
1194:Drivers/STM32F4xx_HAL_Driver/Src/stm32f4xx_hal_ltdc.c ****   pLayerCfg->ImageHeight = YSize;
 1920              		.loc 1 1194 26
 1921 005a 7B69     		ldr	r3, [r7, #20]
 1922 005c 7A68     		ldr	r2, [r7, #4]
 1923 005e DA62     		str	r2, [r3, #44]
1195:Drivers/STM32F4xx_HAL_Driver/Src/stm32f4xx_hal_ltdc.c **** 
1196:Drivers/STM32F4xx_HAL_Driver/Src/stm32f4xx_hal_ltdc.c ****   /* Set LTDC parameters */
1197:Drivers/STM32F4xx_HAL_Driver/Src/stm32f4xx_hal_ltdc.c ****   LTDC_SetConfig(hltdc, pLayerCfg, LayerIdx);
 1924              		.loc 1 1197 3
 1925 0060 3A68     		ldr	r2, [r7]
 1926 0062 7969     		ldr	r1, [r7, #20]
 1927 0064 F868     		ldr	r0, [r7, #12]
 1928 0066 FFF7FEFF 		bl	LTDC_SetConfig
1198:Drivers/STM32F4xx_HAL_Driver/Src/stm32f4xx_hal_ltdc.c **** 
1199:Drivers/STM32F4xx_HAL_Driver/Src/stm32f4xx_hal_ltdc.c ****   /* Set the Immediate Reload type */
1200:Drivers/STM32F4xx_HAL_Driver/Src/stm32f4xx_hal_ltdc.c ****   hltdc->Instance->SRCR = LTDC_SRCR_IMR;
 1929              		.loc 1 1200 8
 1930 006a FB68     		ldr	r3, [r7, #12]
 1931 006c 1B68     		ldr	r3, [r3]
 1932              		.loc 1 1200 25
 1933 006e 0122     		movs	r2, #1
 1934 0070 5A62     		str	r2, [r3, #36]
1201:Drivers/STM32F4xx_HAL_Driver/Src/stm32f4xx_hal_ltdc.c **** 
1202:Drivers/STM32F4xx_HAL_Driver/Src/stm32f4xx_hal_ltdc.c ****   /* Change the LTDC state*/
1203:Drivers/STM32F4xx_HAL_Driver/Src/stm32f4xx_hal_ltdc.c ****   hltdc->State = HAL_LTDC_STATE_READY;
 1935              		.loc 1 1203 16
 1936 0072 FB68     		ldr	r3, [r7, #12]
 1937 0074 0122     		movs	r2, #1
 1938 0076 83F8A120 		strb	r2, [r3, #161]
1204:Drivers/STM32F4xx_HAL_Driver/Src/stm32f4xx_hal_ltdc.c **** 
1205:Drivers/STM32F4xx_HAL_Driver/Src/stm32f4xx_hal_ltdc.c ****   /* Process unlocked */
1206:Drivers/STM32F4xx_HAL_Driver/Src/stm32f4xx_hal_ltdc.c ****   __HAL_UNLOCK(hltdc);
 1939              		.loc 1 1206 3
 1940 007a FB68     		ldr	r3, [r7, #12]
 1941 007c 0022     		movs	r2, #0
 1942 007e 83F8A020 		strb	r2, [r3, #160]
1207:Drivers/STM32F4xx_HAL_Driver/Src/stm32f4xx_hal_ltdc.c **** 
1208:Drivers/STM32F4xx_HAL_Driver/Src/stm32f4xx_hal_ltdc.c ****   return HAL_OK;
 1943              		.loc 1 1208 10
 1944 0082 0023     		movs	r3, #0
 1945              	.L62:
1209:Drivers/STM32F4xx_HAL_Driver/Src/stm32f4xx_hal_ltdc.c **** }
 1946              		.loc 1 1209 1
 1947 0084 1846     		mov	r0, r3
 1948 0086 1837     		adds	r7, r7, #24
 1949              	.LCFI101:
 1950              		.cfi_def_cfa_offset 8
ARM GAS  /var/folders/06/9k7gq4t13mj84z2yhw3grvhc0000gn/T//ccuiTnhW.s 			page 56


 1951 0088 BD46     		mov	sp, r7
 1952              	.LCFI102:
 1953              		.cfi_def_cfa_register 13
 1954              		@ sp needed
 1955 008a 80BD     		pop	{r7, pc}
 1956              		.cfi_endproc
 1957              	.LFE151:
 1959              		.section	.text.HAL_LTDC_SetWindowPosition,"ax",%progbits
 1960              		.align	1
 1961              		.global	HAL_LTDC_SetWindowPosition
 1962              		.syntax unified
 1963              		.thumb
 1964              		.thumb_func
 1966              	HAL_LTDC_SetWindowPosition:
 1967              	.LFB152:
1210:Drivers/STM32F4xx_HAL_Driver/Src/stm32f4xx_hal_ltdc.c **** 
1211:Drivers/STM32F4xx_HAL_Driver/Src/stm32f4xx_hal_ltdc.c **** /**
1212:Drivers/STM32F4xx_HAL_Driver/Src/stm32f4xx_hal_ltdc.c ****   * @brief  Set the LTDC window position.
1213:Drivers/STM32F4xx_HAL_Driver/Src/stm32f4xx_hal_ltdc.c ****   * @param  hltdc     pointer to a LTDC_HandleTypeDef structure that contains
1214:Drivers/STM32F4xx_HAL_Driver/Src/stm32f4xx_hal_ltdc.c ****   *                   the configuration information for the LTDC.
1215:Drivers/STM32F4xx_HAL_Driver/Src/stm32f4xx_hal_ltdc.c ****   * @param  X0        LTDC window X offset
1216:Drivers/STM32F4xx_HAL_Driver/Src/stm32f4xx_hal_ltdc.c ****   * @param  Y0        LTDC window Y offset
1217:Drivers/STM32F4xx_HAL_Driver/Src/stm32f4xx_hal_ltdc.c ****   * @param  LayerIdx  LTDC Layer index.
1218:Drivers/STM32F4xx_HAL_Driver/Src/stm32f4xx_hal_ltdc.c ****   *                         This parameter can be one of the following values:
1219:Drivers/STM32F4xx_HAL_Driver/Src/stm32f4xx_hal_ltdc.c ****   *                         LTDC_LAYER_1 (0) or LTDC_LAYER_2 (1)
1220:Drivers/STM32F4xx_HAL_Driver/Src/stm32f4xx_hal_ltdc.c ****   * @retval  HAL status
1221:Drivers/STM32F4xx_HAL_Driver/Src/stm32f4xx_hal_ltdc.c ****   */
1222:Drivers/STM32F4xx_HAL_Driver/Src/stm32f4xx_hal_ltdc.c **** HAL_StatusTypeDef HAL_LTDC_SetWindowPosition(LTDC_HandleTypeDef *hltdc, uint32_t X0, uint32_t Y0, u
1223:Drivers/STM32F4xx_HAL_Driver/Src/stm32f4xx_hal_ltdc.c **** {
 1968              		.loc 1 1223 1
 1969              		.cfi_startproc
 1970              		@ args = 0, pretend = 0, frame = 24
 1971              		@ frame_needed = 1, uses_anonymous_args = 0
 1972 0000 80B5     		push	{r7, lr}
 1973              	.LCFI103:
 1974              		.cfi_def_cfa_offset 8
 1975              		.cfi_offset 7, -8
 1976              		.cfi_offset 14, -4
 1977 0002 86B0     		sub	sp, sp, #24
 1978              	.LCFI104:
 1979              		.cfi_def_cfa_offset 32
 1980 0004 00AF     		add	r7, sp, #0
 1981              	.LCFI105:
 1982              		.cfi_def_cfa_register 7
 1983 0006 F860     		str	r0, [r7, #12]
 1984 0008 B960     		str	r1, [r7, #8]
 1985 000a 7A60     		str	r2, [r7, #4]
 1986 000c 3B60     		str	r3, [r7]
1224:Drivers/STM32F4xx_HAL_Driver/Src/stm32f4xx_hal_ltdc.c ****   LTDC_LayerCfgTypeDef *pLayerCfg;
1225:Drivers/STM32F4xx_HAL_Driver/Src/stm32f4xx_hal_ltdc.c **** 
1226:Drivers/STM32F4xx_HAL_Driver/Src/stm32f4xx_hal_ltdc.c ****   /* Check the parameters */
1227:Drivers/STM32F4xx_HAL_Driver/Src/stm32f4xx_hal_ltdc.c ****   assert_param(IS_LTDC_LAYER(LayerIdx));
1228:Drivers/STM32F4xx_HAL_Driver/Src/stm32f4xx_hal_ltdc.c ****   assert_param(IS_LTDC_CFBLL(X0));
1229:Drivers/STM32F4xx_HAL_Driver/Src/stm32f4xx_hal_ltdc.c ****   assert_param(IS_LTDC_CFBLNBR(Y0));
1230:Drivers/STM32F4xx_HAL_Driver/Src/stm32f4xx_hal_ltdc.c **** 
1231:Drivers/STM32F4xx_HAL_Driver/Src/stm32f4xx_hal_ltdc.c ****   /* Process locked */
1232:Drivers/STM32F4xx_HAL_Driver/Src/stm32f4xx_hal_ltdc.c ****   __HAL_LOCK(hltdc);
ARM GAS  /var/folders/06/9k7gq4t13mj84z2yhw3grvhc0000gn/T//ccuiTnhW.s 			page 57


 1987              		.loc 1 1232 3
 1988 000e FB68     		ldr	r3, [r7, #12]
 1989 0010 93F8A030 		ldrb	r3, [r3, #160]	@ zero_extendqisi2
 1990 0014 012B     		cmp	r3, #1
 1991 0016 01D1     		bne	.L64
 1992              		.loc 1 1232 3 is_stmt 0 discriminator 1
 1993 0018 0223     		movs	r3, #2
 1994              		.loc 1 1232 3
 1995 001a 33E0     		b	.L65
 1996              	.L64:
 1997              		.loc 1 1232 3 discriminator 2
 1998 001c FB68     		ldr	r3, [r7, #12]
 1999 001e 0122     		movs	r2, #1
 2000 0020 83F8A020 		strb	r2, [r3, #160]
1233:Drivers/STM32F4xx_HAL_Driver/Src/stm32f4xx_hal_ltdc.c **** 
1234:Drivers/STM32F4xx_HAL_Driver/Src/stm32f4xx_hal_ltdc.c ****   /* Change LTDC peripheral state */
1235:Drivers/STM32F4xx_HAL_Driver/Src/stm32f4xx_hal_ltdc.c ****   hltdc->State = HAL_LTDC_STATE_BUSY;
 2001              		.loc 1 1235 16 is_stmt 1
 2002 0024 FB68     		ldr	r3, [r7, #12]
 2003 0026 0222     		movs	r2, #2
 2004 0028 83F8A120 		strb	r2, [r3, #161]
1236:Drivers/STM32F4xx_HAL_Driver/Src/stm32f4xx_hal_ltdc.c **** 
1237:Drivers/STM32F4xx_HAL_Driver/Src/stm32f4xx_hal_ltdc.c ****   /* Get layer configuration from handle structure */
1238:Drivers/STM32F4xx_HAL_Driver/Src/stm32f4xx_hal_ltdc.c ****   pLayerCfg = &hltdc->LayerCfg[LayerIdx];
 2005              		.loc 1 1238 13
 2006 002c 3B68     		ldr	r3, [r7]
 2007 002e 3422     		movs	r2, #52
 2008 0030 02FB03F3 		mul	r3, r2, r3
 2009 0034 3833     		adds	r3, r3, #56
 2010 0036 FA68     		ldr	r2, [r7, #12]
 2011 0038 1344     		add	r3, r3, r2
 2012 003a 7B61     		str	r3, [r7, #20]
1239:Drivers/STM32F4xx_HAL_Driver/Src/stm32f4xx_hal_ltdc.c **** 
1240:Drivers/STM32F4xx_HAL_Driver/Src/stm32f4xx_hal_ltdc.c ****   /* update horizontal start/stop */
1241:Drivers/STM32F4xx_HAL_Driver/Src/stm32f4xx_hal_ltdc.c ****   pLayerCfg->WindowX0 = X0;
 2013              		.loc 1 1241 23
 2014 003c 7B69     		ldr	r3, [r7, #20]
 2015 003e BA68     		ldr	r2, [r7, #8]
 2016 0040 1A60     		str	r2, [r3]
1242:Drivers/STM32F4xx_HAL_Driver/Src/stm32f4xx_hal_ltdc.c ****   pLayerCfg->WindowX1 = X0 + pLayerCfg->ImageWidth;
 2017              		.loc 1 1242 39
 2018 0042 7B69     		ldr	r3, [r7, #20]
 2019 0044 9A6A     		ldr	r2, [r3, #40]
 2020              		.loc 1 1242 28
 2021 0046 BB68     		ldr	r3, [r7, #8]
 2022 0048 1A44     		add	r2, r2, r3
 2023              		.loc 1 1242 23
 2024 004a 7B69     		ldr	r3, [r7, #20]
 2025 004c 5A60     		str	r2, [r3, #4]
1243:Drivers/STM32F4xx_HAL_Driver/Src/stm32f4xx_hal_ltdc.c **** 
1244:Drivers/STM32F4xx_HAL_Driver/Src/stm32f4xx_hal_ltdc.c ****   /* update vertical start/stop */
1245:Drivers/STM32F4xx_HAL_Driver/Src/stm32f4xx_hal_ltdc.c ****   pLayerCfg->WindowY0 = Y0;
 2026              		.loc 1 1245 23
 2027 004e 7B69     		ldr	r3, [r7, #20]
 2028 0050 7A68     		ldr	r2, [r7, #4]
 2029 0052 9A60     		str	r2, [r3, #8]
1246:Drivers/STM32F4xx_HAL_Driver/Src/stm32f4xx_hal_ltdc.c ****   pLayerCfg->WindowY1 = Y0 + pLayerCfg->ImageHeight;
ARM GAS  /var/folders/06/9k7gq4t13mj84z2yhw3grvhc0000gn/T//ccuiTnhW.s 			page 58


 2030              		.loc 1 1246 39
 2031 0054 7B69     		ldr	r3, [r7, #20]
 2032 0056 DA6A     		ldr	r2, [r3, #44]
 2033              		.loc 1 1246 28
 2034 0058 7B68     		ldr	r3, [r7, #4]
 2035 005a 1A44     		add	r2, r2, r3
 2036              		.loc 1 1246 23
 2037 005c 7B69     		ldr	r3, [r7, #20]
 2038 005e DA60     		str	r2, [r3, #12]
1247:Drivers/STM32F4xx_HAL_Driver/Src/stm32f4xx_hal_ltdc.c **** 
1248:Drivers/STM32F4xx_HAL_Driver/Src/stm32f4xx_hal_ltdc.c ****   /* Set LTDC parameters */
1249:Drivers/STM32F4xx_HAL_Driver/Src/stm32f4xx_hal_ltdc.c ****   LTDC_SetConfig(hltdc, pLayerCfg, LayerIdx);
 2039              		.loc 1 1249 3
 2040 0060 3A68     		ldr	r2, [r7]
 2041 0062 7969     		ldr	r1, [r7, #20]
 2042 0064 F868     		ldr	r0, [r7, #12]
 2043 0066 FFF7FEFF 		bl	LTDC_SetConfig
1250:Drivers/STM32F4xx_HAL_Driver/Src/stm32f4xx_hal_ltdc.c **** 
1251:Drivers/STM32F4xx_HAL_Driver/Src/stm32f4xx_hal_ltdc.c ****   /* Set the Immediate Reload type */
1252:Drivers/STM32F4xx_HAL_Driver/Src/stm32f4xx_hal_ltdc.c ****   hltdc->Instance->SRCR = LTDC_SRCR_IMR;
 2044              		.loc 1 1252 8
 2045 006a FB68     		ldr	r3, [r7, #12]
 2046 006c 1B68     		ldr	r3, [r3]
 2047              		.loc 1 1252 25
 2048 006e 0122     		movs	r2, #1
 2049 0070 5A62     		str	r2, [r3, #36]
1253:Drivers/STM32F4xx_HAL_Driver/Src/stm32f4xx_hal_ltdc.c **** 
1254:Drivers/STM32F4xx_HAL_Driver/Src/stm32f4xx_hal_ltdc.c ****   /* Change the LTDC state*/
1255:Drivers/STM32F4xx_HAL_Driver/Src/stm32f4xx_hal_ltdc.c ****   hltdc->State = HAL_LTDC_STATE_READY;
 2050              		.loc 1 1255 16
 2051 0072 FB68     		ldr	r3, [r7, #12]
 2052 0074 0122     		movs	r2, #1
 2053 0076 83F8A120 		strb	r2, [r3, #161]
1256:Drivers/STM32F4xx_HAL_Driver/Src/stm32f4xx_hal_ltdc.c **** 
1257:Drivers/STM32F4xx_HAL_Driver/Src/stm32f4xx_hal_ltdc.c ****   /* Process unlocked */
1258:Drivers/STM32F4xx_HAL_Driver/Src/stm32f4xx_hal_ltdc.c ****   __HAL_UNLOCK(hltdc);
 2054              		.loc 1 1258 3
 2055 007a FB68     		ldr	r3, [r7, #12]
 2056 007c 0022     		movs	r2, #0
 2057 007e 83F8A020 		strb	r2, [r3, #160]
1259:Drivers/STM32F4xx_HAL_Driver/Src/stm32f4xx_hal_ltdc.c **** 
1260:Drivers/STM32F4xx_HAL_Driver/Src/stm32f4xx_hal_ltdc.c ****   return HAL_OK;
 2058              		.loc 1 1260 10
 2059 0082 0023     		movs	r3, #0
 2060              	.L65:
1261:Drivers/STM32F4xx_HAL_Driver/Src/stm32f4xx_hal_ltdc.c **** }
 2061              		.loc 1 1261 1
 2062 0084 1846     		mov	r0, r3
 2063 0086 1837     		adds	r7, r7, #24
 2064              	.LCFI106:
 2065              		.cfi_def_cfa_offset 8
 2066 0088 BD46     		mov	sp, r7
 2067              	.LCFI107:
 2068              		.cfi_def_cfa_register 13
 2069              		@ sp needed
 2070 008a 80BD     		pop	{r7, pc}
 2071              		.cfi_endproc
ARM GAS  /var/folders/06/9k7gq4t13mj84z2yhw3grvhc0000gn/T//ccuiTnhW.s 			page 59


 2072              	.LFE152:
 2074              		.section	.text.HAL_LTDC_SetPixelFormat,"ax",%progbits
 2075              		.align	1
 2076              		.global	HAL_LTDC_SetPixelFormat
 2077              		.syntax unified
 2078              		.thumb
 2079              		.thumb_func
 2081              	HAL_LTDC_SetPixelFormat:
 2082              	.LFB153:
1262:Drivers/STM32F4xx_HAL_Driver/Src/stm32f4xx_hal_ltdc.c **** 
1263:Drivers/STM32F4xx_HAL_Driver/Src/stm32f4xx_hal_ltdc.c **** /**
1264:Drivers/STM32F4xx_HAL_Driver/Src/stm32f4xx_hal_ltdc.c ****   * @brief  Reconfigure the pixel format.
1265:Drivers/STM32F4xx_HAL_Driver/Src/stm32f4xx_hal_ltdc.c ****   * @param  hltdc        pointer to a LTDC_HandleTypeDef structure that contains
1266:Drivers/STM32F4xx_HAL_Driver/Src/stm32f4xx_hal_ltdc.c ****   *                      the configuration information for the LTDC.
1267:Drivers/STM32F4xx_HAL_Driver/Src/stm32f4xx_hal_ltdc.c ****   * @param  Pixelformat  new pixel format value.
1268:Drivers/STM32F4xx_HAL_Driver/Src/stm32f4xx_hal_ltdc.c ****   * @param  LayerIdx     LTDC Layer index.
1269:Drivers/STM32F4xx_HAL_Driver/Src/stm32f4xx_hal_ltdc.c ****   *                      This parameter can be one of the following values:
1270:Drivers/STM32F4xx_HAL_Driver/Src/stm32f4xx_hal_ltdc.c ****   *                      LTDC_LAYER_1 (0) or LTDC_LAYER_2 (1).
1271:Drivers/STM32F4xx_HAL_Driver/Src/stm32f4xx_hal_ltdc.c ****   * @retval  HAL status
1272:Drivers/STM32F4xx_HAL_Driver/Src/stm32f4xx_hal_ltdc.c ****   */
1273:Drivers/STM32F4xx_HAL_Driver/Src/stm32f4xx_hal_ltdc.c **** HAL_StatusTypeDef HAL_LTDC_SetPixelFormat(LTDC_HandleTypeDef *hltdc, uint32_t Pixelformat, uint32_t
1274:Drivers/STM32F4xx_HAL_Driver/Src/stm32f4xx_hal_ltdc.c **** {
 2083              		.loc 1 1274 1
 2084              		.cfi_startproc
 2085              		@ args = 0, pretend = 0, frame = 24
 2086              		@ frame_needed = 1, uses_anonymous_args = 0
 2087 0000 80B5     		push	{r7, lr}
 2088              	.LCFI108:
 2089              		.cfi_def_cfa_offset 8
 2090              		.cfi_offset 7, -8
 2091              		.cfi_offset 14, -4
 2092 0002 86B0     		sub	sp, sp, #24
 2093              	.LCFI109:
 2094              		.cfi_def_cfa_offset 32
 2095 0004 00AF     		add	r7, sp, #0
 2096              	.LCFI110:
 2097              		.cfi_def_cfa_register 7
 2098 0006 F860     		str	r0, [r7, #12]
 2099 0008 B960     		str	r1, [r7, #8]
 2100 000a 7A60     		str	r2, [r7, #4]
1275:Drivers/STM32F4xx_HAL_Driver/Src/stm32f4xx_hal_ltdc.c ****   LTDC_LayerCfgTypeDef *pLayerCfg;
1276:Drivers/STM32F4xx_HAL_Driver/Src/stm32f4xx_hal_ltdc.c **** 
1277:Drivers/STM32F4xx_HAL_Driver/Src/stm32f4xx_hal_ltdc.c ****   /* Check the parameters */
1278:Drivers/STM32F4xx_HAL_Driver/Src/stm32f4xx_hal_ltdc.c ****   assert_param(IS_LTDC_PIXEL_FORMAT(Pixelformat));
1279:Drivers/STM32F4xx_HAL_Driver/Src/stm32f4xx_hal_ltdc.c ****   assert_param(IS_LTDC_LAYER(LayerIdx));
1280:Drivers/STM32F4xx_HAL_Driver/Src/stm32f4xx_hal_ltdc.c **** 
1281:Drivers/STM32F4xx_HAL_Driver/Src/stm32f4xx_hal_ltdc.c ****   /* Process locked */
1282:Drivers/STM32F4xx_HAL_Driver/Src/stm32f4xx_hal_ltdc.c ****   __HAL_LOCK(hltdc);
 2101              		.loc 1 1282 3
 2102 000c FB68     		ldr	r3, [r7, #12]
 2103 000e 93F8A030 		ldrb	r3, [r3, #160]	@ zero_extendqisi2
 2104 0012 012B     		cmp	r3, #1
 2105 0014 01D1     		bne	.L67
 2106              		.loc 1 1282 3 is_stmt 0 discriminator 1
 2107 0016 0223     		movs	r3, #2
 2108              		.loc 1 1282 3
 2109 0018 24E0     		b	.L68
ARM GAS  /var/folders/06/9k7gq4t13mj84z2yhw3grvhc0000gn/T//ccuiTnhW.s 			page 60


 2110              	.L67:
 2111              		.loc 1 1282 3 discriminator 2
 2112 001a FB68     		ldr	r3, [r7, #12]
 2113 001c 0122     		movs	r2, #1
 2114 001e 83F8A020 		strb	r2, [r3, #160]
1283:Drivers/STM32F4xx_HAL_Driver/Src/stm32f4xx_hal_ltdc.c **** 
1284:Drivers/STM32F4xx_HAL_Driver/Src/stm32f4xx_hal_ltdc.c ****   /* Change LTDC peripheral state */
1285:Drivers/STM32F4xx_HAL_Driver/Src/stm32f4xx_hal_ltdc.c ****   hltdc->State = HAL_LTDC_STATE_BUSY;
 2115              		.loc 1 1285 16 is_stmt 1
 2116 0022 FB68     		ldr	r3, [r7, #12]
 2117 0024 0222     		movs	r2, #2
 2118 0026 83F8A120 		strb	r2, [r3, #161]
1286:Drivers/STM32F4xx_HAL_Driver/Src/stm32f4xx_hal_ltdc.c **** 
1287:Drivers/STM32F4xx_HAL_Driver/Src/stm32f4xx_hal_ltdc.c ****   /* Get layer configuration from handle structure */
1288:Drivers/STM32F4xx_HAL_Driver/Src/stm32f4xx_hal_ltdc.c ****   pLayerCfg = &hltdc->LayerCfg[LayerIdx];
 2119              		.loc 1 1288 13
 2120 002a 7B68     		ldr	r3, [r7, #4]
 2121 002c 3422     		movs	r2, #52
 2122 002e 02FB03F3 		mul	r3, r2, r3
 2123 0032 3833     		adds	r3, r3, #56
 2124 0034 FA68     		ldr	r2, [r7, #12]
 2125 0036 1344     		add	r3, r3, r2
 2126 0038 7B61     		str	r3, [r7, #20]
1289:Drivers/STM32F4xx_HAL_Driver/Src/stm32f4xx_hal_ltdc.c **** 
1290:Drivers/STM32F4xx_HAL_Driver/Src/stm32f4xx_hal_ltdc.c ****   /* Reconfigure the pixel format */
1291:Drivers/STM32F4xx_HAL_Driver/Src/stm32f4xx_hal_ltdc.c ****   pLayerCfg->PixelFormat = Pixelformat;
 2127              		.loc 1 1291 26
 2128 003a 7B69     		ldr	r3, [r7, #20]
 2129 003c BA68     		ldr	r2, [r7, #8]
 2130 003e 1A61     		str	r2, [r3, #16]
1292:Drivers/STM32F4xx_HAL_Driver/Src/stm32f4xx_hal_ltdc.c **** 
1293:Drivers/STM32F4xx_HAL_Driver/Src/stm32f4xx_hal_ltdc.c ****   /* Set LTDC parameters */
1294:Drivers/STM32F4xx_HAL_Driver/Src/stm32f4xx_hal_ltdc.c ****   LTDC_SetConfig(hltdc, pLayerCfg, LayerIdx);
 2131              		.loc 1 1294 3
 2132 0040 7A68     		ldr	r2, [r7, #4]
 2133 0042 7969     		ldr	r1, [r7, #20]
 2134 0044 F868     		ldr	r0, [r7, #12]
 2135 0046 FFF7FEFF 		bl	LTDC_SetConfig
1295:Drivers/STM32F4xx_HAL_Driver/Src/stm32f4xx_hal_ltdc.c **** 
1296:Drivers/STM32F4xx_HAL_Driver/Src/stm32f4xx_hal_ltdc.c ****   /* Set the Immediate Reload type */
1297:Drivers/STM32F4xx_HAL_Driver/Src/stm32f4xx_hal_ltdc.c ****   hltdc->Instance->SRCR = LTDC_SRCR_IMR;
 2136              		.loc 1 1297 8
 2137 004a FB68     		ldr	r3, [r7, #12]
 2138 004c 1B68     		ldr	r3, [r3]
 2139              		.loc 1 1297 25
 2140 004e 0122     		movs	r2, #1
 2141 0050 5A62     		str	r2, [r3, #36]
1298:Drivers/STM32F4xx_HAL_Driver/Src/stm32f4xx_hal_ltdc.c **** 
1299:Drivers/STM32F4xx_HAL_Driver/Src/stm32f4xx_hal_ltdc.c ****   /* Change the LTDC state*/
1300:Drivers/STM32F4xx_HAL_Driver/Src/stm32f4xx_hal_ltdc.c ****   hltdc->State = HAL_LTDC_STATE_READY;
 2142              		.loc 1 1300 16
 2143 0052 FB68     		ldr	r3, [r7, #12]
 2144 0054 0122     		movs	r2, #1
 2145 0056 83F8A120 		strb	r2, [r3, #161]
1301:Drivers/STM32F4xx_HAL_Driver/Src/stm32f4xx_hal_ltdc.c **** 
1302:Drivers/STM32F4xx_HAL_Driver/Src/stm32f4xx_hal_ltdc.c ****   /* Process unlocked */
1303:Drivers/STM32F4xx_HAL_Driver/Src/stm32f4xx_hal_ltdc.c ****   __HAL_UNLOCK(hltdc);
ARM GAS  /var/folders/06/9k7gq4t13mj84z2yhw3grvhc0000gn/T//ccuiTnhW.s 			page 61


 2146              		.loc 1 1303 3
 2147 005a FB68     		ldr	r3, [r7, #12]
 2148 005c 0022     		movs	r2, #0
 2149 005e 83F8A020 		strb	r2, [r3, #160]
1304:Drivers/STM32F4xx_HAL_Driver/Src/stm32f4xx_hal_ltdc.c **** 
1305:Drivers/STM32F4xx_HAL_Driver/Src/stm32f4xx_hal_ltdc.c ****   return HAL_OK;
 2150              		.loc 1 1305 10
 2151 0062 0023     		movs	r3, #0
 2152              	.L68:
1306:Drivers/STM32F4xx_HAL_Driver/Src/stm32f4xx_hal_ltdc.c **** }
 2153              		.loc 1 1306 1
 2154 0064 1846     		mov	r0, r3
 2155 0066 1837     		adds	r7, r7, #24
 2156              	.LCFI111:
 2157              		.cfi_def_cfa_offset 8
 2158 0068 BD46     		mov	sp, r7
 2159              	.LCFI112:
 2160              		.cfi_def_cfa_register 13
 2161              		@ sp needed
 2162 006a 80BD     		pop	{r7, pc}
 2163              		.cfi_endproc
 2164              	.LFE153:
 2166              		.section	.text.HAL_LTDC_SetAlpha,"ax",%progbits
 2167              		.align	1
 2168              		.global	HAL_LTDC_SetAlpha
 2169              		.syntax unified
 2170              		.thumb
 2171              		.thumb_func
 2173              	HAL_LTDC_SetAlpha:
 2174              	.LFB154:
1307:Drivers/STM32F4xx_HAL_Driver/Src/stm32f4xx_hal_ltdc.c **** 
1308:Drivers/STM32F4xx_HAL_Driver/Src/stm32f4xx_hal_ltdc.c **** /**
1309:Drivers/STM32F4xx_HAL_Driver/Src/stm32f4xx_hal_ltdc.c ****   * @brief  Reconfigure the layer alpha value.
1310:Drivers/STM32F4xx_HAL_Driver/Src/stm32f4xx_hal_ltdc.c ****   * @param  hltdc     pointer to a LTDC_HandleTypeDef structure that contains
1311:Drivers/STM32F4xx_HAL_Driver/Src/stm32f4xx_hal_ltdc.c ****   *                   the configuration information for the LTDC.
1312:Drivers/STM32F4xx_HAL_Driver/Src/stm32f4xx_hal_ltdc.c ****   * @param  Alpha     new alpha value.
1313:Drivers/STM32F4xx_HAL_Driver/Src/stm32f4xx_hal_ltdc.c ****   * @param  LayerIdx  LTDC Layer index.
1314:Drivers/STM32F4xx_HAL_Driver/Src/stm32f4xx_hal_ltdc.c ****   *                   This parameter can be one of the following values:
1315:Drivers/STM32F4xx_HAL_Driver/Src/stm32f4xx_hal_ltdc.c ****   *                   LTDC_LAYER_1 (0) or LTDC_LAYER_2 (1)
1316:Drivers/STM32F4xx_HAL_Driver/Src/stm32f4xx_hal_ltdc.c ****   * @retval  HAL status
1317:Drivers/STM32F4xx_HAL_Driver/Src/stm32f4xx_hal_ltdc.c ****   */
1318:Drivers/STM32F4xx_HAL_Driver/Src/stm32f4xx_hal_ltdc.c **** HAL_StatusTypeDef HAL_LTDC_SetAlpha(LTDC_HandleTypeDef *hltdc, uint32_t Alpha, uint32_t LayerIdx)
1319:Drivers/STM32F4xx_HAL_Driver/Src/stm32f4xx_hal_ltdc.c **** {
 2175              		.loc 1 1319 1
 2176              		.cfi_startproc
 2177              		@ args = 0, pretend = 0, frame = 24
 2178              		@ frame_needed = 1, uses_anonymous_args = 0
 2179 0000 80B5     		push	{r7, lr}
 2180              	.LCFI113:
 2181              		.cfi_def_cfa_offset 8
 2182              		.cfi_offset 7, -8
 2183              		.cfi_offset 14, -4
 2184 0002 86B0     		sub	sp, sp, #24
 2185              	.LCFI114:
 2186              		.cfi_def_cfa_offset 32
 2187 0004 00AF     		add	r7, sp, #0
 2188              	.LCFI115:
ARM GAS  /var/folders/06/9k7gq4t13mj84z2yhw3grvhc0000gn/T//ccuiTnhW.s 			page 62


 2189              		.cfi_def_cfa_register 7
 2190 0006 F860     		str	r0, [r7, #12]
 2191 0008 B960     		str	r1, [r7, #8]
 2192 000a 7A60     		str	r2, [r7, #4]
1320:Drivers/STM32F4xx_HAL_Driver/Src/stm32f4xx_hal_ltdc.c ****   LTDC_LayerCfgTypeDef *pLayerCfg;
1321:Drivers/STM32F4xx_HAL_Driver/Src/stm32f4xx_hal_ltdc.c **** 
1322:Drivers/STM32F4xx_HAL_Driver/Src/stm32f4xx_hal_ltdc.c ****   /* Check the parameters */
1323:Drivers/STM32F4xx_HAL_Driver/Src/stm32f4xx_hal_ltdc.c ****   assert_param(IS_LTDC_ALPHA(Alpha));
1324:Drivers/STM32F4xx_HAL_Driver/Src/stm32f4xx_hal_ltdc.c ****   assert_param(IS_LTDC_LAYER(LayerIdx));
1325:Drivers/STM32F4xx_HAL_Driver/Src/stm32f4xx_hal_ltdc.c **** 
1326:Drivers/STM32F4xx_HAL_Driver/Src/stm32f4xx_hal_ltdc.c ****   /* Process locked */
1327:Drivers/STM32F4xx_HAL_Driver/Src/stm32f4xx_hal_ltdc.c ****   __HAL_LOCK(hltdc);
 2193              		.loc 1 1327 3
 2194 000c FB68     		ldr	r3, [r7, #12]
 2195 000e 93F8A030 		ldrb	r3, [r3, #160]	@ zero_extendqisi2
 2196 0012 012B     		cmp	r3, #1
 2197 0014 01D1     		bne	.L70
 2198              		.loc 1 1327 3 is_stmt 0 discriminator 1
 2199 0016 0223     		movs	r3, #2
 2200              		.loc 1 1327 3
 2201 0018 24E0     		b	.L71
 2202              	.L70:
 2203              		.loc 1 1327 3 discriminator 2
 2204 001a FB68     		ldr	r3, [r7, #12]
 2205 001c 0122     		movs	r2, #1
 2206 001e 83F8A020 		strb	r2, [r3, #160]
1328:Drivers/STM32F4xx_HAL_Driver/Src/stm32f4xx_hal_ltdc.c **** 
1329:Drivers/STM32F4xx_HAL_Driver/Src/stm32f4xx_hal_ltdc.c ****   /* Change LTDC peripheral state */
1330:Drivers/STM32F4xx_HAL_Driver/Src/stm32f4xx_hal_ltdc.c ****   hltdc->State = HAL_LTDC_STATE_BUSY;
 2207              		.loc 1 1330 16 is_stmt 1
 2208 0022 FB68     		ldr	r3, [r7, #12]
 2209 0024 0222     		movs	r2, #2
 2210 0026 83F8A120 		strb	r2, [r3, #161]
1331:Drivers/STM32F4xx_HAL_Driver/Src/stm32f4xx_hal_ltdc.c **** 
1332:Drivers/STM32F4xx_HAL_Driver/Src/stm32f4xx_hal_ltdc.c ****   /* Get layer configuration from handle structure */
1333:Drivers/STM32F4xx_HAL_Driver/Src/stm32f4xx_hal_ltdc.c ****   pLayerCfg = &hltdc->LayerCfg[LayerIdx];
 2211              		.loc 1 1333 13
 2212 002a 7B68     		ldr	r3, [r7, #4]
 2213 002c 3422     		movs	r2, #52
 2214 002e 02FB03F3 		mul	r3, r2, r3
 2215 0032 3833     		adds	r3, r3, #56
 2216 0034 FA68     		ldr	r2, [r7, #12]
 2217 0036 1344     		add	r3, r3, r2
 2218 0038 7B61     		str	r3, [r7, #20]
1334:Drivers/STM32F4xx_HAL_Driver/Src/stm32f4xx_hal_ltdc.c **** 
1335:Drivers/STM32F4xx_HAL_Driver/Src/stm32f4xx_hal_ltdc.c ****   /* Reconfigure the Alpha value */
1336:Drivers/STM32F4xx_HAL_Driver/Src/stm32f4xx_hal_ltdc.c ****   pLayerCfg->Alpha = Alpha;
 2219              		.loc 1 1336 20
 2220 003a 7B69     		ldr	r3, [r7, #20]
 2221 003c BA68     		ldr	r2, [r7, #8]
 2222 003e 5A61     		str	r2, [r3, #20]
1337:Drivers/STM32F4xx_HAL_Driver/Src/stm32f4xx_hal_ltdc.c **** 
1338:Drivers/STM32F4xx_HAL_Driver/Src/stm32f4xx_hal_ltdc.c ****   /* Set LTDC parameters */
1339:Drivers/STM32F4xx_HAL_Driver/Src/stm32f4xx_hal_ltdc.c ****   LTDC_SetConfig(hltdc, pLayerCfg, LayerIdx);
 2223              		.loc 1 1339 3
 2224 0040 7A68     		ldr	r2, [r7, #4]
 2225 0042 7969     		ldr	r1, [r7, #20]
ARM GAS  /var/folders/06/9k7gq4t13mj84z2yhw3grvhc0000gn/T//ccuiTnhW.s 			page 63


 2226 0044 F868     		ldr	r0, [r7, #12]
 2227 0046 FFF7FEFF 		bl	LTDC_SetConfig
1340:Drivers/STM32F4xx_HAL_Driver/Src/stm32f4xx_hal_ltdc.c **** 
1341:Drivers/STM32F4xx_HAL_Driver/Src/stm32f4xx_hal_ltdc.c ****   /* Set the Immediate Reload type */
1342:Drivers/STM32F4xx_HAL_Driver/Src/stm32f4xx_hal_ltdc.c ****   hltdc->Instance->SRCR = LTDC_SRCR_IMR;
 2228              		.loc 1 1342 8
 2229 004a FB68     		ldr	r3, [r7, #12]
 2230 004c 1B68     		ldr	r3, [r3]
 2231              		.loc 1 1342 25
 2232 004e 0122     		movs	r2, #1
 2233 0050 5A62     		str	r2, [r3, #36]
1343:Drivers/STM32F4xx_HAL_Driver/Src/stm32f4xx_hal_ltdc.c **** 
1344:Drivers/STM32F4xx_HAL_Driver/Src/stm32f4xx_hal_ltdc.c ****   /* Change the LTDC state*/
1345:Drivers/STM32F4xx_HAL_Driver/Src/stm32f4xx_hal_ltdc.c ****   hltdc->State = HAL_LTDC_STATE_READY;
 2234              		.loc 1 1345 16
 2235 0052 FB68     		ldr	r3, [r7, #12]
 2236 0054 0122     		movs	r2, #1
 2237 0056 83F8A120 		strb	r2, [r3, #161]
1346:Drivers/STM32F4xx_HAL_Driver/Src/stm32f4xx_hal_ltdc.c **** 
1347:Drivers/STM32F4xx_HAL_Driver/Src/stm32f4xx_hal_ltdc.c ****   /* Process unlocked */
1348:Drivers/STM32F4xx_HAL_Driver/Src/stm32f4xx_hal_ltdc.c ****   __HAL_UNLOCK(hltdc);
 2238              		.loc 1 1348 3
 2239 005a FB68     		ldr	r3, [r7, #12]
 2240 005c 0022     		movs	r2, #0
 2241 005e 83F8A020 		strb	r2, [r3, #160]
1349:Drivers/STM32F4xx_HAL_Driver/Src/stm32f4xx_hal_ltdc.c **** 
1350:Drivers/STM32F4xx_HAL_Driver/Src/stm32f4xx_hal_ltdc.c ****   return HAL_OK;
 2242              		.loc 1 1350 10
 2243 0062 0023     		movs	r3, #0
 2244              	.L71:
1351:Drivers/STM32F4xx_HAL_Driver/Src/stm32f4xx_hal_ltdc.c **** }
 2245              		.loc 1 1351 1
 2246 0064 1846     		mov	r0, r3
 2247 0066 1837     		adds	r7, r7, #24
 2248              	.LCFI116:
 2249              		.cfi_def_cfa_offset 8
 2250 0068 BD46     		mov	sp, r7
 2251              	.LCFI117:
 2252              		.cfi_def_cfa_register 13
 2253              		@ sp needed
 2254 006a 80BD     		pop	{r7, pc}
 2255              		.cfi_endproc
 2256              	.LFE154:
 2258              		.section	.text.HAL_LTDC_SetAddress,"ax",%progbits
 2259              		.align	1
 2260              		.global	HAL_LTDC_SetAddress
 2261              		.syntax unified
 2262              		.thumb
 2263              		.thumb_func
 2265              	HAL_LTDC_SetAddress:
 2266              	.LFB155:
1352:Drivers/STM32F4xx_HAL_Driver/Src/stm32f4xx_hal_ltdc.c **** /**
1353:Drivers/STM32F4xx_HAL_Driver/Src/stm32f4xx_hal_ltdc.c ****   * @brief  Reconfigure the frame buffer Address.
1354:Drivers/STM32F4xx_HAL_Driver/Src/stm32f4xx_hal_ltdc.c ****   * @param  hltdc     pointer to a LTDC_HandleTypeDef structure that contains
1355:Drivers/STM32F4xx_HAL_Driver/Src/stm32f4xx_hal_ltdc.c ****   *                   the configuration information for the LTDC.
1356:Drivers/STM32F4xx_HAL_Driver/Src/stm32f4xx_hal_ltdc.c ****   * @param  Address   new address value.
1357:Drivers/STM32F4xx_HAL_Driver/Src/stm32f4xx_hal_ltdc.c ****   * @param  LayerIdx  LTDC Layer index.
ARM GAS  /var/folders/06/9k7gq4t13mj84z2yhw3grvhc0000gn/T//ccuiTnhW.s 			page 64


1358:Drivers/STM32F4xx_HAL_Driver/Src/stm32f4xx_hal_ltdc.c ****   *                   This parameter can be one of the following values:
1359:Drivers/STM32F4xx_HAL_Driver/Src/stm32f4xx_hal_ltdc.c ****   *                   LTDC_LAYER_1 (0) or LTDC_LAYER_2 (1).
1360:Drivers/STM32F4xx_HAL_Driver/Src/stm32f4xx_hal_ltdc.c ****   * @retval  HAL status
1361:Drivers/STM32F4xx_HAL_Driver/Src/stm32f4xx_hal_ltdc.c ****   */
1362:Drivers/STM32F4xx_HAL_Driver/Src/stm32f4xx_hal_ltdc.c **** HAL_StatusTypeDef HAL_LTDC_SetAddress(LTDC_HandleTypeDef *hltdc, uint32_t Address, uint32_t LayerId
1363:Drivers/STM32F4xx_HAL_Driver/Src/stm32f4xx_hal_ltdc.c **** {
 2267              		.loc 1 1363 1
 2268              		.cfi_startproc
 2269              		@ args = 0, pretend = 0, frame = 24
 2270              		@ frame_needed = 1, uses_anonymous_args = 0
 2271 0000 80B5     		push	{r7, lr}
 2272              	.LCFI118:
 2273              		.cfi_def_cfa_offset 8
 2274              		.cfi_offset 7, -8
 2275              		.cfi_offset 14, -4
 2276 0002 86B0     		sub	sp, sp, #24
 2277              	.LCFI119:
 2278              		.cfi_def_cfa_offset 32
 2279 0004 00AF     		add	r7, sp, #0
 2280              	.LCFI120:
 2281              		.cfi_def_cfa_register 7
 2282 0006 F860     		str	r0, [r7, #12]
 2283 0008 B960     		str	r1, [r7, #8]
 2284 000a 7A60     		str	r2, [r7, #4]
1364:Drivers/STM32F4xx_HAL_Driver/Src/stm32f4xx_hal_ltdc.c ****   LTDC_LayerCfgTypeDef *pLayerCfg;
1365:Drivers/STM32F4xx_HAL_Driver/Src/stm32f4xx_hal_ltdc.c **** 
1366:Drivers/STM32F4xx_HAL_Driver/Src/stm32f4xx_hal_ltdc.c ****   /* Check the parameters */
1367:Drivers/STM32F4xx_HAL_Driver/Src/stm32f4xx_hal_ltdc.c ****   assert_param(IS_LTDC_LAYER(LayerIdx));
1368:Drivers/STM32F4xx_HAL_Driver/Src/stm32f4xx_hal_ltdc.c **** 
1369:Drivers/STM32F4xx_HAL_Driver/Src/stm32f4xx_hal_ltdc.c ****   /* Process locked */
1370:Drivers/STM32F4xx_HAL_Driver/Src/stm32f4xx_hal_ltdc.c ****   __HAL_LOCK(hltdc);
 2285              		.loc 1 1370 3
 2286 000c FB68     		ldr	r3, [r7, #12]
 2287 000e 93F8A030 		ldrb	r3, [r3, #160]	@ zero_extendqisi2
 2288 0012 012B     		cmp	r3, #1
 2289 0014 01D1     		bne	.L73
 2290              		.loc 1 1370 3 is_stmt 0 discriminator 1
 2291 0016 0223     		movs	r3, #2
 2292              		.loc 1 1370 3
 2293 0018 24E0     		b	.L74
 2294              	.L73:
 2295              		.loc 1 1370 3 discriminator 2
 2296 001a FB68     		ldr	r3, [r7, #12]
 2297 001c 0122     		movs	r2, #1
 2298 001e 83F8A020 		strb	r2, [r3, #160]
1371:Drivers/STM32F4xx_HAL_Driver/Src/stm32f4xx_hal_ltdc.c **** 
1372:Drivers/STM32F4xx_HAL_Driver/Src/stm32f4xx_hal_ltdc.c ****   /* Change LTDC peripheral state */
1373:Drivers/STM32F4xx_HAL_Driver/Src/stm32f4xx_hal_ltdc.c ****   hltdc->State = HAL_LTDC_STATE_BUSY;
 2299              		.loc 1 1373 16 is_stmt 1
 2300 0022 FB68     		ldr	r3, [r7, #12]
 2301 0024 0222     		movs	r2, #2
 2302 0026 83F8A120 		strb	r2, [r3, #161]
1374:Drivers/STM32F4xx_HAL_Driver/Src/stm32f4xx_hal_ltdc.c **** 
1375:Drivers/STM32F4xx_HAL_Driver/Src/stm32f4xx_hal_ltdc.c ****   /* Get layer configuration from handle structure */
1376:Drivers/STM32F4xx_HAL_Driver/Src/stm32f4xx_hal_ltdc.c ****   pLayerCfg = &hltdc->LayerCfg[LayerIdx];
 2303              		.loc 1 1376 13
 2304 002a 7B68     		ldr	r3, [r7, #4]
ARM GAS  /var/folders/06/9k7gq4t13mj84z2yhw3grvhc0000gn/T//ccuiTnhW.s 			page 65


 2305 002c 3422     		movs	r2, #52
 2306 002e 02FB03F3 		mul	r3, r2, r3
 2307 0032 3833     		adds	r3, r3, #56
 2308 0034 FA68     		ldr	r2, [r7, #12]
 2309 0036 1344     		add	r3, r3, r2
 2310 0038 7B61     		str	r3, [r7, #20]
1377:Drivers/STM32F4xx_HAL_Driver/Src/stm32f4xx_hal_ltdc.c **** 
1378:Drivers/STM32F4xx_HAL_Driver/Src/stm32f4xx_hal_ltdc.c ****   /* Reconfigure the Address */
1379:Drivers/STM32F4xx_HAL_Driver/Src/stm32f4xx_hal_ltdc.c ****   pLayerCfg->FBStartAdress = Address;
 2311              		.loc 1 1379 28
 2312 003a 7B69     		ldr	r3, [r7, #20]
 2313 003c BA68     		ldr	r2, [r7, #8]
 2314 003e 5A62     		str	r2, [r3, #36]
1380:Drivers/STM32F4xx_HAL_Driver/Src/stm32f4xx_hal_ltdc.c **** 
1381:Drivers/STM32F4xx_HAL_Driver/Src/stm32f4xx_hal_ltdc.c ****   /* Set LTDC parameters */
1382:Drivers/STM32F4xx_HAL_Driver/Src/stm32f4xx_hal_ltdc.c ****   LTDC_SetConfig(hltdc, pLayerCfg, LayerIdx);
 2315              		.loc 1 1382 3
 2316 0040 7A68     		ldr	r2, [r7, #4]
 2317 0042 7969     		ldr	r1, [r7, #20]
 2318 0044 F868     		ldr	r0, [r7, #12]
 2319 0046 FFF7FEFF 		bl	LTDC_SetConfig
1383:Drivers/STM32F4xx_HAL_Driver/Src/stm32f4xx_hal_ltdc.c **** 
1384:Drivers/STM32F4xx_HAL_Driver/Src/stm32f4xx_hal_ltdc.c ****   /* Set the Immediate Reload type */
1385:Drivers/STM32F4xx_HAL_Driver/Src/stm32f4xx_hal_ltdc.c ****   hltdc->Instance->SRCR = LTDC_SRCR_IMR;
 2320              		.loc 1 1385 8
 2321 004a FB68     		ldr	r3, [r7, #12]
 2322 004c 1B68     		ldr	r3, [r3]
 2323              		.loc 1 1385 25
 2324 004e 0122     		movs	r2, #1
 2325 0050 5A62     		str	r2, [r3, #36]
1386:Drivers/STM32F4xx_HAL_Driver/Src/stm32f4xx_hal_ltdc.c **** 
1387:Drivers/STM32F4xx_HAL_Driver/Src/stm32f4xx_hal_ltdc.c ****   /* Change the LTDC state*/
1388:Drivers/STM32F4xx_HAL_Driver/Src/stm32f4xx_hal_ltdc.c ****   hltdc->State = HAL_LTDC_STATE_READY;
 2326              		.loc 1 1388 16
 2327 0052 FB68     		ldr	r3, [r7, #12]
 2328 0054 0122     		movs	r2, #1
 2329 0056 83F8A120 		strb	r2, [r3, #161]
1389:Drivers/STM32F4xx_HAL_Driver/Src/stm32f4xx_hal_ltdc.c **** 
1390:Drivers/STM32F4xx_HAL_Driver/Src/stm32f4xx_hal_ltdc.c ****   /* Process unlocked */
1391:Drivers/STM32F4xx_HAL_Driver/Src/stm32f4xx_hal_ltdc.c ****   __HAL_UNLOCK(hltdc);
 2330              		.loc 1 1391 3
 2331 005a FB68     		ldr	r3, [r7, #12]
 2332 005c 0022     		movs	r2, #0
 2333 005e 83F8A020 		strb	r2, [r3, #160]
1392:Drivers/STM32F4xx_HAL_Driver/Src/stm32f4xx_hal_ltdc.c **** 
1393:Drivers/STM32F4xx_HAL_Driver/Src/stm32f4xx_hal_ltdc.c ****   return HAL_OK;
 2334              		.loc 1 1393 10
 2335 0062 0023     		movs	r3, #0
 2336              	.L74:
1394:Drivers/STM32F4xx_HAL_Driver/Src/stm32f4xx_hal_ltdc.c **** }
 2337              		.loc 1 1394 1
 2338 0064 1846     		mov	r0, r3
 2339 0066 1837     		adds	r7, r7, #24
 2340              	.LCFI121:
 2341              		.cfi_def_cfa_offset 8
 2342 0068 BD46     		mov	sp, r7
 2343              	.LCFI122:
ARM GAS  /var/folders/06/9k7gq4t13mj84z2yhw3grvhc0000gn/T//ccuiTnhW.s 			page 66


 2344              		.cfi_def_cfa_register 13
 2345              		@ sp needed
 2346 006a 80BD     		pop	{r7, pc}
 2347              		.cfi_endproc
 2348              	.LFE155:
 2350              		.section	.text.HAL_LTDC_SetPitch,"ax",%progbits
 2351              		.align	1
 2352              		.global	HAL_LTDC_SetPitch
 2353              		.syntax unified
 2354              		.thumb
 2355              		.thumb_func
 2357              	HAL_LTDC_SetPitch:
 2358              	.LFB156:
1395:Drivers/STM32F4xx_HAL_Driver/Src/stm32f4xx_hal_ltdc.c **** 
1396:Drivers/STM32F4xx_HAL_Driver/Src/stm32f4xx_hal_ltdc.c **** /**
1397:Drivers/STM32F4xx_HAL_Driver/Src/stm32f4xx_hal_ltdc.c ****   * @brief  Function used to reconfigure the pitch for specific cases where the attached LayerIdx b
1398:Drivers/STM32F4xx_HAL_Driver/Src/stm32f4xx_hal_ltdc.c ****   *         that is larger than the one intended to be displayed on screen. Example of a buffer 800
1399:Drivers/STM32F4xx_HAL_Driver/Src/stm32f4xx_hal_ltdc.c ****   *         layer for which we want to read and display on screen only a portion 320x240 taken in t
1400:Drivers/STM32F4xx_HAL_Driver/Src/stm32f4xx_hal_ltdc.c ****   *         of the buffer.
1401:Drivers/STM32F4xx_HAL_Driver/Src/stm32f4xx_hal_ltdc.c ****   *         The pitch in pixels will be in that case 800 pixels and not 320 pixels as initially con
1402:Drivers/STM32F4xx_HAL_Driver/Src/stm32f4xx_hal_ltdc.c ****   *         call to HAL_LTDC_ConfigLayer().
1403:Drivers/STM32F4xx_HAL_Driver/Src/stm32f4xx_hal_ltdc.c ****   * @note   This function should be called only after a previous call to HAL_LTDC_ConfigLayer() to 
1404:Drivers/STM32F4xx_HAL_Driver/Src/stm32f4xx_hal_ltdc.c ****   *         pitch configured by HAL_LTDC_ConfigLayer() when required (refer to example described ju
1405:Drivers/STM32F4xx_HAL_Driver/Src/stm32f4xx_hal_ltdc.c ****   * @param  hltdc              pointer to a LTDC_HandleTypeDef structure that contains
1406:Drivers/STM32F4xx_HAL_Driver/Src/stm32f4xx_hal_ltdc.c ****   *                            the configuration information for the LTDC.
1407:Drivers/STM32F4xx_HAL_Driver/Src/stm32f4xx_hal_ltdc.c ****   * @param  LinePitchInPixels  New line pitch in pixels to configure for LTDC layer 'LayerIdx'.
1408:Drivers/STM32F4xx_HAL_Driver/Src/stm32f4xx_hal_ltdc.c ****   * @param  LayerIdx           LTDC layer index concerned by the modification of line pitch.
1409:Drivers/STM32F4xx_HAL_Driver/Src/stm32f4xx_hal_ltdc.c ****   * @retval HAL status
1410:Drivers/STM32F4xx_HAL_Driver/Src/stm32f4xx_hal_ltdc.c ****   */
1411:Drivers/STM32F4xx_HAL_Driver/Src/stm32f4xx_hal_ltdc.c **** HAL_StatusTypeDef HAL_LTDC_SetPitch(LTDC_HandleTypeDef *hltdc, uint32_t LinePitchInPixels, uint32_t
1412:Drivers/STM32F4xx_HAL_Driver/Src/stm32f4xx_hal_ltdc.c **** {
 2359              		.loc 1 1412 1
 2360              		.cfi_startproc
 2361              		@ args = 0, pretend = 0, frame = 32
 2362              		@ frame_needed = 1, uses_anonymous_args = 0
 2363              		@ link register save eliminated.
 2364 0000 80B4     		push	{r7}
 2365              	.LCFI123:
 2366              		.cfi_def_cfa_offset 4
 2367              		.cfi_offset 7, -4
 2368 0002 89B0     		sub	sp, sp, #36
 2369              	.LCFI124:
 2370              		.cfi_def_cfa_offset 40
 2371 0004 00AF     		add	r7, sp, #0
 2372              	.LCFI125:
 2373              		.cfi_def_cfa_register 7
 2374 0006 F860     		str	r0, [r7, #12]
 2375 0008 B960     		str	r1, [r7, #8]
 2376 000a 7A60     		str	r2, [r7, #4]
1413:Drivers/STM32F4xx_HAL_Driver/Src/stm32f4xx_hal_ltdc.c ****   uint32_t tmp;
1414:Drivers/STM32F4xx_HAL_Driver/Src/stm32f4xx_hal_ltdc.c ****   uint32_t pitchUpdate;
1415:Drivers/STM32F4xx_HAL_Driver/Src/stm32f4xx_hal_ltdc.c ****   uint32_t pixelFormat;
1416:Drivers/STM32F4xx_HAL_Driver/Src/stm32f4xx_hal_ltdc.c **** 
1417:Drivers/STM32F4xx_HAL_Driver/Src/stm32f4xx_hal_ltdc.c ****   /* Check the parameters */
1418:Drivers/STM32F4xx_HAL_Driver/Src/stm32f4xx_hal_ltdc.c ****   assert_param(IS_LTDC_LAYER(LayerIdx));
1419:Drivers/STM32F4xx_HAL_Driver/Src/stm32f4xx_hal_ltdc.c **** 
1420:Drivers/STM32F4xx_HAL_Driver/Src/stm32f4xx_hal_ltdc.c ****   /* Process locked */
ARM GAS  /var/folders/06/9k7gq4t13mj84z2yhw3grvhc0000gn/T//ccuiTnhW.s 			page 67


1421:Drivers/STM32F4xx_HAL_Driver/Src/stm32f4xx_hal_ltdc.c ****   __HAL_LOCK(hltdc);
 2377              		.loc 1 1421 3
 2378 000c FB68     		ldr	r3, [r7, #12]
 2379 000e 93F8A030 		ldrb	r3, [r3, #160]	@ zero_extendqisi2
 2380 0012 012B     		cmp	r3, #1
 2381 0014 01D1     		bne	.L76
 2382              		.loc 1 1421 3 is_stmt 0 discriminator 1
 2383 0016 0223     		movs	r3, #2
 2384              		.loc 1 1421 3
 2385 0018 6FE0     		b	.L77
 2386              	.L76:
 2387              		.loc 1 1421 3 discriminator 2
 2388 001a FB68     		ldr	r3, [r7, #12]
 2389 001c 0122     		movs	r2, #1
 2390 001e 83F8A020 		strb	r2, [r3, #160]
1422:Drivers/STM32F4xx_HAL_Driver/Src/stm32f4xx_hal_ltdc.c **** 
1423:Drivers/STM32F4xx_HAL_Driver/Src/stm32f4xx_hal_ltdc.c ****   /* Change LTDC peripheral state */
1424:Drivers/STM32F4xx_HAL_Driver/Src/stm32f4xx_hal_ltdc.c ****   hltdc->State = HAL_LTDC_STATE_BUSY;
 2391              		.loc 1 1424 16 is_stmt 1
 2392 0022 FB68     		ldr	r3, [r7, #12]
 2393 0024 0222     		movs	r2, #2
 2394 0026 83F8A120 		strb	r2, [r3, #161]
1425:Drivers/STM32F4xx_HAL_Driver/Src/stm32f4xx_hal_ltdc.c **** 
1426:Drivers/STM32F4xx_HAL_Driver/Src/stm32f4xx_hal_ltdc.c ****   /* get LayerIdx used pixel format */
1427:Drivers/STM32F4xx_HAL_Driver/Src/stm32f4xx_hal_ltdc.c ****   pixelFormat = hltdc->LayerCfg[LayerIdx].PixelFormat;
 2395              		.loc 1 1427 15
 2396 002a FA68     		ldr	r2, [r7, #12]
 2397 002c 7B68     		ldr	r3, [r7, #4]
 2398 002e 3421     		movs	r1, #52
 2399 0030 01FB03F3 		mul	r3, r1, r3
 2400 0034 1344     		add	r3, r3, r2
 2401 0036 4833     		adds	r3, r3, #72
 2402 0038 1B68     		ldr	r3, [r3]
 2403 003a BB61     		str	r3, [r7, #24]
1428:Drivers/STM32F4xx_HAL_Driver/Src/stm32f4xx_hal_ltdc.c **** 
1429:Drivers/STM32F4xx_HAL_Driver/Src/stm32f4xx_hal_ltdc.c ****   if (pixelFormat == LTDC_PIXEL_FORMAT_ARGB8888)
 2404              		.loc 1 1429 6
 2405 003c BB69     		ldr	r3, [r7, #24]
 2406 003e 002B     		cmp	r3, #0
 2407 0040 02D1     		bne	.L78
1430:Drivers/STM32F4xx_HAL_Driver/Src/stm32f4xx_hal_ltdc.c ****   {
1431:Drivers/STM32F4xx_HAL_Driver/Src/stm32f4xx_hal_ltdc.c ****     tmp = 4U;
 2408              		.loc 1 1431 9
 2409 0042 0423     		movs	r3, #4
 2410 0044 FB61     		str	r3, [r7, #28]
 2411 0046 16E0     		b	.L79
 2412              	.L78:
1432:Drivers/STM32F4xx_HAL_Driver/Src/stm32f4xx_hal_ltdc.c ****   }
1433:Drivers/STM32F4xx_HAL_Driver/Src/stm32f4xx_hal_ltdc.c ****   else if (pixelFormat == LTDC_PIXEL_FORMAT_RGB888)
 2413              		.loc 1 1433 11
 2414 0048 BB69     		ldr	r3, [r7, #24]
 2415 004a 012B     		cmp	r3, #1
 2416 004c 02D1     		bne	.L80
1434:Drivers/STM32F4xx_HAL_Driver/Src/stm32f4xx_hal_ltdc.c ****   {
1435:Drivers/STM32F4xx_HAL_Driver/Src/stm32f4xx_hal_ltdc.c ****     tmp = 3U;
 2417              		.loc 1 1435 9
 2418 004e 0323     		movs	r3, #3
ARM GAS  /var/folders/06/9k7gq4t13mj84z2yhw3grvhc0000gn/T//ccuiTnhW.s 			page 68


 2419 0050 FB61     		str	r3, [r7, #28]
 2420 0052 10E0     		b	.L79
 2421              	.L80:
1436:Drivers/STM32F4xx_HAL_Driver/Src/stm32f4xx_hal_ltdc.c ****   }
1437:Drivers/STM32F4xx_HAL_Driver/Src/stm32f4xx_hal_ltdc.c ****   else if ((pixelFormat == LTDC_PIXEL_FORMAT_ARGB4444) || \
 2422              		.loc 1 1437 11
 2423 0054 BB69     		ldr	r3, [r7, #24]
 2424 0056 042B     		cmp	r3, #4
 2425 0058 08D0     		beq	.L81
 2426              		.loc 1 1437 56 discriminator 1
 2427 005a BB69     		ldr	r3, [r7, #24]
 2428 005c 022B     		cmp	r3, #2
 2429 005e 05D0     		beq	.L81
1438:Drivers/STM32F4xx_HAL_Driver/Src/stm32f4xx_hal_ltdc.c ****            (pixelFormat == LTDC_PIXEL_FORMAT_RGB565)   || \
 2430              		.loc 1 1438 56
 2431 0060 BB69     		ldr	r3, [r7, #24]
 2432 0062 032B     		cmp	r3, #3
 2433 0064 02D0     		beq	.L81
1439:Drivers/STM32F4xx_HAL_Driver/Src/stm32f4xx_hal_ltdc.c ****            (pixelFormat == LTDC_PIXEL_FORMAT_ARGB1555) || \
 2434              		.loc 1 1439 56
 2435 0066 BB69     		ldr	r3, [r7, #24]
 2436 0068 072B     		cmp	r3, #7
 2437 006a 02D1     		bne	.L82
 2438              	.L81:
1440:Drivers/STM32F4xx_HAL_Driver/Src/stm32f4xx_hal_ltdc.c ****            (pixelFormat == LTDC_PIXEL_FORMAT_AL88))
1441:Drivers/STM32F4xx_HAL_Driver/Src/stm32f4xx_hal_ltdc.c ****   {
1442:Drivers/STM32F4xx_HAL_Driver/Src/stm32f4xx_hal_ltdc.c ****     tmp = 2U;
 2439              		.loc 1 1442 9
 2440 006c 0223     		movs	r3, #2
 2441 006e FB61     		str	r3, [r7, #28]
 2442 0070 01E0     		b	.L79
 2443              	.L82:
1443:Drivers/STM32F4xx_HAL_Driver/Src/stm32f4xx_hal_ltdc.c ****   }
1444:Drivers/STM32F4xx_HAL_Driver/Src/stm32f4xx_hal_ltdc.c ****   else
1445:Drivers/STM32F4xx_HAL_Driver/Src/stm32f4xx_hal_ltdc.c ****   {
1446:Drivers/STM32F4xx_HAL_Driver/Src/stm32f4xx_hal_ltdc.c ****     tmp = 1U;
 2444              		.loc 1 1446 9
 2445 0072 0123     		movs	r3, #1
 2446 0074 FB61     		str	r3, [r7, #28]
 2447              	.L79:
1447:Drivers/STM32F4xx_HAL_Driver/Src/stm32f4xx_hal_ltdc.c ****   }
1448:Drivers/STM32F4xx_HAL_Driver/Src/stm32f4xx_hal_ltdc.c **** 
1449:Drivers/STM32F4xx_HAL_Driver/Src/stm32f4xx_hal_ltdc.c ****   pitchUpdate = ((LinePitchInPixels * tmp) << 16U);
 2448              		.loc 1 1449 37
 2449 0076 BB68     		ldr	r3, [r7, #8]
 2450 0078 FA69     		ldr	r2, [r7, #28]
 2451 007a 02FB03F3 		mul	r3, r2, r3
 2452              		.loc 1 1449 15
 2453 007e 1B04     		lsls	r3, r3, #16
 2454 0080 7B61     		str	r3, [r7, #20]
1450:Drivers/STM32F4xx_HAL_Driver/Src/stm32f4xx_hal_ltdc.c **** 
1451:Drivers/STM32F4xx_HAL_Driver/Src/stm32f4xx_hal_ltdc.c ****   /* Clear previously set standard pitch */
1452:Drivers/STM32F4xx_HAL_Driver/Src/stm32f4xx_hal_ltdc.c ****   LTDC_LAYER(hltdc, LayerIdx)->CFBLR &= ~LTDC_LxCFBLR_CFBP;
 2455              		.loc 1 1452 3
 2456 0082 FB68     		ldr	r3, [r7, #12]
 2457 0084 1B68     		ldr	r3, [r3]
 2458              		.loc 1 1452 30
ARM GAS  /var/folders/06/9k7gq4t13mj84z2yhw3grvhc0000gn/T//ccuiTnhW.s 			page 69


 2459 0086 1A46     		mov	r2, r3
 2460 0088 7B68     		ldr	r3, [r7, #4]
 2461 008a DB01     		lsls	r3, r3, #7
 2462 008c 1344     		add	r3, r3, r2
 2463 008e 8433     		adds	r3, r3, #132
 2464 0090 DB6A     		ldr	r3, [r3, #44]
 2465              		.loc 1 1452 3
 2466 0092 FA68     		ldr	r2, [r7, #12]
 2467 0094 1268     		ldr	r2, [r2]
 2468              		.loc 1 1452 30
 2469 0096 1146     		mov	r1, r2
 2470 0098 7A68     		ldr	r2, [r7, #4]
 2471 009a D201     		lsls	r2, r2, #7
 2472 009c 0A44     		add	r2, r2, r1
 2473 009e 8432     		adds	r2, r2, #132
 2474              		.loc 1 1452 38
 2475 00a0 23F0FF53 		bic	r3, r3, #534773760
 2476 00a4 23F4F813 		bic	r3, r3, #2031616
 2477 00a8 D362     		str	r3, [r2, #44]
1453:Drivers/STM32F4xx_HAL_Driver/Src/stm32f4xx_hal_ltdc.c **** 
1454:Drivers/STM32F4xx_HAL_Driver/Src/stm32f4xx_hal_ltdc.c ****   /* Set the Reload type as immediate update of LTDC pitch configured above */
1455:Drivers/STM32F4xx_HAL_Driver/Src/stm32f4xx_hal_ltdc.c ****   LTDC->SRCR |= LTDC_SRCR_IMR;
 2478              		.loc 1 1455 7
 2479 00aa 174B     		ldr	r3, .L83
 2480 00ac 5B6A     		ldr	r3, [r3, #36]
 2481 00ae 164A     		ldr	r2, .L83
 2482              		.loc 1 1455 14
 2483 00b0 43F00103 		orr	r3, r3, #1
 2484 00b4 5362     		str	r3, [r2, #36]
1456:Drivers/STM32F4xx_HAL_Driver/Src/stm32f4xx_hal_ltdc.c **** 
1457:Drivers/STM32F4xx_HAL_Driver/Src/stm32f4xx_hal_ltdc.c ****   /* Set new line pitch value */
1458:Drivers/STM32F4xx_HAL_Driver/Src/stm32f4xx_hal_ltdc.c ****   LTDC_LAYER(hltdc, LayerIdx)->CFBLR |= pitchUpdate;
 2485              		.loc 1 1458 3
 2486 00b6 FB68     		ldr	r3, [r7, #12]
 2487 00b8 1B68     		ldr	r3, [r3]
 2488              		.loc 1 1458 30
 2489 00ba 1A46     		mov	r2, r3
 2490 00bc 7B68     		ldr	r3, [r7, #4]
 2491 00be DB01     		lsls	r3, r3, #7
 2492 00c0 1344     		add	r3, r3, r2
 2493 00c2 8433     		adds	r3, r3, #132
 2494 00c4 DA6A     		ldr	r2, [r3, #44]
 2495              		.loc 1 1458 3
 2496 00c6 FB68     		ldr	r3, [r7, #12]
 2497 00c8 1B68     		ldr	r3, [r3]
 2498              		.loc 1 1458 30
 2499 00ca 1946     		mov	r1, r3
 2500 00cc 7B68     		ldr	r3, [r7, #4]
 2501 00ce DB01     		lsls	r3, r3, #7
 2502 00d0 0B44     		add	r3, r3, r1
 2503 00d2 8433     		adds	r3, r3, #132
 2504 00d4 1946     		mov	r1, r3
 2505              		.loc 1 1458 38
 2506 00d6 7B69     		ldr	r3, [r7, #20]
 2507 00d8 1343     		orrs	r3, r3, r2
 2508 00da CB62     		str	r3, [r1, #44]
1459:Drivers/STM32F4xx_HAL_Driver/Src/stm32f4xx_hal_ltdc.c **** 
ARM GAS  /var/folders/06/9k7gq4t13mj84z2yhw3grvhc0000gn/T//ccuiTnhW.s 			page 70


1460:Drivers/STM32F4xx_HAL_Driver/Src/stm32f4xx_hal_ltdc.c ****   /* Set the Reload type as immediate update of LTDC pitch configured above */
1461:Drivers/STM32F4xx_HAL_Driver/Src/stm32f4xx_hal_ltdc.c ****   LTDC->SRCR |= LTDC_SRCR_IMR;
 2509              		.loc 1 1461 7
 2510 00dc 0A4B     		ldr	r3, .L83
 2511 00de 5B6A     		ldr	r3, [r3, #36]
 2512 00e0 094A     		ldr	r2, .L83
 2513              		.loc 1 1461 14
 2514 00e2 43F00103 		orr	r3, r3, #1
 2515 00e6 5362     		str	r3, [r2, #36]
1462:Drivers/STM32F4xx_HAL_Driver/Src/stm32f4xx_hal_ltdc.c **** 
1463:Drivers/STM32F4xx_HAL_Driver/Src/stm32f4xx_hal_ltdc.c ****   /* Change the LTDC state*/
1464:Drivers/STM32F4xx_HAL_Driver/Src/stm32f4xx_hal_ltdc.c ****   hltdc->State = HAL_LTDC_STATE_READY;
 2516              		.loc 1 1464 16
 2517 00e8 FB68     		ldr	r3, [r7, #12]
 2518 00ea 0122     		movs	r2, #1
 2519 00ec 83F8A120 		strb	r2, [r3, #161]
1465:Drivers/STM32F4xx_HAL_Driver/Src/stm32f4xx_hal_ltdc.c **** 
1466:Drivers/STM32F4xx_HAL_Driver/Src/stm32f4xx_hal_ltdc.c ****   /* Process unlocked */
1467:Drivers/STM32F4xx_HAL_Driver/Src/stm32f4xx_hal_ltdc.c ****   __HAL_UNLOCK(hltdc);
 2520              		.loc 1 1467 3
 2521 00f0 FB68     		ldr	r3, [r7, #12]
 2522 00f2 0022     		movs	r2, #0
 2523 00f4 83F8A020 		strb	r2, [r3, #160]
1468:Drivers/STM32F4xx_HAL_Driver/Src/stm32f4xx_hal_ltdc.c **** 
1469:Drivers/STM32F4xx_HAL_Driver/Src/stm32f4xx_hal_ltdc.c ****   return HAL_OK;
 2524              		.loc 1 1469 10
 2525 00f8 0023     		movs	r3, #0
 2526              	.L77:
1470:Drivers/STM32F4xx_HAL_Driver/Src/stm32f4xx_hal_ltdc.c **** }
 2527              		.loc 1 1470 1
 2528 00fa 1846     		mov	r0, r3
 2529 00fc 2437     		adds	r7, r7, #36
 2530              	.LCFI126:
 2531              		.cfi_def_cfa_offset 4
 2532 00fe BD46     		mov	sp, r7
 2533              	.LCFI127:
 2534              		.cfi_def_cfa_register 13
 2535              		@ sp needed
 2536 0100 5DF8047B 		ldr	r7, [sp], #4
 2537              	.LCFI128:
 2538              		.cfi_restore 7
 2539              		.cfi_def_cfa_offset 0
 2540 0104 7047     		bx	lr
 2541              	.L84:
 2542 0106 00BF     		.align	2
 2543              	.L83:
 2544 0108 00680140 		.word	1073833984
 2545              		.cfi_endproc
 2546              	.LFE156:
 2548              		.section	.text.HAL_LTDC_ProgramLineEvent,"ax",%progbits
 2549              		.align	1
 2550              		.global	HAL_LTDC_ProgramLineEvent
 2551              		.syntax unified
 2552              		.thumb
 2553              		.thumb_func
 2555              	HAL_LTDC_ProgramLineEvent:
 2556              	.LFB157:
ARM GAS  /var/folders/06/9k7gq4t13mj84z2yhw3grvhc0000gn/T//ccuiTnhW.s 			page 71


1471:Drivers/STM32F4xx_HAL_Driver/Src/stm32f4xx_hal_ltdc.c **** 
1472:Drivers/STM32F4xx_HAL_Driver/Src/stm32f4xx_hal_ltdc.c **** /**
1473:Drivers/STM32F4xx_HAL_Driver/Src/stm32f4xx_hal_ltdc.c ****   * @brief  Define the position of the line interrupt.
1474:Drivers/STM32F4xx_HAL_Driver/Src/stm32f4xx_hal_ltdc.c ****   * @param  hltdc   pointer to a LTDC_HandleTypeDef structure that contains
1475:Drivers/STM32F4xx_HAL_Driver/Src/stm32f4xx_hal_ltdc.c ****   *                 the configuration information for the LTDC.
1476:Drivers/STM32F4xx_HAL_Driver/Src/stm32f4xx_hal_ltdc.c ****   * @param  Line    Line Interrupt Position.
1477:Drivers/STM32F4xx_HAL_Driver/Src/stm32f4xx_hal_ltdc.c ****   * @note   User application may resort to HAL_LTDC_LineEventCallback() at line interrupt generatio
1478:Drivers/STM32F4xx_HAL_Driver/Src/stm32f4xx_hal_ltdc.c ****   * @retval  HAL status
1479:Drivers/STM32F4xx_HAL_Driver/Src/stm32f4xx_hal_ltdc.c ****   */
1480:Drivers/STM32F4xx_HAL_Driver/Src/stm32f4xx_hal_ltdc.c **** HAL_StatusTypeDef HAL_LTDC_ProgramLineEvent(LTDC_HandleTypeDef *hltdc, uint32_t Line)
1481:Drivers/STM32F4xx_HAL_Driver/Src/stm32f4xx_hal_ltdc.c **** {
 2557              		.loc 1 1481 1
 2558              		.cfi_startproc
 2559              		@ args = 0, pretend = 0, frame = 8
 2560              		@ frame_needed = 1, uses_anonymous_args = 0
 2561              		@ link register save eliminated.
 2562 0000 80B4     		push	{r7}
 2563              	.LCFI129:
 2564              		.cfi_def_cfa_offset 4
 2565              		.cfi_offset 7, -4
 2566 0002 83B0     		sub	sp, sp, #12
 2567              	.LCFI130:
 2568              		.cfi_def_cfa_offset 16
 2569 0004 00AF     		add	r7, sp, #0
 2570              	.LCFI131:
 2571              		.cfi_def_cfa_register 7
 2572 0006 7860     		str	r0, [r7, #4]
 2573 0008 3960     		str	r1, [r7]
1482:Drivers/STM32F4xx_HAL_Driver/Src/stm32f4xx_hal_ltdc.c ****   /* Check the parameters */
1483:Drivers/STM32F4xx_HAL_Driver/Src/stm32f4xx_hal_ltdc.c ****   assert_param(IS_LTDC_LIPOS(Line));
1484:Drivers/STM32F4xx_HAL_Driver/Src/stm32f4xx_hal_ltdc.c **** 
1485:Drivers/STM32F4xx_HAL_Driver/Src/stm32f4xx_hal_ltdc.c ****   /* Process locked */
1486:Drivers/STM32F4xx_HAL_Driver/Src/stm32f4xx_hal_ltdc.c ****   __HAL_LOCK(hltdc);
 2574              		.loc 1 1486 3
 2575 000a 7B68     		ldr	r3, [r7, #4]
 2576 000c 93F8A030 		ldrb	r3, [r3, #160]	@ zero_extendqisi2
 2577 0010 012B     		cmp	r3, #1
 2578 0012 01D1     		bne	.L86
 2579              		.loc 1 1486 3 is_stmt 0 discriminator 1
 2580 0014 0223     		movs	r3, #2
 2581              		.loc 1 1486 3
 2582 0016 23E0     		b	.L87
 2583              	.L86:
 2584              		.loc 1 1486 3 discriminator 2
 2585 0018 7B68     		ldr	r3, [r7, #4]
 2586 001a 0122     		movs	r2, #1
 2587 001c 83F8A020 		strb	r2, [r3, #160]
1487:Drivers/STM32F4xx_HAL_Driver/Src/stm32f4xx_hal_ltdc.c **** 
1488:Drivers/STM32F4xx_HAL_Driver/Src/stm32f4xx_hal_ltdc.c ****   /* Change LTDC peripheral state */
1489:Drivers/STM32F4xx_HAL_Driver/Src/stm32f4xx_hal_ltdc.c ****   hltdc->State = HAL_LTDC_STATE_BUSY;
 2588              		.loc 1 1489 16 is_stmt 1
 2589 0020 7B68     		ldr	r3, [r7, #4]
 2590 0022 0222     		movs	r2, #2
 2591 0024 83F8A120 		strb	r2, [r3, #161]
1490:Drivers/STM32F4xx_HAL_Driver/Src/stm32f4xx_hal_ltdc.c **** 
1491:Drivers/STM32F4xx_HAL_Driver/Src/stm32f4xx_hal_ltdc.c ****   /* Disable the Line interrupt */
1492:Drivers/STM32F4xx_HAL_Driver/Src/stm32f4xx_hal_ltdc.c ****   __HAL_LTDC_DISABLE_IT(hltdc, LTDC_IT_LI);
ARM GAS  /var/folders/06/9k7gq4t13mj84z2yhw3grvhc0000gn/T//ccuiTnhW.s 			page 72


 2592              		.loc 1 1492 3
 2593 0028 7B68     		ldr	r3, [r7, #4]
 2594 002a 1B68     		ldr	r3, [r3]
 2595 002c 5A6B     		ldr	r2, [r3, #52]
 2596 002e 7B68     		ldr	r3, [r7, #4]
 2597 0030 1B68     		ldr	r3, [r3]
 2598 0032 22F00102 		bic	r2, r2, #1
 2599 0036 5A63     		str	r2, [r3, #52]
1493:Drivers/STM32F4xx_HAL_Driver/Src/stm32f4xx_hal_ltdc.c **** 
1494:Drivers/STM32F4xx_HAL_Driver/Src/stm32f4xx_hal_ltdc.c ****   /* Set the Line Interrupt position */
1495:Drivers/STM32F4xx_HAL_Driver/Src/stm32f4xx_hal_ltdc.c ****   LTDC->LIPCR = (uint32_t)Line;
 2600              		.loc 1 1495 7
 2601 0038 0C4A     		ldr	r2, .L88
 2602              		.loc 1 1495 15
 2603 003a 3B68     		ldr	r3, [r7]
 2604 003c 1364     		str	r3, [r2, #64]
1496:Drivers/STM32F4xx_HAL_Driver/Src/stm32f4xx_hal_ltdc.c **** 
1497:Drivers/STM32F4xx_HAL_Driver/Src/stm32f4xx_hal_ltdc.c ****   /* Enable the Line interrupt */
1498:Drivers/STM32F4xx_HAL_Driver/Src/stm32f4xx_hal_ltdc.c ****   __HAL_LTDC_ENABLE_IT(hltdc, LTDC_IT_LI);
 2605              		.loc 1 1498 3
 2606 003e 7B68     		ldr	r3, [r7, #4]
 2607 0040 1B68     		ldr	r3, [r3]
 2608 0042 5A6B     		ldr	r2, [r3, #52]
 2609 0044 7B68     		ldr	r3, [r7, #4]
 2610 0046 1B68     		ldr	r3, [r3]
 2611 0048 42F00102 		orr	r2, r2, #1
 2612 004c 5A63     		str	r2, [r3, #52]
1499:Drivers/STM32F4xx_HAL_Driver/Src/stm32f4xx_hal_ltdc.c **** 
1500:Drivers/STM32F4xx_HAL_Driver/Src/stm32f4xx_hal_ltdc.c ****   /* Change the LTDC state*/
1501:Drivers/STM32F4xx_HAL_Driver/Src/stm32f4xx_hal_ltdc.c ****   hltdc->State = HAL_LTDC_STATE_READY;
 2613              		.loc 1 1501 16
 2614 004e 7B68     		ldr	r3, [r7, #4]
 2615 0050 0122     		movs	r2, #1
 2616 0052 83F8A120 		strb	r2, [r3, #161]
1502:Drivers/STM32F4xx_HAL_Driver/Src/stm32f4xx_hal_ltdc.c **** 
1503:Drivers/STM32F4xx_HAL_Driver/Src/stm32f4xx_hal_ltdc.c ****   /* Process unlocked */
1504:Drivers/STM32F4xx_HAL_Driver/Src/stm32f4xx_hal_ltdc.c ****   __HAL_UNLOCK(hltdc);
 2617              		.loc 1 1504 3
 2618 0056 7B68     		ldr	r3, [r7, #4]
 2619 0058 0022     		movs	r2, #0
 2620 005a 83F8A020 		strb	r2, [r3, #160]
1505:Drivers/STM32F4xx_HAL_Driver/Src/stm32f4xx_hal_ltdc.c **** 
1506:Drivers/STM32F4xx_HAL_Driver/Src/stm32f4xx_hal_ltdc.c ****   return HAL_OK;
 2621              		.loc 1 1506 10
 2622 005e 0023     		movs	r3, #0
 2623              	.L87:
1507:Drivers/STM32F4xx_HAL_Driver/Src/stm32f4xx_hal_ltdc.c **** }
 2624              		.loc 1 1507 1
 2625 0060 1846     		mov	r0, r3
 2626 0062 0C37     		adds	r7, r7, #12
 2627              	.LCFI132:
 2628              		.cfi_def_cfa_offset 4
 2629 0064 BD46     		mov	sp, r7
 2630              	.LCFI133:
 2631              		.cfi_def_cfa_register 13
 2632              		@ sp needed
 2633 0066 5DF8047B 		ldr	r7, [sp], #4
ARM GAS  /var/folders/06/9k7gq4t13mj84z2yhw3grvhc0000gn/T//ccuiTnhW.s 			page 73


 2634              	.LCFI134:
 2635              		.cfi_restore 7
 2636              		.cfi_def_cfa_offset 0
 2637 006a 7047     		bx	lr
 2638              	.L89:
 2639              		.align	2
 2640              	.L88:
 2641 006c 00680140 		.word	1073833984
 2642              		.cfi_endproc
 2643              	.LFE157:
 2645              		.section	.text.HAL_LTDC_Reload,"ax",%progbits
 2646              		.align	1
 2647              		.global	HAL_LTDC_Reload
 2648              		.syntax unified
 2649              		.thumb
 2650              		.thumb_func
 2652              	HAL_LTDC_Reload:
 2653              	.LFB158:
1508:Drivers/STM32F4xx_HAL_Driver/Src/stm32f4xx_hal_ltdc.c **** 
1509:Drivers/STM32F4xx_HAL_Driver/Src/stm32f4xx_hal_ltdc.c **** /**
1510:Drivers/STM32F4xx_HAL_Driver/Src/stm32f4xx_hal_ltdc.c ****   * @brief  Reload LTDC Layers configuration.
1511:Drivers/STM32F4xx_HAL_Driver/Src/stm32f4xx_hal_ltdc.c ****   * @param  hltdc      pointer to a LTDC_HandleTypeDef structure that contains
1512:Drivers/STM32F4xx_HAL_Driver/Src/stm32f4xx_hal_ltdc.c ****   *                    the configuration information for the LTDC.
1513:Drivers/STM32F4xx_HAL_Driver/Src/stm32f4xx_hal_ltdc.c ****   * @param  ReloadType This parameter can be one of the following values :
1514:Drivers/STM32F4xx_HAL_Driver/Src/stm32f4xx_hal_ltdc.c ****   *                      LTDC_RELOAD_IMMEDIATE : Immediate Reload
1515:Drivers/STM32F4xx_HAL_Driver/Src/stm32f4xx_hal_ltdc.c ****   *                      LTDC_RELOAD_VERTICAL_BLANKING  : Reload in the next Vertical Blanking
1516:Drivers/STM32F4xx_HAL_Driver/Src/stm32f4xx_hal_ltdc.c ****   * @note   User application may resort to HAL_LTDC_ReloadEventCallback() at reload interrupt gener
1517:Drivers/STM32F4xx_HAL_Driver/Src/stm32f4xx_hal_ltdc.c ****   * @retval  HAL status
1518:Drivers/STM32F4xx_HAL_Driver/Src/stm32f4xx_hal_ltdc.c ****   */
1519:Drivers/STM32F4xx_HAL_Driver/Src/stm32f4xx_hal_ltdc.c **** HAL_StatusTypeDef  HAL_LTDC_Reload(LTDC_HandleTypeDef *hltdc, uint32_t ReloadType)
1520:Drivers/STM32F4xx_HAL_Driver/Src/stm32f4xx_hal_ltdc.c **** {
 2654              		.loc 1 1520 1
 2655              		.cfi_startproc
 2656              		@ args = 0, pretend = 0, frame = 8
 2657              		@ frame_needed = 1, uses_anonymous_args = 0
 2658              		@ link register save eliminated.
 2659 0000 80B4     		push	{r7}
 2660              	.LCFI135:
 2661              		.cfi_def_cfa_offset 4
 2662              		.cfi_offset 7, -4
 2663 0002 83B0     		sub	sp, sp, #12
 2664              	.LCFI136:
 2665              		.cfi_def_cfa_offset 16
 2666 0004 00AF     		add	r7, sp, #0
 2667              	.LCFI137:
 2668              		.cfi_def_cfa_register 7
 2669 0006 7860     		str	r0, [r7, #4]
 2670 0008 3960     		str	r1, [r7]
1521:Drivers/STM32F4xx_HAL_Driver/Src/stm32f4xx_hal_ltdc.c ****   /* Check the parameters */
1522:Drivers/STM32F4xx_HAL_Driver/Src/stm32f4xx_hal_ltdc.c ****   assert_param(IS_LTDC_RELOAD(ReloadType));
1523:Drivers/STM32F4xx_HAL_Driver/Src/stm32f4xx_hal_ltdc.c **** 
1524:Drivers/STM32F4xx_HAL_Driver/Src/stm32f4xx_hal_ltdc.c ****   /* Process locked */
1525:Drivers/STM32F4xx_HAL_Driver/Src/stm32f4xx_hal_ltdc.c ****   __HAL_LOCK(hltdc);
 2671              		.loc 1 1525 3
 2672 000a 7B68     		ldr	r3, [r7, #4]
 2673 000c 93F8A030 		ldrb	r3, [r3, #160]	@ zero_extendqisi2
 2674 0010 012B     		cmp	r3, #1
ARM GAS  /var/folders/06/9k7gq4t13mj84z2yhw3grvhc0000gn/T//ccuiTnhW.s 			page 74


 2675 0012 01D1     		bne	.L91
 2676              		.loc 1 1525 3 is_stmt 0 discriminator 1
 2677 0014 0223     		movs	r3, #2
 2678              		.loc 1 1525 3
 2679 0016 1CE0     		b	.L92
 2680              	.L91:
 2681              		.loc 1 1525 3 discriminator 2
 2682 0018 7B68     		ldr	r3, [r7, #4]
 2683 001a 0122     		movs	r2, #1
 2684 001c 83F8A020 		strb	r2, [r3, #160]
1526:Drivers/STM32F4xx_HAL_Driver/Src/stm32f4xx_hal_ltdc.c **** 
1527:Drivers/STM32F4xx_HAL_Driver/Src/stm32f4xx_hal_ltdc.c ****   /* Change LTDC peripheral state */
1528:Drivers/STM32F4xx_HAL_Driver/Src/stm32f4xx_hal_ltdc.c ****   hltdc->State = HAL_LTDC_STATE_BUSY;
 2685              		.loc 1 1528 16 is_stmt 1
 2686 0020 7B68     		ldr	r3, [r7, #4]
 2687 0022 0222     		movs	r2, #2
 2688 0024 83F8A120 		strb	r2, [r3, #161]
1529:Drivers/STM32F4xx_HAL_Driver/Src/stm32f4xx_hal_ltdc.c **** 
1530:Drivers/STM32F4xx_HAL_Driver/Src/stm32f4xx_hal_ltdc.c ****   /* Enable the Reload interrupt */
1531:Drivers/STM32F4xx_HAL_Driver/Src/stm32f4xx_hal_ltdc.c ****   __HAL_LTDC_ENABLE_IT(hltdc, LTDC_IT_RR);
 2689              		.loc 1 1531 3
 2690 0028 7B68     		ldr	r3, [r7, #4]
 2691 002a 1B68     		ldr	r3, [r3]
 2692 002c 5A6B     		ldr	r2, [r3, #52]
 2693 002e 7B68     		ldr	r3, [r7, #4]
 2694 0030 1B68     		ldr	r3, [r3]
 2695 0032 42F00802 		orr	r2, r2, #8
 2696 0036 5A63     		str	r2, [r3, #52]
1532:Drivers/STM32F4xx_HAL_Driver/Src/stm32f4xx_hal_ltdc.c **** 
1533:Drivers/STM32F4xx_HAL_Driver/Src/stm32f4xx_hal_ltdc.c ****   /* Apply Reload type */
1534:Drivers/STM32F4xx_HAL_Driver/Src/stm32f4xx_hal_ltdc.c ****   hltdc->Instance->SRCR = ReloadType;
 2697              		.loc 1 1534 8
 2698 0038 7B68     		ldr	r3, [r7, #4]
 2699 003a 1B68     		ldr	r3, [r3]
 2700              		.loc 1 1534 25
 2701 003c 3A68     		ldr	r2, [r7]
 2702 003e 5A62     		str	r2, [r3, #36]
1535:Drivers/STM32F4xx_HAL_Driver/Src/stm32f4xx_hal_ltdc.c **** 
1536:Drivers/STM32F4xx_HAL_Driver/Src/stm32f4xx_hal_ltdc.c ****   /* Change the LTDC state*/
1537:Drivers/STM32F4xx_HAL_Driver/Src/stm32f4xx_hal_ltdc.c ****   hltdc->State = HAL_LTDC_STATE_READY;
 2703              		.loc 1 1537 16
 2704 0040 7B68     		ldr	r3, [r7, #4]
 2705 0042 0122     		movs	r2, #1
 2706 0044 83F8A120 		strb	r2, [r3, #161]
1538:Drivers/STM32F4xx_HAL_Driver/Src/stm32f4xx_hal_ltdc.c **** 
1539:Drivers/STM32F4xx_HAL_Driver/Src/stm32f4xx_hal_ltdc.c ****   /* Process unlocked */
1540:Drivers/STM32F4xx_HAL_Driver/Src/stm32f4xx_hal_ltdc.c ****   __HAL_UNLOCK(hltdc);
 2707              		.loc 1 1540 3
 2708 0048 7B68     		ldr	r3, [r7, #4]
 2709 004a 0022     		movs	r2, #0
 2710 004c 83F8A020 		strb	r2, [r3, #160]
1541:Drivers/STM32F4xx_HAL_Driver/Src/stm32f4xx_hal_ltdc.c **** 
1542:Drivers/STM32F4xx_HAL_Driver/Src/stm32f4xx_hal_ltdc.c ****   return HAL_OK;
 2711              		.loc 1 1542 10
 2712 0050 0023     		movs	r3, #0
 2713              	.L92:
1543:Drivers/STM32F4xx_HAL_Driver/Src/stm32f4xx_hal_ltdc.c **** }
ARM GAS  /var/folders/06/9k7gq4t13mj84z2yhw3grvhc0000gn/T//ccuiTnhW.s 			page 75


 2714              		.loc 1 1543 1
 2715 0052 1846     		mov	r0, r3
 2716 0054 0C37     		adds	r7, r7, #12
 2717              	.LCFI138:
 2718              		.cfi_def_cfa_offset 4
 2719 0056 BD46     		mov	sp, r7
 2720              	.LCFI139:
 2721              		.cfi_def_cfa_register 13
 2722              		@ sp needed
 2723 0058 5DF8047B 		ldr	r7, [sp], #4
 2724              	.LCFI140:
 2725              		.cfi_restore 7
 2726              		.cfi_def_cfa_offset 0
 2727 005c 7047     		bx	lr
 2728              		.cfi_endproc
 2729              	.LFE158:
 2731              		.section	.text.HAL_LTDC_ConfigLayer_NoReload,"ax",%progbits
 2732              		.align	1
 2733              		.global	HAL_LTDC_ConfigLayer_NoReload
 2734              		.syntax unified
 2735              		.thumb
 2736              		.thumb_func
 2738              	HAL_LTDC_ConfigLayer_NoReload:
 2739              	.LFB159:
1544:Drivers/STM32F4xx_HAL_Driver/Src/stm32f4xx_hal_ltdc.c **** 
1545:Drivers/STM32F4xx_HAL_Driver/Src/stm32f4xx_hal_ltdc.c **** /**
1546:Drivers/STM32F4xx_HAL_Driver/Src/stm32f4xx_hal_ltdc.c ****   * @brief  Configure the LTDC Layer according to the specified without reloading
1547:Drivers/STM32F4xx_HAL_Driver/Src/stm32f4xx_hal_ltdc.c ****   *         parameters in the LTDC_InitTypeDef and create the associated handle.
1548:Drivers/STM32F4xx_HAL_Driver/Src/stm32f4xx_hal_ltdc.c ****   *         Variant of the function HAL_LTDC_ConfigLayer without immediate reload.
1549:Drivers/STM32F4xx_HAL_Driver/Src/stm32f4xx_hal_ltdc.c ****   * @param  hltdc      pointer to a LTDC_HandleTypeDef structure that contains
1550:Drivers/STM32F4xx_HAL_Driver/Src/stm32f4xx_hal_ltdc.c ****   *                    the configuration information for the LTDC.
1551:Drivers/STM32F4xx_HAL_Driver/Src/stm32f4xx_hal_ltdc.c ****   * @param  pLayerCfg  pointer to a LTDC_LayerCfgTypeDef structure that contains
1552:Drivers/STM32F4xx_HAL_Driver/Src/stm32f4xx_hal_ltdc.c ****   *                    the configuration information for the Layer.
1553:Drivers/STM32F4xx_HAL_Driver/Src/stm32f4xx_hal_ltdc.c ****   * @param  LayerIdx   LTDC Layer index.
1554:Drivers/STM32F4xx_HAL_Driver/Src/stm32f4xx_hal_ltdc.c ****   *                    This parameter can be one of the following values:
1555:Drivers/STM32F4xx_HAL_Driver/Src/stm32f4xx_hal_ltdc.c ****   *                    LTDC_LAYER_1 (0) or LTDC_LAYER_2 (1)
1556:Drivers/STM32F4xx_HAL_Driver/Src/stm32f4xx_hal_ltdc.c ****   * @retval HAL status
1557:Drivers/STM32F4xx_HAL_Driver/Src/stm32f4xx_hal_ltdc.c ****   */
1558:Drivers/STM32F4xx_HAL_Driver/Src/stm32f4xx_hal_ltdc.c **** HAL_StatusTypeDef HAL_LTDC_ConfigLayer_NoReload(LTDC_HandleTypeDef *hltdc, LTDC_LayerCfgTypeDef *pL
1559:Drivers/STM32F4xx_HAL_Driver/Src/stm32f4xx_hal_ltdc.c ****                                                 uint32_t LayerIdx)
1560:Drivers/STM32F4xx_HAL_Driver/Src/stm32f4xx_hal_ltdc.c **** {
 2740              		.loc 1 1560 1
 2741              		.cfi_startproc
 2742              		@ args = 0, pretend = 0, frame = 16
 2743              		@ frame_needed = 1, uses_anonymous_args = 0
 2744 0000 B0B5     		push	{r4, r5, r7, lr}
 2745              	.LCFI141:
 2746              		.cfi_def_cfa_offset 16
 2747              		.cfi_offset 4, -16
 2748              		.cfi_offset 5, -12
 2749              		.cfi_offset 7, -8
 2750              		.cfi_offset 14, -4
 2751 0002 84B0     		sub	sp, sp, #16
 2752              	.LCFI142:
 2753              		.cfi_def_cfa_offset 32
 2754 0004 00AF     		add	r7, sp, #0
 2755              	.LCFI143:
ARM GAS  /var/folders/06/9k7gq4t13mj84z2yhw3grvhc0000gn/T//ccuiTnhW.s 			page 76


 2756              		.cfi_def_cfa_register 7
 2757 0006 F860     		str	r0, [r7, #12]
 2758 0008 B960     		str	r1, [r7, #8]
 2759 000a 7A60     		str	r2, [r7, #4]
1561:Drivers/STM32F4xx_HAL_Driver/Src/stm32f4xx_hal_ltdc.c ****   /* Check the parameters */
1562:Drivers/STM32F4xx_HAL_Driver/Src/stm32f4xx_hal_ltdc.c ****   assert_param(IS_LTDC_LAYER(LayerIdx));
1563:Drivers/STM32F4xx_HAL_Driver/Src/stm32f4xx_hal_ltdc.c ****   assert_param(IS_LTDC_HCONFIGST(pLayerCfg->WindowX0));
1564:Drivers/STM32F4xx_HAL_Driver/Src/stm32f4xx_hal_ltdc.c ****   assert_param(IS_LTDC_HCONFIGSP(pLayerCfg->WindowX1));
1565:Drivers/STM32F4xx_HAL_Driver/Src/stm32f4xx_hal_ltdc.c ****   assert_param(IS_LTDC_VCONFIGST(pLayerCfg->WindowY0));
1566:Drivers/STM32F4xx_HAL_Driver/Src/stm32f4xx_hal_ltdc.c ****   assert_param(IS_LTDC_VCONFIGSP(pLayerCfg->WindowY1));
1567:Drivers/STM32F4xx_HAL_Driver/Src/stm32f4xx_hal_ltdc.c ****   assert_param(IS_LTDC_PIXEL_FORMAT(pLayerCfg->PixelFormat));
1568:Drivers/STM32F4xx_HAL_Driver/Src/stm32f4xx_hal_ltdc.c ****   assert_param(IS_LTDC_ALPHA(pLayerCfg->Alpha));
1569:Drivers/STM32F4xx_HAL_Driver/Src/stm32f4xx_hal_ltdc.c ****   assert_param(IS_LTDC_ALPHA(pLayerCfg->Alpha0));
1570:Drivers/STM32F4xx_HAL_Driver/Src/stm32f4xx_hal_ltdc.c ****   assert_param(IS_LTDC_BLENDING_FACTOR1(pLayerCfg->BlendingFactor1));
1571:Drivers/STM32F4xx_HAL_Driver/Src/stm32f4xx_hal_ltdc.c ****   assert_param(IS_LTDC_BLENDING_FACTOR2(pLayerCfg->BlendingFactor2));
1572:Drivers/STM32F4xx_HAL_Driver/Src/stm32f4xx_hal_ltdc.c ****   assert_param(IS_LTDC_CFBLL(pLayerCfg->ImageWidth));
1573:Drivers/STM32F4xx_HAL_Driver/Src/stm32f4xx_hal_ltdc.c ****   assert_param(IS_LTDC_CFBLNBR(pLayerCfg->ImageHeight));
1574:Drivers/STM32F4xx_HAL_Driver/Src/stm32f4xx_hal_ltdc.c **** 
1575:Drivers/STM32F4xx_HAL_Driver/Src/stm32f4xx_hal_ltdc.c ****   /* Process locked */
1576:Drivers/STM32F4xx_HAL_Driver/Src/stm32f4xx_hal_ltdc.c ****   __HAL_LOCK(hltdc);
 2760              		.loc 1 1576 3
 2761 000c FB68     		ldr	r3, [r7, #12]
 2762 000e 93F8A030 		ldrb	r3, [r3, #160]	@ zero_extendqisi2
 2763 0012 012B     		cmp	r3, #1
 2764 0014 01D1     		bne	.L94
 2765              		.loc 1 1576 3 is_stmt 0 discriminator 1
 2766 0016 0223     		movs	r3, #2
 2767              		.loc 1 1576 3
 2768 0018 28E0     		b	.L95
 2769              	.L94:
 2770              		.loc 1 1576 3 discriminator 2
 2771 001a FB68     		ldr	r3, [r7, #12]
 2772 001c 0122     		movs	r2, #1
 2773 001e 83F8A020 		strb	r2, [r3, #160]
1577:Drivers/STM32F4xx_HAL_Driver/Src/stm32f4xx_hal_ltdc.c **** 
1578:Drivers/STM32F4xx_HAL_Driver/Src/stm32f4xx_hal_ltdc.c ****   /* Change LTDC peripheral state */
1579:Drivers/STM32F4xx_HAL_Driver/Src/stm32f4xx_hal_ltdc.c ****   hltdc->State = HAL_LTDC_STATE_BUSY;
 2774              		.loc 1 1579 16 is_stmt 1
 2775 0022 FB68     		ldr	r3, [r7, #12]
 2776 0024 0222     		movs	r2, #2
 2777 0026 83F8A120 		strb	r2, [r3, #161]
1580:Drivers/STM32F4xx_HAL_Driver/Src/stm32f4xx_hal_ltdc.c **** 
1581:Drivers/STM32F4xx_HAL_Driver/Src/stm32f4xx_hal_ltdc.c ****   /* Copy new layer configuration into handle structure */
1582:Drivers/STM32F4xx_HAL_Driver/Src/stm32f4xx_hal_ltdc.c ****   hltdc->LayerCfg[LayerIdx] = *pLayerCfg;
 2778              		.loc 1 1582 29
 2779 002a FA68     		ldr	r2, [r7, #12]
 2780 002c 7B68     		ldr	r3, [r7, #4]
 2781 002e 3421     		movs	r1, #52
 2782 0030 01FB03F3 		mul	r3, r1, r3
 2783 0034 1344     		add	r3, r3, r2
 2784 0036 03F13802 		add	r2, r3, #56
 2785 003a BB68     		ldr	r3, [r7, #8]
 2786 003c 1446     		mov	r4, r2
 2787 003e 1D46     		mov	r5, r3
 2788 0040 0FCD     		ldmia	r5!, {r0, r1, r2, r3}
 2789 0042 0FC4     		stmia	r4!, {r0, r1, r2, r3}
 2790 0044 0FCD     		ldmia	r5!, {r0, r1, r2, r3}
ARM GAS  /var/folders/06/9k7gq4t13mj84z2yhw3grvhc0000gn/T//ccuiTnhW.s 			page 77


 2791 0046 0FC4     		stmia	r4!, {r0, r1, r2, r3}
 2792 0048 0FCD     		ldmia	r5!, {r0, r1, r2, r3}
 2793 004a 0FC4     		stmia	r4!, {r0, r1, r2, r3}
 2794 004c 2B68     		ldr	r3, [r5]
 2795 004e 2360     		str	r3, [r4]
1583:Drivers/STM32F4xx_HAL_Driver/Src/stm32f4xx_hal_ltdc.c **** 
1584:Drivers/STM32F4xx_HAL_Driver/Src/stm32f4xx_hal_ltdc.c ****   /* Configure the LTDC Layer */
1585:Drivers/STM32F4xx_HAL_Driver/Src/stm32f4xx_hal_ltdc.c ****   LTDC_SetConfig(hltdc, pLayerCfg, LayerIdx);
 2796              		.loc 1 1585 3
 2797 0050 7A68     		ldr	r2, [r7, #4]
 2798 0052 B968     		ldr	r1, [r7, #8]
 2799 0054 F868     		ldr	r0, [r7, #12]
 2800 0056 FFF7FEFF 		bl	LTDC_SetConfig
1586:Drivers/STM32F4xx_HAL_Driver/Src/stm32f4xx_hal_ltdc.c **** 
1587:Drivers/STM32F4xx_HAL_Driver/Src/stm32f4xx_hal_ltdc.c ****   /* Initialize the LTDC state*/
1588:Drivers/STM32F4xx_HAL_Driver/Src/stm32f4xx_hal_ltdc.c ****   hltdc->State  = HAL_LTDC_STATE_READY;
 2801              		.loc 1 1588 17
 2802 005a FB68     		ldr	r3, [r7, #12]
 2803 005c 0122     		movs	r2, #1
 2804 005e 83F8A120 		strb	r2, [r3, #161]
1589:Drivers/STM32F4xx_HAL_Driver/Src/stm32f4xx_hal_ltdc.c **** 
1590:Drivers/STM32F4xx_HAL_Driver/Src/stm32f4xx_hal_ltdc.c ****   /* Process unlocked */
1591:Drivers/STM32F4xx_HAL_Driver/Src/stm32f4xx_hal_ltdc.c ****   __HAL_UNLOCK(hltdc);
 2805              		.loc 1 1591 3
 2806 0062 FB68     		ldr	r3, [r7, #12]
 2807 0064 0022     		movs	r2, #0
 2808 0066 83F8A020 		strb	r2, [r3, #160]
1592:Drivers/STM32F4xx_HAL_Driver/Src/stm32f4xx_hal_ltdc.c **** 
1593:Drivers/STM32F4xx_HAL_Driver/Src/stm32f4xx_hal_ltdc.c ****   return HAL_OK;
 2809              		.loc 1 1593 10
 2810 006a 0023     		movs	r3, #0
 2811              	.L95:
1594:Drivers/STM32F4xx_HAL_Driver/Src/stm32f4xx_hal_ltdc.c **** }
 2812              		.loc 1 1594 1
 2813 006c 1846     		mov	r0, r3
 2814 006e 1037     		adds	r7, r7, #16
 2815              	.LCFI144:
 2816              		.cfi_def_cfa_offset 16
 2817 0070 BD46     		mov	sp, r7
 2818              	.LCFI145:
 2819              		.cfi_def_cfa_register 13
 2820              		@ sp needed
 2821 0072 B0BD     		pop	{r4, r5, r7, pc}
 2822              		.cfi_endproc
 2823              	.LFE159:
 2825              		.section	.text.HAL_LTDC_SetWindowSize_NoReload,"ax",%progbits
 2826              		.align	1
 2827              		.global	HAL_LTDC_SetWindowSize_NoReload
 2828              		.syntax unified
 2829              		.thumb
 2830              		.thumb_func
 2832              	HAL_LTDC_SetWindowSize_NoReload:
 2833              	.LFB160:
1595:Drivers/STM32F4xx_HAL_Driver/Src/stm32f4xx_hal_ltdc.c **** 
1596:Drivers/STM32F4xx_HAL_Driver/Src/stm32f4xx_hal_ltdc.c **** /**
1597:Drivers/STM32F4xx_HAL_Driver/Src/stm32f4xx_hal_ltdc.c ****   * @brief  Set the LTDC window size without reloading.
1598:Drivers/STM32F4xx_HAL_Driver/Src/stm32f4xx_hal_ltdc.c ****   *         Variant of the function HAL_LTDC_SetWindowSize without immediate reload.
ARM GAS  /var/folders/06/9k7gq4t13mj84z2yhw3grvhc0000gn/T//ccuiTnhW.s 			page 78


1599:Drivers/STM32F4xx_HAL_Driver/Src/stm32f4xx_hal_ltdc.c ****   * @param  hltdc     pointer to a LTDC_HandleTypeDef structure that contains
1600:Drivers/STM32F4xx_HAL_Driver/Src/stm32f4xx_hal_ltdc.c ****   *                   the configuration information for the LTDC.
1601:Drivers/STM32F4xx_HAL_Driver/Src/stm32f4xx_hal_ltdc.c ****   * @param  XSize     LTDC Pixel per line
1602:Drivers/STM32F4xx_HAL_Driver/Src/stm32f4xx_hal_ltdc.c ****   * @param  YSize     LTDC Line number
1603:Drivers/STM32F4xx_HAL_Driver/Src/stm32f4xx_hal_ltdc.c ****   * @param  LayerIdx  LTDC Layer index.
1604:Drivers/STM32F4xx_HAL_Driver/Src/stm32f4xx_hal_ltdc.c ****   *                   This parameter can be one of the following values:
1605:Drivers/STM32F4xx_HAL_Driver/Src/stm32f4xx_hal_ltdc.c ****   *                   LTDC_LAYER_1 (0) or LTDC_LAYER_2 (1)
1606:Drivers/STM32F4xx_HAL_Driver/Src/stm32f4xx_hal_ltdc.c ****   * @retval  HAL status
1607:Drivers/STM32F4xx_HAL_Driver/Src/stm32f4xx_hal_ltdc.c ****   */
1608:Drivers/STM32F4xx_HAL_Driver/Src/stm32f4xx_hal_ltdc.c **** HAL_StatusTypeDef HAL_LTDC_SetWindowSize_NoReload(LTDC_HandleTypeDef *hltdc, uint32_t XSize, uint32
1609:Drivers/STM32F4xx_HAL_Driver/Src/stm32f4xx_hal_ltdc.c ****                                                   uint32_t LayerIdx)
1610:Drivers/STM32F4xx_HAL_Driver/Src/stm32f4xx_hal_ltdc.c **** {
 2834              		.loc 1 1610 1
 2835              		.cfi_startproc
 2836              		@ args = 0, pretend = 0, frame = 24
 2837              		@ frame_needed = 1, uses_anonymous_args = 0
 2838 0000 80B5     		push	{r7, lr}
 2839              	.LCFI146:
 2840              		.cfi_def_cfa_offset 8
 2841              		.cfi_offset 7, -8
 2842              		.cfi_offset 14, -4
 2843 0002 86B0     		sub	sp, sp, #24
 2844              	.LCFI147:
 2845              		.cfi_def_cfa_offset 32
 2846 0004 00AF     		add	r7, sp, #0
 2847              	.LCFI148:
 2848              		.cfi_def_cfa_register 7
 2849 0006 F860     		str	r0, [r7, #12]
 2850 0008 B960     		str	r1, [r7, #8]
 2851 000a 7A60     		str	r2, [r7, #4]
 2852 000c 3B60     		str	r3, [r7]
1611:Drivers/STM32F4xx_HAL_Driver/Src/stm32f4xx_hal_ltdc.c ****   LTDC_LayerCfgTypeDef *pLayerCfg;
1612:Drivers/STM32F4xx_HAL_Driver/Src/stm32f4xx_hal_ltdc.c **** 
1613:Drivers/STM32F4xx_HAL_Driver/Src/stm32f4xx_hal_ltdc.c ****   /* Check the parameters (Layers parameters)*/
1614:Drivers/STM32F4xx_HAL_Driver/Src/stm32f4xx_hal_ltdc.c ****   assert_param(IS_LTDC_LAYER(LayerIdx));
1615:Drivers/STM32F4xx_HAL_Driver/Src/stm32f4xx_hal_ltdc.c ****   assert_param(IS_LTDC_CFBLL(XSize));
1616:Drivers/STM32F4xx_HAL_Driver/Src/stm32f4xx_hal_ltdc.c ****   assert_param(IS_LTDC_CFBLNBR(YSize));
1617:Drivers/STM32F4xx_HAL_Driver/Src/stm32f4xx_hal_ltdc.c **** 
1618:Drivers/STM32F4xx_HAL_Driver/Src/stm32f4xx_hal_ltdc.c ****   /* Process locked */
1619:Drivers/STM32F4xx_HAL_Driver/Src/stm32f4xx_hal_ltdc.c ****   __HAL_LOCK(hltdc);
 2853              		.loc 1 1619 3
 2854 000e FB68     		ldr	r3, [r7, #12]
 2855 0010 93F8A030 		ldrb	r3, [r3, #160]	@ zero_extendqisi2
 2856 0014 012B     		cmp	r3, #1
 2857 0016 01D1     		bne	.L97
 2858              		.loc 1 1619 3 is_stmt 0 discriminator 1
 2859 0018 0223     		movs	r3, #2
 2860              		.loc 1 1619 3
 2861 001a 2FE0     		b	.L98
 2862              	.L97:
 2863              		.loc 1 1619 3 discriminator 2
 2864 001c FB68     		ldr	r3, [r7, #12]
 2865 001e 0122     		movs	r2, #1
 2866 0020 83F8A020 		strb	r2, [r3, #160]
1620:Drivers/STM32F4xx_HAL_Driver/Src/stm32f4xx_hal_ltdc.c **** 
1621:Drivers/STM32F4xx_HAL_Driver/Src/stm32f4xx_hal_ltdc.c ****   /* Change LTDC peripheral state */
1622:Drivers/STM32F4xx_HAL_Driver/Src/stm32f4xx_hal_ltdc.c ****   hltdc->State = HAL_LTDC_STATE_BUSY;
ARM GAS  /var/folders/06/9k7gq4t13mj84z2yhw3grvhc0000gn/T//ccuiTnhW.s 			page 79


 2867              		.loc 1 1622 16 is_stmt 1
 2868 0024 FB68     		ldr	r3, [r7, #12]
 2869 0026 0222     		movs	r2, #2
 2870 0028 83F8A120 		strb	r2, [r3, #161]
1623:Drivers/STM32F4xx_HAL_Driver/Src/stm32f4xx_hal_ltdc.c **** 
1624:Drivers/STM32F4xx_HAL_Driver/Src/stm32f4xx_hal_ltdc.c ****   /* Get layer configuration from handle structure */
1625:Drivers/STM32F4xx_HAL_Driver/Src/stm32f4xx_hal_ltdc.c ****   pLayerCfg = &hltdc->LayerCfg[LayerIdx];
 2871              		.loc 1 1625 13
 2872 002c 3B68     		ldr	r3, [r7]
 2873 002e 3422     		movs	r2, #52
 2874 0030 02FB03F3 		mul	r3, r2, r3
 2875 0034 3833     		adds	r3, r3, #56
 2876 0036 FA68     		ldr	r2, [r7, #12]
 2877 0038 1344     		add	r3, r3, r2
 2878 003a 7B61     		str	r3, [r7, #20]
1626:Drivers/STM32F4xx_HAL_Driver/Src/stm32f4xx_hal_ltdc.c **** 
1627:Drivers/STM32F4xx_HAL_Driver/Src/stm32f4xx_hal_ltdc.c ****   /* update horizontal stop */
1628:Drivers/STM32F4xx_HAL_Driver/Src/stm32f4xx_hal_ltdc.c ****   pLayerCfg->WindowX1 = XSize + pLayerCfg->WindowX0;
 2879              		.loc 1 1628 42
 2880 003c 7B69     		ldr	r3, [r7, #20]
 2881 003e 1A68     		ldr	r2, [r3]
 2882              		.loc 1 1628 31
 2883 0040 BB68     		ldr	r3, [r7, #8]
 2884 0042 1A44     		add	r2, r2, r3
 2885              		.loc 1 1628 23
 2886 0044 7B69     		ldr	r3, [r7, #20]
 2887 0046 5A60     		str	r2, [r3, #4]
1629:Drivers/STM32F4xx_HAL_Driver/Src/stm32f4xx_hal_ltdc.c **** 
1630:Drivers/STM32F4xx_HAL_Driver/Src/stm32f4xx_hal_ltdc.c ****   /* update vertical stop */
1631:Drivers/STM32F4xx_HAL_Driver/Src/stm32f4xx_hal_ltdc.c ****   pLayerCfg->WindowY1 = YSize + pLayerCfg->WindowY0;
 2888              		.loc 1 1631 42
 2889 0048 7B69     		ldr	r3, [r7, #20]
 2890 004a 9A68     		ldr	r2, [r3, #8]
 2891              		.loc 1 1631 31
 2892 004c 7B68     		ldr	r3, [r7, #4]
 2893 004e 1A44     		add	r2, r2, r3
 2894              		.loc 1 1631 23
 2895 0050 7B69     		ldr	r3, [r7, #20]
 2896 0052 DA60     		str	r2, [r3, #12]
1632:Drivers/STM32F4xx_HAL_Driver/Src/stm32f4xx_hal_ltdc.c **** 
1633:Drivers/STM32F4xx_HAL_Driver/Src/stm32f4xx_hal_ltdc.c ****   /* Reconfigures the color frame buffer pitch in byte */
1634:Drivers/STM32F4xx_HAL_Driver/Src/stm32f4xx_hal_ltdc.c ****   pLayerCfg->ImageWidth = XSize;
 2897              		.loc 1 1634 25
 2898 0054 7B69     		ldr	r3, [r7, #20]
 2899 0056 BA68     		ldr	r2, [r7, #8]
 2900 0058 9A62     		str	r2, [r3, #40]
1635:Drivers/STM32F4xx_HAL_Driver/Src/stm32f4xx_hal_ltdc.c **** 
1636:Drivers/STM32F4xx_HAL_Driver/Src/stm32f4xx_hal_ltdc.c ****   /* Reconfigures the frame buffer line number */
1637:Drivers/STM32F4xx_HAL_Driver/Src/stm32f4xx_hal_ltdc.c ****   pLayerCfg->ImageHeight = YSize;
 2901              		.loc 1 1637 26
 2902 005a 7B69     		ldr	r3, [r7, #20]
 2903 005c 7A68     		ldr	r2, [r7, #4]
 2904 005e DA62     		str	r2, [r3, #44]
1638:Drivers/STM32F4xx_HAL_Driver/Src/stm32f4xx_hal_ltdc.c **** 
1639:Drivers/STM32F4xx_HAL_Driver/Src/stm32f4xx_hal_ltdc.c ****   /* Set LTDC parameters */
1640:Drivers/STM32F4xx_HAL_Driver/Src/stm32f4xx_hal_ltdc.c ****   LTDC_SetConfig(hltdc, pLayerCfg, LayerIdx);
 2905              		.loc 1 1640 3
ARM GAS  /var/folders/06/9k7gq4t13mj84z2yhw3grvhc0000gn/T//ccuiTnhW.s 			page 80


 2906 0060 3A68     		ldr	r2, [r7]
 2907 0062 7969     		ldr	r1, [r7, #20]
 2908 0064 F868     		ldr	r0, [r7, #12]
 2909 0066 FFF7FEFF 		bl	LTDC_SetConfig
1641:Drivers/STM32F4xx_HAL_Driver/Src/stm32f4xx_hal_ltdc.c **** 
1642:Drivers/STM32F4xx_HAL_Driver/Src/stm32f4xx_hal_ltdc.c ****   /* Change the LTDC state*/
1643:Drivers/STM32F4xx_HAL_Driver/Src/stm32f4xx_hal_ltdc.c ****   hltdc->State = HAL_LTDC_STATE_READY;
 2910              		.loc 1 1643 16
 2911 006a FB68     		ldr	r3, [r7, #12]
 2912 006c 0122     		movs	r2, #1
 2913 006e 83F8A120 		strb	r2, [r3, #161]
1644:Drivers/STM32F4xx_HAL_Driver/Src/stm32f4xx_hal_ltdc.c **** 
1645:Drivers/STM32F4xx_HAL_Driver/Src/stm32f4xx_hal_ltdc.c ****   /* Process unlocked */
1646:Drivers/STM32F4xx_HAL_Driver/Src/stm32f4xx_hal_ltdc.c ****   __HAL_UNLOCK(hltdc);
 2914              		.loc 1 1646 3
 2915 0072 FB68     		ldr	r3, [r7, #12]
 2916 0074 0022     		movs	r2, #0
 2917 0076 83F8A020 		strb	r2, [r3, #160]
1647:Drivers/STM32F4xx_HAL_Driver/Src/stm32f4xx_hal_ltdc.c **** 
1648:Drivers/STM32F4xx_HAL_Driver/Src/stm32f4xx_hal_ltdc.c ****   return HAL_OK;
 2918              		.loc 1 1648 10
 2919 007a 0023     		movs	r3, #0
 2920              	.L98:
1649:Drivers/STM32F4xx_HAL_Driver/Src/stm32f4xx_hal_ltdc.c **** }
 2921              		.loc 1 1649 1
 2922 007c 1846     		mov	r0, r3
 2923 007e 1837     		adds	r7, r7, #24
 2924              	.LCFI149:
 2925              		.cfi_def_cfa_offset 8
 2926 0080 BD46     		mov	sp, r7
 2927              	.LCFI150:
 2928              		.cfi_def_cfa_register 13
 2929              		@ sp needed
 2930 0082 80BD     		pop	{r7, pc}
 2931              		.cfi_endproc
 2932              	.LFE160:
 2934              		.section	.text.HAL_LTDC_SetWindowPosition_NoReload,"ax",%progbits
 2935              		.align	1
 2936              		.global	HAL_LTDC_SetWindowPosition_NoReload
 2937              		.syntax unified
 2938              		.thumb
 2939              		.thumb_func
 2941              	HAL_LTDC_SetWindowPosition_NoReload:
 2942              	.LFB161:
1650:Drivers/STM32F4xx_HAL_Driver/Src/stm32f4xx_hal_ltdc.c **** 
1651:Drivers/STM32F4xx_HAL_Driver/Src/stm32f4xx_hal_ltdc.c **** /**
1652:Drivers/STM32F4xx_HAL_Driver/Src/stm32f4xx_hal_ltdc.c ****   * @brief  Set the LTDC window position without reloading.
1653:Drivers/STM32F4xx_HAL_Driver/Src/stm32f4xx_hal_ltdc.c ****   *         Variant of the function HAL_LTDC_SetWindowPosition without immediate reload.
1654:Drivers/STM32F4xx_HAL_Driver/Src/stm32f4xx_hal_ltdc.c ****   * @param  hltdc     pointer to a LTDC_HandleTypeDef structure that contains
1655:Drivers/STM32F4xx_HAL_Driver/Src/stm32f4xx_hal_ltdc.c ****   *                   the configuration information for the LTDC.
1656:Drivers/STM32F4xx_HAL_Driver/Src/stm32f4xx_hal_ltdc.c ****   * @param  X0        LTDC window X offset
1657:Drivers/STM32F4xx_HAL_Driver/Src/stm32f4xx_hal_ltdc.c ****   * @param  Y0        LTDC window Y offset
1658:Drivers/STM32F4xx_HAL_Driver/Src/stm32f4xx_hal_ltdc.c ****   * @param  LayerIdx  LTDC Layer index.
1659:Drivers/STM32F4xx_HAL_Driver/Src/stm32f4xx_hal_ltdc.c ****   *                         This parameter can be one of the following values:
1660:Drivers/STM32F4xx_HAL_Driver/Src/stm32f4xx_hal_ltdc.c ****   *                         LTDC_LAYER_1 (0) or LTDC_LAYER_2 (1)
1661:Drivers/STM32F4xx_HAL_Driver/Src/stm32f4xx_hal_ltdc.c ****   * @retval  HAL status
1662:Drivers/STM32F4xx_HAL_Driver/Src/stm32f4xx_hal_ltdc.c ****   */
ARM GAS  /var/folders/06/9k7gq4t13mj84z2yhw3grvhc0000gn/T//ccuiTnhW.s 			page 81


1663:Drivers/STM32F4xx_HAL_Driver/Src/stm32f4xx_hal_ltdc.c **** HAL_StatusTypeDef HAL_LTDC_SetWindowPosition_NoReload(LTDC_HandleTypeDef *hltdc, uint32_t X0, uint3
1664:Drivers/STM32F4xx_HAL_Driver/Src/stm32f4xx_hal_ltdc.c ****                                                       uint32_t LayerIdx)
1665:Drivers/STM32F4xx_HAL_Driver/Src/stm32f4xx_hal_ltdc.c **** {
 2943              		.loc 1 1665 1
 2944              		.cfi_startproc
 2945              		@ args = 0, pretend = 0, frame = 24
 2946              		@ frame_needed = 1, uses_anonymous_args = 0
 2947 0000 80B5     		push	{r7, lr}
 2948              	.LCFI151:
 2949              		.cfi_def_cfa_offset 8
 2950              		.cfi_offset 7, -8
 2951              		.cfi_offset 14, -4
 2952 0002 86B0     		sub	sp, sp, #24
 2953              	.LCFI152:
 2954              		.cfi_def_cfa_offset 32
 2955 0004 00AF     		add	r7, sp, #0
 2956              	.LCFI153:
 2957              		.cfi_def_cfa_register 7
 2958 0006 F860     		str	r0, [r7, #12]
 2959 0008 B960     		str	r1, [r7, #8]
 2960 000a 7A60     		str	r2, [r7, #4]
 2961 000c 3B60     		str	r3, [r7]
1666:Drivers/STM32F4xx_HAL_Driver/Src/stm32f4xx_hal_ltdc.c ****   LTDC_LayerCfgTypeDef *pLayerCfg;
1667:Drivers/STM32F4xx_HAL_Driver/Src/stm32f4xx_hal_ltdc.c **** 
1668:Drivers/STM32F4xx_HAL_Driver/Src/stm32f4xx_hal_ltdc.c ****   /* Check the parameters */
1669:Drivers/STM32F4xx_HAL_Driver/Src/stm32f4xx_hal_ltdc.c ****   assert_param(IS_LTDC_LAYER(LayerIdx));
1670:Drivers/STM32F4xx_HAL_Driver/Src/stm32f4xx_hal_ltdc.c ****   assert_param(IS_LTDC_CFBLL(X0));
1671:Drivers/STM32F4xx_HAL_Driver/Src/stm32f4xx_hal_ltdc.c ****   assert_param(IS_LTDC_CFBLNBR(Y0));
1672:Drivers/STM32F4xx_HAL_Driver/Src/stm32f4xx_hal_ltdc.c **** 
1673:Drivers/STM32F4xx_HAL_Driver/Src/stm32f4xx_hal_ltdc.c ****   /* Process locked */
1674:Drivers/STM32F4xx_HAL_Driver/Src/stm32f4xx_hal_ltdc.c ****   __HAL_LOCK(hltdc);
 2962              		.loc 1 1674 3
 2963 000e FB68     		ldr	r3, [r7, #12]
 2964 0010 93F8A030 		ldrb	r3, [r3, #160]	@ zero_extendqisi2
 2965 0014 012B     		cmp	r3, #1
 2966 0016 01D1     		bne	.L100
 2967              		.loc 1 1674 3 is_stmt 0 discriminator 1
 2968 0018 0223     		movs	r3, #2
 2969              		.loc 1 1674 3
 2970 001a 2FE0     		b	.L101
 2971              	.L100:
 2972              		.loc 1 1674 3 discriminator 2
 2973 001c FB68     		ldr	r3, [r7, #12]
 2974 001e 0122     		movs	r2, #1
 2975 0020 83F8A020 		strb	r2, [r3, #160]
1675:Drivers/STM32F4xx_HAL_Driver/Src/stm32f4xx_hal_ltdc.c **** 
1676:Drivers/STM32F4xx_HAL_Driver/Src/stm32f4xx_hal_ltdc.c ****   /* Change LTDC peripheral state */
1677:Drivers/STM32F4xx_HAL_Driver/Src/stm32f4xx_hal_ltdc.c ****   hltdc->State = HAL_LTDC_STATE_BUSY;
 2976              		.loc 1 1677 16 is_stmt 1
 2977 0024 FB68     		ldr	r3, [r7, #12]
 2978 0026 0222     		movs	r2, #2
 2979 0028 83F8A120 		strb	r2, [r3, #161]
1678:Drivers/STM32F4xx_HAL_Driver/Src/stm32f4xx_hal_ltdc.c **** 
1679:Drivers/STM32F4xx_HAL_Driver/Src/stm32f4xx_hal_ltdc.c ****   /* Get layer configuration from handle structure */
1680:Drivers/STM32F4xx_HAL_Driver/Src/stm32f4xx_hal_ltdc.c ****   pLayerCfg = &hltdc->LayerCfg[LayerIdx];
 2980              		.loc 1 1680 13
 2981 002c 3B68     		ldr	r3, [r7]
ARM GAS  /var/folders/06/9k7gq4t13mj84z2yhw3grvhc0000gn/T//ccuiTnhW.s 			page 82


 2982 002e 3422     		movs	r2, #52
 2983 0030 02FB03F3 		mul	r3, r2, r3
 2984 0034 3833     		adds	r3, r3, #56
 2985 0036 FA68     		ldr	r2, [r7, #12]
 2986 0038 1344     		add	r3, r3, r2
 2987 003a 7B61     		str	r3, [r7, #20]
1681:Drivers/STM32F4xx_HAL_Driver/Src/stm32f4xx_hal_ltdc.c **** 
1682:Drivers/STM32F4xx_HAL_Driver/Src/stm32f4xx_hal_ltdc.c ****   /* update horizontal start/stop */
1683:Drivers/STM32F4xx_HAL_Driver/Src/stm32f4xx_hal_ltdc.c ****   pLayerCfg->WindowX0 = X0;
 2988              		.loc 1 1683 23
 2989 003c 7B69     		ldr	r3, [r7, #20]
 2990 003e BA68     		ldr	r2, [r7, #8]
 2991 0040 1A60     		str	r2, [r3]
1684:Drivers/STM32F4xx_HAL_Driver/Src/stm32f4xx_hal_ltdc.c ****   pLayerCfg->WindowX1 = X0 + pLayerCfg->ImageWidth;
 2992              		.loc 1 1684 39
 2993 0042 7B69     		ldr	r3, [r7, #20]
 2994 0044 9A6A     		ldr	r2, [r3, #40]
 2995              		.loc 1 1684 28
 2996 0046 BB68     		ldr	r3, [r7, #8]
 2997 0048 1A44     		add	r2, r2, r3
 2998              		.loc 1 1684 23
 2999 004a 7B69     		ldr	r3, [r7, #20]
 3000 004c 5A60     		str	r2, [r3, #4]
1685:Drivers/STM32F4xx_HAL_Driver/Src/stm32f4xx_hal_ltdc.c **** 
1686:Drivers/STM32F4xx_HAL_Driver/Src/stm32f4xx_hal_ltdc.c ****   /* update vertical start/stop */
1687:Drivers/STM32F4xx_HAL_Driver/Src/stm32f4xx_hal_ltdc.c ****   pLayerCfg->WindowY0 = Y0;
 3001              		.loc 1 1687 23
 3002 004e 7B69     		ldr	r3, [r7, #20]
 3003 0050 7A68     		ldr	r2, [r7, #4]
 3004 0052 9A60     		str	r2, [r3, #8]
1688:Drivers/STM32F4xx_HAL_Driver/Src/stm32f4xx_hal_ltdc.c ****   pLayerCfg->WindowY1 = Y0 + pLayerCfg->ImageHeight;
 3005              		.loc 1 1688 39
 3006 0054 7B69     		ldr	r3, [r7, #20]
 3007 0056 DA6A     		ldr	r2, [r3, #44]
 3008              		.loc 1 1688 28
 3009 0058 7B68     		ldr	r3, [r7, #4]
 3010 005a 1A44     		add	r2, r2, r3
 3011              		.loc 1 1688 23
 3012 005c 7B69     		ldr	r3, [r7, #20]
 3013 005e DA60     		str	r2, [r3, #12]
1689:Drivers/STM32F4xx_HAL_Driver/Src/stm32f4xx_hal_ltdc.c **** 
1690:Drivers/STM32F4xx_HAL_Driver/Src/stm32f4xx_hal_ltdc.c ****   /* Set LTDC parameters */
1691:Drivers/STM32F4xx_HAL_Driver/Src/stm32f4xx_hal_ltdc.c ****   LTDC_SetConfig(hltdc, pLayerCfg, LayerIdx);
 3014              		.loc 1 1691 3
 3015 0060 3A68     		ldr	r2, [r7]
 3016 0062 7969     		ldr	r1, [r7, #20]
 3017 0064 F868     		ldr	r0, [r7, #12]
 3018 0066 FFF7FEFF 		bl	LTDC_SetConfig
1692:Drivers/STM32F4xx_HAL_Driver/Src/stm32f4xx_hal_ltdc.c **** 
1693:Drivers/STM32F4xx_HAL_Driver/Src/stm32f4xx_hal_ltdc.c ****   /* Change the LTDC state*/
1694:Drivers/STM32F4xx_HAL_Driver/Src/stm32f4xx_hal_ltdc.c ****   hltdc->State = HAL_LTDC_STATE_READY;
 3019              		.loc 1 1694 16
 3020 006a FB68     		ldr	r3, [r7, #12]
 3021 006c 0122     		movs	r2, #1
 3022 006e 83F8A120 		strb	r2, [r3, #161]
1695:Drivers/STM32F4xx_HAL_Driver/Src/stm32f4xx_hal_ltdc.c **** 
1696:Drivers/STM32F4xx_HAL_Driver/Src/stm32f4xx_hal_ltdc.c ****   /* Process unlocked */
ARM GAS  /var/folders/06/9k7gq4t13mj84z2yhw3grvhc0000gn/T//ccuiTnhW.s 			page 83


1697:Drivers/STM32F4xx_HAL_Driver/Src/stm32f4xx_hal_ltdc.c ****   __HAL_UNLOCK(hltdc);
 3023              		.loc 1 1697 3
 3024 0072 FB68     		ldr	r3, [r7, #12]
 3025 0074 0022     		movs	r2, #0
 3026 0076 83F8A020 		strb	r2, [r3, #160]
1698:Drivers/STM32F4xx_HAL_Driver/Src/stm32f4xx_hal_ltdc.c **** 
1699:Drivers/STM32F4xx_HAL_Driver/Src/stm32f4xx_hal_ltdc.c ****   return HAL_OK;
 3027              		.loc 1 1699 10
 3028 007a 0023     		movs	r3, #0
 3029              	.L101:
1700:Drivers/STM32F4xx_HAL_Driver/Src/stm32f4xx_hal_ltdc.c **** }
 3030              		.loc 1 1700 1
 3031 007c 1846     		mov	r0, r3
 3032 007e 1837     		adds	r7, r7, #24
 3033              	.LCFI154:
 3034              		.cfi_def_cfa_offset 8
 3035 0080 BD46     		mov	sp, r7
 3036              	.LCFI155:
 3037              		.cfi_def_cfa_register 13
 3038              		@ sp needed
 3039 0082 80BD     		pop	{r7, pc}
 3040              		.cfi_endproc
 3041              	.LFE161:
 3043              		.section	.text.HAL_LTDC_SetPixelFormat_NoReload,"ax",%progbits
 3044              		.align	1
 3045              		.global	HAL_LTDC_SetPixelFormat_NoReload
 3046              		.syntax unified
 3047              		.thumb
 3048              		.thumb_func
 3050              	HAL_LTDC_SetPixelFormat_NoReload:
 3051              	.LFB162:
1701:Drivers/STM32F4xx_HAL_Driver/Src/stm32f4xx_hal_ltdc.c **** 
1702:Drivers/STM32F4xx_HAL_Driver/Src/stm32f4xx_hal_ltdc.c **** /**
1703:Drivers/STM32F4xx_HAL_Driver/Src/stm32f4xx_hal_ltdc.c ****   * @brief  Reconfigure the pixel format without reloading.
1704:Drivers/STM32F4xx_HAL_Driver/Src/stm32f4xx_hal_ltdc.c ****   *         Variant of the function HAL_LTDC_SetPixelFormat without immediate reload.
1705:Drivers/STM32F4xx_HAL_Driver/Src/stm32f4xx_hal_ltdc.c ****   * @param  hltdc        pointer to a LTDC_HandleTypeDfef structure that contains
1706:Drivers/STM32F4xx_HAL_Driver/Src/stm32f4xx_hal_ltdc.c ****   *                      the configuration information for the LTDC.
1707:Drivers/STM32F4xx_HAL_Driver/Src/stm32f4xx_hal_ltdc.c ****   * @param  Pixelformat  new pixel format value.
1708:Drivers/STM32F4xx_HAL_Driver/Src/stm32f4xx_hal_ltdc.c ****   * @param  LayerIdx     LTDC Layer index.
1709:Drivers/STM32F4xx_HAL_Driver/Src/stm32f4xx_hal_ltdc.c ****   *                      This parameter can be one of the following values:
1710:Drivers/STM32F4xx_HAL_Driver/Src/stm32f4xx_hal_ltdc.c ****   *                      LTDC_LAYER_1 (0) or LTDC_LAYER_2 (1).
1711:Drivers/STM32F4xx_HAL_Driver/Src/stm32f4xx_hal_ltdc.c ****   * @retval  HAL status
1712:Drivers/STM32F4xx_HAL_Driver/Src/stm32f4xx_hal_ltdc.c ****   */
1713:Drivers/STM32F4xx_HAL_Driver/Src/stm32f4xx_hal_ltdc.c **** HAL_StatusTypeDef HAL_LTDC_SetPixelFormat_NoReload(LTDC_HandleTypeDef *hltdc, uint32_t Pixelformat,
1714:Drivers/STM32F4xx_HAL_Driver/Src/stm32f4xx_hal_ltdc.c **** {
 3052              		.loc 1 1714 1
 3053              		.cfi_startproc
 3054              		@ args = 0, pretend = 0, frame = 24
 3055              		@ frame_needed = 1, uses_anonymous_args = 0
 3056 0000 80B5     		push	{r7, lr}
 3057              	.LCFI156:
 3058              		.cfi_def_cfa_offset 8
 3059              		.cfi_offset 7, -8
 3060              		.cfi_offset 14, -4
 3061 0002 86B0     		sub	sp, sp, #24
 3062              	.LCFI157:
 3063              		.cfi_def_cfa_offset 32
ARM GAS  /var/folders/06/9k7gq4t13mj84z2yhw3grvhc0000gn/T//ccuiTnhW.s 			page 84


 3064 0004 00AF     		add	r7, sp, #0
 3065              	.LCFI158:
 3066              		.cfi_def_cfa_register 7
 3067 0006 F860     		str	r0, [r7, #12]
 3068 0008 B960     		str	r1, [r7, #8]
 3069 000a 7A60     		str	r2, [r7, #4]
1715:Drivers/STM32F4xx_HAL_Driver/Src/stm32f4xx_hal_ltdc.c ****   LTDC_LayerCfgTypeDef *pLayerCfg;
1716:Drivers/STM32F4xx_HAL_Driver/Src/stm32f4xx_hal_ltdc.c **** 
1717:Drivers/STM32F4xx_HAL_Driver/Src/stm32f4xx_hal_ltdc.c ****   /* Check the parameters */
1718:Drivers/STM32F4xx_HAL_Driver/Src/stm32f4xx_hal_ltdc.c ****   assert_param(IS_LTDC_PIXEL_FORMAT(Pixelformat));
1719:Drivers/STM32F4xx_HAL_Driver/Src/stm32f4xx_hal_ltdc.c ****   assert_param(IS_LTDC_LAYER(LayerIdx));
1720:Drivers/STM32F4xx_HAL_Driver/Src/stm32f4xx_hal_ltdc.c **** 
1721:Drivers/STM32F4xx_HAL_Driver/Src/stm32f4xx_hal_ltdc.c ****   /* Process locked */
1722:Drivers/STM32F4xx_HAL_Driver/Src/stm32f4xx_hal_ltdc.c ****   __HAL_LOCK(hltdc);
 3070              		.loc 1 1722 3
 3071 000c FB68     		ldr	r3, [r7, #12]
 3072 000e 93F8A030 		ldrb	r3, [r3, #160]	@ zero_extendqisi2
 3073 0012 012B     		cmp	r3, #1
 3074 0014 01D1     		bne	.L103
 3075              		.loc 1 1722 3 is_stmt 0 discriminator 1
 3076 0016 0223     		movs	r3, #2
 3077              		.loc 1 1722 3
 3078 0018 20E0     		b	.L104
 3079              	.L103:
 3080              		.loc 1 1722 3 discriminator 2
 3081 001a FB68     		ldr	r3, [r7, #12]
 3082 001c 0122     		movs	r2, #1
 3083 001e 83F8A020 		strb	r2, [r3, #160]
1723:Drivers/STM32F4xx_HAL_Driver/Src/stm32f4xx_hal_ltdc.c **** 
1724:Drivers/STM32F4xx_HAL_Driver/Src/stm32f4xx_hal_ltdc.c ****   /* Change LTDC peripheral state */
1725:Drivers/STM32F4xx_HAL_Driver/Src/stm32f4xx_hal_ltdc.c ****   hltdc->State = HAL_LTDC_STATE_BUSY;
 3084              		.loc 1 1725 16 is_stmt 1
 3085 0022 FB68     		ldr	r3, [r7, #12]
 3086 0024 0222     		movs	r2, #2
 3087 0026 83F8A120 		strb	r2, [r3, #161]
1726:Drivers/STM32F4xx_HAL_Driver/Src/stm32f4xx_hal_ltdc.c **** 
1727:Drivers/STM32F4xx_HAL_Driver/Src/stm32f4xx_hal_ltdc.c ****   /* Get layer configuration from handle structure */
1728:Drivers/STM32F4xx_HAL_Driver/Src/stm32f4xx_hal_ltdc.c ****   pLayerCfg = &hltdc->LayerCfg[LayerIdx];
 3088              		.loc 1 1728 13
 3089 002a 7B68     		ldr	r3, [r7, #4]
 3090 002c 3422     		movs	r2, #52
 3091 002e 02FB03F3 		mul	r3, r2, r3
 3092 0032 3833     		adds	r3, r3, #56
 3093 0034 FA68     		ldr	r2, [r7, #12]
 3094 0036 1344     		add	r3, r3, r2
 3095 0038 7B61     		str	r3, [r7, #20]
1729:Drivers/STM32F4xx_HAL_Driver/Src/stm32f4xx_hal_ltdc.c **** 
1730:Drivers/STM32F4xx_HAL_Driver/Src/stm32f4xx_hal_ltdc.c ****   /* Reconfigure the pixel format */
1731:Drivers/STM32F4xx_HAL_Driver/Src/stm32f4xx_hal_ltdc.c ****   pLayerCfg->PixelFormat = Pixelformat;
 3096              		.loc 1 1731 26
 3097 003a 7B69     		ldr	r3, [r7, #20]
 3098 003c BA68     		ldr	r2, [r7, #8]
 3099 003e 1A61     		str	r2, [r3, #16]
1732:Drivers/STM32F4xx_HAL_Driver/Src/stm32f4xx_hal_ltdc.c **** 
1733:Drivers/STM32F4xx_HAL_Driver/Src/stm32f4xx_hal_ltdc.c ****   /* Set LTDC parameters */
1734:Drivers/STM32F4xx_HAL_Driver/Src/stm32f4xx_hal_ltdc.c ****   LTDC_SetConfig(hltdc, pLayerCfg, LayerIdx);
 3100              		.loc 1 1734 3
ARM GAS  /var/folders/06/9k7gq4t13mj84z2yhw3grvhc0000gn/T//ccuiTnhW.s 			page 85


 3101 0040 7A68     		ldr	r2, [r7, #4]
 3102 0042 7969     		ldr	r1, [r7, #20]
 3103 0044 F868     		ldr	r0, [r7, #12]
 3104 0046 FFF7FEFF 		bl	LTDC_SetConfig
1735:Drivers/STM32F4xx_HAL_Driver/Src/stm32f4xx_hal_ltdc.c **** 
1736:Drivers/STM32F4xx_HAL_Driver/Src/stm32f4xx_hal_ltdc.c ****   /* Change the LTDC state*/
1737:Drivers/STM32F4xx_HAL_Driver/Src/stm32f4xx_hal_ltdc.c ****   hltdc->State = HAL_LTDC_STATE_READY;
 3105              		.loc 1 1737 16
 3106 004a FB68     		ldr	r3, [r7, #12]
 3107 004c 0122     		movs	r2, #1
 3108 004e 83F8A120 		strb	r2, [r3, #161]
1738:Drivers/STM32F4xx_HAL_Driver/Src/stm32f4xx_hal_ltdc.c **** 
1739:Drivers/STM32F4xx_HAL_Driver/Src/stm32f4xx_hal_ltdc.c ****   /* Process unlocked */
1740:Drivers/STM32F4xx_HAL_Driver/Src/stm32f4xx_hal_ltdc.c ****   __HAL_UNLOCK(hltdc);
 3109              		.loc 1 1740 3
 3110 0052 FB68     		ldr	r3, [r7, #12]
 3111 0054 0022     		movs	r2, #0
 3112 0056 83F8A020 		strb	r2, [r3, #160]
1741:Drivers/STM32F4xx_HAL_Driver/Src/stm32f4xx_hal_ltdc.c **** 
1742:Drivers/STM32F4xx_HAL_Driver/Src/stm32f4xx_hal_ltdc.c ****   return HAL_OK;
 3113              		.loc 1 1742 10
 3114 005a 0023     		movs	r3, #0
 3115              	.L104:
1743:Drivers/STM32F4xx_HAL_Driver/Src/stm32f4xx_hal_ltdc.c **** }
 3116              		.loc 1 1743 1
 3117 005c 1846     		mov	r0, r3
 3118 005e 1837     		adds	r7, r7, #24
 3119              	.LCFI159:
 3120              		.cfi_def_cfa_offset 8
 3121 0060 BD46     		mov	sp, r7
 3122              	.LCFI160:
 3123              		.cfi_def_cfa_register 13
 3124              		@ sp needed
 3125 0062 80BD     		pop	{r7, pc}
 3126              		.cfi_endproc
 3127              	.LFE162:
 3129              		.section	.text.HAL_LTDC_SetAlpha_NoReload,"ax",%progbits
 3130              		.align	1
 3131              		.global	HAL_LTDC_SetAlpha_NoReload
 3132              		.syntax unified
 3133              		.thumb
 3134              		.thumb_func
 3136              	HAL_LTDC_SetAlpha_NoReload:
 3137              	.LFB163:
1744:Drivers/STM32F4xx_HAL_Driver/Src/stm32f4xx_hal_ltdc.c **** 
1745:Drivers/STM32F4xx_HAL_Driver/Src/stm32f4xx_hal_ltdc.c **** /**
1746:Drivers/STM32F4xx_HAL_Driver/Src/stm32f4xx_hal_ltdc.c ****   * @brief  Reconfigure the layer alpha value without reloading.
1747:Drivers/STM32F4xx_HAL_Driver/Src/stm32f4xx_hal_ltdc.c ****   *         Variant of the function HAL_LTDC_SetAlpha without immediate reload.
1748:Drivers/STM32F4xx_HAL_Driver/Src/stm32f4xx_hal_ltdc.c ****   * @param  hltdc     pointer to a LTDC_HandleTypeDef structure that contains
1749:Drivers/STM32F4xx_HAL_Driver/Src/stm32f4xx_hal_ltdc.c ****   *                   the configuration information for the LTDC.
1750:Drivers/STM32F4xx_HAL_Driver/Src/stm32f4xx_hal_ltdc.c ****   * @param  Alpha     new alpha value.
1751:Drivers/STM32F4xx_HAL_Driver/Src/stm32f4xx_hal_ltdc.c ****   * @param  LayerIdx  LTDC Layer index.
1752:Drivers/STM32F4xx_HAL_Driver/Src/stm32f4xx_hal_ltdc.c ****   *                   This parameter can be one of the following values:
1753:Drivers/STM32F4xx_HAL_Driver/Src/stm32f4xx_hal_ltdc.c ****   *                   LTDC_LAYER_1 (0) or LTDC_LAYER_2 (1)
1754:Drivers/STM32F4xx_HAL_Driver/Src/stm32f4xx_hal_ltdc.c ****   * @retval  HAL status
1755:Drivers/STM32F4xx_HAL_Driver/Src/stm32f4xx_hal_ltdc.c ****   */
1756:Drivers/STM32F4xx_HAL_Driver/Src/stm32f4xx_hal_ltdc.c **** HAL_StatusTypeDef HAL_LTDC_SetAlpha_NoReload(LTDC_HandleTypeDef *hltdc, uint32_t Alpha, uint32_t La
ARM GAS  /var/folders/06/9k7gq4t13mj84z2yhw3grvhc0000gn/T//ccuiTnhW.s 			page 86


1757:Drivers/STM32F4xx_HAL_Driver/Src/stm32f4xx_hal_ltdc.c **** {
 3138              		.loc 1 1757 1
 3139              		.cfi_startproc
 3140              		@ args = 0, pretend = 0, frame = 24
 3141              		@ frame_needed = 1, uses_anonymous_args = 0
 3142 0000 80B5     		push	{r7, lr}
 3143              	.LCFI161:
 3144              		.cfi_def_cfa_offset 8
 3145              		.cfi_offset 7, -8
 3146              		.cfi_offset 14, -4
 3147 0002 86B0     		sub	sp, sp, #24
 3148              	.LCFI162:
 3149              		.cfi_def_cfa_offset 32
 3150 0004 00AF     		add	r7, sp, #0
 3151              	.LCFI163:
 3152              		.cfi_def_cfa_register 7
 3153 0006 F860     		str	r0, [r7, #12]
 3154 0008 B960     		str	r1, [r7, #8]
 3155 000a 7A60     		str	r2, [r7, #4]
1758:Drivers/STM32F4xx_HAL_Driver/Src/stm32f4xx_hal_ltdc.c ****   LTDC_LayerCfgTypeDef *pLayerCfg;
1759:Drivers/STM32F4xx_HAL_Driver/Src/stm32f4xx_hal_ltdc.c **** 
1760:Drivers/STM32F4xx_HAL_Driver/Src/stm32f4xx_hal_ltdc.c ****   /* Check the parameters */
1761:Drivers/STM32F4xx_HAL_Driver/Src/stm32f4xx_hal_ltdc.c ****   assert_param(IS_LTDC_ALPHA(Alpha));
1762:Drivers/STM32F4xx_HAL_Driver/Src/stm32f4xx_hal_ltdc.c ****   assert_param(IS_LTDC_LAYER(LayerIdx));
1763:Drivers/STM32F4xx_HAL_Driver/Src/stm32f4xx_hal_ltdc.c **** 
1764:Drivers/STM32F4xx_HAL_Driver/Src/stm32f4xx_hal_ltdc.c ****   /* Process locked */
1765:Drivers/STM32F4xx_HAL_Driver/Src/stm32f4xx_hal_ltdc.c ****   __HAL_LOCK(hltdc);
 3156              		.loc 1 1765 3
 3157 000c FB68     		ldr	r3, [r7, #12]
 3158 000e 93F8A030 		ldrb	r3, [r3, #160]	@ zero_extendqisi2
 3159 0012 012B     		cmp	r3, #1
 3160 0014 01D1     		bne	.L106
 3161              		.loc 1 1765 3 is_stmt 0 discriminator 1
 3162 0016 0223     		movs	r3, #2
 3163              		.loc 1 1765 3
 3164 0018 20E0     		b	.L107
 3165              	.L106:
 3166              		.loc 1 1765 3 discriminator 2
 3167 001a FB68     		ldr	r3, [r7, #12]
 3168 001c 0122     		movs	r2, #1
 3169 001e 83F8A020 		strb	r2, [r3, #160]
1766:Drivers/STM32F4xx_HAL_Driver/Src/stm32f4xx_hal_ltdc.c **** 
1767:Drivers/STM32F4xx_HAL_Driver/Src/stm32f4xx_hal_ltdc.c ****   /* Change LTDC peripheral state */
1768:Drivers/STM32F4xx_HAL_Driver/Src/stm32f4xx_hal_ltdc.c ****   hltdc->State = HAL_LTDC_STATE_BUSY;
 3170              		.loc 1 1768 16 is_stmt 1
 3171 0022 FB68     		ldr	r3, [r7, #12]
 3172 0024 0222     		movs	r2, #2
 3173 0026 83F8A120 		strb	r2, [r3, #161]
1769:Drivers/STM32F4xx_HAL_Driver/Src/stm32f4xx_hal_ltdc.c **** 
1770:Drivers/STM32F4xx_HAL_Driver/Src/stm32f4xx_hal_ltdc.c ****   /* Get layer configuration from handle structure */
1771:Drivers/STM32F4xx_HAL_Driver/Src/stm32f4xx_hal_ltdc.c ****   pLayerCfg = &hltdc->LayerCfg[LayerIdx];
 3174              		.loc 1 1771 13
 3175 002a 7B68     		ldr	r3, [r7, #4]
 3176 002c 3422     		movs	r2, #52
 3177 002e 02FB03F3 		mul	r3, r2, r3
 3178 0032 3833     		adds	r3, r3, #56
 3179 0034 FA68     		ldr	r2, [r7, #12]
ARM GAS  /var/folders/06/9k7gq4t13mj84z2yhw3grvhc0000gn/T//ccuiTnhW.s 			page 87


 3180 0036 1344     		add	r3, r3, r2
 3181 0038 7B61     		str	r3, [r7, #20]
1772:Drivers/STM32F4xx_HAL_Driver/Src/stm32f4xx_hal_ltdc.c **** 
1773:Drivers/STM32F4xx_HAL_Driver/Src/stm32f4xx_hal_ltdc.c ****   /* Reconfigure the Alpha value */
1774:Drivers/STM32F4xx_HAL_Driver/Src/stm32f4xx_hal_ltdc.c ****   pLayerCfg->Alpha = Alpha;
 3182              		.loc 1 1774 20
 3183 003a 7B69     		ldr	r3, [r7, #20]
 3184 003c BA68     		ldr	r2, [r7, #8]
 3185 003e 5A61     		str	r2, [r3, #20]
1775:Drivers/STM32F4xx_HAL_Driver/Src/stm32f4xx_hal_ltdc.c **** 
1776:Drivers/STM32F4xx_HAL_Driver/Src/stm32f4xx_hal_ltdc.c ****   /* Set LTDC parameters */
1777:Drivers/STM32F4xx_HAL_Driver/Src/stm32f4xx_hal_ltdc.c ****   LTDC_SetConfig(hltdc, pLayerCfg, LayerIdx);
 3186              		.loc 1 1777 3
 3187 0040 7A68     		ldr	r2, [r7, #4]
 3188 0042 7969     		ldr	r1, [r7, #20]
 3189 0044 F868     		ldr	r0, [r7, #12]
 3190 0046 FFF7FEFF 		bl	LTDC_SetConfig
1778:Drivers/STM32F4xx_HAL_Driver/Src/stm32f4xx_hal_ltdc.c **** 
1779:Drivers/STM32F4xx_HAL_Driver/Src/stm32f4xx_hal_ltdc.c ****   /* Change the LTDC state*/
1780:Drivers/STM32F4xx_HAL_Driver/Src/stm32f4xx_hal_ltdc.c ****   hltdc->State = HAL_LTDC_STATE_READY;
 3191              		.loc 1 1780 16
 3192 004a FB68     		ldr	r3, [r7, #12]
 3193 004c 0122     		movs	r2, #1
 3194 004e 83F8A120 		strb	r2, [r3, #161]
1781:Drivers/STM32F4xx_HAL_Driver/Src/stm32f4xx_hal_ltdc.c **** 
1782:Drivers/STM32F4xx_HAL_Driver/Src/stm32f4xx_hal_ltdc.c ****   /* Process unlocked */
1783:Drivers/STM32F4xx_HAL_Driver/Src/stm32f4xx_hal_ltdc.c ****   __HAL_UNLOCK(hltdc);
 3195              		.loc 1 1783 3
 3196 0052 FB68     		ldr	r3, [r7, #12]
 3197 0054 0022     		movs	r2, #0
 3198 0056 83F8A020 		strb	r2, [r3, #160]
1784:Drivers/STM32F4xx_HAL_Driver/Src/stm32f4xx_hal_ltdc.c **** 
1785:Drivers/STM32F4xx_HAL_Driver/Src/stm32f4xx_hal_ltdc.c ****   return HAL_OK;
 3199              		.loc 1 1785 10
 3200 005a 0023     		movs	r3, #0
 3201              	.L107:
1786:Drivers/STM32F4xx_HAL_Driver/Src/stm32f4xx_hal_ltdc.c **** }
 3202              		.loc 1 1786 1
 3203 005c 1846     		mov	r0, r3
 3204 005e 1837     		adds	r7, r7, #24
 3205              	.LCFI164:
 3206              		.cfi_def_cfa_offset 8
 3207 0060 BD46     		mov	sp, r7
 3208              	.LCFI165:
 3209              		.cfi_def_cfa_register 13
 3210              		@ sp needed
 3211 0062 80BD     		pop	{r7, pc}
 3212              		.cfi_endproc
 3213              	.LFE163:
 3215              		.section	.text.HAL_LTDC_SetAddress_NoReload,"ax",%progbits
 3216              		.align	1
 3217              		.global	HAL_LTDC_SetAddress_NoReload
 3218              		.syntax unified
 3219              		.thumb
 3220              		.thumb_func
 3222              	HAL_LTDC_SetAddress_NoReload:
 3223              	.LFB164:
ARM GAS  /var/folders/06/9k7gq4t13mj84z2yhw3grvhc0000gn/T//ccuiTnhW.s 			page 88


1787:Drivers/STM32F4xx_HAL_Driver/Src/stm32f4xx_hal_ltdc.c **** 
1788:Drivers/STM32F4xx_HAL_Driver/Src/stm32f4xx_hal_ltdc.c **** /**
1789:Drivers/STM32F4xx_HAL_Driver/Src/stm32f4xx_hal_ltdc.c ****   * @brief  Reconfigure the frame buffer Address without reloading.
1790:Drivers/STM32F4xx_HAL_Driver/Src/stm32f4xx_hal_ltdc.c ****   *         Variant of the function HAL_LTDC_SetAddress without immediate reload.
1791:Drivers/STM32F4xx_HAL_Driver/Src/stm32f4xx_hal_ltdc.c ****   * @param  hltdc     pointer to a LTDC_HandleTypeDef structure that contains
1792:Drivers/STM32F4xx_HAL_Driver/Src/stm32f4xx_hal_ltdc.c ****   *                   the configuration information for the LTDC.
1793:Drivers/STM32F4xx_HAL_Driver/Src/stm32f4xx_hal_ltdc.c ****   * @param  Address   new address value.
1794:Drivers/STM32F4xx_HAL_Driver/Src/stm32f4xx_hal_ltdc.c ****   * @param  LayerIdx  LTDC Layer index.
1795:Drivers/STM32F4xx_HAL_Driver/Src/stm32f4xx_hal_ltdc.c ****   *                   This parameter can be one of the following values:
1796:Drivers/STM32F4xx_HAL_Driver/Src/stm32f4xx_hal_ltdc.c ****   *                   LTDC_LAYER_1 (0) or LTDC_LAYER_2 (1).
1797:Drivers/STM32F4xx_HAL_Driver/Src/stm32f4xx_hal_ltdc.c ****   * @retval  HAL status
1798:Drivers/STM32F4xx_HAL_Driver/Src/stm32f4xx_hal_ltdc.c ****   */
1799:Drivers/STM32F4xx_HAL_Driver/Src/stm32f4xx_hal_ltdc.c **** HAL_StatusTypeDef HAL_LTDC_SetAddress_NoReload(LTDC_HandleTypeDef *hltdc, uint32_t Address, uint32_
1800:Drivers/STM32F4xx_HAL_Driver/Src/stm32f4xx_hal_ltdc.c **** {
 3224              		.loc 1 1800 1
 3225              		.cfi_startproc
 3226              		@ args = 0, pretend = 0, frame = 24
 3227              		@ frame_needed = 1, uses_anonymous_args = 0
 3228 0000 80B5     		push	{r7, lr}
 3229              	.LCFI166:
 3230              		.cfi_def_cfa_offset 8
 3231              		.cfi_offset 7, -8
 3232              		.cfi_offset 14, -4
 3233 0002 86B0     		sub	sp, sp, #24
 3234              	.LCFI167:
 3235              		.cfi_def_cfa_offset 32
 3236 0004 00AF     		add	r7, sp, #0
 3237              	.LCFI168:
 3238              		.cfi_def_cfa_register 7
 3239 0006 F860     		str	r0, [r7, #12]
 3240 0008 B960     		str	r1, [r7, #8]
 3241 000a 7A60     		str	r2, [r7, #4]
1801:Drivers/STM32F4xx_HAL_Driver/Src/stm32f4xx_hal_ltdc.c ****   LTDC_LayerCfgTypeDef *pLayerCfg;
1802:Drivers/STM32F4xx_HAL_Driver/Src/stm32f4xx_hal_ltdc.c **** 
1803:Drivers/STM32F4xx_HAL_Driver/Src/stm32f4xx_hal_ltdc.c ****   /* Check the parameters */
1804:Drivers/STM32F4xx_HAL_Driver/Src/stm32f4xx_hal_ltdc.c ****   assert_param(IS_LTDC_LAYER(LayerIdx));
1805:Drivers/STM32F4xx_HAL_Driver/Src/stm32f4xx_hal_ltdc.c **** 
1806:Drivers/STM32F4xx_HAL_Driver/Src/stm32f4xx_hal_ltdc.c ****   /* Process locked */
1807:Drivers/STM32F4xx_HAL_Driver/Src/stm32f4xx_hal_ltdc.c ****   __HAL_LOCK(hltdc);
 3242              		.loc 1 1807 3
 3243 000c FB68     		ldr	r3, [r7, #12]
 3244 000e 93F8A030 		ldrb	r3, [r3, #160]	@ zero_extendqisi2
 3245 0012 012B     		cmp	r3, #1
 3246 0014 01D1     		bne	.L109
 3247              		.loc 1 1807 3 is_stmt 0 discriminator 1
 3248 0016 0223     		movs	r3, #2
 3249              		.loc 1 1807 3
 3250 0018 20E0     		b	.L110
 3251              	.L109:
 3252              		.loc 1 1807 3 discriminator 2
 3253 001a FB68     		ldr	r3, [r7, #12]
 3254 001c 0122     		movs	r2, #1
 3255 001e 83F8A020 		strb	r2, [r3, #160]
1808:Drivers/STM32F4xx_HAL_Driver/Src/stm32f4xx_hal_ltdc.c **** 
1809:Drivers/STM32F4xx_HAL_Driver/Src/stm32f4xx_hal_ltdc.c ****   /* Change LTDC peripheral state */
1810:Drivers/STM32F4xx_HAL_Driver/Src/stm32f4xx_hal_ltdc.c ****   hltdc->State = HAL_LTDC_STATE_BUSY;
 3256              		.loc 1 1810 16 is_stmt 1
ARM GAS  /var/folders/06/9k7gq4t13mj84z2yhw3grvhc0000gn/T//ccuiTnhW.s 			page 89


 3257 0022 FB68     		ldr	r3, [r7, #12]
 3258 0024 0222     		movs	r2, #2
 3259 0026 83F8A120 		strb	r2, [r3, #161]
1811:Drivers/STM32F4xx_HAL_Driver/Src/stm32f4xx_hal_ltdc.c **** 
1812:Drivers/STM32F4xx_HAL_Driver/Src/stm32f4xx_hal_ltdc.c ****   /* Get layer configuration from handle structure */
1813:Drivers/STM32F4xx_HAL_Driver/Src/stm32f4xx_hal_ltdc.c ****   pLayerCfg = &hltdc->LayerCfg[LayerIdx];
 3260              		.loc 1 1813 13
 3261 002a 7B68     		ldr	r3, [r7, #4]
 3262 002c 3422     		movs	r2, #52
 3263 002e 02FB03F3 		mul	r3, r2, r3
 3264 0032 3833     		adds	r3, r3, #56
 3265 0034 FA68     		ldr	r2, [r7, #12]
 3266 0036 1344     		add	r3, r3, r2
 3267 0038 7B61     		str	r3, [r7, #20]
1814:Drivers/STM32F4xx_HAL_Driver/Src/stm32f4xx_hal_ltdc.c **** 
1815:Drivers/STM32F4xx_HAL_Driver/Src/stm32f4xx_hal_ltdc.c ****   /* Reconfigure the Address */
1816:Drivers/STM32F4xx_HAL_Driver/Src/stm32f4xx_hal_ltdc.c ****   pLayerCfg->FBStartAdress = Address;
 3268              		.loc 1 1816 28
 3269 003a 7B69     		ldr	r3, [r7, #20]
 3270 003c BA68     		ldr	r2, [r7, #8]
 3271 003e 5A62     		str	r2, [r3, #36]
1817:Drivers/STM32F4xx_HAL_Driver/Src/stm32f4xx_hal_ltdc.c **** 
1818:Drivers/STM32F4xx_HAL_Driver/Src/stm32f4xx_hal_ltdc.c ****   /* Set LTDC parameters */
1819:Drivers/STM32F4xx_HAL_Driver/Src/stm32f4xx_hal_ltdc.c ****   LTDC_SetConfig(hltdc, pLayerCfg, LayerIdx);
 3272              		.loc 1 1819 3
 3273 0040 7A68     		ldr	r2, [r7, #4]
 3274 0042 7969     		ldr	r1, [r7, #20]
 3275 0044 F868     		ldr	r0, [r7, #12]
 3276 0046 FFF7FEFF 		bl	LTDC_SetConfig
1820:Drivers/STM32F4xx_HAL_Driver/Src/stm32f4xx_hal_ltdc.c **** 
1821:Drivers/STM32F4xx_HAL_Driver/Src/stm32f4xx_hal_ltdc.c ****   /* Change the LTDC state*/
1822:Drivers/STM32F4xx_HAL_Driver/Src/stm32f4xx_hal_ltdc.c ****   hltdc->State = HAL_LTDC_STATE_READY;
 3277              		.loc 1 1822 16
 3278 004a FB68     		ldr	r3, [r7, #12]
 3279 004c 0122     		movs	r2, #1
 3280 004e 83F8A120 		strb	r2, [r3, #161]
1823:Drivers/STM32F4xx_HAL_Driver/Src/stm32f4xx_hal_ltdc.c **** 
1824:Drivers/STM32F4xx_HAL_Driver/Src/stm32f4xx_hal_ltdc.c ****   /* Process unlocked */
1825:Drivers/STM32F4xx_HAL_Driver/Src/stm32f4xx_hal_ltdc.c ****   __HAL_UNLOCK(hltdc);
 3281              		.loc 1 1825 3
 3282 0052 FB68     		ldr	r3, [r7, #12]
 3283 0054 0022     		movs	r2, #0
 3284 0056 83F8A020 		strb	r2, [r3, #160]
1826:Drivers/STM32F4xx_HAL_Driver/Src/stm32f4xx_hal_ltdc.c **** 
1827:Drivers/STM32F4xx_HAL_Driver/Src/stm32f4xx_hal_ltdc.c ****   return HAL_OK;
 3285              		.loc 1 1827 10
 3286 005a 0023     		movs	r3, #0
 3287              	.L110:
1828:Drivers/STM32F4xx_HAL_Driver/Src/stm32f4xx_hal_ltdc.c **** }
 3288              		.loc 1 1828 1
 3289 005c 1846     		mov	r0, r3
 3290 005e 1837     		adds	r7, r7, #24
 3291              	.LCFI169:
 3292              		.cfi_def_cfa_offset 8
 3293 0060 BD46     		mov	sp, r7
 3294              	.LCFI170:
 3295              		.cfi_def_cfa_register 13
ARM GAS  /var/folders/06/9k7gq4t13mj84z2yhw3grvhc0000gn/T//ccuiTnhW.s 			page 90


 3296              		@ sp needed
 3297 0062 80BD     		pop	{r7, pc}
 3298              		.cfi_endproc
 3299              	.LFE164:
 3301              		.section	.text.HAL_LTDC_SetPitch_NoReload,"ax",%progbits
 3302              		.align	1
 3303              		.global	HAL_LTDC_SetPitch_NoReload
 3304              		.syntax unified
 3305              		.thumb
 3306              		.thumb_func
 3308              	HAL_LTDC_SetPitch_NoReload:
 3309              	.LFB165:
1829:Drivers/STM32F4xx_HAL_Driver/Src/stm32f4xx_hal_ltdc.c **** 
1830:Drivers/STM32F4xx_HAL_Driver/Src/stm32f4xx_hal_ltdc.c **** /**
1831:Drivers/STM32F4xx_HAL_Driver/Src/stm32f4xx_hal_ltdc.c ****   * @brief  Function used to reconfigure the pitch for specific cases where the attached LayerIdx b
1832:Drivers/STM32F4xx_HAL_Driver/Src/stm32f4xx_hal_ltdc.c ****   *         that is larger than the one intended to be displayed on screen. Example of a buffer 800
1833:Drivers/STM32F4xx_HAL_Driver/Src/stm32f4xx_hal_ltdc.c ****   *         layer for which we want to read and display on screen only a portion 320x240 taken in t
1834:Drivers/STM32F4xx_HAL_Driver/Src/stm32f4xx_hal_ltdc.c ****   *         of the buffer.
1835:Drivers/STM32F4xx_HAL_Driver/Src/stm32f4xx_hal_ltdc.c ****   *         The pitch in pixels will be in that case 800 pixels and not 320 pixels as initially con
1836:Drivers/STM32F4xx_HAL_Driver/Src/stm32f4xx_hal_ltdc.c ****   *         previous call to HAL_LTDC_ConfigLayer().
1837:Drivers/STM32F4xx_HAL_Driver/Src/stm32f4xx_hal_ltdc.c ****   * @note   This function should be called only after a previous call to HAL_LTDC_ConfigLayer() to 
1838:Drivers/STM32F4xx_HAL_Driver/Src/stm32f4xx_hal_ltdc.c ****   *         pitch configured by HAL_LTDC_ConfigLayer() when required (refer to example described ju
1839:Drivers/STM32F4xx_HAL_Driver/Src/stm32f4xx_hal_ltdc.c ****   *         Variant of the function HAL_LTDC_SetPitch without immediate reload.
1840:Drivers/STM32F4xx_HAL_Driver/Src/stm32f4xx_hal_ltdc.c ****   * @param  hltdc              pointer to a LTDC_HandleTypeDef structure that contains
1841:Drivers/STM32F4xx_HAL_Driver/Src/stm32f4xx_hal_ltdc.c ****   *                            the configuration information for the LTDC.
1842:Drivers/STM32F4xx_HAL_Driver/Src/stm32f4xx_hal_ltdc.c ****   * @param  LinePitchInPixels  New line pitch in pixels to configure for LTDC layer 'LayerIdx'.
1843:Drivers/STM32F4xx_HAL_Driver/Src/stm32f4xx_hal_ltdc.c ****   * @param  LayerIdx           LTDC layer index concerned by the modification of line pitch.
1844:Drivers/STM32F4xx_HAL_Driver/Src/stm32f4xx_hal_ltdc.c ****   * @retval HAL status
1845:Drivers/STM32F4xx_HAL_Driver/Src/stm32f4xx_hal_ltdc.c ****   */
1846:Drivers/STM32F4xx_HAL_Driver/Src/stm32f4xx_hal_ltdc.c **** HAL_StatusTypeDef HAL_LTDC_SetPitch_NoReload(LTDC_HandleTypeDef *hltdc, uint32_t LinePitchInPixels,
1847:Drivers/STM32F4xx_HAL_Driver/Src/stm32f4xx_hal_ltdc.c **** {
 3310              		.loc 1 1847 1
 3311              		.cfi_startproc
 3312              		@ args = 0, pretend = 0, frame = 32
 3313              		@ frame_needed = 1, uses_anonymous_args = 0
 3314              		@ link register save eliminated.
 3315 0000 80B4     		push	{r7}
 3316              	.LCFI171:
 3317              		.cfi_def_cfa_offset 4
 3318              		.cfi_offset 7, -4
 3319 0002 89B0     		sub	sp, sp, #36
 3320              	.LCFI172:
 3321              		.cfi_def_cfa_offset 40
 3322 0004 00AF     		add	r7, sp, #0
 3323              	.LCFI173:
 3324              		.cfi_def_cfa_register 7
 3325 0006 F860     		str	r0, [r7, #12]
 3326 0008 B960     		str	r1, [r7, #8]
 3327 000a 7A60     		str	r2, [r7, #4]
1848:Drivers/STM32F4xx_HAL_Driver/Src/stm32f4xx_hal_ltdc.c ****   uint32_t tmp;
1849:Drivers/STM32F4xx_HAL_Driver/Src/stm32f4xx_hal_ltdc.c ****   uint32_t pitchUpdate;
1850:Drivers/STM32F4xx_HAL_Driver/Src/stm32f4xx_hal_ltdc.c ****   uint32_t pixelFormat;
1851:Drivers/STM32F4xx_HAL_Driver/Src/stm32f4xx_hal_ltdc.c **** 
1852:Drivers/STM32F4xx_HAL_Driver/Src/stm32f4xx_hal_ltdc.c ****   /* Check the parameters */
1853:Drivers/STM32F4xx_HAL_Driver/Src/stm32f4xx_hal_ltdc.c ****   assert_param(IS_LTDC_LAYER(LayerIdx));
1854:Drivers/STM32F4xx_HAL_Driver/Src/stm32f4xx_hal_ltdc.c **** 
1855:Drivers/STM32F4xx_HAL_Driver/Src/stm32f4xx_hal_ltdc.c ****   /* Process locked */
ARM GAS  /var/folders/06/9k7gq4t13mj84z2yhw3grvhc0000gn/T//ccuiTnhW.s 			page 91


1856:Drivers/STM32F4xx_HAL_Driver/Src/stm32f4xx_hal_ltdc.c ****   __HAL_LOCK(hltdc);
 3328              		.loc 1 1856 3
 3329 000c FB68     		ldr	r3, [r7, #12]
 3330 000e 93F8A030 		ldrb	r3, [r3, #160]	@ zero_extendqisi2
 3331 0012 012B     		cmp	r3, #1
 3332 0014 01D1     		bne	.L112
 3333              		.loc 1 1856 3 is_stmt 0 discriminator 1
 3334 0016 0223     		movs	r3, #2
 3335              		.loc 1 1856 3
 3336 0018 63E0     		b	.L113
 3337              	.L112:
 3338              		.loc 1 1856 3 discriminator 2
 3339 001a FB68     		ldr	r3, [r7, #12]
 3340 001c 0122     		movs	r2, #1
 3341 001e 83F8A020 		strb	r2, [r3, #160]
1857:Drivers/STM32F4xx_HAL_Driver/Src/stm32f4xx_hal_ltdc.c **** 
1858:Drivers/STM32F4xx_HAL_Driver/Src/stm32f4xx_hal_ltdc.c ****   /* Change LTDC peripheral state */
1859:Drivers/STM32F4xx_HAL_Driver/Src/stm32f4xx_hal_ltdc.c ****   hltdc->State = HAL_LTDC_STATE_BUSY;
 3342              		.loc 1 1859 16 is_stmt 1
 3343 0022 FB68     		ldr	r3, [r7, #12]
 3344 0024 0222     		movs	r2, #2
 3345 0026 83F8A120 		strb	r2, [r3, #161]
1860:Drivers/STM32F4xx_HAL_Driver/Src/stm32f4xx_hal_ltdc.c **** 
1861:Drivers/STM32F4xx_HAL_Driver/Src/stm32f4xx_hal_ltdc.c ****   /* get LayerIdx used pixel format */
1862:Drivers/STM32F4xx_HAL_Driver/Src/stm32f4xx_hal_ltdc.c ****   pixelFormat = hltdc->LayerCfg[LayerIdx].PixelFormat;
 3346              		.loc 1 1862 15
 3347 002a FA68     		ldr	r2, [r7, #12]
 3348 002c 7B68     		ldr	r3, [r7, #4]
 3349 002e 3421     		movs	r1, #52
 3350 0030 01FB03F3 		mul	r3, r1, r3
 3351 0034 1344     		add	r3, r3, r2
 3352 0036 4833     		adds	r3, r3, #72
 3353 0038 1B68     		ldr	r3, [r3]
 3354 003a BB61     		str	r3, [r7, #24]
1863:Drivers/STM32F4xx_HAL_Driver/Src/stm32f4xx_hal_ltdc.c **** 
1864:Drivers/STM32F4xx_HAL_Driver/Src/stm32f4xx_hal_ltdc.c ****   if (pixelFormat == LTDC_PIXEL_FORMAT_ARGB8888)
 3355              		.loc 1 1864 6
 3356 003c BB69     		ldr	r3, [r7, #24]
 3357 003e 002B     		cmp	r3, #0
 3358 0040 02D1     		bne	.L114
1865:Drivers/STM32F4xx_HAL_Driver/Src/stm32f4xx_hal_ltdc.c ****   {
1866:Drivers/STM32F4xx_HAL_Driver/Src/stm32f4xx_hal_ltdc.c ****     tmp = 4U;
 3359              		.loc 1 1866 9
 3360 0042 0423     		movs	r3, #4
 3361 0044 FB61     		str	r3, [r7, #28]
 3362 0046 16E0     		b	.L115
 3363              	.L114:
1867:Drivers/STM32F4xx_HAL_Driver/Src/stm32f4xx_hal_ltdc.c ****   }
1868:Drivers/STM32F4xx_HAL_Driver/Src/stm32f4xx_hal_ltdc.c ****   else if (pixelFormat == LTDC_PIXEL_FORMAT_RGB888)
 3364              		.loc 1 1868 11
 3365 0048 BB69     		ldr	r3, [r7, #24]
 3366 004a 012B     		cmp	r3, #1
 3367 004c 02D1     		bne	.L116
1869:Drivers/STM32F4xx_HAL_Driver/Src/stm32f4xx_hal_ltdc.c ****   {
1870:Drivers/STM32F4xx_HAL_Driver/Src/stm32f4xx_hal_ltdc.c ****     tmp = 3U;
 3368              		.loc 1 1870 9
 3369 004e 0323     		movs	r3, #3
ARM GAS  /var/folders/06/9k7gq4t13mj84z2yhw3grvhc0000gn/T//ccuiTnhW.s 			page 92


 3370 0050 FB61     		str	r3, [r7, #28]
 3371 0052 10E0     		b	.L115
 3372              	.L116:
1871:Drivers/STM32F4xx_HAL_Driver/Src/stm32f4xx_hal_ltdc.c ****   }
1872:Drivers/STM32F4xx_HAL_Driver/Src/stm32f4xx_hal_ltdc.c ****   else if ((pixelFormat == LTDC_PIXEL_FORMAT_ARGB4444) || \
 3373              		.loc 1 1872 11
 3374 0054 BB69     		ldr	r3, [r7, #24]
 3375 0056 042B     		cmp	r3, #4
 3376 0058 08D0     		beq	.L117
 3377              		.loc 1 1872 56 discriminator 1
 3378 005a BB69     		ldr	r3, [r7, #24]
 3379 005c 022B     		cmp	r3, #2
 3380 005e 05D0     		beq	.L117
1873:Drivers/STM32F4xx_HAL_Driver/Src/stm32f4xx_hal_ltdc.c ****            (pixelFormat == LTDC_PIXEL_FORMAT_RGB565)   || \
 3381              		.loc 1 1873 56
 3382 0060 BB69     		ldr	r3, [r7, #24]
 3383 0062 032B     		cmp	r3, #3
 3384 0064 02D0     		beq	.L117
1874:Drivers/STM32F4xx_HAL_Driver/Src/stm32f4xx_hal_ltdc.c ****            (pixelFormat == LTDC_PIXEL_FORMAT_ARGB1555) || \
 3385              		.loc 1 1874 56
 3386 0066 BB69     		ldr	r3, [r7, #24]
 3387 0068 072B     		cmp	r3, #7
 3388 006a 02D1     		bne	.L118
 3389              	.L117:
1875:Drivers/STM32F4xx_HAL_Driver/Src/stm32f4xx_hal_ltdc.c ****            (pixelFormat == LTDC_PIXEL_FORMAT_AL88))
1876:Drivers/STM32F4xx_HAL_Driver/Src/stm32f4xx_hal_ltdc.c ****   {
1877:Drivers/STM32F4xx_HAL_Driver/Src/stm32f4xx_hal_ltdc.c ****     tmp = 2U;
 3390              		.loc 1 1877 9
 3391 006c 0223     		movs	r3, #2
 3392 006e FB61     		str	r3, [r7, #28]
 3393 0070 01E0     		b	.L115
 3394              	.L118:
1878:Drivers/STM32F4xx_HAL_Driver/Src/stm32f4xx_hal_ltdc.c ****   }
1879:Drivers/STM32F4xx_HAL_Driver/Src/stm32f4xx_hal_ltdc.c ****   else
1880:Drivers/STM32F4xx_HAL_Driver/Src/stm32f4xx_hal_ltdc.c ****   {
1881:Drivers/STM32F4xx_HAL_Driver/Src/stm32f4xx_hal_ltdc.c ****     tmp = 1U;
 3395              		.loc 1 1881 9
 3396 0072 0123     		movs	r3, #1
 3397 0074 FB61     		str	r3, [r7, #28]
 3398              	.L115:
1882:Drivers/STM32F4xx_HAL_Driver/Src/stm32f4xx_hal_ltdc.c ****   }
1883:Drivers/STM32F4xx_HAL_Driver/Src/stm32f4xx_hal_ltdc.c **** 
1884:Drivers/STM32F4xx_HAL_Driver/Src/stm32f4xx_hal_ltdc.c ****   pitchUpdate = ((LinePitchInPixels * tmp) << 16U);
 3399              		.loc 1 1884 37
 3400 0076 BB68     		ldr	r3, [r7, #8]
 3401 0078 FA69     		ldr	r2, [r7, #28]
 3402 007a 02FB03F3 		mul	r3, r2, r3
 3403              		.loc 1 1884 15
 3404 007e 1B04     		lsls	r3, r3, #16
 3405 0080 7B61     		str	r3, [r7, #20]
1885:Drivers/STM32F4xx_HAL_Driver/Src/stm32f4xx_hal_ltdc.c **** 
1886:Drivers/STM32F4xx_HAL_Driver/Src/stm32f4xx_hal_ltdc.c ****   /* Clear previously set standard pitch */
1887:Drivers/STM32F4xx_HAL_Driver/Src/stm32f4xx_hal_ltdc.c ****   LTDC_LAYER(hltdc, LayerIdx)->CFBLR &= ~LTDC_LxCFBLR_CFBP;
 3406              		.loc 1 1887 3
 3407 0082 FB68     		ldr	r3, [r7, #12]
 3408 0084 1B68     		ldr	r3, [r3]
 3409              		.loc 1 1887 30
ARM GAS  /var/folders/06/9k7gq4t13mj84z2yhw3grvhc0000gn/T//ccuiTnhW.s 			page 93


 3410 0086 1A46     		mov	r2, r3
 3411 0088 7B68     		ldr	r3, [r7, #4]
 3412 008a DB01     		lsls	r3, r3, #7
 3413 008c 1344     		add	r3, r3, r2
 3414 008e 8433     		adds	r3, r3, #132
 3415 0090 DB6A     		ldr	r3, [r3, #44]
 3416              		.loc 1 1887 3
 3417 0092 FA68     		ldr	r2, [r7, #12]
 3418 0094 1268     		ldr	r2, [r2]
 3419              		.loc 1 1887 30
 3420 0096 1146     		mov	r1, r2
 3421 0098 7A68     		ldr	r2, [r7, #4]
 3422 009a D201     		lsls	r2, r2, #7
 3423 009c 0A44     		add	r2, r2, r1
 3424 009e 8432     		adds	r2, r2, #132
 3425              		.loc 1 1887 38
 3426 00a0 23F0FF53 		bic	r3, r3, #534773760
 3427 00a4 23F4F813 		bic	r3, r3, #2031616
 3428 00a8 D362     		str	r3, [r2, #44]
1888:Drivers/STM32F4xx_HAL_Driver/Src/stm32f4xx_hal_ltdc.c **** 
1889:Drivers/STM32F4xx_HAL_Driver/Src/stm32f4xx_hal_ltdc.c ****   /* Set new line pitch value */
1890:Drivers/STM32F4xx_HAL_Driver/Src/stm32f4xx_hal_ltdc.c ****   LTDC_LAYER(hltdc, LayerIdx)->CFBLR |= pitchUpdate;
 3429              		.loc 1 1890 3
 3430 00aa FB68     		ldr	r3, [r7, #12]
 3431 00ac 1B68     		ldr	r3, [r3]
 3432              		.loc 1 1890 30
 3433 00ae 1A46     		mov	r2, r3
 3434 00b0 7B68     		ldr	r3, [r7, #4]
 3435 00b2 DB01     		lsls	r3, r3, #7
 3436 00b4 1344     		add	r3, r3, r2
 3437 00b6 8433     		adds	r3, r3, #132
 3438 00b8 DA6A     		ldr	r2, [r3, #44]
 3439              		.loc 1 1890 3
 3440 00ba FB68     		ldr	r3, [r7, #12]
 3441 00bc 1B68     		ldr	r3, [r3]
 3442              		.loc 1 1890 30
 3443 00be 1946     		mov	r1, r3
 3444 00c0 7B68     		ldr	r3, [r7, #4]
 3445 00c2 DB01     		lsls	r3, r3, #7
 3446 00c4 0B44     		add	r3, r3, r1
 3447 00c6 8433     		adds	r3, r3, #132
 3448 00c8 1946     		mov	r1, r3
 3449              		.loc 1 1890 38
 3450 00ca 7B69     		ldr	r3, [r7, #20]
 3451 00cc 1343     		orrs	r3, r3, r2
 3452 00ce CB62     		str	r3, [r1, #44]
1891:Drivers/STM32F4xx_HAL_Driver/Src/stm32f4xx_hal_ltdc.c **** 
1892:Drivers/STM32F4xx_HAL_Driver/Src/stm32f4xx_hal_ltdc.c ****   /* Change the LTDC state*/
1893:Drivers/STM32F4xx_HAL_Driver/Src/stm32f4xx_hal_ltdc.c ****   hltdc->State = HAL_LTDC_STATE_READY;
 3453              		.loc 1 1893 16
 3454 00d0 FB68     		ldr	r3, [r7, #12]
 3455 00d2 0122     		movs	r2, #1
 3456 00d4 83F8A120 		strb	r2, [r3, #161]
1894:Drivers/STM32F4xx_HAL_Driver/Src/stm32f4xx_hal_ltdc.c **** 
1895:Drivers/STM32F4xx_HAL_Driver/Src/stm32f4xx_hal_ltdc.c ****   /* Process unlocked */
1896:Drivers/STM32F4xx_HAL_Driver/Src/stm32f4xx_hal_ltdc.c ****   __HAL_UNLOCK(hltdc);
 3457              		.loc 1 1896 3
ARM GAS  /var/folders/06/9k7gq4t13mj84z2yhw3grvhc0000gn/T//ccuiTnhW.s 			page 94


 3458 00d8 FB68     		ldr	r3, [r7, #12]
 3459 00da 0022     		movs	r2, #0
 3460 00dc 83F8A020 		strb	r2, [r3, #160]
1897:Drivers/STM32F4xx_HAL_Driver/Src/stm32f4xx_hal_ltdc.c **** 
1898:Drivers/STM32F4xx_HAL_Driver/Src/stm32f4xx_hal_ltdc.c ****   return HAL_OK;
 3461              		.loc 1 1898 10
 3462 00e0 0023     		movs	r3, #0
 3463              	.L113:
1899:Drivers/STM32F4xx_HAL_Driver/Src/stm32f4xx_hal_ltdc.c **** }
 3464              		.loc 1 1899 1
 3465 00e2 1846     		mov	r0, r3
 3466 00e4 2437     		adds	r7, r7, #36
 3467              	.LCFI174:
 3468              		.cfi_def_cfa_offset 4
 3469 00e6 BD46     		mov	sp, r7
 3470              	.LCFI175:
 3471              		.cfi_def_cfa_register 13
 3472              		@ sp needed
 3473 00e8 5DF8047B 		ldr	r7, [sp], #4
 3474              	.LCFI176:
 3475              		.cfi_restore 7
 3476              		.cfi_def_cfa_offset 0
 3477 00ec 7047     		bx	lr
 3478              		.cfi_endproc
 3479              	.LFE165:
 3481              		.section	.text.HAL_LTDC_ConfigColorKeying_NoReload,"ax",%progbits
 3482              		.align	1
 3483              		.global	HAL_LTDC_ConfigColorKeying_NoReload
 3484              		.syntax unified
 3485              		.thumb
 3486              		.thumb_func
 3488              	HAL_LTDC_ConfigColorKeying_NoReload:
 3489              	.LFB166:
1900:Drivers/STM32F4xx_HAL_Driver/Src/stm32f4xx_hal_ltdc.c **** 
1901:Drivers/STM32F4xx_HAL_Driver/Src/stm32f4xx_hal_ltdc.c **** 
1902:Drivers/STM32F4xx_HAL_Driver/Src/stm32f4xx_hal_ltdc.c **** /**
1903:Drivers/STM32F4xx_HAL_Driver/Src/stm32f4xx_hal_ltdc.c ****   * @brief  Configure the color keying without reloading.
1904:Drivers/STM32F4xx_HAL_Driver/Src/stm32f4xx_hal_ltdc.c ****   *         Variant of the function HAL_LTDC_ConfigColorKeying without immediate reload.
1905:Drivers/STM32F4xx_HAL_Driver/Src/stm32f4xx_hal_ltdc.c ****   * @param  hltdc     pointer to a LTDC_HandleTypeDef structure that contains
1906:Drivers/STM32F4xx_HAL_Driver/Src/stm32f4xx_hal_ltdc.c ****   *                   the configuration information for the LTDC.
1907:Drivers/STM32F4xx_HAL_Driver/Src/stm32f4xx_hal_ltdc.c ****   * @param  RGBValue the color key value
1908:Drivers/STM32F4xx_HAL_Driver/Src/stm32f4xx_hal_ltdc.c ****   * @param  LayerIdx  LTDC Layer index.
1909:Drivers/STM32F4xx_HAL_Driver/Src/stm32f4xx_hal_ltdc.c ****   *                   This parameter can be one of the following values:
1910:Drivers/STM32F4xx_HAL_Driver/Src/stm32f4xx_hal_ltdc.c ****   *                   LTDC_LAYER_1 (0) or LTDC_LAYER_2 (1)
1911:Drivers/STM32F4xx_HAL_Driver/Src/stm32f4xx_hal_ltdc.c ****   * @retval HAL status
1912:Drivers/STM32F4xx_HAL_Driver/Src/stm32f4xx_hal_ltdc.c ****   */
1913:Drivers/STM32F4xx_HAL_Driver/Src/stm32f4xx_hal_ltdc.c **** HAL_StatusTypeDef HAL_LTDC_ConfigColorKeying_NoReload(LTDC_HandleTypeDef *hltdc, uint32_t RGBValue,
1914:Drivers/STM32F4xx_HAL_Driver/Src/stm32f4xx_hal_ltdc.c **** {
 3490              		.loc 1 1914 1
 3491              		.cfi_startproc
 3492              		@ args = 0, pretend = 0, frame = 16
 3493              		@ frame_needed = 1, uses_anonymous_args = 0
 3494              		@ link register save eliminated.
 3495 0000 80B4     		push	{r7}
 3496              	.LCFI177:
 3497              		.cfi_def_cfa_offset 4
 3498              		.cfi_offset 7, -4
ARM GAS  /var/folders/06/9k7gq4t13mj84z2yhw3grvhc0000gn/T//ccuiTnhW.s 			page 95


 3499 0002 85B0     		sub	sp, sp, #20
 3500              	.LCFI178:
 3501              		.cfi_def_cfa_offset 24
 3502 0004 00AF     		add	r7, sp, #0
 3503              	.LCFI179:
 3504              		.cfi_def_cfa_register 7
 3505 0006 F860     		str	r0, [r7, #12]
 3506 0008 B960     		str	r1, [r7, #8]
 3507 000a 7A60     		str	r2, [r7, #4]
1915:Drivers/STM32F4xx_HAL_Driver/Src/stm32f4xx_hal_ltdc.c ****   /* Check the parameters */
1916:Drivers/STM32F4xx_HAL_Driver/Src/stm32f4xx_hal_ltdc.c ****   assert_param(IS_LTDC_LAYER(LayerIdx));
1917:Drivers/STM32F4xx_HAL_Driver/Src/stm32f4xx_hal_ltdc.c **** 
1918:Drivers/STM32F4xx_HAL_Driver/Src/stm32f4xx_hal_ltdc.c ****   /* Process locked */
1919:Drivers/STM32F4xx_HAL_Driver/Src/stm32f4xx_hal_ltdc.c ****   __HAL_LOCK(hltdc);
 3508              		.loc 1 1919 3
 3509 000c FB68     		ldr	r3, [r7, #12]
 3510 000e 93F8A030 		ldrb	r3, [r3, #160]	@ zero_extendqisi2
 3511 0012 012B     		cmp	r3, #1
 3512 0014 01D1     		bne	.L120
 3513              		.loc 1 1919 3 is_stmt 0 discriminator 1
 3514 0016 0223     		movs	r3, #2
 3515              		.loc 1 1919 3
 3516 0018 2CE0     		b	.L121
 3517              	.L120:
 3518              		.loc 1 1919 3 discriminator 2
 3519 001a FB68     		ldr	r3, [r7, #12]
 3520 001c 0122     		movs	r2, #1
 3521 001e 83F8A020 		strb	r2, [r3, #160]
1920:Drivers/STM32F4xx_HAL_Driver/Src/stm32f4xx_hal_ltdc.c **** 
1921:Drivers/STM32F4xx_HAL_Driver/Src/stm32f4xx_hal_ltdc.c ****   /* Change LTDC peripheral state */
1922:Drivers/STM32F4xx_HAL_Driver/Src/stm32f4xx_hal_ltdc.c ****   hltdc->State = HAL_LTDC_STATE_BUSY;
 3522              		.loc 1 1922 16 is_stmt 1
 3523 0022 FB68     		ldr	r3, [r7, #12]
 3524 0024 0222     		movs	r2, #2
 3525 0026 83F8A120 		strb	r2, [r3, #161]
1923:Drivers/STM32F4xx_HAL_Driver/Src/stm32f4xx_hal_ltdc.c **** 
1924:Drivers/STM32F4xx_HAL_Driver/Src/stm32f4xx_hal_ltdc.c ****   /* Configure the default color values */
1925:Drivers/STM32F4xx_HAL_Driver/Src/stm32f4xx_hal_ltdc.c ****   LTDC_LAYER(hltdc, LayerIdx)->CKCR &=  ~(LTDC_LxCKCR_CKBLUE | LTDC_LxCKCR_CKGREEN | LTDC_LxCKCR_CK
 3526              		.loc 1 1925 3
 3527 002a FB68     		ldr	r3, [r7, #12]
 3528 002c 1B68     		ldr	r3, [r3]
 3529              		.loc 1 1925 30
 3530 002e 1A46     		mov	r2, r3
 3531 0030 7B68     		ldr	r3, [r7, #4]
 3532 0032 DB01     		lsls	r3, r3, #7
 3533 0034 1344     		add	r3, r3, r2
 3534 0036 8433     		adds	r3, r3, #132
 3535 0038 DB68     		ldr	r3, [r3, #12]
 3536              		.loc 1 1925 3
 3537 003a FA68     		ldr	r2, [r7, #12]
 3538 003c 1268     		ldr	r2, [r2]
 3539              		.loc 1 1925 30
 3540 003e 1146     		mov	r1, r2
 3541 0040 7A68     		ldr	r2, [r7, #4]
 3542 0042 D201     		lsls	r2, r2, #7
 3543 0044 0A44     		add	r2, r2, r1
 3544 0046 8432     		adds	r2, r2, #132
ARM GAS  /var/folders/06/9k7gq4t13mj84z2yhw3grvhc0000gn/T//ccuiTnhW.s 			page 96


 3545              		.loc 1 1925 37
 3546 0048 03F07F43 		and	r3, r3, #-16777216
 3547 004c D360     		str	r3, [r2, #12]
1926:Drivers/STM32F4xx_HAL_Driver/Src/stm32f4xx_hal_ltdc.c ****   LTDC_LAYER(hltdc, LayerIdx)->CKCR  = RGBValue;
 3548              		.loc 1 1926 3
 3549 004e FB68     		ldr	r3, [r7, #12]
 3550 0050 1B68     		ldr	r3, [r3]
 3551 0052 1A46     		mov	r2, r3
 3552 0054 7B68     		ldr	r3, [r7, #4]
 3553 0056 DB01     		lsls	r3, r3, #7
 3554 0058 1344     		add	r3, r3, r2
 3555 005a 8433     		adds	r3, r3, #132
 3556 005c 1A46     		mov	r2, r3
 3557              		.loc 1 1926 38
 3558 005e BB68     		ldr	r3, [r7, #8]
 3559 0060 D360     		str	r3, [r2, #12]
1927:Drivers/STM32F4xx_HAL_Driver/Src/stm32f4xx_hal_ltdc.c **** 
1928:Drivers/STM32F4xx_HAL_Driver/Src/stm32f4xx_hal_ltdc.c ****   /* Change the LTDC state*/
1929:Drivers/STM32F4xx_HAL_Driver/Src/stm32f4xx_hal_ltdc.c ****   hltdc->State = HAL_LTDC_STATE_READY;
 3560              		.loc 1 1929 16
 3561 0062 FB68     		ldr	r3, [r7, #12]
 3562 0064 0122     		movs	r2, #1
 3563 0066 83F8A120 		strb	r2, [r3, #161]
1930:Drivers/STM32F4xx_HAL_Driver/Src/stm32f4xx_hal_ltdc.c **** 
1931:Drivers/STM32F4xx_HAL_Driver/Src/stm32f4xx_hal_ltdc.c ****   /* Process unlocked */
1932:Drivers/STM32F4xx_HAL_Driver/Src/stm32f4xx_hal_ltdc.c ****   __HAL_UNLOCK(hltdc);
 3564              		.loc 1 1932 3
 3565 006a FB68     		ldr	r3, [r7, #12]
 3566 006c 0022     		movs	r2, #0
 3567 006e 83F8A020 		strb	r2, [r3, #160]
1933:Drivers/STM32F4xx_HAL_Driver/Src/stm32f4xx_hal_ltdc.c **** 
1934:Drivers/STM32F4xx_HAL_Driver/Src/stm32f4xx_hal_ltdc.c ****   return HAL_OK;
 3568              		.loc 1 1934 10
 3569 0072 0023     		movs	r3, #0
 3570              	.L121:
1935:Drivers/STM32F4xx_HAL_Driver/Src/stm32f4xx_hal_ltdc.c **** }
 3571              		.loc 1 1935 1
 3572 0074 1846     		mov	r0, r3
 3573 0076 1437     		adds	r7, r7, #20
 3574              	.LCFI180:
 3575              		.cfi_def_cfa_offset 4
 3576 0078 BD46     		mov	sp, r7
 3577              	.LCFI181:
 3578              		.cfi_def_cfa_register 13
 3579              		@ sp needed
 3580 007a 5DF8047B 		ldr	r7, [sp], #4
 3581              	.LCFI182:
 3582              		.cfi_restore 7
 3583              		.cfi_def_cfa_offset 0
 3584 007e 7047     		bx	lr
 3585              		.cfi_endproc
 3586              	.LFE166:
 3588              		.section	.text.HAL_LTDC_EnableColorKeying_NoReload,"ax",%progbits
 3589              		.align	1
 3590              		.global	HAL_LTDC_EnableColorKeying_NoReload
 3591              		.syntax unified
 3592              		.thumb
ARM GAS  /var/folders/06/9k7gq4t13mj84z2yhw3grvhc0000gn/T//ccuiTnhW.s 			page 97


 3593              		.thumb_func
 3595              	HAL_LTDC_EnableColorKeying_NoReload:
 3596              	.LFB167:
1936:Drivers/STM32F4xx_HAL_Driver/Src/stm32f4xx_hal_ltdc.c **** 
1937:Drivers/STM32F4xx_HAL_Driver/Src/stm32f4xx_hal_ltdc.c **** /**
1938:Drivers/STM32F4xx_HAL_Driver/Src/stm32f4xx_hal_ltdc.c ****   * @brief  Enable the color keying without reloading.
1939:Drivers/STM32F4xx_HAL_Driver/Src/stm32f4xx_hal_ltdc.c ****   *         Variant of the function HAL_LTDC_EnableColorKeying without immediate reload.
1940:Drivers/STM32F4xx_HAL_Driver/Src/stm32f4xx_hal_ltdc.c ****   * @param  hltdc     pointer to a LTDC_HandleTypeDef structure that contains
1941:Drivers/STM32F4xx_HAL_Driver/Src/stm32f4xx_hal_ltdc.c ****   *                   the configuration information for the LTDC.
1942:Drivers/STM32F4xx_HAL_Driver/Src/stm32f4xx_hal_ltdc.c ****   * @param  LayerIdx  LTDC Layer index.
1943:Drivers/STM32F4xx_HAL_Driver/Src/stm32f4xx_hal_ltdc.c ****   *                   This parameter can be one of the following values:
1944:Drivers/STM32F4xx_HAL_Driver/Src/stm32f4xx_hal_ltdc.c ****   *                   LTDC_LAYER_1 (0) or LTDC_LAYER_2 (1)
1945:Drivers/STM32F4xx_HAL_Driver/Src/stm32f4xx_hal_ltdc.c ****   * @retval  HAL status
1946:Drivers/STM32F4xx_HAL_Driver/Src/stm32f4xx_hal_ltdc.c ****   */
1947:Drivers/STM32F4xx_HAL_Driver/Src/stm32f4xx_hal_ltdc.c **** HAL_StatusTypeDef HAL_LTDC_EnableColorKeying_NoReload(LTDC_HandleTypeDef *hltdc, uint32_t LayerIdx)
1948:Drivers/STM32F4xx_HAL_Driver/Src/stm32f4xx_hal_ltdc.c **** {
 3597              		.loc 1 1948 1
 3598              		.cfi_startproc
 3599              		@ args = 0, pretend = 0, frame = 8
 3600              		@ frame_needed = 1, uses_anonymous_args = 0
 3601              		@ link register save eliminated.
 3602 0000 80B4     		push	{r7}
 3603              	.LCFI183:
 3604              		.cfi_def_cfa_offset 4
 3605              		.cfi_offset 7, -4
 3606 0002 83B0     		sub	sp, sp, #12
 3607              	.LCFI184:
 3608              		.cfi_def_cfa_offset 16
 3609 0004 00AF     		add	r7, sp, #0
 3610              	.LCFI185:
 3611              		.cfi_def_cfa_register 7
 3612 0006 7860     		str	r0, [r7, #4]
 3613 0008 3960     		str	r1, [r7]
1949:Drivers/STM32F4xx_HAL_Driver/Src/stm32f4xx_hal_ltdc.c ****   /* Check the parameters */
1950:Drivers/STM32F4xx_HAL_Driver/Src/stm32f4xx_hal_ltdc.c ****   assert_param(IS_LTDC_LAYER(LayerIdx));
1951:Drivers/STM32F4xx_HAL_Driver/Src/stm32f4xx_hal_ltdc.c **** 
1952:Drivers/STM32F4xx_HAL_Driver/Src/stm32f4xx_hal_ltdc.c ****   /* Process locked */
1953:Drivers/STM32F4xx_HAL_Driver/Src/stm32f4xx_hal_ltdc.c ****   __HAL_LOCK(hltdc);
 3614              		.loc 1 1953 3
 3615 000a 7B68     		ldr	r3, [r7, #4]
 3616 000c 93F8A030 		ldrb	r3, [r3, #160]	@ zero_extendqisi2
 3617 0010 012B     		cmp	r3, #1
 3618 0012 01D1     		bne	.L123
 3619              		.loc 1 1953 3 is_stmt 0 discriminator 1
 3620 0014 0223     		movs	r3, #2
 3621              		.loc 1 1953 3
 3622 0016 22E0     		b	.L124
 3623              	.L123:
 3624              		.loc 1 1953 3 discriminator 2
 3625 0018 7B68     		ldr	r3, [r7, #4]
 3626 001a 0122     		movs	r2, #1
 3627 001c 83F8A020 		strb	r2, [r3, #160]
1954:Drivers/STM32F4xx_HAL_Driver/Src/stm32f4xx_hal_ltdc.c **** 
1955:Drivers/STM32F4xx_HAL_Driver/Src/stm32f4xx_hal_ltdc.c ****   /* Change LTDC peripheral state */
1956:Drivers/STM32F4xx_HAL_Driver/Src/stm32f4xx_hal_ltdc.c ****   hltdc->State = HAL_LTDC_STATE_BUSY;
 3628              		.loc 1 1956 16 is_stmt 1
 3629 0020 7B68     		ldr	r3, [r7, #4]
ARM GAS  /var/folders/06/9k7gq4t13mj84z2yhw3grvhc0000gn/T//ccuiTnhW.s 			page 98


 3630 0022 0222     		movs	r2, #2
 3631 0024 83F8A120 		strb	r2, [r3, #161]
1957:Drivers/STM32F4xx_HAL_Driver/Src/stm32f4xx_hal_ltdc.c **** 
1958:Drivers/STM32F4xx_HAL_Driver/Src/stm32f4xx_hal_ltdc.c ****   /* Enable LTDC color keying by setting COLKEN bit */
1959:Drivers/STM32F4xx_HAL_Driver/Src/stm32f4xx_hal_ltdc.c ****   LTDC_LAYER(hltdc, LayerIdx)->CR |= (uint32_t)LTDC_LxCR_COLKEN;
 3632              		.loc 1 1959 3
 3633 0028 7B68     		ldr	r3, [r7, #4]
 3634 002a 1B68     		ldr	r3, [r3]
 3635              		.loc 1 1959 30
 3636 002c 1A46     		mov	r2, r3
 3637 002e 3B68     		ldr	r3, [r7]
 3638 0030 DB01     		lsls	r3, r3, #7
 3639 0032 1344     		add	r3, r3, r2
 3640 0034 8433     		adds	r3, r3, #132
 3641 0036 1B68     		ldr	r3, [r3]
 3642              		.loc 1 1959 3
 3643 0038 7A68     		ldr	r2, [r7, #4]
 3644 003a 1268     		ldr	r2, [r2]
 3645              		.loc 1 1959 30
 3646 003c 1146     		mov	r1, r2
 3647 003e 3A68     		ldr	r2, [r7]
 3648 0040 D201     		lsls	r2, r2, #7
 3649 0042 0A44     		add	r2, r2, r1
 3650 0044 8432     		adds	r2, r2, #132
 3651              		.loc 1 1959 35
 3652 0046 43F00203 		orr	r3, r3, #2
 3653 004a 1360     		str	r3, [r2]
1960:Drivers/STM32F4xx_HAL_Driver/Src/stm32f4xx_hal_ltdc.c **** 
1961:Drivers/STM32F4xx_HAL_Driver/Src/stm32f4xx_hal_ltdc.c ****   /* Change the LTDC state*/
1962:Drivers/STM32F4xx_HAL_Driver/Src/stm32f4xx_hal_ltdc.c ****   hltdc->State = HAL_LTDC_STATE_READY;
 3654              		.loc 1 1962 16
 3655 004c 7B68     		ldr	r3, [r7, #4]
 3656 004e 0122     		movs	r2, #1
 3657 0050 83F8A120 		strb	r2, [r3, #161]
1963:Drivers/STM32F4xx_HAL_Driver/Src/stm32f4xx_hal_ltdc.c **** 
1964:Drivers/STM32F4xx_HAL_Driver/Src/stm32f4xx_hal_ltdc.c ****   /* Process unlocked */
1965:Drivers/STM32F4xx_HAL_Driver/Src/stm32f4xx_hal_ltdc.c ****   __HAL_UNLOCK(hltdc);
 3658              		.loc 1 1965 3
 3659 0054 7B68     		ldr	r3, [r7, #4]
 3660 0056 0022     		movs	r2, #0
 3661 0058 83F8A020 		strb	r2, [r3, #160]
1966:Drivers/STM32F4xx_HAL_Driver/Src/stm32f4xx_hal_ltdc.c **** 
1967:Drivers/STM32F4xx_HAL_Driver/Src/stm32f4xx_hal_ltdc.c ****   return HAL_OK;
 3662              		.loc 1 1967 10
 3663 005c 0023     		movs	r3, #0
 3664              	.L124:
1968:Drivers/STM32F4xx_HAL_Driver/Src/stm32f4xx_hal_ltdc.c **** }
 3665              		.loc 1 1968 1
 3666 005e 1846     		mov	r0, r3
 3667 0060 0C37     		adds	r7, r7, #12
 3668              	.LCFI186:
 3669              		.cfi_def_cfa_offset 4
 3670 0062 BD46     		mov	sp, r7
 3671              	.LCFI187:
 3672              		.cfi_def_cfa_register 13
 3673              		@ sp needed
 3674 0064 5DF8047B 		ldr	r7, [sp], #4
ARM GAS  /var/folders/06/9k7gq4t13mj84z2yhw3grvhc0000gn/T//ccuiTnhW.s 			page 99


 3675              	.LCFI188:
 3676              		.cfi_restore 7
 3677              		.cfi_def_cfa_offset 0
 3678 0068 7047     		bx	lr
 3679              		.cfi_endproc
 3680              	.LFE167:
 3682              		.section	.text.HAL_LTDC_DisableColorKeying_NoReload,"ax",%progbits
 3683              		.align	1
 3684              		.global	HAL_LTDC_DisableColorKeying_NoReload
 3685              		.syntax unified
 3686              		.thumb
 3687              		.thumb_func
 3689              	HAL_LTDC_DisableColorKeying_NoReload:
 3690              	.LFB168:
1969:Drivers/STM32F4xx_HAL_Driver/Src/stm32f4xx_hal_ltdc.c **** 
1970:Drivers/STM32F4xx_HAL_Driver/Src/stm32f4xx_hal_ltdc.c **** /**
1971:Drivers/STM32F4xx_HAL_Driver/Src/stm32f4xx_hal_ltdc.c ****   * @brief  Disable the color keying without reloading.
1972:Drivers/STM32F4xx_HAL_Driver/Src/stm32f4xx_hal_ltdc.c ****   *         Variant of the function HAL_LTDC_DisableColorKeying without immediate reload.
1973:Drivers/STM32F4xx_HAL_Driver/Src/stm32f4xx_hal_ltdc.c ****   * @param  hltdc     pointer to a LTDC_HandleTypeDef structure that contains
1974:Drivers/STM32F4xx_HAL_Driver/Src/stm32f4xx_hal_ltdc.c ****   *                   the configuration information for the LTDC.
1975:Drivers/STM32F4xx_HAL_Driver/Src/stm32f4xx_hal_ltdc.c ****   * @param  LayerIdx  LTDC Layer index.
1976:Drivers/STM32F4xx_HAL_Driver/Src/stm32f4xx_hal_ltdc.c ****   *                   This parameter can be one of the following values:
1977:Drivers/STM32F4xx_HAL_Driver/Src/stm32f4xx_hal_ltdc.c ****   *                   LTDC_LAYER_1 (0) or LTDC_LAYER_2 (1)
1978:Drivers/STM32F4xx_HAL_Driver/Src/stm32f4xx_hal_ltdc.c ****   * @retval  HAL status
1979:Drivers/STM32F4xx_HAL_Driver/Src/stm32f4xx_hal_ltdc.c ****   */
1980:Drivers/STM32F4xx_HAL_Driver/Src/stm32f4xx_hal_ltdc.c **** HAL_StatusTypeDef HAL_LTDC_DisableColorKeying_NoReload(LTDC_HandleTypeDef *hltdc, uint32_t LayerIdx
1981:Drivers/STM32F4xx_HAL_Driver/Src/stm32f4xx_hal_ltdc.c **** {
 3691              		.loc 1 1981 1
 3692              		.cfi_startproc
 3693              		@ args = 0, pretend = 0, frame = 8
 3694              		@ frame_needed = 1, uses_anonymous_args = 0
 3695              		@ link register save eliminated.
 3696 0000 80B4     		push	{r7}
 3697              	.LCFI189:
 3698              		.cfi_def_cfa_offset 4
 3699              		.cfi_offset 7, -4
 3700 0002 83B0     		sub	sp, sp, #12
 3701              	.LCFI190:
 3702              		.cfi_def_cfa_offset 16
 3703 0004 00AF     		add	r7, sp, #0
 3704              	.LCFI191:
 3705              		.cfi_def_cfa_register 7
 3706 0006 7860     		str	r0, [r7, #4]
 3707 0008 3960     		str	r1, [r7]
1982:Drivers/STM32F4xx_HAL_Driver/Src/stm32f4xx_hal_ltdc.c ****   /* Check the parameters */
1983:Drivers/STM32F4xx_HAL_Driver/Src/stm32f4xx_hal_ltdc.c ****   assert_param(IS_LTDC_LAYER(LayerIdx));
1984:Drivers/STM32F4xx_HAL_Driver/Src/stm32f4xx_hal_ltdc.c **** 
1985:Drivers/STM32F4xx_HAL_Driver/Src/stm32f4xx_hal_ltdc.c ****   /* Process locked */
1986:Drivers/STM32F4xx_HAL_Driver/Src/stm32f4xx_hal_ltdc.c ****   __HAL_LOCK(hltdc);
 3708              		.loc 1 1986 3
 3709 000a 7B68     		ldr	r3, [r7, #4]
 3710 000c 93F8A030 		ldrb	r3, [r3, #160]	@ zero_extendqisi2
 3711 0010 012B     		cmp	r3, #1
 3712 0012 01D1     		bne	.L126
 3713              		.loc 1 1986 3 is_stmt 0 discriminator 1
 3714 0014 0223     		movs	r3, #2
 3715              		.loc 1 1986 3
ARM GAS  /var/folders/06/9k7gq4t13mj84z2yhw3grvhc0000gn/T//ccuiTnhW.s 			page 100


 3716 0016 22E0     		b	.L127
 3717              	.L126:
 3718              		.loc 1 1986 3 discriminator 2
 3719 0018 7B68     		ldr	r3, [r7, #4]
 3720 001a 0122     		movs	r2, #1
 3721 001c 83F8A020 		strb	r2, [r3, #160]
1987:Drivers/STM32F4xx_HAL_Driver/Src/stm32f4xx_hal_ltdc.c **** 
1988:Drivers/STM32F4xx_HAL_Driver/Src/stm32f4xx_hal_ltdc.c ****   /* Change LTDC peripheral state */
1989:Drivers/STM32F4xx_HAL_Driver/Src/stm32f4xx_hal_ltdc.c ****   hltdc->State = HAL_LTDC_STATE_BUSY;
 3722              		.loc 1 1989 16 is_stmt 1
 3723 0020 7B68     		ldr	r3, [r7, #4]
 3724 0022 0222     		movs	r2, #2
 3725 0024 83F8A120 		strb	r2, [r3, #161]
1990:Drivers/STM32F4xx_HAL_Driver/Src/stm32f4xx_hal_ltdc.c **** 
1991:Drivers/STM32F4xx_HAL_Driver/Src/stm32f4xx_hal_ltdc.c ****   /* Disable LTDC color keying by setting COLKEN bit */
1992:Drivers/STM32F4xx_HAL_Driver/Src/stm32f4xx_hal_ltdc.c ****   LTDC_LAYER(hltdc, LayerIdx)->CR &= ~(uint32_t)LTDC_LxCR_COLKEN;
 3726              		.loc 1 1992 3
 3727 0028 7B68     		ldr	r3, [r7, #4]
 3728 002a 1B68     		ldr	r3, [r3]
 3729              		.loc 1 1992 30
 3730 002c 1A46     		mov	r2, r3
 3731 002e 3B68     		ldr	r3, [r7]
 3732 0030 DB01     		lsls	r3, r3, #7
 3733 0032 1344     		add	r3, r3, r2
 3734 0034 8433     		adds	r3, r3, #132
 3735 0036 1B68     		ldr	r3, [r3]
 3736              		.loc 1 1992 3
 3737 0038 7A68     		ldr	r2, [r7, #4]
 3738 003a 1268     		ldr	r2, [r2]
 3739              		.loc 1 1992 30
 3740 003c 1146     		mov	r1, r2
 3741 003e 3A68     		ldr	r2, [r7]
 3742 0040 D201     		lsls	r2, r2, #7
 3743 0042 0A44     		add	r2, r2, r1
 3744 0044 8432     		adds	r2, r2, #132
 3745              		.loc 1 1992 35
 3746 0046 23F00203 		bic	r3, r3, #2
 3747 004a 1360     		str	r3, [r2]
1993:Drivers/STM32F4xx_HAL_Driver/Src/stm32f4xx_hal_ltdc.c **** 
1994:Drivers/STM32F4xx_HAL_Driver/Src/stm32f4xx_hal_ltdc.c ****   /* Change the LTDC state*/
1995:Drivers/STM32F4xx_HAL_Driver/Src/stm32f4xx_hal_ltdc.c ****   hltdc->State = HAL_LTDC_STATE_READY;
 3748              		.loc 1 1995 16
 3749 004c 7B68     		ldr	r3, [r7, #4]
 3750 004e 0122     		movs	r2, #1
 3751 0050 83F8A120 		strb	r2, [r3, #161]
1996:Drivers/STM32F4xx_HAL_Driver/Src/stm32f4xx_hal_ltdc.c **** 
1997:Drivers/STM32F4xx_HAL_Driver/Src/stm32f4xx_hal_ltdc.c ****   /* Process unlocked */
1998:Drivers/STM32F4xx_HAL_Driver/Src/stm32f4xx_hal_ltdc.c ****   __HAL_UNLOCK(hltdc);
 3752              		.loc 1 1998 3
 3753 0054 7B68     		ldr	r3, [r7, #4]
 3754 0056 0022     		movs	r2, #0
 3755 0058 83F8A020 		strb	r2, [r3, #160]
1999:Drivers/STM32F4xx_HAL_Driver/Src/stm32f4xx_hal_ltdc.c **** 
2000:Drivers/STM32F4xx_HAL_Driver/Src/stm32f4xx_hal_ltdc.c ****   return HAL_OK;
 3756              		.loc 1 2000 10
 3757 005c 0023     		movs	r3, #0
 3758              	.L127:
ARM GAS  /var/folders/06/9k7gq4t13mj84z2yhw3grvhc0000gn/T//ccuiTnhW.s 			page 101


2001:Drivers/STM32F4xx_HAL_Driver/Src/stm32f4xx_hal_ltdc.c **** }
 3759              		.loc 1 2001 1
 3760 005e 1846     		mov	r0, r3
 3761 0060 0C37     		adds	r7, r7, #12
 3762              	.LCFI192:
 3763              		.cfi_def_cfa_offset 4
 3764 0062 BD46     		mov	sp, r7
 3765              	.LCFI193:
 3766              		.cfi_def_cfa_register 13
 3767              		@ sp needed
 3768 0064 5DF8047B 		ldr	r7, [sp], #4
 3769              	.LCFI194:
 3770              		.cfi_restore 7
 3771              		.cfi_def_cfa_offset 0
 3772 0068 7047     		bx	lr
 3773              		.cfi_endproc
 3774              	.LFE168:
 3776              		.section	.text.HAL_LTDC_EnableCLUT_NoReload,"ax",%progbits
 3777              		.align	1
 3778              		.global	HAL_LTDC_EnableCLUT_NoReload
 3779              		.syntax unified
 3780              		.thumb
 3781              		.thumb_func
 3783              	HAL_LTDC_EnableCLUT_NoReload:
 3784              	.LFB169:
2002:Drivers/STM32F4xx_HAL_Driver/Src/stm32f4xx_hal_ltdc.c **** 
2003:Drivers/STM32F4xx_HAL_Driver/Src/stm32f4xx_hal_ltdc.c **** /**
2004:Drivers/STM32F4xx_HAL_Driver/Src/stm32f4xx_hal_ltdc.c ****   * @brief  Enable the color lookup table without reloading.
2005:Drivers/STM32F4xx_HAL_Driver/Src/stm32f4xx_hal_ltdc.c ****   *         Variant of the function HAL_LTDC_EnableCLUT without immediate reload.
2006:Drivers/STM32F4xx_HAL_Driver/Src/stm32f4xx_hal_ltdc.c ****   * @param  hltdc     pointer to a LTDC_HandleTypeDef structure that contains
2007:Drivers/STM32F4xx_HAL_Driver/Src/stm32f4xx_hal_ltdc.c ****   *                   the configuration information for the LTDC.
2008:Drivers/STM32F4xx_HAL_Driver/Src/stm32f4xx_hal_ltdc.c ****   * @param  LayerIdx  LTDC Layer index.
2009:Drivers/STM32F4xx_HAL_Driver/Src/stm32f4xx_hal_ltdc.c ****   *                   This parameter can be one of the following values:
2010:Drivers/STM32F4xx_HAL_Driver/Src/stm32f4xx_hal_ltdc.c ****   *                   LTDC_LAYER_1 (0) or LTDC_LAYER_2 (1)
2011:Drivers/STM32F4xx_HAL_Driver/Src/stm32f4xx_hal_ltdc.c ****   * @retval  HAL status
2012:Drivers/STM32F4xx_HAL_Driver/Src/stm32f4xx_hal_ltdc.c ****   */
2013:Drivers/STM32F4xx_HAL_Driver/Src/stm32f4xx_hal_ltdc.c **** HAL_StatusTypeDef HAL_LTDC_EnableCLUT_NoReload(LTDC_HandleTypeDef *hltdc, uint32_t LayerIdx)
2014:Drivers/STM32F4xx_HAL_Driver/Src/stm32f4xx_hal_ltdc.c **** {
 3785              		.loc 1 2014 1
 3786              		.cfi_startproc
 3787              		@ args = 0, pretend = 0, frame = 8
 3788              		@ frame_needed = 1, uses_anonymous_args = 0
 3789              		@ link register save eliminated.
 3790 0000 80B4     		push	{r7}
 3791              	.LCFI195:
 3792              		.cfi_def_cfa_offset 4
 3793              		.cfi_offset 7, -4
 3794 0002 83B0     		sub	sp, sp, #12
 3795              	.LCFI196:
 3796              		.cfi_def_cfa_offset 16
 3797 0004 00AF     		add	r7, sp, #0
 3798              	.LCFI197:
 3799              		.cfi_def_cfa_register 7
 3800 0006 7860     		str	r0, [r7, #4]
 3801 0008 3960     		str	r1, [r7]
2015:Drivers/STM32F4xx_HAL_Driver/Src/stm32f4xx_hal_ltdc.c ****   /* Check the parameters */
2016:Drivers/STM32F4xx_HAL_Driver/Src/stm32f4xx_hal_ltdc.c ****   assert_param(IS_LTDC_LAYER(LayerIdx));
ARM GAS  /var/folders/06/9k7gq4t13mj84z2yhw3grvhc0000gn/T//ccuiTnhW.s 			page 102


2017:Drivers/STM32F4xx_HAL_Driver/Src/stm32f4xx_hal_ltdc.c **** 
2018:Drivers/STM32F4xx_HAL_Driver/Src/stm32f4xx_hal_ltdc.c ****   /* Process locked */
2019:Drivers/STM32F4xx_HAL_Driver/Src/stm32f4xx_hal_ltdc.c ****   __HAL_LOCK(hltdc);
 3802              		.loc 1 2019 3
 3803 000a 7B68     		ldr	r3, [r7, #4]
 3804 000c 93F8A030 		ldrb	r3, [r3, #160]	@ zero_extendqisi2
 3805 0010 012B     		cmp	r3, #1
 3806 0012 01D1     		bne	.L129
 3807              		.loc 1 2019 3 is_stmt 0 discriminator 1
 3808 0014 0223     		movs	r3, #2
 3809              		.loc 1 2019 3
 3810 0016 22E0     		b	.L130
 3811              	.L129:
 3812              		.loc 1 2019 3 discriminator 2
 3813 0018 7B68     		ldr	r3, [r7, #4]
 3814 001a 0122     		movs	r2, #1
 3815 001c 83F8A020 		strb	r2, [r3, #160]
2020:Drivers/STM32F4xx_HAL_Driver/Src/stm32f4xx_hal_ltdc.c **** 
2021:Drivers/STM32F4xx_HAL_Driver/Src/stm32f4xx_hal_ltdc.c ****   /* Change LTDC peripheral state */
2022:Drivers/STM32F4xx_HAL_Driver/Src/stm32f4xx_hal_ltdc.c ****   hltdc->State = HAL_LTDC_STATE_BUSY;
 3816              		.loc 1 2022 16 is_stmt 1
 3817 0020 7B68     		ldr	r3, [r7, #4]
 3818 0022 0222     		movs	r2, #2
 3819 0024 83F8A120 		strb	r2, [r3, #161]
2023:Drivers/STM32F4xx_HAL_Driver/Src/stm32f4xx_hal_ltdc.c **** 
2024:Drivers/STM32F4xx_HAL_Driver/Src/stm32f4xx_hal_ltdc.c ****   /* Disable LTDC color lookup table by setting CLUTEN bit */
2025:Drivers/STM32F4xx_HAL_Driver/Src/stm32f4xx_hal_ltdc.c ****   LTDC_LAYER(hltdc, LayerIdx)->CR |= (uint32_t)LTDC_LxCR_CLUTEN;
 3820              		.loc 1 2025 3
 3821 0028 7B68     		ldr	r3, [r7, #4]
 3822 002a 1B68     		ldr	r3, [r3]
 3823              		.loc 1 2025 30
 3824 002c 1A46     		mov	r2, r3
 3825 002e 3B68     		ldr	r3, [r7]
 3826 0030 DB01     		lsls	r3, r3, #7
 3827 0032 1344     		add	r3, r3, r2
 3828 0034 8433     		adds	r3, r3, #132
 3829 0036 1B68     		ldr	r3, [r3]
 3830              		.loc 1 2025 3
 3831 0038 7A68     		ldr	r2, [r7, #4]
 3832 003a 1268     		ldr	r2, [r2]
 3833              		.loc 1 2025 30
 3834 003c 1146     		mov	r1, r2
 3835 003e 3A68     		ldr	r2, [r7]
 3836 0040 D201     		lsls	r2, r2, #7
 3837 0042 0A44     		add	r2, r2, r1
 3838 0044 8432     		adds	r2, r2, #132
 3839              		.loc 1 2025 35
 3840 0046 43F01003 		orr	r3, r3, #16
 3841 004a 1360     		str	r3, [r2]
2026:Drivers/STM32F4xx_HAL_Driver/Src/stm32f4xx_hal_ltdc.c **** 
2027:Drivers/STM32F4xx_HAL_Driver/Src/stm32f4xx_hal_ltdc.c ****   /* Change the LTDC state*/
2028:Drivers/STM32F4xx_HAL_Driver/Src/stm32f4xx_hal_ltdc.c ****   hltdc->State = HAL_LTDC_STATE_READY;
 3842              		.loc 1 2028 16
 3843 004c 7B68     		ldr	r3, [r7, #4]
 3844 004e 0122     		movs	r2, #1
 3845 0050 83F8A120 		strb	r2, [r3, #161]
2029:Drivers/STM32F4xx_HAL_Driver/Src/stm32f4xx_hal_ltdc.c **** 
ARM GAS  /var/folders/06/9k7gq4t13mj84z2yhw3grvhc0000gn/T//ccuiTnhW.s 			page 103


2030:Drivers/STM32F4xx_HAL_Driver/Src/stm32f4xx_hal_ltdc.c ****   /* Process unlocked */
2031:Drivers/STM32F4xx_HAL_Driver/Src/stm32f4xx_hal_ltdc.c ****   __HAL_UNLOCK(hltdc);
 3846              		.loc 1 2031 3
 3847 0054 7B68     		ldr	r3, [r7, #4]
 3848 0056 0022     		movs	r2, #0
 3849 0058 83F8A020 		strb	r2, [r3, #160]
2032:Drivers/STM32F4xx_HAL_Driver/Src/stm32f4xx_hal_ltdc.c **** 
2033:Drivers/STM32F4xx_HAL_Driver/Src/stm32f4xx_hal_ltdc.c ****   return HAL_OK;
 3850              		.loc 1 2033 10
 3851 005c 0023     		movs	r3, #0
 3852              	.L130:
2034:Drivers/STM32F4xx_HAL_Driver/Src/stm32f4xx_hal_ltdc.c **** }
 3853              		.loc 1 2034 1
 3854 005e 1846     		mov	r0, r3
 3855 0060 0C37     		adds	r7, r7, #12
 3856              	.LCFI198:
 3857              		.cfi_def_cfa_offset 4
 3858 0062 BD46     		mov	sp, r7
 3859              	.LCFI199:
 3860              		.cfi_def_cfa_register 13
 3861              		@ sp needed
 3862 0064 5DF8047B 		ldr	r7, [sp], #4
 3863              	.LCFI200:
 3864              		.cfi_restore 7
 3865              		.cfi_def_cfa_offset 0
 3866 0068 7047     		bx	lr
 3867              		.cfi_endproc
 3868              	.LFE169:
 3870              		.section	.text.HAL_LTDC_DisableCLUT_NoReload,"ax",%progbits
 3871              		.align	1
 3872              		.global	HAL_LTDC_DisableCLUT_NoReload
 3873              		.syntax unified
 3874              		.thumb
 3875              		.thumb_func
 3877              	HAL_LTDC_DisableCLUT_NoReload:
 3878              	.LFB170:
2035:Drivers/STM32F4xx_HAL_Driver/Src/stm32f4xx_hal_ltdc.c **** 
2036:Drivers/STM32F4xx_HAL_Driver/Src/stm32f4xx_hal_ltdc.c **** /**
2037:Drivers/STM32F4xx_HAL_Driver/Src/stm32f4xx_hal_ltdc.c ****   * @brief  Disable the color lookup table without reloading.
2038:Drivers/STM32F4xx_HAL_Driver/Src/stm32f4xx_hal_ltdc.c ****   *         Variant of the function HAL_LTDC_DisableCLUT without immediate reload.
2039:Drivers/STM32F4xx_HAL_Driver/Src/stm32f4xx_hal_ltdc.c ****   * @param  hltdc     pointer to a LTDC_HandleTypeDef structure that contains
2040:Drivers/STM32F4xx_HAL_Driver/Src/stm32f4xx_hal_ltdc.c ****   *                   the configuration information for the LTDC.
2041:Drivers/STM32F4xx_HAL_Driver/Src/stm32f4xx_hal_ltdc.c ****   * @param  LayerIdx  LTDC Layer index.
2042:Drivers/STM32F4xx_HAL_Driver/Src/stm32f4xx_hal_ltdc.c ****   *                   This parameter can be one of the following values:
2043:Drivers/STM32F4xx_HAL_Driver/Src/stm32f4xx_hal_ltdc.c ****   *                   LTDC_LAYER_1 (0) or LTDC_LAYER_2 (1)
2044:Drivers/STM32F4xx_HAL_Driver/Src/stm32f4xx_hal_ltdc.c ****   * @retval  HAL status
2045:Drivers/STM32F4xx_HAL_Driver/Src/stm32f4xx_hal_ltdc.c ****   */
2046:Drivers/STM32F4xx_HAL_Driver/Src/stm32f4xx_hal_ltdc.c **** HAL_StatusTypeDef HAL_LTDC_DisableCLUT_NoReload(LTDC_HandleTypeDef *hltdc, uint32_t LayerIdx)
2047:Drivers/STM32F4xx_HAL_Driver/Src/stm32f4xx_hal_ltdc.c **** {
 3879              		.loc 1 2047 1
 3880              		.cfi_startproc
 3881              		@ args = 0, pretend = 0, frame = 8
 3882              		@ frame_needed = 1, uses_anonymous_args = 0
 3883              		@ link register save eliminated.
 3884 0000 80B4     		push	{r7}
 3885              	.LCFI201:
 3886              		.cfi_def_cfa_offset 4
ARM GAS  /var/folders/06/9k7gq4t13mj84z2yhw3grvhc0000gn/T//ccuiTnhW.s 			page 104


 3887              		.cfi_offset 7, -4
 3888 0002 83B0     		sub	sp, sp, #12
 3889              	.LCFI202:
 3890              		.cfi_def_cfa_offset 16
 3891 0004 00AF     		add	r7, sp, #0
 3892              	.LCFI203:
 3893              		.cfi_def_cfa_register 7
 3894 0006 7860     		str	r0, [r7, #4]
 3895 0008 3960     		str	r1, [r7]
2048:Drivers/STM32F4xx_HAL_Driver/Src/stm32f4xx_hal_ltdc.c ****   /* Check the parameters */
2049:Drivers/STM32F4xx_HAL_Driver/Src/stm32f4xx_hal_ltdc.c ****   assert_param(IS_LTDC_LAYER(LayerIdx));
2050:Drivers/STM32F4xx_HAL_Driver/Src/stm32f4xx_hal_ltdc.c **** 
2051:Drivers/STM32F4xx_HAL_Driver/Src/stm32f4xx_hal_ltdc.c ****   /* Process locked */
2052:Drivers/STM32F4xx_HAL_Driver/Src/stm32f4xx_hal_ltdc.c ****   __HAL_LOCK(hltdc);
 3896              		.loc 1 2052 3
 3897 000a 7B68     		ldr	r3, [r7, #4]
 3898 000c 93F8A030 		ldrb	r3, [r3, #160]	@ zero_extendqisi2
 3899 0010 012B     		cmp	r3, #1
 3900 0012 01D1     		bne	.L132
 3901              		.loc 1 2052 3 is_stmt 0 discriminator 1
 3902 0014 0223     		movs	r3, #2
 3903              		.loc 1 2052 3
 3904 0016 22E0     		b	.L133
 3905              	.L132:
 3906              		.loc 1 2052 3 discriminator 2
 3907 0018 7B68     		ldr	r3, [r7, #4]
 3908 001a 0122     		movs	r2, #1
 3909 001c 83F8A020 		strb	r2, [r3, #160]
2053:Drivers/STM32F4xx_HAL_Driver/Src/stm32f4xx_hal_ltdc.c **** 
2054:Drivers/STM32F4xx_HAL_Driver/Src/stm32f4xx_hal_ltdc.c ****   /* Change LTDC peripheral state */
2055:Drivers/STM32F4xx_HAL_Driver/Src/stm32f4xx_hal_ltdc.c ****   hltdc->State = HAL_LTDC_STATE_BUSY;
 3910              		.loc 1 2055 16 is_stmt 1
 3911 0020 7B68     		ldr	r3, [r7, #4]
 3912 0022 0222     		movs	r2, #2
 3913 0024 83F8A120 		strb	r2, [r3, #161]
2056:Drivers/STM32F4xx_HAL_Driver/Src/stm32f4xx_hal_ltdc.c **** 
2057:Drivers/STM32F4xx_HAL_Driver/Src/stm32f4xx_hal_ltdc.c ****   /* Disable LTDC color lookup table by setting CLUTEN bit */
2058:Drivers/STM32F4xx_HAL_Driver/Src/stm32f4xx_hal_ltdc.c ****   LTDC_LAYER(hltdc, LayerIdx)->CR &= ~(uint32_t)LTDC_LxCR_CLUTEN;
 3914              		.loc 1 2058 3
 3915 0028 7B68     		ldr	r3, [r7, #4]
 3916 002a 1B68     		ldr	r3, [r3]
 3917              		.loc 1 2058 30
 3918 002c 1A46     		mov	r2, r3
 3919 002e 3B68     		ldr	r3, [r7]
 3920 0030 DB01     		lsls	r3, r3, #7
 3921 0032 1344     		add	r3, r3, r2
 3922 0034 8433     		adds	r3, r3, #132
 3923 0036 1B68     		ldr	r3, [r3]
 3924              		.loc 1 2058 3
 3925 0038 7A68     		ldr	r2, [r7, #4]
 3926 003a 1268     		ldr	r2, [r2]
 3927              		.loc 1 2058 30
 3928 003c 1146     		mov	r1, r2
 3929 003e 3A68     		ldr	r2, [r7]
 3930 0040 D201     		lsls	r2, r2, #7
 3931 0042 0A44     		add	r2, r2, r1
 3932 0044 8432     		adds	r2, r2, #132
ARM GAS  /var/folders/06/9k7gq4t13mj84z2yhw3grvhc0000gn/T//ccuiTnhW.s 			page 105


 3933              		.loc 1 2058 35
 3934 0046 23F01003 		bic	r3, r3, #16
 3935 004a 1360     		str	r3, [r2]
2059:Drivers/STM32F4xx_HAL_Driver/Src/stm32f4xx_hal_ltdc.c **** 
2060:Drivers/STM32F4xx_HAL_Driver/Src/stm32f4xx_hal_ltdc.c ****   /* Change the LTDC state*/
2061:Drivers/STM32F4xx_HAL_Driver/Src/stm32f4xx_hal_ltdc.c ****   hltdc->State = HAL_LTDC_STATE_READY;
 3936              		.loc 1 2061 16
 3937 004c 7B68     		ldr	r3, [r7, #4]
 3938 004e 0122     		movs	r2, #1
 3939 0050 83F8A120 		strb	r2, [r3, #161]
2062:Drivers/STM32F4xx_HAL_Driver/Src/stm32f4xx_hal_ltdc.c **** 
2063:Drivers/STM32F4xx_HAL_Driver/Src/stm32f4xx_hal_ltdc.c ****   /* Process unlocked */
2064:Drivers/STM32F4xx_HAL_Driver/Src/stm32f4xx_hal_ltdc.c ****   __HAL_UNLOCK(hltdc);
 3940              		.loc 1 2064 3
 3941 0054 7B68     		ldr	r3, [r7, #4]
 3942 0056 0022     		movs	r2, #0
 3943 0058 83F8A020 		strb	r2, [r3, #160]
2065:Drivers/STM32F4xx_HAL_Driver/Src/stm32f4xx_hal_ltdc.c **** 
2066:Drivers/STM32F4xx_HAL_Driver/Src/stm32f4xx_hal_ltdc.c ****   return HAL_OK;
 3944              		.loc 1 2066 10
 3945 005c 0023     		movs	r3, #0
 3946              	.L133:
2067:Drivers/STM32F4xx_HAL_Driver/Src/stm32f4xx_hal_ltdc.c **** }
 3947              		.loc 1 2067 1
 3948 005e 1846     		mov	r0, r3
 3949 0060 0C37     		adds	r7, r7, #12
 3950              	.LCFI204:
 3951              		.cfi_def_cfa_offset 4
 3952 0062 BD46     		mov	sp, r7
 3953              	.LCFI205:
 3954              		.cfi_def_cfa_register 13
 3955              		@ sp needed
 3956 0064 5DF8047B 		ldr	r7, [sp], #4
 3957              	.LCFI206:
 3958              		.cfi_restore 7
 3959              		.cfi_def_cfa_offset 0
 3960 0068 7047     		bx	lr
 3961              		.cfi_endproc
 3962              	.LFE170:
 3964              		.section	.text.HAL_LTDC_GetState,"ax",%progbits
 3965              		.align	1
 3966              		.global	HAL_LTDC_GetState
 3967              		.syntax unified
 3968              		.thumb
 3969              		.thumb_func
 3971              	HAL_LTDC_GetState:
 3972              	.LFB171:
2068:Drivers/STM32F4xx_HAL_Driver/Src/stm32f4xx_hal_ltdc.c **** 
2069:Drivers/STM32F4xx_HAL_Driver/Src/stm32f4xx_hal_ltdc.c **** /**
2070:Drivers/STM32F4xx_HAL_Driver/Src/stm32f4xx_hal_ltdc.c ****   * @}
2071:Drivers/STM32F4xx_HAL_Driver/Src/stm32f4xx_hal_ltdc.c ****   */
2072:Drivers/STM32F4xx_HAL_Driver/Src/stm32f4xx_hal_ltdc.c **** 
2073:Drivers/STM32F4xx_HAL_Driver/Src/stm32f4xx_hal_ltdc.c **** /** @defgroup LTDC_Exported_Functions_Group4 Peripheral State and Errors functions
2074:Drivers/STM32F4xx_HAL_Driver/Src/stm32f4xx_hal_ltdc.c ****   *  @brief    Peripheral State and Errors functions
2075:Drivers/STM32F4xx_HAL_Driver/Src/stm32f4xx_hal_ltdc.c ****   *
2076:Drivers/STM32F4xx_HAL_Driver/Src/stm32f4xx_hal_ltdc.c **** @verbatim
2077:Drivers/STM32F4xx_HAL_Driver/Src/stm32f4xx_hal_ltdc.c ****  ===============================================================================
ARM GAS  /var/folders/06/9k7gq4t13mj84z2yhw3grvhc0000gn/T//ccuiTnhW.s 			page 106


2078:Drivers/STM32F4xx_HAL_Driver/Src/stm32f4xx_hal_ltdc.c ****                   ##### Peripheral State and Errors functions #####
2079:Drivers/STM32F4xx_HAL_Driver/Src/stm32f4xx_hal_ltdc.c ****  ===============================================================================
2080:Drivers/STM32F4xx_HAL_Driver/Src/stm32f4xx_hal_ltdc.c ****     [..]
2081:Drivers/STM32F4xx_HAL_Driver/Src/stm32f4xx_hal_ltdc.c ****     This subsection provides functions allowing to
2082:Drivers/STM32F4xx_HAL_Driver/Src/stm32f4xx_hal_ltdc.c ****       (+) Check the LTDC handle state.
2083:Drivers/STM32F4xx_HAL_Driver/Src/stm32f4xx_hal_ltdc.c ****       (+) Get the LTDC handle error code.
2084:Drivers/STM32F4xx_HAL_Driver/Src/stm32f4xx_hal_ltdc.c **** 
2085:Drivers/STM32F4xx_HAL_Driver/Src/stm32f4xx_hal_ltdc.c **** @endverbatim
2086:Drivers/STM32F4xx_HAL_Driver/Src/stm32f4xx_hal_ltdc.c ****   * @{
2087:Drivers/STM32F4xx_HAL_Driver/Src/stm32f4xx_hal_ltdc.c ****   */
2088:Drivers/STM32F4xx_HAL_Driver/Src/stm32f4xx_hal_ltdc.c **** 
2089:Drivers/STM32F4xx_HAL_Driver/Src/stm32f4xx_hal_ltdc.c **** /**
2090:Drivers/STM32F4xx_HAL_Driver/Src/stm32f4xx_hal_ltdc.c ****   * @brief  Return the LTDC handle state.
2091:Drivers/STM32F4xx_HAL_Driver/Src/stm32f4xx_hal_ltdc.c ****   * @param  hltdc  pointer to a LTDC_HandleTypeDef structure that contains
2092:Drivers/STM32F4xx_HAL_Driver/Src/stm32f4xx_hal_ltdc.c ****   *                the configuration information for the LTDC.
2093:Drivers/STM32F4xx_HAL_Driver/Src/stm32f4xx_hal_ltdc.c ****   * @retval HAL state
2094:Drivers/STM32F4xx_HAL_Driver/Src/stm32f4xx_hal_ltdc.c ****   */
2095:Drivers/STM32F4xx_HAL_Driver/Src/stm32f4xx_hal_ltdc.c **** HAL_LTDC_StateTypeDef HAL_LTDC_GetState(LTDC_HandleTypeDef *hltdc)
2096:Drivers/STM32F4xx_HAL_Driver/Src/stm32f4xx_hal_ltdc.c **** {
 3973              		.loc 1 2096 1
 3974              		.cfi_startproc
 3975              		@ args = 0, pretend = 0, frame = 8
 3976              		@ frame_needed = 1, uses_anonymous_args = 0
 3977              		@ link register save eliminated.
 3978 0000 80B4     		push	{r7}
 3979              	.LCFI207:
 3980              		.cfi_def_cfa_offset 4
 3981              		.cfi_offset 7, -4
 3982 0002 83B0     		sub	sp, sp, #12
 3983              	.LCFI208:
 3984              		.cfi_def_cfa_offset 16
 3985 0004 00AF     		add	r7, sp, #0
 3986              	.LCFI209:
 3987              		.cfi_def_cfa_register 7
 3988 0006 7860     		str	r0, [r7, #4]
2097:Drivers/STM32F4xx_HAL_Driver/Src/stm32f4xx_hal_ltdc.c ****   return hltdc->State;
 3989              		.loc 1 2097 15
 3990 0008 7B68     		ldr	r3, [r7, #4]
 3991 000a 93F8A130 		ldrb	r3, [r3, #161]
 3992 000e DBB2     		uxtb	r3, r3
2098:Drivers/STM32F4xx_HAL_Driver/Src/stm32f4xx_hal_ltdc.c **** }
 3993              		.loc 1 2098 1
 3994 0010 1846     		mov	r0, r3
 3995 0012 0C37     		adds	r7, r7, #12
 3996              	.LCFI210:
 3997              		.cfi_def_cfa_offset 4
 3998 0014 BD46     		mov	sp, r7
 3999              	.LCFI211:
 4000              		.cfi_def_cfa_register 13
 4001              		@ sp needed
 4002 0016 5DF8047B 		ldr	r7, [sp], #4
 4003              	.LCFI212:
 4004              		.cfi_restore 7
 4005              		.cfi_def_cfa_offset 0
 4006 001a 7047     		bx	lr
 4007              		.cfi_endproc
 4008              	.LFE171:
ARM GAS  /var/folders/06/9k7gq4t13mj84z2yhw3grvhc0000gn/T//ccuiTnhW.s 			page 107


 4010              		.section	.text.HAL_LTDC_GetError,"ax",%progbits
 4011              		.align	1
 4012              		.global	HAL_LTDC_GetError
 4013              		.syntax unified
 4014              		.thumb
 4015              		.thumb_func
 4017              	HAL_LTDC_GetError:
 4018              	.LFB172:
2099:Drivers/STM32F4xx_HAL_Driver/Src/stm32f4xx_hal_ltdc.c **** 
2100:Drivers/STM32F4xx_HAL_Driver/Src/stm32f4xx_hal_ltdc.c **** /**
2101:Drivers/STM32F4xx_HAL_Driver/Src/stm32f4xx_hal_ltdc.c ****   * @brief  Return the LTDC handle error code.
2102:Drivers/STM32F4xx_HAL_Driver/Src/stm32f4xx_hal_ltdc.c ****   * @param  hltdc  pointer to a LTDC_HandleTypeDef structure that contains
2103:Drivers/STM32F4xx_HAL_Driver/Src/stm32f4xx_hal_ltdc.c ****   *               the configuration information for the LTDC.
2104:Drivers/STM32F4xx_HAL_Driver/Src/stm32f4xx_hal_ltdc.c ****   * @retval LTDC Error Code
2105:Drivers/STM32F4xx_HAL_Driver/Src/stm32f4xx_hal_ltdc.c ****   */
2106:Drivers/STM32F4xx_HAL_Driver/Src/stm32f4xx_hal_ltdc.c **** uint32_t HAL_LTDC_GetError(LTDC_HandleTypeDef *hltdc)
2107:Drivers/STM32F4xx_HAL_Driver/Src/stm32f4xx_hal_ltdc.c **** {
 4019              		.loc 1 2107 1
 4020              		.cfi_startproc
 4021              		@ args = 0, pretend = 0, frame = 8
 4022              		@ frame_needed = 1, uses_anonymous_args = 0
 4023              		@ link register save eliminated.
 4024 0000 80B4     		push	{r7}
 4025              	.LCFI213:
 4026              		.cfi_def_cfa_offset 4
 4027              		.cfi_offset 7, -4
 4028 0002 83B0     		sub	sp, sp, #12
 4029              	.LCFI214:
 4030              		.cfi_def_cfa_offset 16
 4031 0004 00AF     		add	r7, sp, #0
 4032              	.LCFI215:
 4033              		.cfi_def_cfa_register 7
 4034 0006 7860     		str	r0, [r7, #4]
2108:Drivers/STM32F4xx_HAL_Driver/Src/stm32f4xx_hal_ltdc.c ****   return hltdc->ErrorCode;
 4035              		.loc 1 2108 15
 4036 0008 7B68     		ldr	r3, [r7, #4]
 4037 000a D3F8A430 		ldr	r3, [r3, #164]
2109:Drivers/STM32F4xx_HAL_Driver/Src/stm32f4xx_hal_ltdc.c **** }
 4038              		.loc 1 2109 1
 4039 000e 1846     		mov	r0, r3
 4040 0010 0C37     		adds	r7, r7, #12
 4041              	.LCFI216:
 4042              		.cfi_def_cfa_offset 4
 4043 0012 BD46     		mov	sp, r7
 4044              	.LCFI217:
 4045              		.cfi_def_cfa_register 13
 4046              		@ sp needed
 4047 0014 5DF8047B 		ldr	r7, [sp], #4
 4048              	.LCFI218:
 4049              		.cfi_restore 7
 4050              		.cfi_def_cfa_offset 0
 4051 0018 7047     		bx	lr
 4052              		.cfi_endproc
 4053              	.LFE172:
 4055              		.section	.text.LTDC_SetConfig,"ax",%progbits
 4056              		.align	1
 4057              		.syntax unified
ARM GAS  /var/folders/06/9k7gq4t13mj84z2yhw3grvhc0000gn/T//ccuiTnhW.s 			page 108


 4058              		.thumb
 4059              		.thumb_func
 4061              	LTDC_SetConfig:
 4062              	.LFB173:
2110:Drivers/STM32F4xx_HAL_Driver/Src/stm32f4xx_hal_ltdc.c **** 
2111:Drivers/STM32F4xx_HAL_Driver/Src/stm32f4xx_hal_ltdc.c **** /**
2112:Drivers/STM32F4xx_HAL_Driver/Src/stm32f4xx_hal_ltdc.c ****   * @}
2113:Drivers/STM32F4xx_HAL_Driver/Src/stm32f4xx_hal_ltdc.c ****   */
2114:Drivers/STM32F4xx_HAL_Driver/Src/stm32f4xx_hal_ltdc.c **** 
2115:Drivers/STM32F4xx_HAL_Driver/Src/stm32f4xx_hal_ltdc.c **** /**
2116:Drivers/STM32F4xx_HAL_Driver/Src/stm32f4xx_hal_ltdc.c ****   * @}
2117:Drivers/STM32F4xx_HAL_Driver/Src/stm32f4xx_hal_ltdc.c ****   */
2118:Drivers/STM32F4xx_HAL_Driver/Src/stm32f4xx_hal_ltdc.c **** 
2119:Drivers/STM32F4xx_HAL_Driver/Src/stm32f4xx_hal_ltdc.c **** /** @defgroup LTDC_Private_Functions LTDC Private Functions
2120:Drivers/STM32F4xx_HAL_Driver/Src/stm32f4xx_hal_ltdc.c ****   * @{
2121:Drivers/STM32F4xx_HAL_Driver/Src/stm32f4xx_hal_ltdc.c ****   */
2122:Drivers/STM32F4xx_HAL_Driver/Src/stm32f4xx_hal_ltdc.c **** 
2123:Drivers/STM32F4xx_HAL_Driver/Src/stm32f4xx_hal_ltdc.c **** /**
2124:Drivers/STM32F4xx_HAL_Driver/Src/stm32f4xx_hal_ltdc.c ****   * @brief  Configure the LTDC peripheral
2125:Drivers/STM32F4xx_HAL_Driver/Src/stm32f4xx_hal_ltdc.c ****   * @param  hltdc     Pointer to a LTDC_HandleTypeDef structure that contains
2126:Drivers/STM32F4xx_HAL_Driver/Src/stm32f4xx_hal_ltdc.c ****   *                   the configuration information for the LTDC.
2127:Drivers/STM32F4xx_HAL_Driver/Src/stm32f4xx_hal_ltdc.c ****   * @param  pLayerCfg Pointer LTDC Layer Configuration structure
2128:Drivers/STM32F4xx_HAL_Driver/Src/stm32f4xx_hal_ltdc.c ****   * @param  LayerIdx  LTDC Layer index.
2129:Drivers/STM32F4xx_HAL_Driver/Src/stm32f4xx_hal_ltdc.c ****   *                   This parameter can be one of the following values: LTDC_LAYER_1 (0) or LTDC_L
2130:Drivers/STM32F4xx_HAL_Driver/Src/stm32f4xx_hal_ltdc.c ****   * @retval None
2131:Drivers/STM32F4xx_HAL_Driver/Src/stm32f4xx_hal_ltdc.c ****   */
2132:Drivers/STM32F4xx_HAL_Driver/Src/stm32f4xx_hal_ltdc.c **** static void LTDC_SetConfig(LTDC_HandleTypeDef *hltdc, LTDC_LayerCfgTypeDef *pLayerCfg, uint32_t Lay
2133:Drivers/STM32F4xx_HAL_Driver/Src/stm32f4xx_hal_ltdc.c **** {
 4063              		.loc 1 2133 1
 4064              		.cfi_startproc
 4065              		@ args = 0, pretend = 0, frame = 32
 4066              		@ frame_needed = 1, uses_anonymous_args = 0
 4067              		@ link register save eliminated.
 4068 0000 80B4     		push	{r7}
 4069              	.LCFI219:
 4070              		.cfi_def_cfa_offset 4
 4071              		.cfi_offset 7, -4
 4072 0002 89B0     		sub	sp, sp, #36
 4073              	.LCFI220:
 4074              		.cfi_def_cfa_offset 40
 4075 0004 00AF     		add	r7, sp, #0
 4076              	.LCFI221:
 4077              		.cfi_def_cfa_register 7
 4078 0006 F860     		str	r0, [r7, #12]
 4079 0008 B960     		str	r1, [r7, #8]
 4080 000a 7A60     		str	r2, [r7, #4]
2134:Drivers/STM32F4xx_HAL_Driver/Src/stm32f4xx_hal_ltdc.c ****   uint32_t tmp;
2135:Drivers/STM32F4xx_HAL_Driver/Src/stm32f4xx_hal_ltdc.c ****   uint32_t tmp1;
2136:Drivers/STM32F4xx_HAL_Driver/Src/stm32f4xx_hal_ltdc.c ****   uint32_t tmp2;
2137:Drivers/STM32F4xx_HAL_Driver/Src/stm32f4xx_hal_ltdc.c **** 
2138:Drivers/STM32F4xx_HAL_Driver/Src/stm32f4xx_hal_ltdc.c ****   /* Configure the horizontal start and stop position */
2139:Drivers/STM32F4xx_HAL_Driver/Src/stm32f4xx_hal_ltdc.c ****   tmp = ((pLayerCfg->WindowX1 + ((hltdc->Instance->BPCR & LTDC_BPCR_AHBP) >> 16U)) << 16U);
 4081              		.loc 1 2139 20
 4082 000c BB68     		ldr	r3, [r7, #8]
 4083 000e 5A68     		ldr	r2, [r3, #4]
 4084              		.loc 1 2139 40
 4085 0010 FB68     		ldr	r3, [r7, #12]
ARM GAS  /var/folders/06/9k7gq4t13mj84z2yhw3grvhc0000gn/T//ccuiTnhW.s 			page 109


 4086 0012 1B68     		ldr	r3, [r3]
 4087              		.loc 1 2139 50
 4088 0014 DB68     		ldr	r3, [r3, #12]
 4089              		.loc 1 2139 75
 4090 0016 1B0C     		lsrs	r3, r3, #16
 4091 0018 C3F30B03 		ubfx	r3, r3, #0, #12
 4092              		.loc 1 2139 31
 4093 001c 1344     		add	r3, r3, r2
 4094              		.loc 1 2139 7
 4095 001e 1B04     		lsls	r3, r3, #16
 4096 0020 FB61     		str	r3, [r7, #28]
2140:Drivers/STM32F4xx_HAL_Driver/Src/stm32f4xx_hal_ltdc.c ****   LTDC_LAYER(hltdc, LayerIdx)->WHPCR &= ~(LTDC_LxWHPCR_WHSTPOS | LTDC_LxWHPCR_WHSPPOS);
 4097              		.loc 1 2140 3
 4098 0022 FB68     		ldr	r3, [r7, #12]
 4099 0024 1B68     		ldr	r3, [r3]
 4100              		.loc 1 2140 30
 4101 0026 1A46     		mov	r2, r3
 4102 0028 7B68     		ldr	r3, [r7, #4]
 4103 002a DB01     		lsls	r3, r3, #7
 4104 002c 1344     		add	r3, r3, r2
 4105 002e 8433     		adds	r3, r3, #132
 4106 0030 5B68     		ldr	r3, [r3, #4]
 4107              		.loc 1 2140 3
 4108 0032 FA68     		ldr	r2, [r7, #12]
 4109 0034 1268     		ldr	r2, [r2]
 4110              		.loc 1 2140 30
 4111 0036 1146     		mov	r1, r2
 4112 0038 7A68     		ldr	r2, [r7, #4]
 4113 003a D201     		lsls	r2, r2, #7
 4114 003c 0A44     		add	r2, r2, r1
 4115 003e 8432     		adds	r2, r2, #132
 4116              		.loc 1 2140 38
 4117 0040 03F47043 		and	r3, r3, #61440
 4118 0044 5360     		str	r3, [r2, #4]
2141:Drivers/STM32F4xx_HAL_Driver/Src/stm32f4xx_hal_ltdc.c ****   LTDC_LAYER(hltdc, LayerIdx)->WHPCR = ((pLayerCfg->WindowX0 + \
 4119              		.loc 1 2141 51
 4120 0046 BB68     		ldr	r3, [r7, #8]
 4121 0048 1A68     		ldr	r2, [r3]
2142:Drivers/STM32F4xx_HAL_Driver/Src/stm32f4xx_hal_ltdc.c ****                                          ((hltdc->Instance->BPCR & LTDC_BPCR_AHBP) >> 16U) + 1U) | 
 4122              		.loc 1 2142 49
 4123 004a FB68     		ldr	r3, [r7, #12]
 4124 004c 1B68     		ldr	r3, [r3]
 4125              		.loc 1 2142 59
 4126 004e DB68     		ldr	r3, [r3, #12]
 4127              		.loc 1 2142 84
 4128 0050 1B0C     		lsrs	r3, r3, #16
 4129 0052 C3F30B03 		ubfx	r3, r3, #0, #12
2141:Drivers/STM32F4xx_HAL_Driver/Src/stm32f4xx_hal_ltdc.c ****   LTDC_LAYER(hltdc, LayerIdx)->WHPCR = ((pLayerCfg->WindowX0 + \
 4130              		.loc 1 2141 62
 4131 0056 1344     		add	r3, r3, r2
 4132              		.loc 1 2142 92
 4133 0058 5A1C     		adds	r2, r3, #1
2141:Drivers/STM32F4xx_HAL_Driver/Src/stm32f4xx_hal_ltdc.c ****   LTDC_LAYER(hltdc, LayerIdx)->WHPCR = ((pLayerCfg->WindowX0 + \
 4134              		.loc 1 2141 3
 4135 005a FB68     		ldr	r3, [r7, #12]
 4136 005c 1B68     		ldr	r3, [r3]
 4137 005e 1946     		mov	r1, r3
ARM GAS  /var/folders/06/9k7gq4t13mj84z2yhw3grvhc0000gn/T//ccuiTnhW.s 			page 110


 4138 0060 7B68     		ldr	r3, [r7, #4]
 4139 0062 DB01     		lsls	r3, r3, #7
 4140 0064 0B44     		add	r3, r3, r1
 4141 0066 8433     		adds	r3, r3, #132
 4142 0068 1946     		mov	r1, r3
 4143              		.loc 1 2142 98
 4144 006a FB69     		ldr	r3, [r7, #28]
 4145 006c 1343     		orrs	r3, r3, r2
2141:Drivers/STM32F4xx_HAL_Driver/Src/stm32f4xx_hal_ltdc.c ****   LTDC_LAYER(hltdc, LayerIdx)->WHPCR = ((pLayerCfg->WindowX0 + \
 4146              		.loc 1 2141 38
 4147 006e 4B60     		str	r3, [r1, #4]
2143:Drivers/STM32F4xx_HAL_Driver/Src/stm32f4xx_hal_ltdc.c **** 
2144:Drivers/STM32F4xx_HAL_Driver/Src/stm32f4xx_hal_ltdc.c ****   /* Configure the vertical start and stop position */
2145:Drivers/STM32F4xx_HAL_Driver/Src/stm32f4xx_hal_ltdc.c ****   tmp = ((pLayerCfg->WindowY1 + (hltdc->Instance->BPCR & LTDC_BPCR_AVBP)) << 16U);
 4148              		.loc 1 2145 20
 4149 0070 BB68     		ldr	r3, [r7, #8]
 4150 0072 DA68     		ldr	r2, [r3, #12]
 4151              		.loc 1 2145 39
 4152 0074 FB68     		ldr	r3, [r7, #12]
 4153 0076 1B68     		ldr	r3, [r3]
 4154              		.loc 1 2145 49
 4155 0078 DB68     		ldr	r3, [r3, #12]
 4156              		.loc 1 2145 56
 4157 007a C3F30A03 		ubfx	r3, r3, #0, #11
 4158              		.loc 1 2145 31
 4159 007e 1344     		add	r3, r3, r2
 4160              		.loc 1 2145 7
 4161 0080 1B04     		lsls	r3, r3, #16
 4162 0082 FB61     		str	r3, [r7, #28]
2146:Drivers/STM32F4xx_HAL_Driver/Src/stm32f4xx_hal_ltdc.c ****   LTDC_LAYER(hltdc, LayerIdx)->WVPCR &= ~(LTDC_LxWVPCR_WVSTPOS | LTDC_LxWVPCR_WVSPPOS);
 4163              		.loc 1 2146 3
 4164 0084 FB68     		ldr	r3, [r7, #12]
 4165 0086 1B68     		ldr	r3, [r3]
 4166              		.loc 1 2146 30
 4167 0088 1A46     		mov	r2, r3
 4168 008a 7B68     		ldr	r3, [r7, #4]
 4169 008c DB01     		lsls	r3, r3, #7
 4170 008e 1344     		add	r3, r3, r2
 4171 0090 8433     		adds	r3, r3, #132
 4172 0092 9B68     		ldr	r3, [r3, #8]
 4173              		.loc 1 2146 3
 4174 0094 FA68     		ldr	r2, [r7, #12]
 4175 0096 1268     		ldr	r2, [r2]
 4176              		.loc 1 2146 30
 4177 0098 1146     		mov	r1, r2
 4178 009a 7A68     		ldr	r2, [r7, #4]
 4179 009c D201     		lsls	r2, r2, #7
 4180 009e 0A44     		add	r2, r2, r1
 4181 00a0 8432     		adds	r2, r2, #132
 4182              		.loc 1 2146 38
 4183 00a2 03F47043 		and	r3, r3, #61440
 4184 00a6 9360     		str	r3, [r2, #8]
2147:Drivers/STM32F4xx_HAL_Driver/Src/stm32f4xx_hal_ltdc.c ****   LTDC_LAYER(hltdc, LayerIdx)->WVPCR  = ((pLayerCfg->WindowY0 + (hltdc->Instance->BPCR & LTDC_BPCR_
 4185              		.loc 1 2147 52
 4186 00a8 BB68     		ldr	r3, [r7, #8]
 4187 00aa 9A68     		ldr	r2, [r3, #8]
 4188              		.loc 1 2147 71
ARM GAS  /var/folders/06/9k7gq4t13mj84z2yhw3grvhc0000gn/T//ccuiTnhW.s 			page 111


 4189 00ac FB68     		ldr	r3, [r7, #12]
 4190 00ae 1B68     		ldr	r3, [r3]
 4191              		.loc 1 2147 81
 4192 00b0 DB68     		ldr	r3, [r3, #12]
 4193              		.loc 1 2147 88
 4194 00b2 C3F30A03 		ubfx	r3, r3, #0, #11
 4195              		.loc 1 2147 63
 4196 00b6 1344     		add	r3, r3, r2
 4197              		.loc 1 2147 106
 4198 00b8 5A1C     		adds	r2, r3, #1
 4199              		.loc 1 2147 3
 4200 00ba FB68     		ldr	r3, [r7, #12]
 4201 00bc 1B68     		ldr	r3, [r3]
 4202 00be 1946     		mov	r1, r3
 4203 00c0 7B68     		ldr	r3, [r7, #4]
 4204 00c2 DB01     		lsls	r3, r3, #7
 4205 00c4 0B44     		add	r3, r3, r1
 4206 00c6 8433     		adds	r3, r3, #132
 4207 00c8 1946     		mov	r1, r3
 4208              		.loc 1 2147 112
 4209 00ca FB69     		ldr	r3, [r7, #28]
 4210 00cc 1343     		orrs	r3, r3, r2
 4211              		.loc 1 2147 39
 4212 00ce 8B60     		str	r3, [r1, #8]
2148:Drivers/STM32F4xx_HAL_Driver/Src/stm32f4xx_hal_ltdc.c **** 
2149:Drivers/STM32F4xx_HAL_Driver/Src/stm32f4xx_hal_ltdc.c ****   /* Specifies the pixel format */
2150:Drivers/STM32F4xx_HAL_Driver/Src/stm32f4xx_hal_ltdc.c ****   LTDC_LAYER(hltdc, LayerIdx)->PFCR &= ~(LTDC_LxPFCR_PF);
 4213              		.loc 1 2150 3
 4214 00d0 FB68     		ldr	r3, [r7, #12]
 4215 00d2 1B68     		ldr	r3, [r3]
 4216              		.loc 1 2150 30
 4217 00d4 1A46     		mov	r2, r3
 4218 00d6 7B68     		ldr	r3, [r7, #4]
 4219 00d8 DB01     		lsls	r3, r3, #7
 4220 00da 1344     		add	r3, r3, r2
 4221 00dc 8433     		adds	r3, r3, #132
 4222 00de 1B69     		ldr	r3, [r3, #16]
 4223              		.loc 1 2150 3
 4224 00e0 FA68     		ldr	r2, [r7, #12]
 4225 00e2 1268     		ldr	r2, [r2]
 4226              		.loc 1 2150 30
 4227 00e4 1146     		mov	r1, r2
 4228 00e6 7A68     		ldr	r2, [r7, #4]
 4229 00e8 D201     		lsls	r2, r2, #7
 4230 00ea 0A44     		add	r2, r2, r1
 4231 00ec 8432     		adds	r2, r2, #132
 4232              		.loc 1 2150 37
 4233 00ee 23F00703 		bic	r3, r3, #7
 4234 00f2 1361     		str	r3, [r2, #16]
2151:Drivers/STM32F4xx_HAL_Driver/Src/stm32f4xx_hal_ltdc.c ****   LTDC_LAYER(hltdc, LayerIdx)->PFCR = (pLayerCfg->PixelFormat);
 4235              		.loc 1 2151 3
 4236 00f4 FB68     		ldr	r3, [r7, #12]
 4237 00f6 1B68     		ldr	r3, [r3]
 4238 00f8 1A46     		mov	r2, r3
 4239 00fa 7B68     		ldr	r3, [r7, #4]
 4240 00fc DB01     		lsls	r3, r3, #7
 4241 00fe 1344     		add	r3, r3, r2
ARM GAS  /var/folders/06/9k7gq4t13mj84z2yhw3grvhc0000gn/T//ccuiTnhW.s 			page 112


 4242 0100 8433     		adds	r3, r3, #132
 4243 0102 1A46     		mov	r2, r3
 4244              		.loc 1 2151 49
 4245 0104 BB68     		ldr	r3, [r7, #8]
 4246 0106 1B69     		ldr	r3, [r3, #16]
 4247              		.loc 1 2151 37
 4248 0108 1361     		str	r3, [r2, #16]
2152:Drivers/STM32F4xx_HAL_Driver/Src/stm32f4xx_hal_ltdc.c **** 
2153:Drivers/STM32F4xx_HAL_Driver/Src/stm32f4xx_hal_ltdc.c ****   /* Configure the default color values */
2154:Drivers/STM32F4xx_HAL_Driver/Src/stm32f4xx_hal_ltdc.c ****   tmp = ((uint32_t)(pLayerCfg->Backcolor.Green) << 8U);
 4249              		.loc 1 2154 41
 4250 010a BB68     		ldr	r3, [r7, #8]
 4251 010c 93F83130 		ldrb	r3, [r3, #49]	@ zero_extendqisi2
 4252              		.loc 1 2154 7
 4253 0110 1B02     		lsls	r3, r3, #8
 4254 0112 FB61     		str	r3, [r7, #28]
2155:Drivers/STM32F4xx_HAL_Driver/Src/stm32f4xx_hal_ltdc.c ****   tmp1 = ((uint32_t)(pLayerCfg->Backcolor.Red) << 16U);
 4255              		.loc 1 2155 42
 4256 0114 BB68     		ldr	r3, [r7, #8]
 4257 0116 93F83230 		ldrb	r3, [r3, #50]	@ zero_extendqisi2
 4258              		.loc 1 2155 8
 4259 011a 1B04     		lsls	r3, r3, #16
 4260 011c BB61     		str	r3, [r7, #24]
2156:Drivers/STM32F4xx_HAL_Driver/Src/stm32f4xx_hal_ltdc.c ****   tmp2 = (pLayerCfg->Alpha0 << 24U);
 4261              		.loc 1 2156 20
 4262 011e BB68     		ldr	r3, [r7, #8]
 4263 0120 9B69     		ldr	r3, [r3, #24]
 4264              		.loc 1 2156 8
 4265 0122 1B06     		lsls	r3, r3, #24
 4266 0124 7B61     		str	r3, [r7, #20]
2157:Drivers/STM32F4xx_HAL_Driver/Src/stm32f4xx_hal_ltdc.c ****   LTDC_LAYER(hltdc, LayerIdx)->DCCR &= ~(LTDC_LxDCCR_DCBLUE | LTDC_LxDCCR_DCGREEN | LTDC_LxDCCR_DCR
 4267              		.loc 1 2157 3
 4268 0126 FB68     		ldr	r3, [r7, #12]
 4269 0128 1B68     		ldr	r3, [r3]
 4270              		.loc 1 2157 30
 4271 012a 1A46     		mov	r2, r3
 4272 012c 7B68     		ldr	r3, [r7, #4]
 4273 012e DB01     		lsls	r3, r3, #7
 4274 0130 1344     		add	r3, r3, r2
 4275 0132 8433     		adds	r3, r3, #132
 4276 0134 9B69     		ldr	r3, [r3, #24]
 4277              		.loc 1 2157 3
 4278 0136 FB68     		ldr	r3, [r7, #12]
 4279 0138 1B68     		ldr	r3, [r3]
 4280              		.loc 1 2157 30
 4281 013a 1A46     		mov	r2, r3
 4282 013c 7B68     		ldr	r3, [r7, #4]
 4283 013e DB01     		lsls	r3, r3, #7
 4284 0140 1344     		add	r3, r3, r2
 4285 0142 8433     		adds	r3, r3, #132
 4286 0144 1A46     		mov	r2, r3
 4287              		.loc 1 2157 37
 4288 0146 0023     		movs	r3, #0
 4289 0148 9361     		str	r3, [r2, #24]
2158:Drivers/STM32F4xx_HAL_Driver/Src/stm32f4xx_hal_ltdc.c ****                                          LTDC_LxDCCR_DCALPHA);
2159:Drivers/STM32F4xx_HAL_Driver/Src/stm32f4xx_hal_ltdc.c ****   LTDC_LAYER(hltdc, LayerIdx)->DCCR = (pLayerCfg->Backcolor.Blue | tmp | tmp1 | tmp2);
 4290              		.loc 1 2159 60
ARM GAS  /var/folders/06/9k7gq4t13mj84z2yhw3grvhc0000gn/T//ccuiTnhW.s 			page 113


 4291 014a BB68     		ldr	r3, [r7, #8]
 4292 014c 93F83030 		ldrb	r3, [r3, #48]	@ zero_extendqisi2
 4293 0150 1A46     		mov	r2, r3
 4294              		.loc 1 2159 66
 4295 0152 FB69     		ldr	r3, [r7, #28]
 4296 0154 1A43     		orrs	r2, r2, r3
 4297              		.loc 1 2159 72
 4298 0156 BB69     		ldr	r3, [r7, #24]
 4299 0158 1A43     		orrs	r2, r2, r3
 4300              		.loc 1 2159 3
 4301 015a FB68     		ldr	r3, [r7, #12]
 4302 015c 1B68     		ldr	r3, [r3]
 4303 015e 1946     		mov	r1, r3
 4304 0160 7B68     		ldr	r3, [r7, #4]
 4305 0162 DB01     		lsls	r3, r3, #7
 4306 0164 0B44     		add	r3, r3, r1
 4307 0166 8433     		adds	r3, r3, #132
 4308 0168 1946     		mov	r1, r3
 4309              		.loc 1 2159 79
 4310 016a 7B69     		ldr	r3, [r7, #20]
 4311 016c 1343     		orrs	r3, r3, r2
 4312              		.loc 1 2159 37
 4313 016e 8B61     		str	r3, [r1, #24]
2160:Drivers/STM32F4xx_HAL_Driver/Src/stm32f4xx_hal_ltdc.c **** 
2161:Drivers/STM32F4xx_HAL_Driver/Src/stm32f4xx_hal_ltdc.c ****   /* Specifies the constant alpha value */
2162:Drivers/STM32F4xx_HAL_Driver/Src/stm32f4xx_hal_ltdc.c ****   LTDC_LAYER(hltdc, LayerIdx)->CACR &= ~(LTDC_LxCACR_CONSTA);
 4314              		.loc 1 2162 3
 4315 0170 FB68     		ldr	r3, [r7, #12]
 4316 0172 1B68     		ldr	r3, [r3]
 4317              		.loc 1 2162 30
 4318 0174 1A46     		mov	r2, r3
 4319 0176 7B68     		ldr	r3, [r7, #4]
 4320 0178 DB01     		lsls	r3, r3, #7
 4321 017a 1344     		add	r3, r3, r2
 4322 017c 8433     		adds	r3, r3, #132
 4323 017e 5B69     		ldr	r3, [r3, #20]
 4324              		.loc 1 2162 3
 4325 0180 FA68     		ldr	r2, [r7, #12]
 4326 0182 1268     		ldr	r2, [r2]
 4327              		.loc 1 2162 30
 4328 0184 1146     		mov	r1, r2
 4329 0186 7A68     		ldr	r2, [r7, #4]
 4330 0188 D201     		lsls	r2, r2, #7
 4331 018a 0A44     		add	r2, r2, r1
 4332 018c 8432     		adds	r2, r2, #132
 4333              		.loc 1 2162 37
 4334 018e 23F0FF03 		bic	r3, r3, #255
 4335 0192 5361     		str	r3, [r2, #20]
2163:Drivers/STM32F4xx_HAL_Driver/Src/stm32f4xx_hal_ltdc.c ****   LTDC_LAYER(hltdc, LayerIdx)->CACR = (pLayerCfg->Alpha);
 4336              		.loc 1 2163 3
 4337 0194 FB68     		ldr	r3, [r7, #12]
 4338 0196 1B68     		ldr	r3, [r3]
 4339 0198 1A46     		mov	r2, r3
 4340 019a 7B68     		ldr	r3, [r7, #4]
 4341 019c DB01     		lsls	r3, r3, #7
 4342 019e 1344     		add	r3, r3, r2
 4343 01a0 8433     		adds	r3, r3, #132
ARM GAS  /var/folders/06/9k7gq4t13mj84z2yhw3grvhc0000gn/T//ccuiTnhW.s 			page 114


 4344 01a2 1A46     		mov	r2, r3
 4345              		.loc 1 2163 49
 4346 01a4 BB68     		ldr	r3, [r7, #8]
 4347 01a6 5B69     		ldr	r3, [r3, #20]
 4348              		.loc 1 2163 37
 4349 01a8 5361     		str	r3, [r2, #20]
2164:Drivers/STM32F4xx_HAL_Driver/Src/stm32f4xx_hal_ltdc.c **** 
2165:Drivers/STM32F4xx_HAL_Driver/Src/stm32f4xx_hal_ltdc.c ****   /* Specifies the blending factors */
2166:Drivers/STM32F4xx_HAL_Driver/Src/stm32f4xx_hal_ltdc.c ****   LTDC_LAYER(hltdc, LayerIdx)->BFCR &= ~(LTDC_LxBFCR_BF2 | LTDC_LxBFCR_BF1);
 4350              		.loc 1 2166 3
 4351 01aa FB68     		ldr	r3, [r7, #12]
 4352 01ac 1B68     		ldr	r3, [r3]
 4353              		.loc 1 2166 30
 4354 01ae 1A46     		mov	r2, r3
 4355 01b0 7B68     		ldr	r3, [r7, #4]
 4356 01b2 DB01     		lsls	r3, r3, #7
 4357 01b4 1344     		add	r3, r3, r2
 4358 01b6 8433     		adds	r3, r3, #132
 4359 01b8 DB69     		ldr	r3, [r3, #28]
 4360              		.loc 1 2166 3
 4361 01ba FA68     		ldr	r2, [r7, #12]
 4362 01bc 1268     		ldr	r2, [r2]
 4363              		.loc 1 2166 30
 4364 01be 1146     		mov	r1, r2
 4365 01c0 7A68     		ldr	r2, [r7, #4]
 4366 01c2 D201     		lsls	r2, r2, #7
 4367 01c4 0A44     		add	r2, r2, r1
 4368 01c6 8432     		adds	r2, r2, #132
 4369              		.loc 1 2166 37
 4370 01c8 23F4E063 		bic	r3, r3, #1792
 4371 01cc 23F00703 		bic	r3, r3, #7
 4372 01d0 D361     		str	r3, [r2, #28]
2167:Drivers/STM32F4xx_HAL_Driver/Src/stm32f4xx_hal_ltdc.c ****   LTDC_LAYER(hltdc, LayerIdx)->BFCR = (pLayerCfg->BlendingFactor1 | pLayerCfg->BlendingFactor2);
 4373              		.loc 1 2167 49
 4374 01d2 BB68     		ldr	r3, [r7, #8]
 4375 01d4 DA69     		ldr	r2, [r3, #28]
 4376              		.loc 1 2167 78
 4377 01d6 BB68     		ldr	r3, [r7, #8]
 4378 01d8 1B6A     		ldr	r3, [r3, #32]
 4379              		.loc 1 2167 3
 4380 01da F968     		ldr	r1, [r7, #12]
 4381 01dc 0968     		ldr	r1, [r1]
 4382 01de 0846     		mov	r0, r1
 4383 01e0 7968     		ldr	r1, [r7, #4]
 4384 01e2 C901     		lsls	r1, r1, #7
 4385 01e4 0144     		add	r1, r1, r0
 4386 01e6 8431     		adds	r1, r1, #132
 4387              		.loc 1 2167 67
 4388 01e8 1343     		orrs	r3, r3, r2
 4389              		.loc 1 2167 37
 4390 01ea CB61     		str	r3, [r1, #28]
2168:Drivers/STM32F4xx_HAL_Driver/Src/stm32f4xx_hal_ltdc.c **** 
2169:Drivers/STM32F4xx_HAL_Driver/Src/stm32f4xx_hal_ltdc.c ****   /* Configure the color frame buffer start address */
2170:Drivers/STM32F4xx_HAL_Driver/Src/stm32f4xx_hal_ltdc.c ****   LTDC_LAYER(hltdc, LayerIdx)->CFBAR &= ~(LTDC_LxCFBAR_CFBADD);
 4391              		.loc 1 2170 3
 4392 01ec FB68     		ldr	r3, [r7, #12]
 4393 01ee 1B68     		ldr	r3, [r3]
ARM GAS  /var/folders/06/9k7gq4t13mj84z2yhw3grvhc0000gn/T//ccuiTnhW.s 			page 115


 4394              		.loc 1 2170 30
 4395 01f0 1A46     		mov	r2, r3
 4396 01f2 7B68     		ldr	r3, [r7, #4]
 4397 01f4 DB01     		lsls	r3, r3, #7
 4398 01f6 1344     		add	r3, r3, r2
 4399 01f8 8433     		adds	r3, r3, #132
 4400 01fa 9B6A     		ldr	r3, [r3, #40]
 4401              		.loc 1 2170 3
 4402 01fc FB68     		ldr	r3, [r7, #12]
 4403 01fe 1B68     		ldr	r3, [r3]
 4404              		.loc 1 2170 30
 4405 0200 1A46     		mov	r2, r3
 4406 0202 7B68     		ldr	r3, [r7, #4]
 4407 0204 DB01     		lsls	r3, r3, #7
 4408 0206 1344     		add	r3, r3, r2
 4409 0208 8433     		adds	r3, r3, #132
 4410 020a 1A46     		mov	r2, r3
 4411              		.loc 1 2170 38
 4412 020c 0023     		movs	r3, #0
 4413 020e 9362     		str	r3, [r2, #40]
2171:Drivers/STM32F4xx_HAL_Driver/Src/stm32f4xx_hal_ltdc.c ****   LTDC_LAYER(hltdc, LayerIdx)->CFBAR = (pLayerCfg->FBStartAdress);
 4414              		.loc 1 2171 3
 4415 0210 FB68     		ldr	r3, [r7, #12]
 4416 0212 1B68     		ldr	r3, [r3]
 4417 0214 1A46     		mov	r2, r3
 4418 0216 7B68     		ldr	r3, [r7, #4]
 4419 0218 DB01     		lsls	r3, r3, #7
 4420 021a 1344     		add	r3, r3, r2
 4421 021c 8433     		adds	r3, r3, #132
 4422 021e 1A46     		mov	r2, r3
 4423              		.loc 1 2171 50
 4424 0220 BB68     		ldr	r3, [r7, #8]
 4425 0222 5B6A     		ldr	r3, [r3, #36]
 4426              		.loc 1 2171 38
 4427 0224 9362     		str	r3, [r2, #40]
2172:Drivers/STM32F4xx_HAL_Driver/Src/stm32f4xx_hal_ltdc.c **** 
2173:Drivers/STM32F4xx_HAL_Driver/Src/stm32f4xx_hal_ltdc.c ****   if (pLayerCfg->PixelFormat == LTDC_PIXEL_FORMAT_ARGB8888)
 4428              		.loc 1 2173 16
 4429 0226 BB68     		ldr	r3, [r7, #8]
 4430 0228 1B69     		ldr	r3, [r3, #16]
 4431              		.loc 1 2173 6
 4432 022a 002B     		cmp	r3, #0
 4433 022c 02D1     		bne	.L139
2174:Drivers/STM32F4xx_HAL_Driver/Src/stm32f4xx_hal_ltdc.c ****   {
2175:Drivers/STM32F4xx_HAL_Driver/Src/stm32f4xx_hal_ltdc.c ****     tmp = 4U;
 4434              		.loc 1 2175 9
 4435 022e 0423     		movs	r3, #4
 4436 0230 FB61     		str	r3, [r7, #28]
 4437 0232 1BE0     		b	.L140
 4438              	.L139:
2176:Drivers/STM32F4xx_HAL_Driver/Src/stm32f4xx_hal_ltdc.c ****   }
2177:Drivers/STM32F4xx_HAL_Driver/Src/stm32f4xx_hal_ltdc.c ****   else if (pLayerCfg->PixelFormat == LTDC_PIXEL_FORMAT_RGB888)
 4439              		.loc 1 2177 21
 4440 0234 BB68     		ldr	r3, [r7, #8]
 4441 0236 1B69     		ldr	r3, [r3, #16]
 4442              		.loc 1 2177 11
 4443 0238 012B     		cmp	r3, #1
ARM GAS  /var/folders/06/9k7gq4t13mj84z2yhw3grvhc0000gn/T//ccuiTnhW.s 			page 116


 4444 023a 02D1     		bne	.L141
2178:Drivers/STM32F4xx_HAL_Driver/Src/stm32f4xx_hal_ltdc.c ****   {
2179:Drivers/STM32F4xx_HAL_Driver/Src/stm32f4xx_hal_ltdc.c ****     tmp = 3U;
 4445              		.loc 1 2179 9
 4446 023c 0323     		movs	r3, #3
 4447 023e FB61     		str	r3, [r7, #28]
 4448 0240 14E0     		b	.L140
 4449              	.L141:
2180:Drivers/STM32F4xx_HAL_Driver/Src/stm32f4xx_hal_ltdc.c ****   }
2181:Drivers/STM32F4xx_HAL_Driver/Src/stm32f4xx_hal_ltdc.c ****   else if ((pLayerCfg->PixelFormat == LTDC_PIXEL_FORMAT_ARGB4444) || \
 4450              		.loc 1 2181 22
 4451 0242 BB68     		ldr	r3, [r7, #8]
 4452 0244 1B69     		ldr	r3, [r3, #16]
 4453              		.loc 1 2181 11
 4454 0246 042B     		cmp	r3, #4
 4455 0248 0BD0     		beq	.L142
2182:Drivers/STM32F4xx_HAL_Driver/Src/stm32f4xx_hal_ltdc.c ****            (pLayerCfg->PixelFormat == LTDC_PIXEL_FORMAT_RGB565)   || \
 4456              		.loc 1 2182 22
 4457 024a BB68     		ldr	r3, [r7, #8]
 4458 024c 1B69     		ldr	r3, [r3, #16]
2181:Drivers/STM32F4xx_HAL_Driver/Src/stm32f4xx_hal_ltdc.c ****            (pLayerCfg->PixelFormat == LTDC_PIXEL_FORMAT_RGB565)   || \
 4459              		.loc 1 2181 67 discriminator 1
 4460 024e 022B     		cmp	r3, #2
 4461 0250 07D0     		beq	.L142
2183:Drivers/STM32F4xx_HAL_Driver/Src/stm32f4xx_hal_ltdc.c ****            (pLayerCfg->PixelFormat == LTDC_PIXEL_FORMAT_ARGB1555) || \
 4462              		.loc 1 2183 22
 4463 0252 BB68     		ldr	r3, [r7, #8]
 4464 0254 1B69     		ldr	r3, [r3, #16]
2182:Drivers/STM32F4xx_HAL_Driver/Src/stm32f4xx_hal_ltdc.c ****            (pLayerCfg->PixelFormat == LTDC_PIXEL_FORMAT_RGB565)   || \
 4465              		.loc 1 2182 67
 4466 0256 032B     		cmp	r3, #3
 4467 0258 03D0     		beq	.L142
2184:Drivers/STM32F4xx_HAL_Driver/Src/stm32f4xx_hal_ltdc.c ****            (pLayerCfg->PixelFormat == LTDC_PIXEL_FORMAT_AL88))
 4468              		.loc 1 2184 22
 4469 025a BB68     		ldr	r3, [r7, #8]
 4470 025c 1B69     		ldr	r3, [r3, #16]
2183:Drivers/STM32F4xx_HAL_Driver/Src/stm32f4xx_hal_ltdc.c ****            (pLayerCfg->PixelFormat == LTDC_PIXEL_FORMAT_ARGB1555) || \
 4471              		.loc 1 2183 67
 4472 025e 072B     		cmp	r3, #7
 4473 0260 02D1     		bne	.L143
 4474              	.L142:
2185:Drivers/STM32F4xx_HAL_Driver/Src/stm32f4xx_hal_ltdc.c ****   {
2186:Drivers/STM32F4xx_HAL_Driver/Src/stm32f4xx_hal_ltdc.c ****     tmp = 2U;
 4475              		.loc 1 2186 9
 4476 0262 0223     		movs	r3, #2
 4477 0264 FB61     		str	r3, [r7, #28]
 4478 0266 01E0     		b	.L140
 4479              	.L143:
2187:Drivers/STM32F4xx_HAL_Driver/Src/stm32f4xx_hal_ltdc.c ****   }
2188:Drivers/STM32F4xx_HAL_Driver/Src/stm32f4xx_hal_ltdc.c ****   else
2189:Drivers/STM32F4xx_HAL_Driver/Src/stm32f4xx_hal_ltdc.c ****   {
2190:Drivers/STM32F4xx_HAL_Driver/Src/stm32f4xx_hal_ltdc.c ****     tmp = 1U;
 4480              		.loc 1 2190 9
 4481 0268 0123     		movs	r3, #1
 4482 026a FB61     		str	r3, [r7, #28]
 4483              	.L140:
2191:Drivers/STM32F4xx_HAL_Driver/Src/stm32f4xx_hal_ltdc.c ****   }
ARM GAS  /var/folders/06/9k7gq4t13mj84z2yhw3grvhc0000gn/T//ccuiTnhW.s 			page 117


2192:Drivers/STM32F4xx_HAL_Driver/Src/stm32f4xx_hal_ltdc.c **** 
2193:Drivers/STM32F4xx_HAL_Driver/Src/stm32f4xx_hal_ltdc.c ****   /* Configure the color frame buffer pitch in byte */
2194:Drivers/STM32F4xx_HAL_Driver/Src/stm32f4xx_hal_ltdc.c ****   LTDC_LAYER(hltdc, LayerIdx)->CFBLR  &= ~(LTDC_LxCFBLR_CFBLL | LTDC_LxCFBLR_CFBP);
 4484              		.loc 1 2194 3
 4485 026c FB68     		ldr	r3, [r7, #12]
 4486 026e 1B68     		ldr	r3, [r3]
 4487              		.loc 1 2194 30
 4488 0270 1A46     		mov	r2, r3
 4489 0272 7B68     		ldr	r3, [r7, #4]
 4490 0274 DB01     		lsls	r3, r3, #7
 4491 0276 1344     		add	r3, r3, r2
 4492 0278 8433     		adds	r3, r3, #132
 4493 027a DB6A     		ldr	r3, [r3, #44]
 4494              		.loc 1 2194 3
 4495 027c FA68     		ldr	r2, [r7, #12]
 4496 027e 1268     		ldr	r2, [r2]
 4497              		.loc 1 2194 30
 4498 0280 1146     		mov	r1, r2
 4499 0282 7A68     		ldr	r2, [r7, #4]
 4500 0284 D201     		lsls	r2, r2, #7
 4501 0286 0A44     		add	r2, r2, r1
 4502 0288 8432     		adds	r2, r2, #132
 4503              		.loc 1 2194 39
 4504 028a 03F0E023 		and	r3, r3, #-536813568
 4505 028e D362     		str	r3, [r2, #44]
2195:Drivers/STM32F4xx_HAL_Driver/Src/stm32f4xx_hal_ltdc.c ****   LTDC_LAYER(hltdc, LayerIdx)->CFBLR  = (((pLayerCfg->ImageWidth * tmp) << 16U) | \
 4506              		.loc 1 2195 53
 4507 0290 BB68     		ldr	r3, [r7, #8]
 4508 0292 9B6A     		ldr	r3, [r3, #40]
 4509              		.loc 1 2195 66
 4510 0294 FA69     		ldr	r2, [r7, #28]
 4511 0296 02FB03F3 		mul	r3, r2, r3
 4512              		.loc 1 2195 73
 4513 029a 1A04     		lsls	r2, r3, #16
2196:Drivers/STM32F4xx_HAL_Driver/Src/stm32f4xx_hal_ltdc.c ****                                          (((pLayerCfg->WindowX1 - pLayerCfg->WindowX0) * tmp)  + 3U
 4514              		.loc 1 2196 54
 4515 029c BB68     		ldr	r3, [r7, #8]
 4516 029e 5968     		ldr	r1, [r3, #4]
 4517              		.loc 1 2196 76
 4518 02a0 BB68     		ldr	r3, [r7, #8]
 4519 02a2 1B68     		ldr	r3, [r3]
 4520              		.loc 1 2196 65
 4521 02a4 CB1A     		subs	r3, r1, r3
 4522              		.loc 1 2196 88
 4523 02a6 F969     		ldr	r1, [r7, #28]
 4524 02a8 01FB03F3 		mul	r3, r1, r3
 4525              		.loc 1 2196 96
 4526 02ac 0333     		adds	r3, r3, #3
2195:Drivers/STM32F4xx_HAL_Driver/Src/stm32f4xx_hal_ltdc.c ****   LTDC_LAYER(hltdc, LayerIdx)->CFBLR  = (((pLayerCfg->ImageWidth * tmp) << 16U) | \
 4527              		.loc 1 2195 3
 4528 02ae F968     		ldr	r1, [r7, #12]
 4529 02b0 0968     		ldr	r1, [r1]
 4530 02b2 0846     		mov	r0, r1
 4531 02b4 7968     		ldr	r1, [r7, #4]
 4532 02b6 C901     		lsls	r1, r1, #7
 4533 02b8 0144     		add	r1, r1, r0
 4534 02ba 8431     		adds	r1, r1, #132
ARM GAS  /var/folders/06/9k7gq4t13mj84z2yhw3grvhc0000gn/T//ccuiTnhW.s 			page 118


2195:Drivers/STM32F4xx_HAL_Driver/Src/stm32f4xx_hal_ltdc.c ****   LTDC_LAYER(hltdc, LayerIdx)->CFBLR  = (((pLayerCfg->ImageWidth * tmp) << 16U) | \
 4535              		.loc 1 2195 81
 4536 02bc 1343     		orrs	r3, r3, r2
2195:Drivers/STM32F4xx_HAL_Driver/Src/stm32f4xx_hal_ltdc.c ****   LTDC_LAYER(hltdc, LayerIdx)->CFBLR  = (((pLayerCfg->ImageWidth * tmp) << 16U) | \
 4537              		.loc 1 2195 39
 4538 02be CB62     		str	r3, [r1, #44]
2197:Drivers/STM32F4xx_HAL_Driver/Src/stm32f4xx_hal_ltdc.c ****   /* Configure the frame buffer line number */
2198:Drivers/STM32F4xx_HAL_Driver/Src/stm32f4xx_hal_ltdc.c ****   LTDC_LAYER(hltdc, LayerIdx)->CFBLNR  &= ~(LTDC_LxCFBLNR_CFBLNBR);
 4539              		.loc 1 2198 3
 4540 02c0 FB68     		ldr	r3, [r7, #12]
 4541 02c2 1B68     		ldr	r3, [r3]
 4542              		.loc 1 2198 30
 4543 02c4 1A46     		mov	r2, r3
 4544 02c6 7B68     		ldr	r3, [r7, #4]
 4545 02c8 DB01     		lsls	r3, r3, #7
 4546 02ca 1344     		add	r3, r3, r2
 4547 02cc 8433     		adds	r3, r3, #132
 4548 02ce 1B6B     		ldr	r3, [r3, #48]
 4549              		.loc 1 2198 3
 4550 02d0 FA68     		ldr	r2, [r7, #12]
 4551 02d2 1268     		ldr	r2, [r2]
 4552              		.loc 1 2198 30
 4553 02d4 1146     		mov	r1, r2
 4554 02d6 7A68     		ldr	r2, [r7, #4]
 4555 02d8 D201     		lsls	r2, r2, #7
 4556 02da 0A44     		add	r2, r2, r1
 4557 02dc 8432     		adds	r2, r2, #132
 4558              		.loc 1 2198 40
 4559 02de 23F4FF63 		bic	r3, r3, #2040
 4560 02e2 23F00703 		bic	r3, r3, #7
 4561 02e6 1363     		str	r3, [r2, #48]
2199:Drivers/STM32F4xx_HAL_Driver/Src/stm32f4xx_hal_ltdc.c ****   LTDC_LAYER(hltdc, LayerIdx)->CFBLNR  = (pLayerCfg->ImageHeight);
 4562              		.loc 1 2199 3
 4563 02e8 FB68     		ldr	r3, [r7, #12]
 4564 02ea 1B68     		ldr	r3, [r3]
 4565 02ec 1A46     		mov	r2, r3
 4566 02ee 7B68     		ldr	r3, [r7, #4]
 4567 02f0 DB01     		lsls	r3, r3, #7
 4568 02f2 1344     		add	r3, r3, r2
 4569 02f4 8433     		adds	r3, r3, #132
 4570 02f6 1A46     		mov	r2, r3
 4571              		.loc 1 2199 52
 4572 02f8 BB68     		ldr	r3, [r7, #8]
 4573 02fa DB6A     		ldr	r3, [r3, #44]
 4574              		.loc 1 2199 40
 4575 02fc 1363     		str	r3, [r2, #48]
2200:Drivers/STM32F4xx_HAL_Driver/Src/stm32f4xx_hal_ltdc.c **** 
2201:Drivers/STM32F4xx_HAL_Driver/Src/stm32f4xx_hal_ltdc.c ****   /* Enable LTDC_Layer by setting LEN bit */
2202:Drivers/STM32F4xx_HAL_Driver/Src/stm32f4xx_hal_ltdc.c ****   LTDC_LAYER(hltdc, LayerIdx)->CR |= (uint32_t)LTDC_LxCR_LEN;
 4576              		.loc 1 2202 3
 4577 02fe FB68     		ldr	r3, [r7, #12]
 4578 0300 1B68     		ldr	r3, [r3]
 4579              		.loc 1 2202 30
 4580 0302 1A46     		mov	r2, r3
 4581 0304 7B68     		ldr	r3, [r7, #4]
 4582 0306 DB01     		lsls	r3, r3, #7
 4583 0308 1344     		add	r3, r3, r2
ARM GAS  /var/folders/06/9k7gq4t13mj84z2yhw3grvhc0000gn/T//ccuiTnhW.s 			page 119


 4584 030a 8433     		adds	r3, r3, #132
 4585 030c 1B68     		ldr	r3, [r3]
 4586              		.loc 1 2202 3
 4587 030e FA68     		ldr	r2, [r7, #12]
 4588 0310 1268     		ldr	r2, [r2]
 4589              		.loc 1 2202 30
 4590 0312 1146     		mov	r1, r2
 4591 0314 7A68     		ldr	r2, [r7, #4]
 4592 0316 D201     		lsls	r2, r2, #7
 4593 0318 0A44     		add	r2, r2, r1
 4594 031a 8432     		adds	r2, r2, #132
 4595              		.loc 1 2202 35
 4596 031c 43F00103 		orr	r3, r3, #1
 4597 0320 1360     		str	r3, [r2]
2203:Drivers/STM32F4xx_HAL_Driver/Src/stm32f4xx_hal_ltdc.c **** }
 4598              		.loc 1 2203 1
 4599 0322 00BF     		nop
 4600 0324 2437     		adds	r7, r7, #36
 4601              	.LCFI222:
 4602              		.cfi_def_cfa_offset 4
 4603 0326 BD46     		mov	sp, r7
 4604              	.LCFI223:
 4605              		.cfi_def_cfa_register 13
 4606              		@ sp needed
 4607 0328 5DF8047B 		ldr	r7, [sp], #4
 4608              	.LCFI224:
 4609              		.cfi_restore 7
 4610              		.cfi_def_cfa_offset 0
 4611 032c 7047     		bx	lr
 4612              		.cfi_endproc
 4613              	.LFE173:
 4615              		.text
 4616              	.Letext0:
 4617              		.file 2 "/Applications/ArmGNUToolchain/13.2.Rel1/arm-none-eabi/arm-none-eabi/include/machine/_defa
 4618              		.file 3 "/Applications/ArmGNUToolchain/13.2.Rel1/arm-none-eabi/arm-none-eabi/include/sys/_stdint.h
 4619              		.file 4 "Drivers/CMSIS/Device/ST/STM32F4xx/Include/stm32f429xx.h"
 4620              		.file 5 "Drivers/STM32F4xx_HAL_Driver/Inc/stm32f4xx_hal_def.h"
 4621              		.file 6 "Drivers/STM32F4xx_HAL_Driver/Inc/stm32f4xx_hal_ltdc.h"
 4622              		.file 7 "Drivers/STM32F4xx_HAL_Driver/Inc/stm32f4xx_hal.h"
ARM GAS  /var/folders/06/9k7gq4t13mj84z2yhw3grvhc0000gn/T//ccuiTnhW.s 			page 120


DEFINED SYMBOLS
                            *ABS*:00000000 stm32f4xx_hal_ltdc.c
/var/folders/06/9k7gq4t13mj84z2yhw3grvhc0000gn/T//ccuiTnhW.s:21     .text.HAL_LTDC_Init:00000000 $t
/var/folders/06/9k7gq4t13mj84z2yhw3grvhc0000gn/T//ccuiTnhW.s:27     .text.HAL_LTDC_Init:00000000 HAL_LTDC_Init
/var/folders/06/9k7gq4t13mj84z2yhw3grvhc0000gn/T//ccuiTnhW.s:475    .text.HAL_LTDC_MspInit:00000000 HAL_LTDC_MspInit
/var/folders/06/9k7gq4t13mj84z2yhw3grvhc0000gn/T//ccuiTnhW.s:335    .text.HAL_LTDC_Init:0000019c $d
/var/folders/06/9k7gq4t13mj84z2yhw3grvhc0000gn/T//ccuiTnhW.s:340    .text.HAL_LTDC_DeInit:00000000 $t
/var/folders/06/9k7gq4t13mj84z2yhw3grvhc0000gn/T//ccuiTnhW.s:346    .text.HAL_LTDC_DeInit:00000000 HAL_LTDC_DeInit
/var/folders/06/9k7gq4t13mj84z2yhw3grvhc0000gn/T//ccuiTnhW.s:517    .text.HAL_LTDC_MspDeInit:00000000 HAL_LTDC_MspDeInit
/var/folders/06/9k7gq4t13mj84z2yhw3grvhc0000gn/T//ccuiTnhW.s:469    .text.HAL_LTDC_MspInit:00000000 $t
/var/folders/06/9k7gq4t13mj84z2yhw3grvhc0000gn/T//ccuiTnhW.s:511    .text.HAL_LTDC_MspDeInit:00000000 $t
/var/folders/06/9k7gq4t13mj84z2yhw3grvhc0000gn/T//ccuiTnhW.s:553    .text.HAL_LTDC_IRQHandler:00000000 $t
/var/folders/06/9k7gq4t13mj84z2yhw3grvhc0000gn/T//ccuiTnhW.s:559    .text.HAL_LTDC_IRQHandler:00000000 HAL_LTDC_IRQHandler
/var/folders/06/9k7gq4t13mj84z2yhw3grvhc0000gn/T//ccuiTnhW.s:771    .text.HAL_LTDC_ErrorCallback:00000000 HAL_LTDC_ErrorCallback
/var/folders/06/9k7gq4t13mj84z2yhw3grvhc0000gn/T//ccuiTnhW.s:813    .text.HAL_LTDC_LineEventCallback:00000000 HAL_LTDC_LineEventCallback
/var/folders/06/9k7gq4t13mj84z2yhw3grvhc0000gn/T//ccuiTnhW.s:855    .text.HAL_LTDC_ReloadEventCallback:00000000 HAL_LTDC_ReloadEventCallback
/var/folders/06/9k7gq4t13mj84z2yhw3grvhc0000gn/T//ccuiTnhW.s:765    .text.HAL_LTDC_ErrorCallback:00000000 $t
/var/folders/06/9k7gq4t13mj84z2yhw3grvhc0000gn/T//ccuiTnhW.s:807    .text.HAL_LTDC_LineEventCallback:00000000 $t
/var/folders/06/9k7gq4t13mj84z2yhw3grvhc0000gn/T//ccuiTnhW.s:849    .text.HAL_LTDC_ReloadEventCallback:00000000 $t
/var/folders/06/9k7gq4t13mj84z2yhw3grvhc0000gn/T//ccuiTnhW.s:891    .text.HAL_LTDC_ConfigLayer:00000000 $t
/var/folders/06/9k7gq4t13mj84z2yhw3grvhc0000gn/T//ccuiTnhW.s:897    .text.HAL_LTDC_ConfigLayer:00000000 HAL_LTDC_ConfigLayer
/var/folders/06/9k7gq4t13mj84z2yhw3grvhc0000gn/T//ccuiTnhW.s:4061   .text.LTDC_SetConfig:00000000 LTDC_SetConfig
/var/folders/06/9k7gq4t13mj84z2yhw3grvhc0000gn/T//ccuiTnhW.s:991    .text.HAL_LTDC_ConfigColorKeying:00000000 $t
/var/folders/06/9k7gq4t13mj84z2yhw3grvhc0000gn/T//ccuiTnhW.s:997    .text.HAL_LTDC_ConfigColorKeying:00000000 HAL_LTDC_ConfigColorKeying
/var/folders/06/9k7gq4t13mj84z2yhw3grvhc0000gn/T//ccuiTnhW.s:1104   .text.HAL_LTDC_ConfigCLUT:00000000 $t
/var/folders/06/9k7gq4t13mj84z2yhw3grvhc0000gn/T//ccuiTnhW.s:1110   .text.HAL_LTDC_ConfigCLUT:00000000 HAL_LTDC_ConfigCLUT
/var/folders/06/9k7gq4t13mj84z2yhw3grvhc0000gn/T//ccuiTnhW.s:1281   .text.HAL_LTDC_EnableColorKeying:00000000 $t
/var/folders/06/9k7gq4t13mj84z2yhw3grvhc0000gn/T//ccuiTnhW.s:1287   .text.HAL_LTDC_EnableColorKeying:00000000 HAL_LTDC_EnableColorKeying
/var/folders/06/9k7gq4t13mj84z2yhw3grvhc0000gn/T//ccuiTnhW.s:1381   .text.HAL_LTDC_DisableColorKeying:00000000 $t
/var/folders/06/9k7gq4t13mj84z2yhw3grvhc0000gn/T//ccuiTnhW.s:1387   .text.HAL_LTDC_DisableColorKeying:00000000 HAL_LTDC_DisableColorKeying
/var/folders/06/9k7gq4t13mj84z2yhw3grvhc0000gn/T//ccuiTnhW.s:1481   .text.HAL_LTDC_EnableCLUT:00000000 $t
/var/folders/06/9k7gq4t13mj84z2yhw3grvhc0000gn/T//ccuiTnhW.s:1487   .text.HAL_LTDC_EnableCLUT:00000000 HAL_LTDC_EnableCLUT
/var/folders/06/9k7gq4t13mj84z2yhw3grvhc0000gn/T//ccuiTnhW.s:1581   .text.HAL_LTDC_DisableCLUT:00000000 $t
/var/folders/06/9k7gq4t13mj84z2yhw3grvhc0000gn/T//ccuiTnhW.s:1587   .text.HAL_LTDC_DisableCLUT:00000000 HAL_LTDC_DisableCLUT
/var/folders/06/9k7gq4t13mj84z2yhw3grvhc0000gn/T//ccuiTnhW.s:1681   .text.HAL_LTDC_EnableDither:00000000 $t
/var/folders/06/9k7gq4t13mj84z2yhw3grvhc0000gn/T//ccuiTnhW.s:1687   .text.HAL_LTDC_EnableDither:00000000 HAL_LTDC_EnableDither
/var/folders/06/9k7gq4t13mj84z2yhw3grvhc0000gn/T//ccuiTnhW.s:1758   .text.HAL_LTDC_EnableDither:00000050 $d
/var/folders/06/9k7gq4t13mj84z2yhw3grvhc0000gn/T//ccuiTnhW.s:1763   .text.HAL_LTDC_DisableDither:00000000 $t
/var/folders/06/9k7gq4t13mj84z2yhw3grvhc0000gn/T//ccuiTnhW.s:1769   .text.HAL_LTDC_DisableDither:00000000 HAL_LTDC_DisableDither
/var/folders/06/9k7gq4t13mj84z2yhw3grvhc0000gn/T//ccuiTnhW.s:1840   .text.HAL_LTDC_DisableDither:00000050 $d
/var/folders/06/9k7gq4t13mj84z2yhw3grvhc0000gn/T//ccuiTnhW.s:1845   .text.HAL_LTDC_SetWindowSize:00000000 $t
/var/folders/06/9k7gq4t13mj84z2yhw3grvhc0000gn/T//ccuiTnhW.s:1851   .text.HAL_LTDC_SetWindowSize:00000000 HAL_LTDC_SetWindowSize
/var/folders/06/9k7gq4t13mj84z2yhw3grvhc0000gn/T//ccuiTnhW.s:1960   .text.HAL_LTDC_SetWindowPosition:00000000 $t
/var/folders/06/9k7gq4t13mj84z2yhw3grvhc0000gn/T//ccuiTnhW.s:1966   .text.HAL_LTDC_SetWindowPosition:00000000 HAL_LTDC_SetWindowPosition
/var/folders/06/9k7gq4t13mj84z2yhw3grvhc0000gn/T//ccuiTnhW.s:2075   .text.HAL_LTDC_SetPixelFormat:00000000 $t
/var/folders/06/9k7gq4t13mj84z2yhw3grvhc0000gn/T//ccuiTnhW.s:2081   .text.HAL_LTDC_SetPixelFormat:00000000 HAL_LTDC_SetPixelFormat
/var/folders/06/9k7gq4t13mj84z2yhw3grvhc0000gn/T//ccuiTnhW.s:2167   .text.HAL_LTDC_SetAlpha:00000000 $t
/var/folders/06/9k7gq4t13mj84z2yhw3grvhc0000gn/T//ccuiTnhW.s:2173   .text.HAL_LTDC_SetAlpha:00000000 HAL_LTDC_SetAlpha
/var/folders/06/9k7gq4t13mj84z2yhw3grvhc0000gn/T//ccuiTnhW.s:2259   .text.HAL_LTDC_SetAddress:00000000 $t
/var/folders/06/9k7gq4t13mj84z2yhw3grvhc0000gn/T//ccuiTnhW.s:2265   .text.HAL_LTDC_SetAddress:00000000 HAL_LTDC_SetAddress
/var/folders/06/9k7gq4t13mj84z2yhw3grvhc0000gn/T//ccuiTnhW.s:2351   .text.HAL_LTDC_SetPitch:00000000 $t
/var/folders/06/9k7gq4t13mj84z2yhw3grvhc0000gn/T//ccuiTnhW.s:2357   .text.HAL_LTDC_SetPitch:00000000 HAL_LTDC_SetPitch
/var/folders/06/9k7gq4t13mj84z2yhw3grvhc0000gn/T//ccuiTnhW.s:2544   .text.HAL_LTDC_SetPitch:00000108 $d
/var/folders/06/9k7gq4t13mj84z2yhw3grvhc0000gn/T//ccuiTnhW.s:2549   .text.HAL_LTDC_ProgramLineEvent:00000000 $t
/var/folders/06/9k7gq4t13mj84z2yhw3grvhc0000gn/T//ccuiTnhW.s:2555   .text.HAL_LTDC_ProgramLineEvent:00000000 HAL_LTDC_ProgramLineEvent
/var/folders/06/9k7gq4t13mj84z2yhw3grvhc0000gn/T//ccuiTnhW.s:2641   .text.HAL_LTDC_ProgramLineEvent:0000006c $d
/var/folders/06/9k7gq4t13mj84z2yhw3grvhc0000gn/T//ccuiTnhW.s:2646   .text.HAL_LTDC_Reload:00000000 $t
ARM GAS  /var/folders/06/9k7gq4t13mj84z2yhw3grvhc0000gn/T//ccuiTnhW.s 			page 121


/var/folders/06/9k7gq4t13mj84z2yhw3grvhc0000gn/T//ccuiTnhW.s:2652   .text.HAL_LTDC_Reload:00000000 HAL_LTDC_Reload
/var/folders/06/9k7gq4t13mj84z2yhw3grvhc0000gn/T//ccuiTnhW.s:2732   .text.HAL_LTDC_ConfigLayer_NoReload:00000000 $t
/var/folders/06/9k7gq4t13mj84z2yhw3grvhc0000gn/T//ccuiTnhW.s:2738   .text.HAL_LTDC_ConfigLayer_NoReload:00000000 HAL_LTDC_ConfigLayer_NoReload
/var/folders/06/9k7gq4t13mj84z2yhw3grvhc0000gn/T//ccuiTnhW.s:2826   .text.HAL_LTDC_SetWindowSize_NoReload:00000000 $t
/var/folders/06/9k7gq4t13mj84z2yhw3grvhc0000gn/T//ccuiTnhW.s:2832   .text.HAL_LTDC_SetWindowSize_NoReload:00000000 HAL_LTDC_SetWindowSize_NoReload
/var/folders/06/9k7gq4t13mj84z2yhw3grvhc0000gn/T//ccuiTnhW.s:2935   .text.HAL_LTDC_SetWindowPosition_NoReload:00000000 $t
/var/folders/06/9k7gq4t13mj84z2yhw3grvhc0000gn/T//ccuiTnhW.s:2941   .text.HAL_LTDC_SetWindowPosition_NoReload:00000000 HAL_LTDC_SetWindowPosition_NoReload
/var/folders/06/9k7gq4t13mj84z2yhw3grvhc0000gn/T//ccuiTnhW.s:3044   .text.HAL_LTDC_SetPixelFormat_NoReload:00000000 $t
/var/folders/06/9k7gq4t13mj84z2yhw3grvhc0000gn/T//ccuiTnhW.s:3050   .text.HAL_LTDC_SetPixelFormat_NoReload:00000000 HAL_LTDC_SetPixelFormat_NoReload
/var/folders/06/9k7gq4t13mj84z2yhw3grvhc0000gn/T//ccuiTnhW.s:3130   .text.HAL_LTDC_SetAlpha_NoReload:00000000 $t
/var/folders/06/9k7gq4t13mj84z2yhw3grvhc0000gn/T//ccuiTnhW.s:3136   .text.HAL_LTDC_SetAlpha_NoReload:00000000 HAL_LTDC_SetAlpha_NoReload
/var/folders/06/9k7gq4t13mj84z2yhw3grvhc0000gn/T//ccuiTnhW.s:3216   .text.HAL_LTDC_SetAddress_NoReload:00000000 $t
/var/folders/06/9k7gq4t13mj84z2yhw3grvhc0000gn/T//ccuiTnhW.s:3222   .text.HAL_LTDC_SetAddress_NoReload:00000000 HAL_LTDC_SetAddress_NoReload
/var/folders/06/9k7gq4t13mj84z2yhw3grvhc0000gn/T//ccuiTnhW.s:3302   .text.HAL_LTDC_SetPitch_NoReload:00000000 $t
/var/folders/06/9k7gq4t13mj84z2yhw3grvhc0000gn/T//ccuiTnhW.s:3308   .text.HAL_LTDC_SetPitch_NoReload:00000000 HAL_LTDC_SetPitch_NoReload
/var/folders/06/9k7gq4t13mj84z2yhw3grvhc0000gn/T//ccuiTnhW.s:3482   .text.HAL_LTDC_ConfigColorKeying_NoReload:00000000 $t
/var/folders/06/9k7gq4t13mj84z2yhw3grvhc0000gn/T//ccuiTnhW.s:3488   .text.HAL_LTDC_ConfigColorKeying_NoReload:00000000 HAL_LTDC_ConfigColorKeying_NoReload
/var/folders/06/9k7gq4t13mj84z2yhw3grvhc0000gn/T//ccuiTnhW.s:3589   .text.HAL_LTDC_EnableColorKeying_NoReload:00000000 $t
/var/folders/06/9k7gq4t13mj84z2yhw3grvhc0000gn/T//ccuiTnhW.s:3595   .text.HAL_LTDC_EnableColorKeying_NoReload:00000000 HAL_LTDC_EnableColorKeying_NoReload
/var/folders/06/9k7gq4t13mj84z2yhw3grvhc0000gn/T//ccuiTnhW.s:3683   .text.HAL_LTDC_DisableColorKeying_NoReload:00000000 $t
/var/folders/06/9k7gq4t13mj84z2yhw3grvhc0000gn/T//ccuiTnhW.s:3689   .text.HAL_LTDC_DisableColorKeying_NoReload:00000000 HAL_LTDC_DisableColorKeying_NoReload
/var/folders/06/9k7gq4t13mj84z2yhw3grvhc0000gn/T//ccuiTnhW.s:3777   .text.HAL_LTDC_EnableCLUT_NoReload:00000000 $t
/var/folders/06/9k7gq4t13mj84z2yhw3grvhc0000gn/T//ccuiTnhW.s:3783   .text.HAL_LTDC_EnableCLUT_NoReload:00000000 HAL_LTDC_EnableCLUT_NoReload
/var/folders/06/9k7gq4t13mj84z2yhw3grvhc0000gn/T//ccuiTnhW.s:3871   .text.HAL_LTDC_DisableCLUT_NoReload:00000000 $t
/var/folders/06/9k7gq4t13mj84z2yhw3grvhc0000gn/T//ccuiTnhW.s:3877   .text.HAL_LTDC_DisableCLUT_NoReload:00000000 HAL_LTDC_DisableCLUT_NoReload
/var/folders/06/9k7gq4t13mj84z2yhw3grvhc0000gn/T//ccuiTnhW.s:3965   .text.HAL_LTDC_GetState:00000000 $t
/var/folders/06/9k7gq4t13mj84z2yhw3grvhc0000gn/T//ccuiTnhW.s:3971   .text.HAL_LTDC_GetState:00000000 HAL_LTDC_GetState
/var/folders/06/9k7gq4t13mj84z2yhw3grvhc0000gn/T//ccuiTnhW.s:4011   .text.HAL_LTDC_GetError:00000000 $t
/var/folders/06/9k7gq4t13mj84z2yhw3grvhc0000gn/T//ccuiTnhW.s:4017   .text.HAL_LTDC_GetError:00000000 HAL_LTDC_GetError
/var/folders/06/9k7gq4t13mj84z2yhw3grvhc0000gn/T//ccuiTnhW.s:4056   .text.LTDC_SetConfig:00000000 $t

UNDEFINED SYMBOLS
HAL_GetTick
