ARM GAS  /var/folders/06/9k7gq4t13mj84z2yhw3grvhc0000gn/T//ccVqnuzj.s 			page 1


   1              		.cpu cortex-m4
   2              		.arch armv7e-m
   3              		.fpu fpv4-sp-d16
   4              		.eabi_attribute 27, 1
   5              		.eabi_attribute 28, 1
   6              		.eabi_attribute 20, 1
   7              		.eabi_attribute 21, 1
   8              		.eabi_attribute 23, 3
   9              		.eabi_attribute 24, 1
  10              		.eabi_attribute 25, 1
  11              		.eabi_attribute 26, 1
  12              		.eabi_attribute 30, 6
  13              		.eabi_attribute 34, 1
  14              		.eabi_attribute 18, 4
  15              		.file	"syscalls.c"
  16              		.text
  17              	.Ltext0:
  18              		.cfi_sections	.debug_frame
  19              		.file 1 "Core/Src/syscalls.c"
  20              		.global	__env
  21              		.section	.bss.__env,"aw",%nobits
  22              		.align	2
  25              	__env:
  26 0000 00000000 		.space	4
  27              		.global	environ
  28              		.section	.data.environ,"aw"
  29              		.align	2
  32              	environ:
  33 0000 00000000 		.word	__env
  34              		.section	.text.initialise_monitor_handles,"ax",%progbits
  35              		.align	1
  36              		.global	initialise_monitor_handles
  37              		.syntax unified
  38              		.thumb
  39              		.thumb_func
  41              	initialise_monitor_handles:
  42              	.LFB25:
   1:Core/Src/syscalls.c **** /**
   2:Core/Src/syscalls.c ****  ******************************************************************************
   3:Core/Src/syscalls.c ****  * @file      syscalls.c
   4:Core/Src/syscalls.c ****  * @author    Auto-generated by STM32CubeMX
   5:Core/Src/syscalls.c ****  * @brief     Minimal System calls file
   6:Core/Src/syscalls.c ****  *
   7:Core/Src/syscalls.c ****  *            For more information about which c-functions
   8:Core/Src/syscalls.c ****  *            need which of these lowlevel functions
   9:Core/Src/syscalls.c ****  *            please consult the Newlib libc-manual
  10:Core/Src/syscalls.c ****  ******************************************************************************
  11:Core/Src/syscalls.c ****  * @attention
  12:Core/Src/syscalls.c ****  *
  13:Core/Src/syscalls.c ****  * Copyright (c) 2020-2024 STMicroelectronics.
  14:Core/Src/syscalls.c ****  * All rights reserved.
  15:Core/Src/syscalls.c ****  *
  16:Core/Src/syscalls.c ****  * This software is licensed under terms that can be found in the LICENSE file
  17:Core/Src/syscalls.c ****  * in the root directory of this software component.
  18:Core/Src/syscalls.c ****  * If no LICENSE file comes with this software, it is provided AS-IS.
  19:Core/Src/syscalls.c ****  *
  20:Core/Src/syscalls.c ****  ******************************************************************************
ARM GAS  /var/folders/06/9k7gq4t13mj84z2yhw3grvhc0000gn/T//ccVqnuzj.s 			page 2


  21:Core/Src/syscalls.c ****  */
  22:Core/Src/syscalls.c **** 
  23:Core/Src/syscalls.c **** /* Includes */
  24:Core/Src/syscalls.c **** #include <sys/stat.h>
  25:Core/Src/syscalls.c **** #include <stdlib.h>
  26:Core/Src/syscalls.c **** #include <errno.h>
  27:Core/Src/syscalls.c **** #include <stdio.h>
  28:Core/Src/syscalls.c **** #include <signal.h>
  29:Core/Src/syscalls.c **** #include <time.h>
  30:Core/Src/syscalls.c **** #include <sys/time.h>
  31:Core/Src/syscalls.c **** #include <sys/times.h>
  32:Core/Src/syscalls.c **** 
  33:Core/Src/syscalls.c **** 
  34:Core/Src/syscalls.c **** /* Variables */
  35:Core/Src/syscalls.c **** extern int __io_putchar(int ch) __attribute__((weak));
  36:Core/Src/syscalls.c **** extern int __io_getchar(void) __attribute__((weak));
  37:Core/Src/syscalls.c **** 
  38:Core/Src/syscalls.c **** 
  39:Core/Src/syscalls.c **** char *__env[1] = { 0 };
  40:Core/Src/syscalls.c **** char **environ = __env;
  41:Core/Src/syscalls.c **** 
  42:Core/Src/syscalls.c **** 
  43:Core/Src/syscalls.c **** /* Functions */
  44:Core/Src/syscalls.c **** void initialise_monitor_handles()
  45:Core/Src/syscalls.c **** {
  43              		.loc 1 45 1
  44              		.cfi_startproc
  45              		@ args = 0, pretend = 0, frame = 0
  46              		@ frame_needed = 1, uses_anonymous_args = 0
  47              		@ link register save eliminated.
  48 0000 80B4     		push	{r7}
  49              	.LCFI0:
  50              		.cfi_def_cfa_offset 4
  51              		.cfi_offset 7, -4
  52 0002 00AF     		add	r7, sp, #0
  53              	.LCFI1:
  54              		.cfi_def_cfa_register 7
  46:Core/Src/syscalls.c **** }
  55              		.loc 1 46 1
  56 0004 00BF     		nop
  57 0006 BD46     		mov	sp, r7
  58              	.LCFI2:
  59              		.cfi_def_cfa_register 13
  60              		@ sp needed
  61 0008 5DF8047B 		ldr	r7, [sp], #4
  62              	.LCFI3:
  63              		.cfi_restore 7
  64              		.cfi_def_cfa_offset 0
  65 000c 7047     		bx	lr
  66              		.cfi_endproc
  67              	.LFE25:
  69              		.section	.text._getpid,"ax",%progbits
  70              		.align	1
  71              		.global	_getpid
  72              		.syntax unified
  73              		.thumb
  74              		.thumb_func
ARM GAS  /var/folders/06/9k7gq4t13mj84z2yhw3grvhc0000gn/T//ccVqnuzj.s 			page 3


  76              	_getpid:
  77              	.LFB26:
  47:Core/Src/syscalls.c **** 
  48:Core/Src/syscalls.c **** int _getpid(void)
  49:Core/Src/syscalls.c **** {
  78              		.loc 1 49 1
  79              		.cfi_startproc
  80              		@ args = 0, pretend = 0, frame = 0
  81              		@ frame_needed = 1, uses_anonymous_args = 0
  82              		@ link register save eliminated.
  83 0000 80B4     		push	{r7}
  84              	.LCFI4:
  85              		.cfi_def_cfa_offset 4
  86              		.cfi_offset 7, -4
  87 0002 00AF     		add	r7, sp, #0
  88              	.LCFI5:
  89              		.cfi_def_cfa_register 7
  50:Core/Src/syscalls.c ****   return 1;
  90              		.loc 1 50 10
  91 0004 0123     		movs	r3, #1
  51:Core/Src/syscalls.c **** }
  92              		.loc 1 51 1
  93 0006 1846     		mov	r0, r3
  94 0008 BD46     		mov	sp, r7
  95              	.LCFI6:
  96              		.cfi_def_cfa_register 13
  97              		@ sp needed
  98 000a 5DF8047B 		ldr	r7, [sp], #4
  99              	.LCFI7:
 100              		.cfi_restore 7
 101              		.cfi_def_cfa_offset 0
 102 000e 7047     		bx	lr
 103              		.cfi_endproc
 104              	.LFE26:
 106              		.section	.text._kill,"ax",%progbits
 107              		.align	1
 108              		.global	_kill
 109              		.syntax unified
 110              		.thumb
 111              		.thumb_func
 113              	_kill:
 114              	.LFB27:
  52:Core/Src/syscalls.c **** 
  53:Core/Src/syscalls.c **** int _kill(int pid, int sig)
  54:Core/Src/syscalls.c **** {
 115              		.loc 1 54 1
 116              		.cfi_startproc
 117              		@ args = 0, pretend = 0, frame = 8
 118              		@ frame_needed = 1, uses_anonymous_args = 0
 119 0000 80B5     		push	{r7, lr}
 120              	.LCFI8:
 121              		.cfi_def_cfa_offset 8
 122              		.cfi_offset 7, -8
 123              		.cfi_offset 14, -4
 124 0002 82B0     		sub	sp, sp, #8
 125              	.LCFI9:
 126              		.cfi_def_cfa_offset 16
ARM GAS  /var/folders/06/9k7gq4t13mj84z2yhw3grvhc0000gn/T//ccVqnuzj.s 			page 4


 127 0004 00AF     		add	r7, sp, #0
 128              	.LCFI10:
 129              		.cfi_def_cfa_register 7
 130 0006 7860     		str	r0, [r7, #4]
 131 0008 3960     		str	r1, [r7]
  55:Core/Src/syscalls.c ****   (void)pid;
  56:Core/Src/syscalls.c ****   (void)sig;
  57:Core/Src/syscalls.c ****   errno = EINVAL;
 132              		.loc 1 57 3
 133 000a FFF7FEFF 		bl	__errno
 134 000e 0346     		mov	r3, r0
 135              		.loc 1 57 9 discriminator 1
 136 0010 1622     		movs	r2, #22
 137 0012 1A60     		str	r2, [r3]
  58:Core/Src/syscalls.c ****   return -1;
 138              		.loc 1 58 10
 139 0014 4FF0FF33 		mov	r3, #-1
  59:Core/Src/syscalls.c **** }
 140              		.loc 1 59 1
 141 0018 1846     		mov	r0, r3
 142 001a 0837     		adds	r7, r7, #8
 143              	.LCFI11:
 144              		.cfi_def_cfa_offset 8
 145 001c BD46     		mov	sp, r7
 146              	.LCFI12:
 147              		.cfi_def_cfa_register 13
 148              		@ sp needed
 149 001e 80BD     		pop	{r7, pc}
 150              		.cfi_endproc
 151              	.LFE27:
 153              		.section	.text._exit,"ax",%progbits
 154              		.align	1
 155              		.global	_exit
 156              		.syntax unified
 157              		.thumb
 158              		.thumb_func
 160              	_exit:
 161              	.LFB28:
  60:Core/Src/syscalls.c **** 
  61:Core/Src/syscalls.c **** void _exit (int status)
  62:Core/Src/syscalls.c **** {
 162              		.loc 1 62 1
 163              		.cfi_startproc
 164              		@ args = 0, pretend = 0, frame = 8
 165              		@ frame_needed = 1, uses_anonymous_args = 0
 166 0000 80B5     		push	{r7, lr}
 167              	.LCFI13:
 168              		.cfi_def_cfa_offset 8
 169              		.cfi_offset 7, -8
 170              		.cfi_offset 14, -4
 171 0002 82B0     		sub	sp, sp, #8
 172              	.LCFI14:
 173              		.cfi_def_cfa_offset 16
 174 0004 00AF     		add	r7, sp, #0
 175              	.LCFI15:
 176              		.cfi_def_cfa_register 7
 177 0006 7860     		str	r0, [r7, #4]
ARM GAS  /var/folders/06/9k7gq4t13mj84z2yhw3grvhc0000gn/T//ccVqnuzj.s 			page 5


  63:Core/Src/syscalls.c ****   _kill(status, -1);
 178              		.loc 1 63 3
 179 0008 4FF0FF31 		mov	r1, #-1
 180 000c 7868     		ldr	r0, [r7, #4]
 181 000e FFF7FEFF 		bl	_kill
 182              	.L7:
  64:Core/Src/syscalls.c ****   while (1) {}    /* Make sure we hang here */
 183              		.loc 1 64 9
 184 0012 00BF     		nop
 185 0014 FDE7     		b	.L7
 186              		.cfi_endproc
 187              	.LFE28:
 189              		.section	.text._read,"ax",%progbits
 190              		.align	1
 191              		.weak	_read
 192              		.syntax unified
 193              		.thumb
 194              		.thumb_func
 196              	_read:
 197              	.LFB29:
  65:Core/Src/syscalls.c **** }
  66:Core/Src/syscalls.c **** 
  67:Core/Src/syscalls.c **** __attribute__((weak)) int _read(int file, char *ptr, int len)
  68:Core/Src/syscalls.c **** {
 198              		.loc 1 68 1
 199              		.cfi_startproc
 200              		@ args = 0, pretend = 0, frame = 24
 201              		@ frame_needed = 1, uses_anonymous_args = 0
 202 0000 80B5     		push	{r7, lr}
 203              	.LCFI16:
 204              		.cfi_def_cfa_offset 8
 205              		.cfi_offset 7, -8
 206              		.cfi_offset 14, -4
 207 0002 86B0     		sub	sp, sp, #24
 208              	.LCFI17:
 209              		.cfi_def_cfa_offset 32
 210 0004 00AF     		add	r7, sp, #0
 211              	.LCFI18:
 212              		.cfi_def_cfa_register 7
 213 0006 F860     		str	r0, [r7, #12]
 214 0008 B960     		str	r1, [r7, #8]
 215 000a 7A60     		str	r2, [r7, #4]
  69:Core/Src/syscalls.c ****   (void)file;
  70:Core/Src/syscalls.c ****   int DataIdx;
  71:Core/Src/syscalls.c **** 
  72:Core/Src/syscalls.c ****   for (DataIdx = 0; DataIdx < len; DataIdx++)
 216              		.loc 1 72 16
 217 000c 0023     		movs	r3, #0
 218 000e 7B61     		str	r3, [r7, #20]
 219              		.loc 1 72 3
 220 0010 0AE0     		b	.L9
 221              	.L10:
  73:Core/Src/syscalls.c ****   {
  74:Core/Src/syscalls.c ****     *ptr++ = __io_getchar();
 222              		.loc 1 74 14
 223 0012 FFF7FEFF 		bl	__io_getchar
 224 0016 0146     		mov	r1, r0
ARM GAS  /var/folders/06/9k7gq4t13mj84z2yhw3grvhc0000gn/T//ccVqnuzj.s 			page 6


 225              		.loc 1 74 9 discriminator 1
 226 0018 BB68     		ldr	r3, [r7, #8]
 227 001a 5A1C     		adds	r2, r3, #1
 228 001c BA60     		str	r2, [r7, #8]
 229              		.loc 1 74 12 discriminator 1
 230 001e CAB2     		uxtb	r2, r1
 231 0020 1A70     		strb	r2, [r3]
  72:Core/Src/syscalls.c ****   {
 232              		.loc 1 72 43 discriminator 3
 233 0022 7B69     		ldr	r3, [r7, #20]
 234 0024 0133     		adds	r3, r3, #1
 235 0026 7B61     		str	r3, [r7, #20]
 236              	.L9:
  72:Core/Src/syscalls.c ****   {
 237              		.loc 1 72 29 discriminator 1
 238 0028 7A69     		ldr	r2, [r7, #20]
 239 002a 7B68     		ldr	r3, [r7, #4]
 240 002c 9A42     		cmp	r2, r3
 241 002e F0DB     		blt	.L10
  75:Core/Src/syscalls.c ****   }
  76:Core/Src/syscalls.c **** 
  77:Core/Src/syscalls.c ****   return len;
 242              		.loc 1 77 10
 243 0030 7B68     		ldr	r3, [r7, #4]
  78:Core/Src/syscalls.c **** }
 244              		.loc 1 78 1
 245 0032 1846     		mov	r0, r3
 246 0034 1837     		adds	r7, r7, #24
 247              	.LCFI19:
 248              		.cfi_def_cfa_offset 8
 249 0036 BD46     		mov	sp, r7
 250              	.LCFI20:
 251              		.cfi_def_cfa_register 13
 252              		@ sp needed
 253 0038 80BD     		pop	{r7, pc}
 254              		.cfi_endproc
 255              	.LFE29:
 257              		.section	.text._write,"ax",%progbits
 258              		.align	1
 259              		.weak	_write
 260              		.syntax unified
 261              		.thumb
 262              		.thumb_func
 264              	_write:
 265              	.LFB30:
  79:Core/Src/syscalls.c **** 
  80:Core/Src/syscalls.c **** __attribute__((weak)) int _write(int file, char *ptr, int len)
  81:Core/Src/syscalls.c **** {
 266              		.loc 1 81 1
 267              		.cfi_startproc
 268              		@ args = 0, pretend = 0, frame = 24
 269              		@ frame_needed = 1, uses_anonymous_args = 0
 270 0000 80B5     		push	{r7, lr}
 271              	.LCFI21:
 272              		.cfi_def_cfa_offset 8
 273              		.cfi_offset 7, -8
 274              		.cfi_offset 14, -4
ARM GAS  /var/folders/06/9k7gq4t13mj84z2yhw3grvhc0000gn/T//ccVqnuzj.s 			page 7


 275 0002 86B0     		sub	sp, sp, #24
 276              	.LCFI22:
 277              		.cfi_def_cfa_offset 32
 278 0004 00AF     		add	r7, sp, #0
 279              	.LCFI23:
 280              		.cfi_def_cfa_register 7
 281 0006 F860     		str	r0, [r7, #12]
 282 0008 B960     		str	r1, [r7, #8]
 283 000a 7A60     		str	r2, [r7, #4]
  82:Core/Src/syscalls.c ****   (void)file;
  83:Core/Src/syscalls.c ****   int DataIdx;
  84:Core/Src/syscalls.c **** 
  85:Core/Src/syscalls.c ****   for (DataIdx = 0; DataIdx < len; DataIdx++)
 284              		.loc 1 85 16
 285 000c 0023     		movs	r3, #0
 286 000e 7B61     		str	r3, [r7, #20]
 287              		.loc 1 85 3
 288 0010 09E0     		b	.L13
 289              	.L14:
  86:Core/Src/syscalls.c ****   {
  87:Core/Src/syscalls.c ****     __io_putchar(*ptr++);
 290              		.loc 1 87 22
 291 0012 BB68     		ldr	r3, [r7, #8]
 292 0014 5A1C     		adds	r2, r3, #1
 293 0016 BA60     		str	r2, [r7, #8]
 294              		.loc 1 87 18
 295 0018 1B78     		ldrb	r3, [r3]	@ zero_extendqisi2
 296              		.loc 1 87 5
 297 001a 1846     		mov	r0, r3
 298 001c FFF7FEFF 		bl	__io_putchar
  85:Core/Src/syscalls.c ****   {
 299              		.loc 1 85 43 discriminator 3
 300 0020 7B69     		ldr	r3, [r7, #20]
 301 0022 0133     		adds	r3, r3, #1
 302 0024 7B61     		str	r3, [r7, #20]
 303              	.L13:
  85:Core/Src/syscalls.c ****   {
 304              		.loc 1 85 29 discriminator 1
 305 0026 7A69     		ldr	r2, [r7, #20]
 306 0028 7B68     		ldr	r3, [r7, #4]
 307 002a 9A42     		cmp	r2, r3
 308 002c F1DB     		blt	.L14
  88:Core/Src/syscalls.c ****   }
  89:Core/Src/syscalls.c ****   return len;
 309              		.loc 1 89 10
 310 002e 7B68     		ldr	r3, [r7, #4]
  90:Core/Src/syscalls.c **** }
 311              		.loc 1 90 1
 312 0030 1846     		mov	r0, r3
 313 0032 1837     		adds	r7, r7, #24
 314              	.LCFI24:
 315              		.cfi_def_cfa_offset 8
 316 0034 BD46     		mov	sp, r7
 317              	.LCFI25:
 318              		.cfi_def_cfa_register 13
 319              		@ sp needed
 320 0036 80BD     		pop	{r7, pc}
ARM GAS  /var/folders/06/9k7gq4t13mj84z2yhw3grvhc0000gn/T//ccVqnuzj.s 			page 8


 321              		.cfi_endproc
 322              	.LFE30:
 324              		.section	.text._close,"ax",%progbits
 325              		.align	1
 326              		.global	_close
 327              		.syntax unified
 328              		.thumb
 329              		.thumb_func
 331              	_close:
 332              	.LFB31:
  91:Core/Src/syscalls.c **** 
  92:Core/Src/syscalls.c **** int _close(int file)
  93:Core/Src/syscalls.c **** {
 333              		.loc 1 93 1
 334              		.cfi_startproc
 335              		@ args = 0, pretend = 0, frame = 8
 336              		@ frame_needed = 1, uses_anonymous_args = 0
 337              		@ link register save eliminated.
 338 0000 80B4     		push	{r7}
 339              	.LCFI26:
 340              		.cfi_def_cfa_offset 4
 341              		.cfi_offset 7, -4
 342 0002 83B0     		sub	sp, sp, #12
 343              	.LCFI27:
 344              		.cfi_def_cfa_offset 16
 345 0004 00AF     		add	r7, sp, #0
 346              	.LCFI28:
 347              		.cfi_def_cfa_register 7
 348 0006 7860     		str	r0, [r7, #4]
  94:Core/Src/syscalls.c ****   (void)file;
  95:Core/Src/syscalls.c ****   return -1;
 349              		.loc 1 95 10
 350 0008 4FF0FF33 		mov	r3, #-1
  96:Core/Src/syscalls.c **** }
 351              		.loc 1 96 1
 352 000c 1846     		mov	r0, r3
 353 000e 0C37     		adds	r7, r7, #12
 354              	.LCFI29:
 355              		.cfi_def_cfa_offset 4
 356 0010 BD46     		mov	sp, r7
 357              	.LCFI30:
 358              		.cfi_def_cfa_register 13
 359              		@ sp needed
 360 0012 5DF8047B 		ldr	r7, [sp], #4
 361              	.LCFI31:
 362              		.cfi_restore 7
 363              		.cfi_def_cfa_offset 0
 364 0016 7047     		bx	lr
 365              		.cfi_endproc
 366              	.LFE31:
 368              		.section	.text._fstat,"ax",%progbits
 369              		.align	1
 370              		.global	_fstat
 371              		.syntax unified
 372              		.thumb
 373              		.thumb_func
 375              	_fstat:
ARM GAS  /var/folders/06/9k7gq4t13mj84z2yhw3grvhc0000gn/T//ccVqnuzj.s 			page 9


 376              	.LFB32:
  97:Core/Src/syscalls.c **** 
  98:Core/Src/syscalls.c **** 
  99:Core/Src/syscalls.c **** int _fstat(int file, struct stat *st)
 100:Core/Src/syscalls.c **** {
 377              		.loc 1 100 1
 378              		.cfi_startproc
 379              		@ args = 0, pretend = 0, frame = 8
 380              		@ frame_needed = 1, uses_anonymous_args = 0
 381              		@ link register save eliminated.
 382 0000 80B4     		push	{r7}
 383              	.LCFI32:
 384              		.cfi_def_cfa_offset 4
 385              		.cfi_offset 7, -4
 386 0002 83B0     		sub	sp, sp, #12
 387              	.LCFI33:
 388              		.cfi_def_cfa_offset 16
 389 0004 00AF     		add	r7, sp, #0
 390              	.LCFI34:
 391              		.cfi_def_cfa_register 7
 392 0006 7860     		str	r0, [r7, #4]
 393 0008 3960     		str	r1, [r7]
 101:Core/Src/syscalls.c ****   (void)file;
 102:Core/Src/syscalls.c ****   st->st_mode = S_IFCHR;
 394              		.loc 1 102 15
 395 000a 3B68     		ldr	r3, [r7]
 396 000c 4FF40052 		mov	r2, #8192
 397 0010 5A60     		str	r2, [r3, #4]
 103:Core/Src/syscalls.c ****   return 0;
 398              		.loc 1 103 10
 399 0012 0023     		movs	r3, #0
 104:Core/Src/syscalls.c **** }
 400              		.loc 1 104 1
 401 0014 1846     		mov	r0, r3
 402 0016 0C37     		adds	r7, r7, #12
 403              	.LCFI35:
 404              		.cfi_def_cfa_offset 4
 405 0018 BD46     		mov	sp, r7
 406              	.LCFI36:
 407              		.cfi_def_cfa_register 13
 408              		@ sp needed
 409 001a 5DF8047B 		ldr	r7, [sp], #4
 410              	.LCFI37:
 411              		.cfi_restore 7
 412              		.cfi_def_cfa_offset 0
 413 001e 7047     		bx	lr
 414              		.cfi_endproc
 415              	.LFE32:
 417              		.section	.text._isatty,"ax",%progbits
 418              		.align	1
 419              		.global	_isatty
 420              		.syntax unified
 421              		.thumb
 422              		.thumb_func
 424              	_isatty:
 425              	.LFB33:
 105:Core/Src/syscalls.c **** 
ARM GAS  /var/folders/06/9k7gq4t13mj84z2yhw3grvhc0000gn/T//ccVqnuzj.s 			page 10


 106:Core/Src/syscalls.c **** int _isatty(int file)
 107:Core/Src/syscalls.c **** {
 426              		.loc 1 107 1
 427              		.cfi_startproc
 428              		@ args = 0, pretend = 0, frame = 8
 429              		@ frame_needed = 1, uses_anonymous_args = 0
 430              		@ link register save eliminated.
 431 0000 80B4     		push	{r7}
 432              	.LCFI38:
 433              		.cfi_def_cfa_offset 4
 434              		.cfi_offset 7, -4
 435 0002 83B0     		sub	sp, sp, #12
 436              	.LCFI39:
 437              		.cfi_def_cfa_offset 16
 438 0004 00AF     		add	r7, sp, #0
 439              	.LCFI40:
 440              		.cfi_def_cfa_register 7
 441 0006 7860     		str	r0, [r7, #4]
 108:Core/Src/syscalls.c ****   (void)file;
 109:Core/Src/syscalls.c ****   return 1;
 442              		.loc 1 109 10
 443 0008 0123     		movs	r3, #1
 110:Core/Src/syscalls.c **** }
 444              		.loc 1 110 1
 445 000a 1846     		mov	r0, r3
 446 000c 0C37     		adds	r7, r7, #12
 447              	.LCFI41:
 448              		.cfi_def_cfa_offset 4
 449 000e BD46     		mov	sp, r7
 450              	.LCFI42:
 451              		.cfi_def_cfa_register 13
 452              		@ sp needed
 453 0010 5DF8047B 		ldr	r7, [sp], #4
 454              	.LCFI43:
 455              		.cfi_restore 7
 456              		.cfi_def_cfa_offset 0
 457 0014 7047     		bx	lr
 458              		.cfi_endproc
 459              	.LFE33:
 461              		.section	.text._lseek,"ax",%progbits
 462              		.align	1
 463              		.global	_lseek
 464              		.syntax unified
 465              		.thumb
 466              		.thumb_func
 468              	_lseek:
 469              	.LFB34:
 111:Core/Src/syscalls.c **** 
 112:Core/Src/syscalls.c **** int _lseek(int file, int ptr, int dir)
 113:Core/Src/syscalls.c **** {
 470              		.loc 1 113 1
 471              		.cfi_startproc
 472              		@ args = 0, pretend = 0, frame = 16
 473              		@ frame_needed = 1, uses_anonymous_args = 0
 474              		@ link register save eliminated.
 475 0000 80B4     		push	{r7}
 476              	.LCFI44:
ARM GAS  /var/folders/06/9k7gq4t13mj84z2yhw3grvhc0000gn/T//ccVqnuzj.s 			page 11


 477              		.cfi_def_cfa_offset 4
 478              		.cfi_offset 7, -4
 479 0002 85B0     		sub	sp, sp, #20
 480              	.LCFI45:
 481              		.cfi_def_cfa_offset 24
 482 0004 00AF     		add	r7, sp, #0
 483              	.LCFI46:
 484              		.cfi_def_cfa_register 7
 485 0006 F860     		str	r0, [r7, #12]
 486 0008 B960     		str	r1, [r7, #8]
 487 000a 7A60     		str	r2, [r7, #4]
 114:Core/Src/syscalls.c ****   (void)file;
 115:Core/Src/syscalls.c ****   (void)ptr;
 116:Core/Src/syscalls.c ****   (void)dir;
 117:Core/Src/syscalls.c ****   return 0;
 488              		.loc 1 117 10
 489 000c 0023     		movs	r3, #0
 118:Core/Src/syscalls.c **** }
 490              		.loc 1 118 1
 491 000e 1846     		mov	r0, r3
 492 0010 1437     		adds	r7, r7, #20
 493              	.LCFI47:
 494              		.cfi_def_cfa_offset 4
 495 0012 BD46     		mov	sp, r7
 496              	.LCFI48:
 497              		.cfi_def_cfa_register 13
 498              		@ sp needed
 499 0014 5DF8047B 		ldr	r7, [sp], #4
 500              	.LCFI49:
 501              		.cfi_restore 7
 502              		.cfi_def_cfa_offset 0
 503 0018 7047     		bx	lr
 504              		.cfi_endproc
 505              	.LFE34:
 507              		.section	.text._open,"ax",%progbits
 508              		.align	1
 509              		.global	_open
 510              		.syntax unified
 511              		.thumb
 512              		.thumb_func
 514              	_open:
 515              	.LFB35:
 119:Core/Src/syscalls.c **** 
 120:Core/Src/syscalls.c **** int _open(char *path, int flags, ...)
 121:Core/Src/syscalls.c **** {
 516              		.loc 1 121 1
 517              		.cfi_startproc
 518              		@ args = 4, pretend = 12, frame = 8
 519              		@ frame_needed = 1, uses_anonymous_args = 1
 520              		@ link register save eliminated.
 521 0000 0EB4     		push	{r1, r2, r3}
 522              	.LCFI50:
 523              		.cfi_def_cfa_offset 12
 524              		.cfi_offset 1, -12
 525              		.cfi_offset 2, -8
 526              		.cfi_offset 3, -4
 527 0002 80B4     		push	{r7}
ARM GAS  /var/folders/06/9k7gq4t13mj84z2yhw3grvhc0000gn/T//ccVqnuzj.s 			page 12


 528              	.LCFI51:
 529              		.cfi_def_cfa_offset 16
 530              		.cfi_offset 7, -16
 531 0004 82B0     		sub	sp, sp, #8
 532              	.LCFI52:
 533              		.cfi_def_cfa_offset 24
 534 0006 00AF     		add	r7, sp, #0
 535              	.LCFI53:
 536              		.cfi_def_cfa_register 7
 537 0008 7860     		str	r0, [r7, #4]
 122:Core/Src/syscalls.c ****   (void)path;
 123:Core/Src/syscalls.c ****   (void)flags;
 124:Core/Src/syscalls.c ****   /* Pretend like we always fail */
 125:Core/Src/syscalls.c ****   return -1;
 538              		.loc 1 125 10
 539 000a 4FF0FF33 		mov	r3, #-1
 126:Core/Src/syscalls.c **** }
 540              		.loc 1 126 1
 541 000e 1846     		mov	r0, r3
 542 0010 0837     		adds	r7, r7, #8
 543              	.LCFI54:
 544              		.cfi_def_cfa_offset 16
 545 0012 BD46     		mov	sp, r7
 546              	.LCFI55:
 547              		.cfi_def_cfa_register 13
 548              		@ sp needed
 549 0014 5DF8047B 		ldr	r7, [sp], #4
 550              	.LCFI56:
 551              		.cfi_restore 7
 552              		.cfi_def_cfa_offset 12
 553 0018 03B0     		add	sp, sp, #12
 554              	.LCFI57:
 555              		.cfi_restore 3
 556              		.cfi_restore 2
 557              		.cfi_restore 1
 558              		.cfi_def_cfa_offset 0
 559 001a 7047     		bx	lr
 560              		.cfi_endproc
 561              	.LFE35:
 563              		.section	.text._wait,"ax",%progbits
 564              		.align	1
 565              		.global	_wait
 566              		.syntax unified
 567              		.thumb
 568              		.thumb_func
 570              	_wait:
 571              	.LFB36:
 127:Core/Src/syscalls.c **** 
 128:Core/Src/syscalls.c **** int _wait(int *status)
 129:Core/Src/syscalls.c **** {
 572              		.loc 1 129 1
 573              		.cfi_startproc
 574              		@ args = 0, pretend = 0, frame = 8
 575              		@ frame_needed = 1, uses_anonymous_args = 0
 576 0000 80B5     		push	{r7, lr}
 577              	.LCFI58:
 578              		.cfi_def_cfa_offset 8
ARM GAS  /var/folders/06/9k7gq4t13mj84z2yhw3grvhc0000gn/T//ccVqnuzj.s 			page 13


 579              		.cfi_offset 7, -8
 580              		.cfi_offset 14, -4
 581 0002 82B0     		sub	sp, sp, #8
 582              	.LCFI59:
 583              		.cfi_def_cfa_offset 16
 584 0004 00AF     		add	r7, sp, #0
 585              	.LCFI60:
 586              		.cfi_def_cfa_register 7
 587 0006 7860     		str	r0, [r7, #4]
 130:Core/Src/syscalls.c ****   (void)status;
 131:Core/Src/syscalls.c ****   errno = ECHILD;
 588              		.loc 1 131 3
 589 0008 FFF7FEFF 		bl	__errno
 590 000c 0346     		mov	r3, r0
 591              		.loc 1 131 9 discriminator 1
 592 000e 0A22     		movs	r2, #10
 593 0010 1A60     		str	r2, [r3]
 132:Core/Src/syscalls.c ****   return -1;
 594              		.loc 1 132 10
 595 0012 4FF0FF33 		mov	r3, #-1
 133:Core/Src/syscalls.c **** }
 596              		.loc 1 133 1
 597 0016 1846     		mov	r0, r3
 598 0018 0837     		adds	r7, r7, #8
 599              	.LCFI61:
 600              		.cfi_def_cfa_offset 8
 601 001a BD46     		mov	sp, r7
 602              	.LCFI62:
 603              		.cfi_def_cfa_register 13
 604              		@ sp needed
 605 001c 80BD     		pop	{r7, pc}
 606              		.cfi_endproc
 607              	.LFE36:
 609              		.section	.text._unlink,"ax",%progbits
 610              		.align	1
 611              		.global	_unlink
 612              		.syntax unified
 613              		.thumb
 614              		.thumb_func
 616              	_unlink:
 617              	.LFB37:
 134:Core/Src/syscalls.c **** 
 135:Core/Src/syscalls.c **** int _unlink(char *name)
 136:Core/Src/syscalls.c **** {
 618              		.loc 1 136 1
 619              		.cfi_startproc
 620              		@ args = 0, pretend = 0, frame = 8
 621              		@ frame_needed = 1, uses_anonymous_args = 0
 622 0000 80B5     		push	{r7, lr}
 623              	.LCFI63:
 624              		.cfi_def_cfa_offset 8
 625              		.cfi_offset 7, -8
 626              		.cfi_offset 14, -4
 627 0002 82B0     		sub	sp, sp, #8
 628              	.LCFI64:
 629              		.cfi_def_cfa_offset 16
 630 0004 00AF     		add	r7, sp, #0
ARM GAS  /var/folders/06/9k7gq4t13mj84z2yhw3grvhc0000gn/T//ccVqnuzj.s 			page 14


 631              	.LCFI65:
 632              		.cfi_def_cfa_register 7
 633 0006 7860     		str	r0, [r7, #4]
 137:Core/Src/syscalls.c ****   (void)name;
 138:Core/Src/syscalls.c ****   errno = ENOENT;
 634              		.loc 1 138 3
 635 0008 FFF7FEFF 		bl	__errno
 636 000c 0346     		mov	r3, r0
 637              		.loc 1 138 9 discriminator 1
 638 000e 0222     		movs	r2, #2
 639 0010 1A60     		str	r2, [r3]
 139:Core/Src/syscalls.c ****   return -1;
 640              		.loc 1 139 10
 641 0012 4FF0FF33 		mov	r3, #-1
 140:Core/Src/syscalls.c **** }
 642              		.loc 1 140 1
 643 0016 1846     		mov	r0, r3
 644 0018 0837     		adds	r7, r7, #8
 645              	.LCFI66:
 646              		.cfi_def_cfa_offset 8
 647 001a BD46     		mov	sp, r7
 648              	.LCFI67:
 649              		.cfi_def_cfa_register 13
 650              		@ sp needed
 651 001c 80BD     		pop	{r7, pc}
 652              		.cfi_endproc
 653              	.LFE37:
 655              		.section	.text._times,"ax",%progbits
 656              		.align	1
 657              		.global	_times
 658              		.syntax unified
 659              		.thumb
 660              		.thumb_func
 662              	_times:
 663              	.LFB38:
 141:Core/Src/syscalls.c **** 
 142:Core/Src/syscalls.c **** int _times(struct tms *buf)
 143:Core/Src/syscalls.c **** {
 664              		.loc 1 143 1
 665              		.cfi_startproc
 666              		@ args = 0, pretend = 0, frame = 8
 667              		@ frame_needed = 1, uses_anonymous_args = 0
 668              		@ link register save eliminated.
 669 0000 80B4     		push	{r7}
 670              	.LCFI68:
 671              		.cfi_def_cfa_offset 4
 672              		.cfi_offset 7, -4
 673 0002 83B0     		sub	sp, sp, #12
 674              	.LCFI69:
 675              		.cfi_def_cfa_offset 16
 676 0004 00AF     		add	r7, sp, #0
 677              	.LCFI70:
 678              		.cfi_def_cfa_register 7
 679 0006 7860     		str	r0, [r7, #4]
 144:Core/Src/syscalls.c ****   (void)buf;
 145:Core/Src/syscalls.c ****   return -1;
 680              		.loc 1 145 10
ARM GAS  /var/folders/06/9k7gq4t13mj84z2yhw3grvhc0000gn/T//ccVqnuzj.s 			page 15


 681 0008 4FF0FF33 		mov	r3, #-1
 146:Core/Src/syscalls.c **** }
 682              		.loc 1 146 1
 683 000c 1846     		mov	r0, r3
 684 000e 0C37     		adds	r7, r7, #12
 685              	.LCFI71:
 686              		.cfi_def_cfa_offset 4
 687 0010 BD46     		mov	sp, r7
 688              	.LCFI72:
 689              		.cfi_def_cfa_register 13
 690              		@ sp needed
 691 0012 5DF8047B 		ldr	r7, [sp], #4
 692              	.LCFI73:
 693              		.cfi_restore 7
 694              		.cfi_def_cfa_offset 0
 695 0016 7047     		bx	lr
 696              		.cfi_endproc
 697              	.LFE38:
 699              		.section	.text._stat,"ax",%progbits
 700              		.align	1
 701              		.global	_stat
 702              		.syntax unified
 703              		.thumb
 704              		.thumb_func
 706              	_stat:
 707              	.LFB39:
 147:Core/Src/syscalls.c **** 
 148:Core/Src/syscalls.c **** int _stat(char *file, struct stat *st)
 149:Core/Src/syscalls.c **** {
 708              		.loc 1 149 1
 709              		.cfi_startproc
 710              		@ args = 0, pretend = 0, frame = 8
 711              		@ frame_needed = 1, uses_anonymous_args = 0
 712              		@ link register save eliminated.
 713 0000 80B4     		push	{r7}
 714              	.LCFI74:
 715              		.cfi_def_cfa_offset 4
 716              		.cfi_offset 7, -4
 717 0002 83B0     		sub	sp, sp, #12
 718              	.LCFI75:
 719              		.cfi_def_cfa_offset 16
 720 0004 00AF     		add	r7, sp, #0
 721              	.LCFI76:
 722              		.cfi_def_cfa_register 7
 723 0006 7860     		str	r0, [r7, #4]
 724 0008 3960     		str	r1, [r7]
 150:Core/Src/syscalls.c ****   (void)file;
 151:Core/Src/syscalls.c ****   st->st_mode = S_IFCHR;
 725              		.loc 1 151 15
 726 000a 3B68     		ldr	r3, [r7]
 727 000c 4FF40052 		mov	r2, #8192
 728 0010 5A60     		str	r2, [r3, #4]
 152:Core/Src/syscalls.c ****   return 0;
 729              		.loc 1 152 10
 730 0012 0023     		movs	r3, #0
 153:Core/Src/syscalls.c **** }
 731              		.loc 1 153 1
ARM GAS  /var/folders/06/9k7gq4t13mj84z2yhw3grvhc0000gn/T//ccVqnuzj.s 			page 16


 732 0014 1846     		mov	r0, r3
 733 0016 0C37     		adds	r7, r7, #12
 734              	.LCFI77:
 735              		.cfi_def_cfa_offset 4
 736 0018 BD46     		mov	sp, r7
 737              	.LCFI78:
 738              		.cfi_def_cfa_register 13
 739              		@ sp needed
 740 001a 5DF8047B 		ldr	r7, [sp], #4
 741              	.LCFI79:
 742              		.cfi_restore 7
 743              		.cfi_def_cfa_offset 0
 744 001e 7047     		bx	lr
 745              		.cfi_endproc
 746              	.LFE39:
 748              		.section	.text._link,"ax",%progbits
 749              		.align	1
 750              		.global	_link
 751              		.syntax unified
 752              		.thumb
 753              		.thumb_func
 755              	_link:
 756              	.LFB40:
 154:Core/Src/syscalls.c **** 
 155:Core/Src/syscalls.c **** int _link(char *old, char *new)
 156:Core/Src/syscalls.c **** {
 757              		.loc 1 156 1
 758              		.cfi_startproc
 759              		@ args = 0, pretend = 0, frame = 8
 760              		@ frame_needed = 1, uses_anonymous_args = 0
 761 0000 80B5     		push	{r7, lr}
 762              	.LCFI80:
 763              		.cfi_def_cfa_offset 8
 764              		.cfi_offset 7, -8
 765              		.cfi_offset 14, -4
 766 0002 82B0     		sub	sp, sp, #8
 767              	.LCFI81:
 768              		.cfi_def_cfa_offset 16
 769 0004 00AF     		add	r7, sp, #0
 770              	.LCFI82:
 771              		.cfi_def_cfa_register 7
 772 0006 7860     		str	r0, [r7, #4]
 773 0008 3960     		str	r1, [r7]
 157:Core/Src/syscalls.c ****   (void)old;
 158:Core/Src/syscalls.c ****   (void)new;
 159:Core/Src/syscalls.c ****   errno = EMLINK;
 774              		.loc 1 159 3
 775 000a FFF7FEFF 		bl	__errno
 776 000e 0346     		mov	r3, r0
 777              		.loc 1 159 9 discriminator 1
 778 0010 1F22     		movs	r2, #31
 779 0012 1A60     		str	r2, [r3]
 160:Core/Src/syscalls.c ****   return -1;
 780              		.loc 1 160 10
 781 0014 4FF0FF33 		mov	r3, #-1
 161:Core/Src/syscalls.c **** }
 782              		.loc 1 161 1
ARM GAS  /var/folders/06/9k7gq4t13mj84z2yhw3grvhc0000gn/T//ccVqnuzj.s 			page 17


 783 0018 1846     		mov	r0, r3
 784 001a 0837     		adds	r7, r7, #8
 785              	.LCFI83:
 786              		.cfi_def_cfa_offset 8
 787 001c BD46     		mov	sp, r7
 788              	.LCFI84:
 789              		.cfi_def_cfa_register 13
 790              		@ sp needed
 791 001e 80BD     		pop	{r7, pc}
 792              		.cfi_endproc
 793              	.LFE40:
 795              		.section	.text._fork,"ax",%progbits
 796              		.align	1
 797              		.global	_fork
 798              		.syntax unified
 799              		.thumb
 800              		.thumb_func
 802              	_fork:
 803              	.LFB41:
 162:Core/Src/syscalls.c **** 
 163:Core/Src/syscalls.c **** int _fork(void)
 164:Core/Src/syscalls.c **** {
 804              		.loc 1 164 1
 805              		.cfi_startproc
 806              		@ args = 0, pretend = 0, frame = 0
 807              		@ frame_needed = 1, uses_anonymous_args = 0
 808 0000 80B5     		push	{r7, lr}
 809              	.LCFI85:
 810              		.cfi_def_cfa_offset 8
 811              		.cfi_offset 7, -8
 812              		.cfi_offset 14, -4
 813 0002 00AF     		add	r7, sp, #0
 814              	.LCFI86:
 815              		.cfi_def_cfa_register 7
 165:Core/Src/syscalls.c ****   errno = EAGAIN;
 816              		.loc 1 165 3
 817 0004 FFF7FEFF 		bl	__errno
 818 0008 0346     		mov	r3, r0
 819              		.loc 1 165 9 discriminator 1
 820 000a 0B22     		movs	r2, #11
 821 000c 1A60     		str	r2, [r3]
 166:Core/Src/syscalls.c ****   return -1;
 822              		.loc 1 166 10
 823 000e 4FF0FF33 		mov	r3, #-1
 167:Core/Src/syscalls.c **** }
 824              		.loc 1 167 1
 825 0012 1846     		mov	r0, r3
 826 0014 80BD     		pop	{r7, pc}
 827              		.cfi_endproc
 828              	.LFE41:
 830              		.section	.text._execve,"ax",%progbits
 831              		.align	1
 832              		.global	_execve
 833              		.syntax unified
 834              		.thumb
 835              		.thumb_func
 837              	_execve:
ARM GAS  /var/folders/06/9k7gq4t13mj84z2yhw3grvhc0000gn/T//ccVqnuzj.s 			page 18


 838              	.LFB42:
 168:Core/Src/syscalls.c **** 
 169:Core/Src/syscalls.c **** int _execve(char *name, char **argv, char **env)
 170:Core/Src/syscalls.c **** {
 839              		.loc 1 170 1
 840              		.cfi_startproc
 841              		@ args = 0, pretend = 0, frame = 16
 842              		@ frame_needed = 1, uses_anonymous_args = 0
 843 0000 80B5     		push	{r7, lr}
 844              	.LCFI87:
 845              		.cfi_def_cfa_offset 8
 846              		.cfi_offset 7, -8
 847              		.cfi_offset 14, -4
 848 0002 84B0     		sub	sp, sp, #16
 849              	.LCFI88:
 850              		.cfi_def_cfa_offset 24
 851 0004 00AF     		add	r7, sp, #0
 852              	.LCFI89:
 853              		.cfi_def_cfa_register 7
 854 0006 F860     		str	r0, [r7, #12]
 855 0008 B960     		str	r1, [r7, #8]
 856 000a 7A60     		str	r2, [r7, #4]
 171:Core/Src/syscalls.c ****   (void)name;
 172:Core/Src/syscalls.c ****   (void)argv;
 173:Core/Src/syscalls.c ****   (void)env;
 174:Core/Src/syscalls.c ****   errno = ENOMEM;
 857              		.loc 1 174 3
 858 000c FFF7FEFF 		bl	__errno
 859 0010 0346     		mov	r3, r0
 860              		.loc 1 174 9 discriminator 1
 861 0012 0C22     		movs	r2, #12
 862 0014 1A60     		str	r2, [r3]
 175:Core/Src/syscalls.c ****   return -1;
 863              		.loc 1 175 10
 864 0016 4FF0FF33 		mov	r3, #-1
 176:Core/Src/syscalls.c **** }
 865              		.loc 1 176 1
 866 001a 1846     		mov	r0, r3
 867 001c 1037     		adds	r7, r7, #16
 868              	.LCFI90:
 869              		.cfi_def_cfa_offset 8
 870 001e BD46     		mov	sp, r7
 871              	.LCFI91:
 872              		.cfi_def_cfa_register 13
 873              		@ sp needed
 874 0020 80BD     		pop	{r7, pc}
 875              		.cfi_endproc
 876              	.LFE42:
 878              		.weak	__io_putchar
 879              		.weak	__io_getchar
 880              		.text
 881              	.Letext0:
 882              		.file 2 "/Applications/ArmGNUToolchain/13.2.Rel1/arm-none-eabi/arm-none-eabi/include/machine/_defa
 883              		.file 3 "/Applications/ArmGNUToolchain/13.2.Rel1/arm-none-eabi/arm-none-eabi/include/sys/_types.h"
 884              		.file 4 "/Applications/ArmGNUToolchain/13.2.Rel1/arm-none-eabi/arm-none-eabi/include/sys/_timeval.
 885              		.file 5 "/Applications/ArmGNUToolchain/13.2.Rel1/arm-none-eabi/arm-none-eabi/include/sys/_timespec
 886              		.file 6 "/Applications/ArmGNUToolchain/13.2.Rel1/arm-none-eabi/arm-none-eabi/include/sys/types.h"
ARM GAS  /var/folders/06/9k7gq4t13mj84z2yhw3grvhc0000gn/T//ccVqnuzj.s 			page 19


 887              		.file 7 "/Applications/ArmGNUToolchain/13.2.Rel1/arm-none-eabi/arm-none-eabi/include/sys/stat.h"
 888              		.file 8 "/Applications/ArmGNUToolchain/13.2.Rel1/arm-none-eabi/arm-none-eabi/include/sys/times.h"
 889              		.file 9 "/Applications/ArmGNUToolchain/13.2.Rel1/arm-none-eabi/arm-none-eabi/include/sys/errno.h"
ARM GAS  /var/folders/06/9k7gq4t13mj84z2yhw3grvhc0000gn/T//ccVqnuzj.s 			page 20

