ARM GAS  /var/folders/06/9k7gq4t13mj84z2yhw3grvhc0000gn/T//ccLL6D0v.s 			page 1


   1              		.cpu cortex-m4
   2              		.arch armv7e-m
   3              		.fpu fpv4-sp-d16
   4              		.eabi_attribute 27, 1
   5              		.eabi_attribute 28, 1
   6              		.eabi_attribute 20, 1
   7              		.eabi_attribute 21, 1
   8              		.eabi_attribute 23, 3
   9              		.eabi_attribute 24, 1
  10              		.eabi_attribute 25, 1
  11              		.eabi_attribute 26, 1
  12              		.eabi_attribute 30, 6
  13              		.eabi_attribute 34, 1
  14              		.eabi_attribute 18, 4
  15              		.file	"usart.c"
  16              		.text
  17              	.Ltext0:
  18              		.cfi_sections	.debug_frame
  19              		.file 1 "Core/Src/usart.c"
  20              		.global	huart5
  21              		.section	.bss.huart5,"aw",%nobits
  22              		.align	2
  25              	huart5:
  26 0000 00000000 		.space	72
  26      00000000 
  26      00000000 
  26      00000000 
  26      00000000 
  27              		.section	.text.MX_UART5_Init,"ax",%progbits
  28              		.align	1
  29              		.global	MX_UART5_Init
  30              		.syntax unified
  31              		.thumb
  32              		.thumb_func
  34              	MX_UART5_Init:
  35              	.LFB137:
   1:Core/Src/usart.c **** /* USER CODE BEGIN Header */
   2:Core/Src/usart.c **** /**
   3:Core/Src/usart.c ****   ******************************************************************************
   4:Core/Src/usart.c ****   * @file    usart.c
   5:Core/Src/usart.c ****   * @brief   This file provides code for the configuration
   6:Core/Src/usart.c ****   *          of the USART instances.
   7:Core/Src/usart.c ****   ******************************************************************************
   8:Core/Src/usart.c ****   * @attention
   9:Core/Src/usart.c ****   *
  10:Core/Src/usart.c ****   * Copyright (c) 2024 STMicroelectronics.
  11:Core/Src/usart.c ****   * All rights reserved.
  12:Core/Src/usart.c ****   *
  13:Core/Src/usart.c ****   * This software is licensed under terms that can be found in the LICENSE file
  14:Core/Src/usart.c ****   * in the root directory of this software component.
  15:Core/Src/usart.c ****   * If no LICENSE file comes with this software, it is provided AS-IS.
  16:Core/Src/usart.c ****   *
  17:Core/Src/usart.c ****   ******************************************************************************
  18:Core/Src/usart.c ****   */
  19:Core/Src/usart.c **** /* USER CODE END Header */
  20:Core/Src/usart.c **** /* Includes ------------------------------------------------------------------*/
  21:Core/Src/usart.c **** #include "usart.h"
ARM GAS  /var/folders/06/9k7gq4t13mj84z2yhw3grvhc0000gn/T//ccLL6D0v.s 			page 2


  22:Core/Src/usart.c **** 
  23:Core/Src/usart.c **** /* USER CODE BEGIN 0 */
  24:Core/Src/usart.c **** 
  25:Core/Src/usart.c **** /* USER CODE END 0 */
  26:Core/Src/usart.c **** 
  27:Core/Src/usart.c **** UART_HandleTypeDef huart5;
  28:Core/Src/usart.c **** 
  29:Core/Src/usart.c **** /* UART5 init function */
  30:Core/Src/usart.c **** void MX_UART5_Init(void)
  31:Core/Src/usart.c **** {
  36              		.loc 1 31 1
  37              		.cfi_startproc
  38              		@ args = 0, pretend = 0, frame = 0
  39              		@ frame_needed = 1, uses_anonymous_args = 0
  40 0000 80B5     		push	{r7, lr}
  41              	.LCFI0:
  42              		.cfi_def_cfa_offset 8
  43              		.cfi_offset 7, -8
  44              		.cfi_offset 14, -4
  45 0002 00AF     		add	r7, sp, #0
  46              	.LCFI1:
  47              		.cfi_def_cfa_register 7
  32:Core/Src/usart.c **** 
  33:Core/Src/usart.c ****   /* USER CODE BEGIN UART5_Init 0 */
  34:Core/Src/usart.c **** 
  35:Core/Src/usart.c ****   /* USER CODE END UART5_Init 0 */
  36:Core/Src/usart.c **** 
  37:Core/Src/usart.c ****   /* USER CODE BEGIN UART5_Init 1 */
  38:Core/Src/usart.c **** 
  39:Core/Src/usart.c ****   /* USER CODE END UART5_Init 1 */
  40:Core/Src/usart.c ****   huart5.Instance = UART5;
  48              		.loc 1 40 19
  49 0004 114B     		ldr	r3, .L4
  50 0006 124A     		ldr	r2, .L4+4
  51 0008 1A60     		str	r2, [r3]
  41:Core/Src/usart.c ****   huart5.Init.BaudRate = 9600;
  52              		.loc 1 41 24
  53 000a 104B     		ldr	r3, .L4
  54 000c 4FF41652 		mov	r2, #9600
  55 0010 5A60     		str	r2, [r3, #4]
  42:Core/Src/usart.c ****   huart5.Init.WordLength = UART_WORDLENGTH_8B;
  56              		.loc 1 42 26
  57 0012 0E4B     		ldr	r3, .L4
  58 0014 0022     		movs	r2, #0
  59 0016 9A60     		str	r2, [r3, #8]
  43:Core/Src/usart.c ****   huart5.Init.StopBits = UART_STOPBITS_1;
  60              		.loc 1 43 24
  61 0018 0C4B     		ldr	r3, .L4
  62 001a 0022     		movs	r2, #0
  63 001c DA60     		str	r2, [r3, #12]
  44:Core/Src/usart.c ****   huart5.Init.Parity = UART_PARITY_NONE;
  64              		.loc 1 44 22
  65 001e 0B4B     		ldr	r3, .L4
  66 0020 0022     		movs	r2, #0
  67 0022 1A61     		str	r2, [r3, #16]
  45:Core/Src/usart.c ****   huart5.Init.Mode = UART_MODE_TX_RX;
  68              		.loc 1 45 20
ARM GAS  /var/folders/06/9k7gq4t13mj84z2yhw3grvhc0000gn/T//ccLL6D0v.s 			page 3


  69 0024 094B     		ldr	r3, .L4
  70 0026 0C22     		movs	r2, #12
  71 0028 5A61     		str	r2, [r3, #20]
  46:Core/Src/usart.c ****   huart5.Init.HwFlowCtl = UART_HWCONTROL_NONE;
  72              		.loc 1 46 25
  73 002a 084B     		ldr	r3, .L4
  74 002c 0022     		movs	r2, #0
  75 002e 9A61     		str	r2, [r3, #24]
  47:Core/Src/usart.c ****   huart5.Init.OverSampling = UART_OVERSAMPLING_16;
  76              		.loc 1 47 28
  77 0030 064B     		ldr	r3, .L4
  78 0032 0022     		movs	r2, #0
  79 0034 DA61     		str	r2, [r3, #28]
  48:Core/Src/usart.c ****   if (HAL_UART_Init(&huart5) != HAL_OK)
  80              		.loc 1 48 7
  81 0036 0548     		ldr	r0, .L4
  82 0038 FFF7FEFF 		bl	HAL_UART_Init
  83 003c 0346     		mov	r3, r0
  84              		.loc 1 48 6 discriminator 1
  85 003e 002B     		cmp	r3, #0
  86 0040 01D0     		beq	.L3
  49:Core/Src/usart.c ****   {
  50:Core/Src/usart.c ****     Error_Handler();
  87              		.loc 1 50 5
  88 0042 FFF7FEFF 		bl	Error_Handler
  89              	.L3:
  51:Core/Src/usart.c ****   }
  52:Core/Src/usart.c ****   /* USER CODE BEGIN UART5_Init 2 */
  53:Core/Src/usart.c **** 
  54:Core/Src/usart.c ****   /* USER CODE END UART5_Init 2 */
  55:Core/Src/usart.c **** 
  56:Core/Src/usart.c **** }
  90              		.loc 1 56 1
  91 0046 00BF     		nop
  92 0048 80BD     		pop	{r7, pc}
  93              	.L5:
  94 004a 00BF     		.align	2
  95              	.L4:
  96 004c 00000000 		.word	huart5
  97 0050 00500040 		.word	1073762304
  98              		.cfi_endproc
  99              	.LFE137:
 101              		.section	.text.HAL_UART_MspInit,"ax",%progbits
 102              		.align	1
 103              		.global	HAL_UART_MspInit
 104              		.syntax unified
 105              		.thumb
 106              		.thumb_func
 108              	HAL_UART_MspInit:
 109              	.LFB138:
  57:Core/Src/usart.c **** 
  58:Core/Src/usart.c **** void HAL_UART_MspInit(UART_HandleTypeDef* uartHandle)
  59:Core/Src/usart.c **** {
 110              		.loc 1 59 1
 111              		.cfi_startproc
 112              		@ args = 0, pretend = 0, frame = 40
 113              		@ frame_needed = 1, uses_anonymous_args = 0
ARM GAS  /var/folders/06/9k7gq4t13mj84z2yhw3grvhc0000gn/T//ccLL6D0v.s 			page 4


 114 0000 80B5     		push	{r7, lr}
 115              	.LCFI2:
 116              		.cfi_def_cfa_offset 8
 117              		.cfi_offset 7, -8
 118              		.cfi_offset 14, -4
 119 0002 8AB0     		sub	sp, sp, #40
 120              	.LCFI3:
 121              		.cfi_def_cfa_offset 48
 122 0004 00AF     		add	r7, sp, #0
 123              	.LCFI4:
 124              		.cfi_def_cfa_register 7
 125 0006 7860     		str	r0, [r7, #4]
  60:Core/Src/usart.c **** 
  61:Core/Src/usart.c ****   GPIO_InitTypeDef GPIO_InitStruct = {0};
 126              		.loc 1 61 20
 127 0008 07F11403 		add	r3, r7, #20
 128 000c 0022     		movs	r2, #0
 129 000e 1A60     		str	r2, [r3]
 130 0010 5A60     		str	r2, [r3, #4]
 131 0012 9A60     		str	r2, [r3, #8]
 132 0014 DA60     		str	r2, [r3, #12]
 133 0016 1A61     		str	r2, [r3, #16]
  62:Core/Src/usart.c ****   if(uartHandle->Instance==UART5)
 134              		.loc 1 62 16
 135 0018 7B68     		ldr	r3, [r7, #4]
 136 001a 1B68     		ldr	r3, [r3]
 137              		.loc 1 62 5
 138 001c 2C4A     		ldr	r2, .L9
 139 001e 9342     		cmp	r3, r2
 140 0020 52D1     		bne	.L8
 141              	.LBB2:
  63:Core/Src/usart.c ****   {
  64:Core/Src/usart.c ****   /* USER CODE BEGIN UART5_MspInit 0 */
  65:Core/Src/usart.c **** 
  66:Core/Src/usart.c ****   /* USER CODE END UART5_MspInit 0 */
  67:Core/Src/usart.c ****     /* UART5 clock enable */
  68:Core/Src/usart.c ****     __HAL_RCC_UART5_CLK_ENABLE();
 142              		.loc 1 68 5
 143 0022 0023     		movs	r3, #0
 144 0024 3B61     		str	r3, [r7, #16]
 145 0026 2B4B     		ldr	r3, .L9+4
 146 0028 1B6C     		ldr	r3, [r3, #64]
 147 002a 2A4A     		ldr	r2, .L9+4
 148 002c 43F48013 		orr	r3, r3, #1048576
 149 0030 1364     		str	r3, [r2, #64]
 150 0032 284B     		ldr	r3, .L9+4
 151 0034 1B6C     		ldr	r3, [r3, #64]
 152 0036 03F48013 		and	r3, r3, #1048576
 153 003a 3B61     		str	r3, [r7, #16]
 154 003c 3B69     		ldr	r3, [r7, #16]
 155              	.LBE2:
 156              	.LBB3:
  69:Core/Src/usart.c **** 
  70:Core/Src/usart.c ****     __HAL_RCC_GPIOC_CLK_ENABLE();
 157              		.loc 1 70 5
 158 003e 0023     		movs	r3, #0
 159 0040 FB60     		str	r3, [r7, #12]
ARM GAS  /var/folders/06/9k7gq4t13mj84z2yhw3grvhc0000gn/T//ccLL6D0v.s 			page 5


 160 0042 244B     		ldr	r3, .L9+4
 161 0044 1B6B     		ldr	r3, [r3, #48]
 162 0046 234A     		ldr	r2, .L9+4
 163 0048 43F00403 		orr	r3, r3, #4
 164 004c 1363     		str	r3, [r2, #48]
 165 004e 214B     		ldr	r3, .L9+4
 166 0050 1B6B     		ldr	r3, [r3, #48]
 167 0052 03F00403 		and	r3, r3, #4
 168 0056 FB60     		str	r3, [r7, #12]
 169 0058 FB68     		ldr	r3, [r7, #12]
 170              	.LBE3:
 171              	.LBB4:
  71:Core/Src/usart.c ****     __HAL_RCC_GPIOD_CLK_ENABLE();
 172              		.loc 1 71 5
 173 005a 0023     		movs	r3, #0
 174 005c BB60     		str	r3, [r7, #8]
 175 005e 1D4B     		ldr	r3, .L9+4
 176 0060 1B6B     		ldr	r3, [r3, #48]
 177 0062 1C4A     		ldr	r2, .L9+4
 178 0064 43F00803 		orr	r3, r3, #8
 179 0068 1363     		str	r3, [r2, #48]
 180 006a 1A4B     		ldr	r3, .L9+4
 181 006c 1B6B     		ldr	r3, [r3, #48]
 182 006e 03F00803 		and	r3, r3, #8
 183 0072 BB60     		str	r3, [r7, #8]
 184 0074 BB68     		ldr	r3, [r7, #8]
 185              	.LBE4:
  72:Core/Src/usart.c ****     /**UART5 GPIO Configuration
  73:Core/Src/usart.c ****     PC12     ------> UART5_TX
  74:Core/Src/usart.c ****     PD2     ------> UART5_RX
  75:Core/Src/usart.c ****     */
  76:Core/Src/usart.c ****     GPIO_InitStruct.Pin = GPIO_PIN_12;
 186              		.loc 1 76 25
 187 0076 4FF48053 		mov	r3, #4096
 188 007a 7B61     		str	r3, [r7, #20]
  77:Core/Src/usart.c ****     GPIO_InitStruct.Mode = GPIO_MODE_AF_PP;
 189              		.loc 1 77 26
 190 007c 0223     		movs	r3, #2
 191 007e BB61     		str	r3, [r7, #24]
  78:Core/Src/usart.c ****     GPIO_InitStruct.Pull = GPIO_NOPULL;
 192              		.loc 1 78 26
 193 0080 0023     		movs	r3, #0
 194 0082 FB61     		str	r3, [r7, #28]
  79:Core/Src/usart.c ****     GPIO_InitStruct.Speed = GPIO_SPEED_FREQ_VERY_HIGH;
 195              		.loc 1 79 27
 196 0084 0323     		movs	r3, #3
 197 0086 3B62     		str	r3, [r7, #32]
  80:Core/Src/usart.c ****     GPIO_InitStruct.Alternate = GPIO_AF8_UART5;
 198              		.loc 1 80 31
 199 0088 0823     		movs	r3, #8
 200 008a 7B62     		str	r3, [r7, #36]
  81:Core/Src/usart.c ****     HAL_GPIO_Init(GPIOC, &GPIO_InitStruct);
 201              		.loc 1 81 5
 202 008c 07F11403 		add	r3, r7, #20
 203 0090 1946     		mov	r1, r3
 204 0092 1148     		ldr	r0, .L9+8
 205 0094 FFF7FEFF 		bl	HAL_GPIO_Init
ARM GAS  /var/folders/06/9k7gq4t13mj84z2yhw3grvhc0000gn/T//ccLL6D0v.s 			page 6


  82:Core/Src/usart.c **** 
  83:Core/Src/usart.c ****     GPIO_InitStruct.Pin = GPIO_PIN_2;
 206              		.loc 1 83 25
 207 0098 0423     		movs	r3, #4
 208 009a 7B61     		str	r3, [r7, #20]
  84:Core/Src/usart.c ****     GPIO_InitStruct.Mode = GPIO_MODE_AF_PP;
 209              		.loc 1 84 26
 210 009c 0223     		movs	r3, #2
 211 009e BB61     		str	r3, [r7, #24]
  85:Core/Src/usart.c ****     GPIO_InitStruct.Pull = GPIO_NOPULL;
 212              		.loc 1 85 26
 213 00a0 0023     		movs	r3, #0
 214 00a2 FB61     		str	r3, [r7, #28]
  86:Core/Src/usart.c ****     GPIO_InitStruct.Speed = GPIO_SPEED_FREQ_VERY_HIGH;
 215              		.loc 1 86 27
 216 00a4 0323     		movs	r3, #3
 217 00a6 3B62     		str	r3, [r7, #32]
  87:Core/Src/usart.c ****     GPIO_InitStruct.Alternate = GPIO_AF8_UART5;
 218              		.loc 1 87 31
 219 00a8 0823     		movs	r3, #8
 220 00aa 7B62     		str	r3, [r7, #36]
  88:Core/Src/usart.c ****     HAL_GPIO_Init(GPIOD, &GPIO_InitStruct);
 221              		.loc 1 88 5
 222 00ac 07F11403 		add	r3, r7, #20
 223 00b0 1946     		mov	r1, r3
 224 00b2 0A48     		ldr	r0, .L9+12
 225 00b4 FFF7FEFF 		bl	HAL_GPIO_Init
  89:Core/Src/usart.c **** 
  90:Core/Src/usart.c ****     /* UART5 interrupt Init */
  91:Core/Src/usart.c ****     HAL_NVIC_SetPriority(UART5_IRQn, 0, 0);
 226              		.loc 1 91 5
 227 00b8 0022     		movs	r2, #0
 228 00ba 0021     		movs	r1, #0
 229 00bc 3520     		movs	r0, #53
 230 00be FFF7FEFF 		bl	HAL_NVIC_SetPriority
  92:Core/Src/usart.c ****     HAL_NVIC_EnableIRQ(UART5_IRQn);
 231              		.loc 1 92 5
 232 00c2 3520     		movs	r0, #53
 233 00c4 FFF7FEFF 		bl	HAL_NVIC_EnableIRQ
 234              	.L8:
  93:Core/Src/usart.c ****   /* USER CODE BEGIN UART5_MspInit 1 */
  94:Core/Src/usart.c **** 
  95:Core/Src/usart.c ****   /* USER CODE END UART5_MspInit 1 */
  96:Core/Src/usart.c ****   }
  97:Core/Src/usart.c **** }
 235              		.loc 1 97 1
 236 00c8 00BF     		nop
 237 00ca 2837     		adds	r7, r7, #40
 238              	.LCFI5:
 239              		.cfi_def_cfa_offset 8
 240 00cc BD46     		mov	sp, r7
 241              	.LCFI6:
 242              		.cfi_def_cfa_register 13
 243              		@ sp needed
 244 00ce 80BD     		pop	{r7, pc}
 245              	.L10:
 246              		.align	2
ARM GAS  /var/folders/06/9k7gq4t13mj84z2yhw3grvhc0000gn/T//ccLL6D0v.s 			page 7


 247              	.L9:
 248 00d0 00500040 		.word	1073762304
 249 00d4 00380240 		.word	1073887232
 250 00d8 00080240 		.word	1073874944
 251 00dc 000C0240 		.word	1073875968
 252              		.cfi_endproc
 253              	.LFE138:
 255              		.section	.text.HAL_UART_MspDeInit,"ax",%progbits
 256              		.align	1
 257              		.global	HAL_UART_MspDeInit
 258              		.syntax unified
 259              		.thumb
 260              		.thumb_func
 262              	HAL_UART_MspDeInit:
 263              	.LFB139:
  98:Core/Src/usart.c **** 
  99:Core/Src/usart.c **** void HAL_UART_MspDeInit(UART_HandleTypeDef* uartHandle)
 100:Core/Src/usart.c **** {
 264              		.loc 1 100 1
 265              		.cfi_startproc
 266              		@ args = 0, pretend = 0, frame = 8
 267              		@ frame_needed = 1, uses_anonymous_args = 0
 268 0000 80B5     		push	{r7, lr}
 269              	.LCFI7:
 270              		.cfi_def_cfa_offset 8
 271              		.cfi_offset 7, -8
 272              		.cfi_offset 14, -4
 273 0002 82B0     		sub	sp, sp, #8
 274              	.LCFI8:
 275              		.cfi_def_cfa_offset 16
 276 0004 00AF     		add	r7, sp, #0
 277              	.LCFI9:
 278              		.cfi_def_cfa_register 7
 279 0006 7860     		str	r0, [r7, #4]
 101:Core/Src/usart.c **** 
 102:Core/Src/usart.c ****   if(uartHandle->Instance==UART5)
 280              		.loc 1 102 16
 281 0008 7B68     		ldr	r3, [r7, #4]
 282 000a 1B68     		ldr	r3, [r3]
 283              		.loc 1 102 5
 284 000c 0C4A     		ldr	r2, .L14
 285 000e 9342     		cmp	r3, r2
 286 0010 11D1     		bne	.L13
 103:Core/Src/usart.c ****   {
 104:Core/Src/usart.c ****   /* USER CODE BEGIN UART5_MspDeInit 0 */
 105:Core/Src/usart.c **** 
 106:Core/Src/usart.c ****   /* USER CODE END UART5_MspDeInit 0 */
 107:Core/Src/usart.c ****     /* Peripheral clock disable */
 108:Core/Src/usart.c ****     __HAL_RCC_UART5_CLK_DISABLE();
 287              		.loc 1 108 5
 288 0012 0C4B     		ldr	r3, .L14+4
 289 0014 1B6C     		ldr	r3, [r3, #64]
 290 0016 0B4A     		ldr	r2, .L14+4
 291 0018 23F48013 		bic	r3, r3, #1048576
 292 001c 1364     		str	r3, [r2, #64]
 109:Core/Src/usart.c **** 
 110:Core/Src/usart.c ****     /**UART5 GPIO Configuration
ARM GAS  /var/folders/06/9k7gq4t13mj84z2yhw3grvhc0000gn/T//ccLL6D0v.s 			page 8


 111:Core/Src/usart.c ****     PC12     ------> UART5_TX
 112:Core/Src/usart.c ****     PD2     ------> UART5_RX
 113:Core/Src/usart.c ****     */
 114:Core/Src/usart.c ****     HAL_GPIO_DeInit(GPIOC, GPIO_PIN_12);
 293              		.loc 1 114 5
 294 001e 4FF48051 		mov	r1, #4096
 295 0022 0948     		ldr	r0, .L14+8
 296 0024 FFF7FEFF 		bl	HAL_GPIO_DeInit
 115:Core/Src/usart.c **** 
 116:Core/Src/usart.c ****     HAL_GPIO_DeInit(GPIOD, GPIO_PIN_2);
 297              		.loc 1 116 5
 298 0028 0421     		movs	r1, #4
 299 002a 0848     		ldr	r0, .L14+12
 300 002c FFF7FEFF 		bl	HAL_GPIO_DeInit
 117:Core/Src/usart.c **** 
 118:Core/Src/usart.c ****     /* UART5 interrupt Deinit */
 119:Core/Src/usart.c ****     HAL_NVIC_DisableIRQ(UART5_IRQn);
 301              		.loc 1 119 5
 302 0030 3520     		movs	r0, #53
 303 0032 FFF7FEFF 		bl	HAL_NVIC_DisableIRQ
 304              	.L13:
 120:Core/Src/usart.c ****   /* USER CODE BEGIN UART5_MspDeInit 1 */
 121:Core/Src/usart.c **** 
 122:Core/Src/usart.c ****   /* USER CODE END UART5_MspDeInit 1 */
 123:Core/Src/usart.c ****   }
 124:Core/Src/usart.c **** }
 305              		.loc 1 124 1
 306 0036 00BF     		nop
 307 0038 0837     		adds	r7, r7, #8
 308              	.LCFI10:
 309              		.cfi_def_cfa_offset 8
 310 003a BD46     		mov	sp, r7
 311              	.LCFI11:
 312              		.cfi_def_cfa_register 13
 313              		@ sp needed
 314 003c 80BD     		pop	{r7, pc}
 315              	.L15:
 316 003e 00BF     		.align	2
 317              	.L14:
 318 0040 00500040 		.word	1073762304
 319 0044 00380240 		.word	1073887232
 320 0048 00080240 		.word	1073874944
 321 004c 000C0240 		.word	1073875968
 322              		.cfi_endproc
 323              	.LFE139:
 325              		.text
 326              	.Letext0:
 327              		.file 2 "Drivers/CMSIS/Device/ST/STM32F4xx/Include/stm32f429xx.h"
 328              		.file 3 "/Applications/ArmGNUToolchain/13.2.Rel1/arm-none-eabi/arm-none-eabi/include/machine/_defa
 329              		.file 4 "/Applications/ArmGNUToolchain/13.2.Rel1/arm-none-eabi/arm-none-eabi/include/sys/_stdint.h
 330              		.file 5 "Drivers/STM32F4xx_HAL_Driver/Inc/stm32f4xx_hal_def.h"
 331              		.file 6 "Drivers/STM32F4xx_HAL_Driver/Inc/stm32f4xx_hal_gpio.h"
 332              		.file 7 "Drivers/STM32F4xx_HAL_Driver/Inc/stm32f4xx_hal_dma.h"
 333              		.file 8 "Drivers/STM32F4xx_HAL_Driver/Inc/stm32f4xx_hal_uart.h"
 334              		.file 9 "Drivers/STM32F4xx_HAL_Driver/Inc/stm32f4xx_hal_cortex.h"
 335              		.file 10 "Core/Inc/usart.h"
 336              		.file 11 "Core/Inc/main.h"
ARM GAS  /var/folders/06/9k7gq4t13mj84z2yhw3grvhc0000gn/T//ccLL6D0v.s 			page 9


ARM GAS  /var/folders/06/9k7gq4t13mj84z2yhw3grvhc0000gn/T//ccLL6D0v.s 			page 10

